(lp1
Vhttp://www.ebay.com/itm/ZERO-Misled-Youth-Skateboard-T-Shirt-Black-S-M-L-XL-Classic-Tee-/192172844858?var=&epid=826525854&hash=item2cbe64e73a:m:mXfqnnsAzEJduNZU0GinQJg
p2
aVhttp://www.ebay.com/itm/Zero-King-Size-Slim-Transparent-Rolling-Papers-1-Booklets-Kingsize-Paper-Set-/152580825580?epid=8002853741&hash=item238686a1ec:g:Yf8AAOSwqBJXXIPV
p3
aVhttp://www.ebay.com/itm/Horizon-Zero-Dawn-Standard-Edition-PS4-/381953489618?epid=547403339&hash=item58ee33bad2:g:NsIAAOSwSypY9cP4
p4
aVhttp://www.ebay.com/itm/Grey-Nintendo-Game-Boy-Classic-Original-DMG-01-Housing-Zero-Casing-Complete-/282467971532?hash=item41c46731cc:g:NPwAAOSwi7RZEOIj
p5
aVhttp://www.ebay.com/itm/Raspberry-Pi-Zero-W-Wireless-Zero-Essentials-Kit-/232255509808?hash=item361381d530:g:4B4AAOSwSlBYtT0T
p6
aVhttp://www.ebay.com/itm/Zero-Seven-Navy-Suede-T-Shirt-Free-Next-Day-Delivery-/232234357854?var=&epid=1382732199&hash=item36123f145e:m:mXLxKOdPzHBflqt4PpKVuoA
p7
aVhttp://www.ebay.com/itm/Scott-Pilgrim-inspired-ZERO-T-Shirt-Ringer-style-tee-/281748145386?var=&hash=item41997f84ea:m:mn-5S8aGoPLUTE_N7icnllg
p8
aVhttp://www.ebay.com/itm/Zero-T-Shirt-Classic-Smashing-Pumpkins-Grunge-Style-/252806535656?var=&hash=item3adc7199e8:m:mY7u17x35Qs7HqK9VmELyXw
p9
aVhttp://www.ebay.com/itm/Kaizou-Choujin-Shubibinman-Zero-Super-Famicom-Japan-New-QUALITY-UK-Same-Day-Ship-/272759376448?epid=22004547962&hash=item3f81b9ca40:g:QZMAAOSwjk9ZWnZW
p10
aVhttp://www.ebay.com/itm/wii-RESIDENT-EVIL-Games-Archives-1-Zero-4-Umbrella-Darkside-Chronicles-PAL-/161865935040?hash=item25aff628c0:g:lM4AAOSwnDZULrhk
p11
aVhttp://www.ebay.com/itm/NEW-Bleach-anime-Kurosaki-Ichigo-7-PVC-Figure-Figuarts-Zero-New-in-box-/222116409245?epid=580123700&hash=item33b72b6f9d:m:m2QLcM7E7yVy4O03IbcfAYw
p12
aVhttp://www.ebay.com/itm/NEUROSIS-EYE-OF-EVERY-STORM-TOUR-HOODIE-1-XL-NEW-OFFICIAL-METAL-SOULS-AT-ZERO-/361774580452?hash=item543b7202e4:m:mavtYbwwEBJBkzGBh09DM9w
p13
aVhttp://www.ebay.com/itm/Horizon-Zero-Dawn-T-SHIRT-/262840715576?var=&hash=item3d32870938:m:mbIlaDnRGbGtDB_zUCzUnZQ
p14
aVhttp://www.ebay.com/itm/Athletic-Vest-with-Black-NINE-INCH-NAILS-Logo-NIN-Year-Zero-Trent-Hoody-/142031128072?var=&hash=item2111b70608:m:mBUQ80w8YePdqlNs4BlFBmQ
p15
aVhttp://www.ebay.com/itm/Vita-Steins-Gate-Zero-Vita-GAME-NEW-/302373095960?hash=item4666d74a18:g:wRMAAOSwstJZW8tY
p16
aVhttp://www.ebay.com/itm/Zero-Escape-The-Nonary-Games-PS4-Brand-New-/371949580013?epid=696649946&hash=item5699ec2eed:g:6IwAAOSwcaFZF4Io
p17
aVhttp://www.ebay.com/itm/WALTER-MARK-IT-ZERO-THE-BIG-LEBOWSKI-UNOFFICIAL-T-SHIRT-MENS-LADIES-KIDS-SIZES-/111595907392?var=&hash=item19fba26940:m:my2da4K2zMrtx8AYVgupWAQ
p18
aVhttp://www.ebay.com/itm/Rockman-Zero-2-Game-Boy-Advance-Japan-Megaman-BRAND-NEW-1-game-from-box-of-20-/272523359675?hash=item3f73a875bb:g:pdgAAOSwLnlWplj2
p19
aVhttp://www.ebay.com/itm/Raspberry-Pi-Zero-W-Wireless-Official-Case-/332140797075?epid=591776219&hash=item4d55225c93:g:QiwAAOSw3v5YtT0Q
p20
aVhttp://www.ebay.com/itm/Steins-Gate-Zero-Limited-Edition-PS4-Game-GAME-NEW-/352113288790?epid=883039004&hash=item51fb966656:g:5PEAAOSwpINZZ-ST
p21
aVhttp://www.ebay.com/itm/Grey-Hoodie-with-Black-NINE-INCH-NAILS-Logo-NIN-Year-Zero-Trent-Hoody-/131854095104?var=&hash=item1eb31dd300:m:m3DgNmU-dZv-WYXIUg1y9CQ
p22
aVhttp://www.ebay.com/itm/Vita-Steins-Gate-Zero-Vita-GAME-NEW-/302373095960?hash=item4666d74a18:g:wRMAAOSwstJZW8tY
p23
aVhttp://www.ebay.com/itm/Zero-Skateboards-Skull-Skateboard-Sticker-/161806238289?hash=item25ac674251:g:f34AAOSwyQtV3dNJ
p24
aVhttp://www.ebay.com/itm/Long-Sleeve-Baseball-T-Shirt-with-NINE-INCH-NAILS-DESIGN-NIN-Year-Zero-Trent-/142021869140?var=&hash=item211129be54:m:mKKz4jNFQOUj8hPM6y8nPng
p25
aVhttp://www.ebay.com/itm/Re-Zero-Key-Art-Poster-61x91-5cm-/142445467299?var=&epid=760048594&hash=item212a6956a3:m:mu0T2uwGGeve2b-3_S5OJ0A
p26
aVhttp://www.ebay.com/itm/Horizon-Zero-Dawn-Colore-Art-Promorional-Carte-Collection-Nuovo-/361997811923?hash=item5448c040d3:g:BUoAAOSw4CFYvqtg
p27
aVhttp://www.ebay.com/itm/Re-Life-in-a-different-world-from-zero-Ram-Rem-Anime-Cosplay-Costumes-Dress-/322446773442?var=&hash=item4b13534cc2:m:mGRObigOk0UzB66kSrdYy-Q
p28
aVhttp://www.ebay.com/itm/Zero-Friction-Performance-Golf-Glove-Right-Hand-For-LEFT-Handed-Golfers-New-/181944041386?var=&epid=1743442665&hash=item2a5cb5bfaa:m:mA6MeasDTOqbXuOloyEaTDQ
p29
aVhttp://www.ebay.com/itm/Steins-Gate-Zero-Limited-Edition-w-Artbook-PS4-Brand-New-Sealed-Anime-/232032765531?epid=604823549&hash=item36063b065b:g:4MYAAOSwUKxYcl9Z
p30
aVhttp://www.ebay.com/itm/Steins-Gate-Zero-PS-Vita-Game-/201776541057?hash=item2efad1ad81:g:vX4AAOSwXXxZQF3u
p31
aVhttp://www.ebay.com/itm/Mind-Zero-PS-Vita-Game-Brand-New-/292096645973?hash=item4402511b55:g:bbgAAOSwRXRZRji2
p32
aVhttp://www.ebay.com/itm/Re-Zero-Official-Sega-Ram-Anime-Figure-UK-LIMITED-STOCK-/152524484905?hash=item23832af129:g:WCAAAOSwmCVY~2n-
p33
aVhttp://www.ebay.com/itm/wii-PROJECT-ZERO-2-Wii-Edition-Survival-Horror-Game-Nintendo-PAL-ENGLISH-Version-/141882371736?epid=1126351936&hash=item2108d92e98:g:xlcAAOSwqYBWn5h8
p34
aVhttp://www.ebay.com/itm/Call-Of-Duty-Advanced-Warfare-Day-Zero-Edition-PS3-Game-Brand-New-/371970109526?epid=1839168124&hash=item569b257056:g:ddkAAOSwlndZMaAc
p35
aVhttp://www.ebay.com/itm/YuGiOh-Zero-Gravity-BP02-EN178-Mosaic-Rare-1st-Edition-/261278063910?hash=item3cd562dd26:g:dr0AAOxyi3FRzxu2
p36
aVhttp://www.ebay.com/itm/Mens-Zero-scott-pilgrim-Symbol-ringer-contrast-T-shirt-NEW-S-XXL-/201664454346?var=&hash=item2ef4235eca:m:mXdNg2DifppPEGjeTwUYnlw
p37
aVhttp://www.ebay.com/itm/NINE-BELOW-ZERO-LIVE-AT-THE-MARQUEE-CD-AND-DVD-2-DISC-ROCK-2012-NEW-/381919400849?epid=1604963517&hash=item58ec2b9391:g:a~AAAOSwstxU8gst
p38
aVhttp://www.ebay.com/itm/WATCH-DOGS-ZERO-OFFICIAL-MENS-T-SHIRT-/171743386707?var=&hash=item27fcb41c53:m:m_MHPnNsjkOubTDbv80c6bA
p39
aVhttp://www.ebay.com/itm/Steins-Gate-Zero-PlayStation-Vita-New-Game-/391626699718?hash=item5b2ec533c6:g:HhUAAOSwCU1Y4ghT
p40
aVhttp://www.ebay.com/itm/Mens-100-Cotton-Point-Zero-Checked-Shirt-Detachable-Hood-Top-Size-S-XXL-RRP-60-/172444818588?var=&epid=2105652653&hash=item2826831c9c:m:m7XPtGE1bL9rnRqt9rAAwOg
p41
aVhttp://www.ebay.com/itm/Mens-100-Cotone-Point-Zero-Camicia-A-Quadri-Cappuccio-Staccabile-Maglia-/172452672664?var=&hash=item2826faf498:m:mtZ-SPV_nJtK0TTrzuaBiTg
p42
aVhttp://www.ebay.com/itm/Mortal-Kombat-T-Shirt-Sub-Zero-T-Shirt-Inspired-Design-Top-/172351316645?var=&hash=item2820f062a5:m:mtodPFRxz6HCHuq2K3dS3aw
p43
aVhttp://www.ebay.com/itm/Mark-it-Zero-T-Shirt-Funny-t-shirt-retro-big-movie-fashion-lebowski-weed-joke-/272012010879?var=&hash=item3f552de57f:m:mIzITJ502LOwt28e-yycjfA
p44
aVhttp://www.ebay.com/itm/Mens-Point-Zero-100-Cotton-Shirt-Checked-Detachable-Hood-Top-Size-S-XXL-RRP-60-/122269354482?var=&epid=2105654413&hash=item1c77d249f2:m:mqlcIzFKfz-ZfLCDL8aI0-A
p45
aVhttp://www.ebay.com/itm/Figuarts-Zero-Trafalgar-Law-Battle-Ver-Figure-/131719796128?hash=item1eab1c95a0:g:1kQAAOSwFqJWrOZo
p46
aVhttp://www.ebay.com/itm/HOOK-UPS-JK-INDUSTRIES-ZERO-SUIT-8-25-SKATE-SKATEBOARD-NEW-METROID-NINTENDO-/201921603447?hash=item2f03772777:g:K5IAAOSwhvFZFGbN
p47
aVhttp://www.ebay.com/itm/YU-GI-OH-ZERO-GRAVITY-SHATTER-FOIL-RARE-BP03-EN197-1st-EDITION-/321478083469?epid=1131491987&hash=item4ad996438d:g:j~EAAOSwEK9T2S3A
p48
aVhttp://www.ebay.com/itm/Zero-Limits-100-Carbon-Fibre-Bicycle-Water-Bottle-Holder-1-/121337998881?hash=item1c404eee21:g:DyEAAOxyOalTbOjF
p49
aVhttp://www.ebay.com/itm/Steins-Gate-Zero-Limited-Edition-PS4-Game-Brand-New-/371948005549?epid=570784296&hash=item5699d428ad:g:nFgAAOSwX61ZFXrm
p50
aVhttp://www.ebay.com/itm/ZERO-SKATEBOARDS-Skull-Skateboard-Snowboard-Surfboard-Sticker-Decal-10cm-/172398326947?epid=1266296822&hash=item2823bdb4a3:g:LCYAAOSwV-RXFCP2
p51
aVhttp://www.ebay.com/itm/NEW-Red-Magic-Circle-Pattern-Round-Area-Rug-Anime-Fate-Stay-Night-Zero-Home-Deco-/322243579026?epid=580041418&hash=item4b0736cc92:g:vY8AAOSw0gdXS7t-
p52
aVhttp://www.ebay.com/itm/Mens-100-Cotton-Point-Zero-Checked-Shirt-Casual-Long-Sleeve-Top-Size-S-XL-/182479381082?var=&hash=item2a7c9e625a:m:mgHSGB0TmhoJXH5bswjJ3yw
p53
aVhttp://www.ebay.com/itm/Star-Fox-Zero-0-Nintendo-WiiU-NEW-SEALED-/182065735126?epid=1933713790&hash=item2a63f6a5d6:g:5igAAOSwgk1XF02y
p54
aVhttp://www.ebay.com/itm/Horizon-Zero-Dawn-PS4-Game-Brand-New-/352039446293?epid=547403339&hash=item51f72fa715:g:IS4AAOSwdjNZBtVv
p55
aVhttp://www.ebay.com/itm/Horizon-Zero-Dawn-PS4-Game-/201838517576?hash=item2efe835d48:g:x0MAAOSwmgJY5q4j
p56
aVhttp://www.ebay.com/itm/Long-Sleeve-Black-T-Shirt-with-White-NINE-INCH-NAILS-DESIGN-NIN-Year-Zero-Tren-/131844948360?var=&hash=item1eb2924188:m:m9v5g4RfuGoqvM7xPNJTQug
p57
aVhttp://www.ebay.com/itm/Baseball-Short-Sleeve-T-Shirt-with-NINE-INCH-NAILS-DESIGN-NIN-Year-Zero-Trent-/142022063265?var=&hash=item21112cb4a1:m:m0azTBV6rLJ2bAwAHjAMgzA
p58
aVhttp://www.ebay.com/itm/wii-u-STAR-FOX-ZERO-STEELBOOK-CASE-Brand-New-No-Game-Starfox-/371609286362?hash=item5685a3b6da:g:R2YAAOSwU0RXHiaJ
p59
aVhttp://www.ebay.com/itm/Zero-Escape-The-Nonary-Games-PS4-US-Version-New-Game-/391739642596?epid=696649946&hash=item5b358092e4:g:JuAAAOSwhQhY3P0g
p60
aVhttp://www.ebay.com/itm/White-Zero-Fox-Given-T-shirt-Funny-Novelty-/332013771224?var=&hash=item4d4d9019d8:m:mQsZHEH7nLqkTChCHoW_Faw
p61
aVhttp://www.ebay.com/itm/2x-Black-Textoline-Zero-Gravity-Reclining-Garden-Sun-Lounger-Deluxe-Garden-Chair-/282456929898?hash=item41c3beb66a:g:OawAAOSwX61ZIuvm
p62
aVhttp://www.ebay.com/itm/Dissident-Mens-T-Shirt-Zero-Hour-Short-Sleeved-Airplane-Print-/361153202470?var=&epid=1040742775&hash=item5416688926:m:m18Gz6SM8JYt8PcvVur1hjg
p63
aVhttp://www.ebay.com/itm/4-x-Zero-Travel-5-in-1-Personal-door-bag-box-bike-alarm-batteries-included-/111482700383?hash=item19f4e3025f:g:-qUAAOSwNSxU0OPg
p64
aVhttp://www.ebay.com/itm/Nike-Air-Max-Zero-Essential-876070-006-Black-Trainers-Brand-New-In-Box-/152544068425?var=&epid=698922413&hash=item238455c349:m:mQCxeChONkQCuaKCDuLNf-w
p65
aVhttp://www.ebay.com/itm/Horizon-Zero-Dawn-PS4-New-Game-/391699116113?epid=1887951874&hash=item5b33163051:g:GfYAAOSwCU1Y4jTT
p66
aVhttp://www.ebay.com/itm/Zero-Cleansing-Gel-Natural-Blue-Clay-Jasmine-/252586663283?epid=1794667526&hash=item3acf569d73:g:srIAAOSwAO9ZPT6z
p67
aVhttp://www.ebay.com/itm/BUNDLE-of-RARE-COLLECTABLE-Xbox-360-Games-Call-of-Duty-Set-2-/262981504044?var=&epid=1927708631&hash=item3d3aeb4c2c:m:mmLgIcw9XJrFFUUmFs0z0Lg
p68
aVhttp://www.ebay.com/itm/NEW-MORTAL-COMBAT-MKX-HD-T-SHIRT-SCORPION-SUB-ZERO-KAHN-ERMAC-RAIDEN-POLYESTER-/251902104555?var=&hash=item3aa68913eb:m:m9DTRBBd0yxECdauWtjH2Zg
p69
aVhttp://www.ebay.com/itm/Call-of-Duty-Advanced-Warfare-Day-Zero-Edition-360-New-Sealed-UK-Stock-/302234222297?epid=210663141&hash=item465e903ed9:g:vlgAAOSw4CFYsF4~
p70
a.