(lp1
Vhttp://www.ebay.com/itm/007-JAMES-BOND-ROGER-MOORE-SHAKEN-NOT-STIRRED-POSTER-Art-Print-Photo-A3-A4-/122499207197?var=&hash=item1c8585901d:m:mMaWrmnsJ3naD7tYI6U6sPQ
p2
aVhttp://www.ebay.com/itm/007-JAMES-BOND-ROGER-MOORE-SHAKEN-NOT-STIRRED-GIANT-WALL-ART-PHOTO-PRINT-POSTER-/263000374424?epid=908549089&hash=item3d3c0b3c98:g:JQEAAOSwYlRZJKHN
p3
aVhttp://www.ebay.com/itm/The-Do-Shake-Shook-Shaken-Vinyl-12-Album-with-CD-NEW-/302172778621?epid=1533805951&hash=item465ae6b07d:g:X1sAAOSw241YWnm8
p4
aVhttp://www.ebay.com/itm/007-James-Bond-Roger-Moore-Shaken-not-Stirred-Art-Canvas-Movie-Poster-Print-/251967044020?var=&hash=item3aaa67f9b4:m:mVyUC5MiaswMZGqPZJdhf_w
p5
aVhttp://www.ebay.com/itm/Personalised-James-Bond-Cocktail-Martini-Glass-Shaken-not-Stirred-Gift-Boxed-/171994502054?hash=item280babd3a6:m:m1sL5GIJ1Y77XBBETPhKWTw
p6
aVhttp://www.ebay.com/itm/Do-The-Shake-Shook-Shaken-Box-Set-CD-Boxset-NEW-/401311726407?hash=item5d700afb47:g:sCMAAOSwSypY-U3n
p7
aVhttp://www.ebay.com/itm/Matt-Redman-We-Shall-Not-Be-Shaken-CD-New-/222146374791?epid=78983272&hash=item33b8f4ac87:g:XQkAAOSwLnBXWFi1
p8
aVhttp://www.ebay.com/itm/Japanese-Shaken-MOT-test-Import-Sticker-JDM-Decal-Japan-Kyusha-Rare-Rajikaru-/201981226766?hash=item2f0704ef0e:g:pj8AAOSwIaFZJdJb
p9
aVhttp://www.ebay.com/itm/Bethel-Music-We-Will-Not-Be-Shaken-NEW-CD-/391094345460?epid=1337400185&hash=item5b0f0a1ef4:g:OU4AAOSwBahVEo-j
p10
aVhttp://www.ebay.com/itm/KNIFE-The-Shaken-Up-Versions-CD-/400821013722?epid=1537025195&hash=item5d52cb4cda:g:XboAAOSwqVBZYbTk
p11
aVhttp://www.ebay.com/itm/Various-Artists-Soundtrack-Shaken-Not-Stirred-CD-ALBUM-/400805135563?hash=item5d51d904cb:g:uVoAAOSw5dNWpk88
p12
aVhttp://www.ebay.com/itm/SHAKEN-NOT-STIRRED-NAVY-TEX-EX-1461-SOFT-COTTON-LAWN-DRESSMAKING-FABRIC-MARTINI-/182475170710?hash=item2a7c5e2396:g:7BkAAOSw4CFYuU9T
p13
aVhttp://www.ebay.com/itm/Robert-Plant-Shaken-N-Stirred-NEW-CD-/391444932326?epid=59437195&hash=item5b23efa6e6:g:HeMAAOSwdGxXIxMR
p14
aVhttp://www.ebay.com/itm/007-JAMES-BOND-ROGER-MOORE-SHAKEN-NOT-STIRRED-CANVAS-Photo-Print-Art-30x20-/122510153650?hash=item1c862c97b2:g:6ckAAOSwY3BZIwgy
p15
aVhttp://www.ebay.com/itm/Wolfpak-Decals-72-094-Shaken-Stirred-Cessna-Dragonfly-Lockeed-Raptor-MQ-reaper-/201777697518?epid=737105845&hash=item2efae352ee:g:HnoAAOSwEzxYcmg~
p16
aVhttp://www.ebay.com/itm/The-Do-Shake-Shook-Shaken-Vinyl-12-Album-with-CD-NEU-/351938563875?hash=item51f12c4f23:g:EZ4AAOSwA3dYWm-0
p17
aVhttp://www.ebay.com/itm/Bethel-We-Will-Not-Be-Shaken-Deluxe-Edition-NEW-CD-DVD-/311325326901?epid=1037393290&hash=item487c6f7e35:g:0UcAAOSwrklVEo-s
p18
aVhttp://www.ebay.com/itm/Shaken-But-Not-Stirred-Keith-Chegwin-/372008038098?epid=88751398&hash=item569d682ed2:g:CkUAAOSwlXhZYpMV
p19
aVhttp://www.ebay.com/itm/Shaken-and-Stirred-The-David-Arnold-James-Bond-Project-James-Bond-Films-Relat-/382022470667?epid=4016964&hash=item58f2504c0b:m:me628l54pv7wj4m46CxBjwA
p20
aVhttp://www.ebay.com/itm/Shaken-But-Not-Stirred-Keith-Chegwin-/372008038098?epid=88751398&hash=item569d682ed2:g:CkUAAOSwlXhZYpMV
p21
aVhttp://www.ebay.com/itm/When-Faith-Gets-Shaken-Dvd-5027957001633-/391722520400?epid=1577311600&hash=item5b347b4f50:g:rUoAAOSwqfNXiIpK
p22
aVhttp://www.ebay.com/itm/Stirred-But-Not-Shaken-The-Autobiography-Keith-Floyd-0283071052-/191284282366?epid=89114961&hash=item2c896e83fe:g:RMIAAOxy4YdTS5o6
p23
aVhttp://www.ebay.com/itm/Various-Artists-Shaken-Not-Stirred-The-Essential-James-Bond-CD-/252192484869?epid=52511424&hash=item3ab7d7ee05:m:mwRj0Y0GZxe6ThlTXyjm5Bg
p24
aVhttp://www.ebay.com/itm/Dapper-Chap-Shaken-Not-Stirred-Cocktail-Shaker-with-Spirit-Measure-/401228450823?epid=2073229251&hash=item5d6b144c07:g:6okAAOSw0hlZEOpI
p25
aVhttp://www.ebay.com/itm/Dapper-Chap-Shaken-Not-Stirred-Cocktail-Shaker-with-Spirit-Measure-/401228450823?epid=2073229251&hash=item5d6b144c07:g:6okAAOSw0hlZEOpI
p26
aVhttp://www.ebay.com/itm/Classic-Pin-Up-Fabric-Cushion-Upholstery-Craft-Panel-/162162725992?var=&hash=item25c1a6d468:m:mihIFVIq-LgiLK69UM2q6Yg
p27
aVhttp://www.ebay.com/itm/Various-Artists-Shaken-Not-Stirred-The-Essential-James-Bond-CD-/252192484869?epid=52511424&hash=item3ab7d7ee05:m:mwRj0Y0GZxe6ThlTXyjm5Bg
p28
aVhttp://www.ebay.com/itm/New-Mens-Firetrap-Shaken-Zip-Button-Up-Sweater-Jumper-Size-S-Ecru-/162278447781?hash=item25c88c9aa5:g:1vwAAOSwdIFX2BoE
p29
aVhttp://www.ebay.com/itm/Shaken-Not-Stirred-Personalised-Apron-and-Chefs-Hat-Lovely-Christmas-GIFT-BBQ-/261324115521?var=&hash=item3cd8218e41:m:m1Sz0S8-wLM08wZMIygKwcQ
p30
aVhttp://www.ebay.com/itm/Shaken-Not-Stirred-CUFFLINKS-Cocktail-Bartender-Mixologist-Martini-Birthday-Gift-/121930663390?epid=1689118293&hash=item1c63a245de:g:JfkAAOSwwpdW7tNd
p31
aVhttp://www.ebay.com/itm/Cocktails-Shaken-Stirred-Douglas-Ankrah-/371516597628?epid=91905941&hash=item56801d657c:g:95gAAOSwJcZWfHqp
p32
aVhttp://www.ebay.com/itm/Shaken-but-not-stirred-Blue-Cocktail-Drink-Large-Cotton-Tea-Towel-/331906766990?epid=1877003738&hash=item4d472f588e:g:jcYAAOSw0kNXhOrQ
p33
aVhttp://www.ebay.com/itm/KEEP-CALM-AND-HAVE-A-VODKA-MARTINI-Shaken-not-Stirred-of-course-FRIDGE-MAGNET-/221150483745?epid=1807863133&hash=item337d989521:g:a5oAAOSwU9xURQ30
p34
a.