(lp1
Vhttp://www.ebay.com/itm/Banpresto-Dragon-Ball-Z-ADVERGE-Vol-2-All-5-type-set-/132145162863?hash=item1ec4772a6f:g:~XcAAOSwB-1Y37EO
p2
aVhttp://www.ebay.com/itm/Dragon-Ball-ADVERGE-Figures-All-5-type-set-/132111091043?hash=item1ec26f4563:g:RZsAAOSwSlBYtbXx
p3
aVhttp://www.ebay.com/itm/BK-171-CENTRE-CAPS-BMW-ALPINA-TYPE-SET-OF-FOUR-/222522618032?epid=1733845923&hash=item33cf61b0b0:g:kocAAOxyjxlTNVS1
p4
a.