(lp1
Vhttp://www.ebay.com/itm/Patricia-Arquette-Joely-Fisher-PRETTY-SMART-1987-Eighties-Teem-Comedy-UK-DVD-/222048147397?epid=47913143&hash=item33b319d7c5:g:hvoAAOSw2gxYttMF
p2
aVhttp://www.ebay.com/itm/Dreem-Teem-in-Session-Volume-2-Dreem-Teem-and-Various-Artists-1997-CD-/381049812019?hash=item58b856b433:g:x3QAAOSwqrtWojlA
p3
aVhttp://www.ebay.com/itm/DREEM-TEEM-IN-SESSION-VOL-2-1-X-CD-UK-GARAGE-UKG-OLDSKOOL-CDJ-CD-KISSTORY-DJ-/151490556222?epid=861020796&hash=item23458a713e:g:0OsAAOSwQJhUdK-r
p4
aVhttp://www.ebay.com/itm/THE-LONDON-DREEM-TEEM-IN-SESSION-1-X-CD-MIXED-UK-GARAGE-US-HOUSE-CDJ-DJ-/162158333846?hash=item25c163cf96:g:9cAAAOSwa-dWjTNU
p5
aVhttp://www.ebay.com/itm/THE-DREEM-TEEM-IN-SESSION-2-X-CDS-MIXED-OLDSKOOL-UK-GARAGE-US-HOUSE-CDJ-DJ-/151939673414?epid=923503805&hash=item23604f6d46:g:fHMAAOSwJkJWi8zU
p6
aVhttp://www.ebay.com/itm/AGIA-NAPA-FANTASY-ISLAND-2-X-MIXED-CDS-UK-GARAGE-CDJ-DJ-SPOONY-DREEM-TEEM-CD-/151090940816?epid=860938626&hash=item232db8cb90:g:XNAAAOSwdpxUV3Cz
p7
aVhttp://www.ebay.com/itm/INCREDIBLE-SOUND-OF-THE-DREEM-TEEM-2-X-CDS-UK-SPEED-GARAGE-U-S-HOUSE-CDJ-DJ-/161225239236?hash=item2589c5eac4:g:y8UAAOxywh1S~hvr
p8
aVhttp://www.ebay.com/itm/Dreem-Teem-It-Aint-Enough-CD-/291479523770?epid=1207701827&hash=item43dd8891ba:g:FrgAAOSwrklVamBd
p9
aVhttp://www.ebay.com/itm/Dreem-Teem-The-Theme-CD-/381396926215?epid=1805546554&hash=item58cd073f07:g:xxMAAOSw4SlV8e4W
p10
aVhttp://www.ebay.com/itm/Teem-Mixed-By-Dreem-The-Dreem-Teem-in-S-Teem-Mixed-By-Dreem-CD-EUVG-/301580323636?epid=1104950176&hash=item4637968b34:g:ZBAAAOSwCkZZQoXo
p11
aVhttp://www.ebay.com/itm/Various-Artists-Dreem-Teem-in-Session-Volume-2-CD-/380951873471?epid=1405010626&hash=item58b28047bf:g:NycAAOSwGotWrCJU
p12
aVhttp://www.ebay.com/itm/Teem-Mixed-By-Dreem-The-Dreem-Teem-in-Session-UK-Garage-Pas-CD-/301243090819?epid=1104950176&hash=item46237cc783:g:f7MAAOSwpdpVetiX
p13
a.