(lp1
Vhttp://www.ebay.com/itm/Karcher-WV5-Premium-Non-Stop-Window-Vacuum-Cleaning-Power-Tool-Cleaner-New-/112468341551?hash=item1a2fa2b32f:g:VEMAAOSwHLNZW057
p2
aVhttp://www.ebay.com/itm/KARCHER-WV50-Window-Vacuum-Rubber-Blades-280mm-x-2-FREE-2ND-CLASS-POST-/311909137931?epid=701519751&hash=item489f3bbe0b:g:xZQAAOSwPe1UKFOz
p3
aVhttp://www.ebay.com/itm/KARCHER-wv55-wv65-wv75-Window-Vacuum-Rubber-Blades-280mm-x-2-FREE-2ND-CLASS-POST-/311909137688?epid=720160042&hash=item489f3bbd18:g:xZQAAOSwPe1UKFOz
p4
aVhttp://www.ebay.com/itm/KARCHER-WV2-WV5-Window-Vacuum-Cleaner-Rubber-Blades-280mm-x-2-new-/311907084600?epid=810872034&hash=item489f1c6938:g:lOYAAMXQs6FRMOA8
p5
aVhttp://www.ebay.com/itm/9-x-Glade-Drop-in-Vac-Lily-of-the-Valley-Aroma-Vacuum-Vac-Fresheners-3-Packs-O-/263063567828?epid=1237246676&hash=item3d3fcf7dd4:g:6SQAAOSwSzRZVZch
p6
aVhttp://www.ebay.com/itm/KARCHER-WV2-WINDOW-VACUUM-STEAM-CLEANER-PARTS-SPARES-/162570978178?hash=item25d9fc4382:g:fEAAAOSwZQRYZV3m
p7
aVhttp://www.ebay.com/itm/40-high-3000-watt-Gutter-cleaning-Gutter-Vacuum-/122571970369?hash=item1c89dbd741:g:co8AAOSw8gVX97sY
p8
aVhttp://www.ebay.com/itm/Karcher-WV2-Premium-2nd-Generation-Window-Vacuum-Cleaner-NEW-/263060985615?epid=687839062&hash=item3d3fa8170f:g:bjIAAOSwiQ9ZU5QR
p9
aVhttp://www.ebay.com/itm/KARCHER-WV2-WV5-Window-Vacuum-Cleaner-Rubber-Blades-280mm-x-2-/311905042839?epid=721355741&hash=item489efd4197:g:lOYAAMXQs6FRMOA8
p10
aVhttp://www.ebay.com/itm/Karcher-WV50-Window-Vacuum-replacement-rubber-blades-SMALL-170mm-x-2-new-/311905040749?hash=item489efd396d:g:jnAAAMXQ8OdRMOCF
p11
aVhttp://www.ebay.com/itm/water-tank-for-Vileda-Windomatic-Cordless-Window-Vacuum-Cleaner-100-genuine-/282545642435?hash=item41c9085bc3:g:Q74AAOSwMvtZUngi
p12
aVhttp://www.ebay.com/itm/KARCHER-wv50-window-vacuum-blades-280mm-X-2-FREE-POST-/232388745573?hash=item361b72d965:g:FZ4AAOSwajVUTKEe
p13
aVhttp://www.ebay.com/itm/FM-Perfumed-Vacuum-Air-Cleaner-Fresheners-for-Hoover-Dust-Bags-Splendid-Violet-/192228227999?hash=item2cc1b1fb9f:g:06kAAOSwnbZYEinT
p14
aVhttp://www.ebay.com/itm/FM-Perfumed-Vacuum-Air-Cleaner-Fresheners-for-Hoover-Dust-Bags-Sunny-Breeze-/192228227688?hash=item2cc1b1fa68:g:a9cAAOSwXeJYEiq3
p15
aVhttp://www.ebay.com/itm/FM-Perfumed-Vacuum-Air-Cleaner-Fresheners-for-Hoover-Dust-Bags-Summer-Whiff-/192228227212?hash=item2cc1b1f88c:g:VP8AAOSwMVdYEitI
p16
aVhttp://www.ebay.com/itm/Henry-Hoover-Tools-Hetty-Vacuum-Cleaner-Floor-Tool-AIRO-BRUSH-Turbo-Carpet-Head-/272732119831?var=&hash=item3f8019e317:m:mfA646S4NGDpocx9RF4rL7g
p17
aVhttp://www.ebay.com/itm/KARCHER-WV2-2ND-GENERATION-WINDOW-GLASS-VACUUM-STEAM-CLEANER-CORDLESS-/263052673298?epid=18003888452&hash=item3d3f294112:g:RrAAAOSwHnFVnoDo
p18
aVhttp://www.ebay.com/itm/NEW-Karcher-WV2-Vac-Cordless-Rechargeable-Glass-Window-Vacuum-Cleaner-WV2-UK-5-/253007752714?hash=item3ae86fee0a:g:YAYAAOSwnipWapgk
p19
aVhttp://www.ebay.com/itm/New-Genuine-KARCHER-WV50-Window-Vacuum-Rechargable-Cleaner-Nozzle-WV-50-60-70-/253007746306?var=&hash=item3ae86fd502:m:mQuSbSmmNm05p4VDtK5ANmA
p20
aVhttp://www.ebay.com/itm/Karcher-WV2-Window-Vac-Glass-Cleaner-Rechargeable-Vacuum-Mirror-Shower-Cordless-/272732115491?epid=26003887944&hash=item3f8019d223:g:KDkAAOSw-vlVnoD3
p21
aVhttp://www.ebay.com/itm/New-Genuine-KARCHER-WV-2-No-Drip-Window-Vacuum-Rechargable-CLEANER-WV2-VAC-/272732115443?epid=1341969805&hash=item3f8019d1f3:g:oBQAAOSwDNdVqPvt
p22
aVhttp://www.ebay.com/itm/KARCHER-Window-Vac-Vacuum-Cleaner-Nozzle-Charger-Cloth-Pads-WV-50-60-70-WV50-/272732111454?var=&hash=item3f8019c25e:m:mQuSbSmmNm05p4VDtK5ANmA
p23
aVhttp://www.ebay.com/itm/21-Vacuum-Scented-Air-Fresheners-Hoover-Dust-Bags-Filters-Cleaner-Freshener-/122547101492?var=&epid=5003038304&hash=item1c88605f34:m:mTdQ5q5dOHoT8FCFvD_18aQ
p24
aVhttp://www.ebay.com/itm/PACK-OF-6-VACUUM-FRESHENERS-EXTRA-STRENGTH-PET-LOVERS-SPRING-MEADOW-ODOUR-SMELL-/322552083672?hash=item4b199a34d8:g:WocAAOxyOlhSsEmT
p25
aVhttp://www.ebay.com/itm/4Pcs-Durable-Bottle-Brush-Bottle-Vacuum-Cup-Teapot-SpoutGlass-Kitchen-Clean-Tool-/122541639780?hash=item1c880d0864:g:9~QAAOSwxu5ZLsi6
p26
aVhttp://www.ebay.com/itm/Vax-CarpetBurst-Floral-Infusion-Scented-Vacuum-Granules-6-Pack-/232365891644?hash=item361a16203c:g:5xoAAOSwVJhZOq~0
p27
aVhttp://www.ebay.com/itm/VACUUM-CLEANER-DEODORISER-TABS-FRAGRANCE-AIR-FRESHENER-BAGS-DOG-HOOVER-VAX-DYSON-/252974267971?var=&hash=item3ae670fe43:m:mponcZ5u4UsqBRZmmqBGXfg
p28
aVhttp://www.ebay.com/itm/16-Pack-Pure-Air-Vacuum-Freshener-Vacuum-Cleaner-Hoover-Electrolux-Henry-New-/122532484889?epid=1723185921&hash=item1c87815719:g:1~oAAOSww9xZNA~x
p29
aVhttp://www.ebay.com/itm/21-Vacuum-Scented-Air-Fresheners-Hoover-Dust-Bags-Filters-Cleaner-Freshener-/322534677681?var=&epid=2130499250&hash=item4b18909cb1:m:mg9NNmpXSqa2DeJMDl1hTHg
p30
aVhttp://www.ebay.com/itm/Nilfisk-Smart-Window-Vacuum-12-W-100-Ml-With-280-Mm-And-170-Mm-Cleaning-Heads-/272690775896?epid=1841369077&hash=item3f7da30758:g:ExgAAOSww5hZKsl0
p31
aVhttp://www.ebay.com/itm/Beldray-BEL0224-Cordless-Window-Cleaning-Vacuum-for-Mirrors-Glass-Tiles-and-Co-/272687786874?epid=689128395&hash=item3f7d756b7a:g:wvMAAOSwfRdZJ~Gs
p32
aVhttp://www.ebay.com/itm/NEW-D-KUR-Ritzy-Cute-Mini-Mushroom-Corner-Desk-Table-Dust-Vacuum-Cleaner-Sweeper-/292129140356?hash=item440440ee84:g:N4IAAOSwxu5ZJost
p33
aVhttp://www.ebay.com/itm/Karcher-WV5-Window-Vacuum-Genuine-Replacement-Battery-/172690879428?epid=1337978935&hash=item28352db3c4:g:G-kAAOSwgmJX1~B5
p34
aVhttp://www.ebay.com/itm/Karcher-WV2-Premium-Window-Vac-Vacuum-Battery-Charger-Power-Supply-Genuine-/272678169336?epid=894813097&hash=item3f7ce2aaf8:g:FMwAAOSwi7RZHuor
p35
aVhttp://www.ebay.com/itm/Karcher-WV2-2nd-Generation-Window-Glass-Vacuum-Steam-Cleaner-Cordless-NEW-/222515533612?epid=1437394421&hash=item33cef5972c:g:dbQAAOSwrhBZHYiF
p36
aVhttp://www.ebay.com/itm/Vileda-WINDOMATIC-CORDLESS-WINDOW-VACUUM-CLEANER-MIRROR-GLASS-SHOWER-FLEX-HEAD-/172678517667?hash=item28347113a3:g:aycAAOSwYvFZG4AN
p37
aVhttp://www.ebay.com/itm/Rowenta-Accessories-Universal-Vacuum-Cleaner-Bag-/152549497545?hash=item2384a89ac9:g:VV8AAOSwcB5ZGdC3
p38
aVhttp://www.ebay.com/itm/Ewbank-Cascade-Retractable-Carpet-Vacuum-Shampooer-w-2-5L-Tank-n-500ML-Shampoo-/282473106824?epid=1828707836&hash=item41c4b58d88:g:VPAAAOSw7GRZFIcJ
p39
aVhttp://www.ebay.com/itm/Miele-GN-Vacuum-Cleaner-Airclean-HyClean-Bags-4-Bags-2-Filters-Genuine-Blue-/302311879404?epid=854434115&hash=item46633132ec:g:gB0AAOSwCGVX8jJ~
p40
aVhttp://www.ebay.com/itm/12-X-6-VACUUM-FRESHENER-DISC-For-Pets-Dyson-henry-kirby-orek-sebo-miele-shark-/262977711286?hash=item3d3ab16cb6:g:QUcAAOSw2iNZZHHd
p41
aVhttp://www.ebay.com/itm/12-X-6-VAC-DISC-FRESHENER-For-All-Vacuum-Cleaners-Fresh-Pet-Bag-Bagless-72-/262971794553?epid=1256809901&hash=item3d3a572479:g:p1kAAOSwu2VZZHGj
p42
aVhttp://www.ebay.com/itm/Karcher-WV5-Premium-Non-Stop-Window-Vacuum-Long-Life-Battery-Charging-Station-/262969980852?epid=563535496&hash=item3d3a3b77b4:g:dBwAAOSw4CFYyYBh
p43
aVhttp://www.ebay.com/itm/K-D-APPLIANCE-SERVICES-AMAZING-VACUUM-CLEANER-FRAGRANCE-OIL-100ML-/152528270140?hash=item238364b33c:g:c38AAOSwPcVVpSOQ
p44
aVhttp://www.ebay.com/itm/Rowenta-Accessories-Universal-Vacuum-Cleaner-Bag-/302297922377?hash=item46625c3b49:g:BqoAAOSwcgNZAl4J
p45
aVhttp://www.ebay.com/itm/Genuine-MIELE-GN-HyClean-Vacuum-Cleaner-DUST-BAG-x-4Pk-/252896482999?hash=item3ae1ce16b7:g:ZPAAAOSw5UZY~22m
p46
aVhttp://www.ebay.com/itm/11-in-1-Vacuum-Cleaner-LED-Robotic-Automatic-Recharge-Floor-Sweeper-Mop-Robot-/222478234767?hash=item33ccbc748f:g:yfsAAOSwJ4hY9IQ0
p47
aVhttp://www.ebay.com/itm/UL-and-CE-Approved-Morpilot-2-Pack-7-2V-3000mAh-Ni-MH-IRobot-Vacuum-Cleaner-/132160564772?epid=761408720&hash=item1ec5622e24:g:HOcAAOSwzqFY8rjg
p48
aVhttp://www.ebay.com/itm/11-in-1-Vacuum-Cleaner-LED-Robotic-Automatic-Recharge-Floor-Sweeper-Mop-Robot-/222478234767?hash=item33ccbc748f:g:yfsAAOSwJ4hY9IQ0
p49
aVhttp://www.ebay.com/itm/UL-and-CE-Approved-Morpilot-2-Pack-7-2V-3000mAh-Ni-MH-IRobot-Vacuum-Cleaner-/132160564772?epid=761408720&hash=item1ec5622e24:g:HOcAAOSwzqFY8rjg
p50
aVhttp://www.ebay.com/itm/Vinsani-4pc-Large-Travel-Reuseable-Vacuum-Stroage-Bags-50-x-70cm-/201890009801?epid=754829802&hash=item2f019512c9:g:n5IAAOSwls5Y71ay
p51
aVhttp://www.ebay.com/itm/NEW-Bosch-Micro-Filter-Replacement-for-GAS10-8V-Vacuum-Refills-/172623266637?hash=item283126034d:g:8noAAOSwhQhY7xa0
p52
aVhttp://www.ebay.com/itm/Ewbank-4-in-1-Floor-Cleaner-Scrubber-Polisher-and-Vacuum-Includes-All-Pads-/132155158659?epid=604704975&hash=item1ec50fb083:g:zRwAAOSwAANY65NS
p53
aVhttp://www.ebay.com/itm/Window-Vac-Cordless-Rechargeable-Glass-Window-Vacuum-Cleaner-Kit-/382037281730?var=&hash=item58f3324bc2:m:md5umXZIkoTJLk9uCAqXTZA
p54
aVhttp://www.ebay.com/itm/Window-Vacuum-Battery-Charger-Power-Supply-For-Karcher-WV50-WV60-WV70-WV75-/132153690819?hash=item1ec4f94ac3:g:6o4AAOSw3utY6ee9
p55
aVhttp://www.ebay.com/itm/2MTR-standard-32mm-sized-VACUUM-CLEANER-HOSING-cut-off-roll-for-many-brands-/112362243734?var=&hash=item1a294fc696:m:mlPY-oGs-jQuTzhTs-i8j7g
p56
aVhttp://www.ebay.com/itm/Cordless-Window-Handheld-Vacuum-Glass-Cleaner-Mirror-Rechargeable-Portable-Steam-/252845345177?hash=item3adec1c999:g:v2kAAOSwB-1Y5H2W
p57
aVhttp://www.ebay.com/itm/6-Pack-Vac-Air-Freshner-Spring-6-pack-summer-Meadows-Hoover-Vacuum-Cleaner-/262916257457?hash=item3d3707b6b1:g:uk0AAOSwa~BYeVWJ
p58
aVhttp://www.ebay.com/itm/Numatic-HENRY-HVR200-HETTY-Vacuum-Hoover-Fishtail-Dust-Extraction-Tool-Nozzle-/262905598235?epid=698357630&hash=item3d3665111b:g:b5kAAOSw4YdY0lGM
p59
aVhttp://www.ebay.com/itm/PACK-OF-21-UNIVERSAL-VACUUM-CLEANER-AIR-FRESHENERS-FRAGRANCED-HOOVER-BAG-SCENT-/152484121173?var=&epid=1723185921&hash=item2380c30a55:m:moBDP1nYHACMVa6-GyRfhUQ
p60
aVhttp://www.ebay.com/itm/Apple-Lemon-or-Aqua-Fresh-Scented-Vacuum-Air-Fresheners-12-or-21-Hoover-Freshen-/282405539581?var=&epid=1723185921&hash=item41c0ae8efd:m:mp1_CTg5FVtCeEogTP-sXLA
p61
aVhttp://www.ebay.com/itm/WINDOW-GLASS-MIRROR-CAR-CLEANER-CORDLESS-HANDHELD-PORTABLE-VAC-VACUUM-KIT-NEW-/192136539822?hash=item2cbc3aeeae:g:Xd0AAOSwuLZY0d~m
p62
aVhttp://www.ebay.com/itm/VAC-Rechargerable-Battery-Window-Vacuum-Cleaner-For-Cleaning-Windows-and-Tiles-/252823532835?hash=item3add74f523:g:G1MAAOSwTM5Y0SeL
p63
aVhttp://www.ebay.com/itm/Window-Vacuum-Cleaner-Handheld-Mirror-Glass-Rechargeable-Portable-Cordless-Steam-/252823326590?var=&hash=item3add71cf7e:m:md5umXZIkoTJLk9uCAqXTZA
p64
aVhttp://www.ebay.com/itm/LESOLEIL-Window-Cleaning-Vacuum-Handheld-Cordless-Mirror-Tile-Cleaner-Vac-Blue-/192135689658?hash=item2cbc2df5ba:g:NyEAAOSwSlBY0OMw
p65
aVhttp://www.ebay.com/itm/RED-LESOLEIL-WINDOW-GLASS-MIRROR-CLEANER-CORDLESS-HANDHELD-VAC-VACUUM-KIT-NEW-/132133536289?hash=item1ec3c5c221:g:Sp0AAOSwXYtY0OEr
p66
aVhttp://www.ebay.com/itm/LESOLEIL-Window-Vacuum-Cleaner-Glass-Car-Rechargeable-Portable-Steam-Handheld-/192135655725?var=&hash=item2cbc2d712d:m:mWhjlv5VpPT-_UgPN07VViQ
p67
aVhttp://www.ebay.com/itm/MRS-MOP-SINK-DESCALER-TOILET-GLASS-REMOVER-FOAMING-TOILET-DRAIN-CLEANER-VACUUM-/132125949933?var=&hash=item1ec351ffed:m:mbWTS0aNh_kiHovUzZeZSqQ
p68
aVhttp://www.ebay.com/itm/HENRY-VACUUM-CLEANER-AIR-FRESHENER-PELLETS-PACK-OF-10-HOOVER-HETTY-GLM33572-/322451090477?epid=1551030604&hash=item4b13952c2d:g:DuoAAOSw7NNT1mCH
p69
aVhttp://www.ebay.com/itm/UNIVERSAL-LEMON-ORANGE-VACUUM-HOOVER-AIR-FRESHENERS-16-PELLETS-ODOURS-CLEANER-/122385494873?var=&hash=item1c7ebe7359:m:mgBFgkUSe3z2d-6A_VGhnrg
p70
aVhttp://www.ebay.com/itm/Vac-Air-Freshner-Hoover-Vacuum-Cleaner-Pet-Lovers-Meadows-Discs-free-Postage-/262858102380?var=&epid=1007828071&hash=item3d3390566c:m:m3PFO8O3Icq-s2xv8-SrUtA
p71
aVhttp://www.ebay.com/itm/90-x-120cm-Travel-Vacuum-Shrink-Bag-Storage-for-Clothes-Bedding-/252772319226?epid=1105263620&hash=item3ada677ffa:g:puAAAOSwax5YpItU
p72
aVhttp://www.ebay.com/itm/TWIN-PACK-OF-VACUUM-FRESHENERS-PET-LOVERS-CAT-DOG-EXTRA-STRENGTH-2-FRESHENERS-/322422249541?hash=item4b11dd1845:g:8AIAAOxy2E1SDhSe
p73
aVhttp://www.ebay.com/itm/HOME-TEK-hometek-Hunter-Handheld-Vacuum-hoover-Filter-2-x-Belts-HT807-HG205-/311798749826?epid=1643475394&hash=item4898a75a82:g:1yQAAOSwx6pYnEQA
p74
aVhttp://www.ebay.com/itm/Ewbank-4-in-1-Floor-Cleaner-Scrubber-Polisher-Vacuum-Includes-All-Pads-/142272307817?epid=604704975&hash=item2120172269:g:FrcAAOSw5cNYmzj7
p75
aVhttp://www.ebay.com/itm/Neutradol-Original-Vacuum-Deodorizer-/292016408213?epid=1128714198&hash=item43fd88c695:g:HOcAAOSw2xRYkgSH
p76
aVhttp://www.ebay.com/itm/VACUUM-AIR-FRESHENER-VAC-PELLETS-PACK-OF-10-PET-ODOUR-COMBAT-SMELL-SCENT-FRESH1R-/322409582601?epid=535719678&hash=item4b111bd009:g:i2MAAOSwjDZYkdkO
p77
aVhttp://www.ebay.com/itm/WINDOW-VACUUM-INC-12-6FT-WINDOW-CLEANING-POLE-SQUEEGEE-WINDOW-VAC-KIT-/282335569246?hash=item41bc82e55e:g:0bAAAOSw4A5YypgG
p78
aVhttp://www.ebay.com/itm/X6-Window-Vacuum-Cleaner-Electric-Household-Hoover-Tiles-Glass-Cleaning-Kit-/222381060295?epid=1838904050&hash=item33c6f1b0c7:g:7cUAAOSwUKxYflcB
p79
aVhttp://www.ebay.com/itm/Window-Vacuum-Cleaner-Mirror-Glass-Rechargeable-Portable-Cordless-Steam-Handheld-/182424710299?var=&hash=item2a795c2c9b:m:md5umXZIkoTJLk9uCAqXTZA
p80
aVhttp://www.ebay.com/itm/Karcher-WV5-Premium-2ndGen-Window-Vacuum-Glass-Cleaner-Vac-Cordless-Rechargeable-/322391986093?epid=1337558046&hash=item4b100f4fad:g:PKcAAOSwUKxYfBHY
p81
aVhttp://www.ebay.com/itm/6-Pack-Vac-Air-Freshner-Spring-6-pack-summer-Meadows-Hoover-Vacuum-Cleaner-/272521703644?hash=item3f738f30dc:g:144AAOSwnHZYehT~
p82
aVhttp://www.ebay.com/itm/6-Pack-Vac-Air-Freshner-Hoover-Vacuum-Cleaner-Pet-Lovers-Spring-Meadows-Disc-new-/262806789245?epid=1007828071&hash=item3d30815c7d:g:UFYAAOSw5cNYF6I5
p83
aVhttp://www.ebay.com/itm/Hose-for-Gutter-Vacuum-GutterVac-51mm-Ultralite-Reinforced-Vacuum-15-Mtr-length-/182419187211?hash=item2a7907e60b:g:p-AAAOxyONBSaQIp
p84
aVhttp://www.ebay.com/itm/Glass-Window-Cleaner-Vac-Vacuum-Streak-Free-Steam-Shower-Tiles-Cordless-Bathroom-/371836748024?epid=933981004&hash=item56933280f8:g:uYsAAOSwopRYdhiA
p85
aVhttp://www.ebay.com/itm/Karcher-WV2-Window-Vacuum-Cleaner-No-Drip-Rechargable-Window-Cleaner-/132059865085?epid=1437394421&hash=item1ebf619ffd:g:oVEAAOSwa~BYdBwe
p86
aVhttp://www.ebay.com/itm/9-x-Glade-Drop-in-Vac-Lily-of-the-Valley-Aroma-Vacuum-Vac-Fresheners-3-Pk-of-3-/291992121807?epid=1705458943&hash=item43fc1631cf:g:XgEAAOSw2xRYblIh
p87
aVhttp://www.ebay.com/itm/Vacuum-Vac-Freshener-Disc-6PK-for-Pet-Lovers-Summer-Meadow-Scent-/282312086480?hash=item41bb1c93d0:g:DjQAAOSwr81UQRpp
p88
aVhttp://www.ebay.com/itm/Vileda-WINDOMATIC-CORDLESS-WINDOW-VACUUM-CLEANER-MIRROR-GLASS-SHOWER-FLEX-HEAD-/162332912441?hash=item25cbcbab39:g:TwwAAOSwENxXnRgr
p89
aVhttp://www.ebay.com/itm/2-X-6-Pack-Vac-Air-Freshner-Hoover-Vacuum-Cleaner-Pet-Lovers-Spring-Meadows-Disc-/262775572378?epid=1007828071&hash=item3d2ea5079a:g:UFYAAOSw5cNYF6I5
p90
aVhttp://www.ebay.com/itm/Karcher-WV2-2nd-Generation-Window-Vacuum-Cleaner-SAME-DAY-DISPATCH-/142220510139?epid=1685917442&hash=item211d00c3bb:g:YDUAAOSw2xRYW5Xy
p91
aVhttp://www.ebay.com/itm/6-x-KIRBY-Avalir-2015-Vacuum-Cleaner-Bags-Hoover-HEPA-Micron-Magic-/252690132463?epid=1539309907&hash=item3ad5816def:g:Sp4AAOSw0vBUkZWI
p92
aVhttp://www.ebay.com/itm/NEW-2-IN-1-UPRIGHT-AND-HANDHELD-VACUUM-CLEANER-WHITE-HEPA-FILTER-600W-1-2-LITRE-/282293358456?epid=2093976544&hash=item41b9fecf78:g:Ht8AAOSwa~BYU8Gf
p93
aVhttp://www.ebay.com/itm/KLARSTEIN-REINRAUM-WET-DRY-VACUUM-CLEANER-SHOP-HOME-VAC-1800-W-30-L-STEEL-CLEAN-/311759796912?epid=2058928600&hash=item489654fab0:g:4MEAAOSwEzxYY7vq
p94
aVhttp://www.ebay.com/itm/Karcher-WV50-WV60-WV70-WV75-Plus-Window-Vacuum-Battery-Charger-Power-Supply-/282290302155?epid=1227568353&hash=item41b9d02ccb:g:W24AAOSw-dBTtQMY
p95
aVhttp://www.ebay.com/itm/VACUUM-CLEANER-AIR-FRESHNERS-TO-SUIT-HETTY-BASIL-HENRY-NUMATIC-/172436926382?var=&hash=item28260aafae:m:mb3qRma9cIniqR9umPvOiWg
p96
aVhttp://www.ebay.com/itm/Karcher-WV2-Premium-2nd-Generation-Window-Vacuum-Cleaner-SAME-DAY-DISPATCH-/142202064080?epid=1360781369&hash=item211be74cd0:g:4sEAAOSwj85YRZzO
p97
aVhttp://www.ebay.com/itm/Vacuum-Air-Freshners-21-In-A-Pack-Various-Fragrances-Universal-/152344865933?var=&epid=1723185921&hash=item2378762c8d:m:myJP4f00XQIwO_B6miN2bmA
p98
aVhttp://www.ebay.com/itm/Genuine-KARCHER-WV2-WV5-Small-Window-Vac-Suction-Blade-Nozzle-170mm-Vacuum-BNIB-/291958750616?hash=item43fa18fd98:g:rsUAAOSw3mpXE3f0
p99
aVhttp://www.ebay.com/itm/Vileda-Windo-Matic-Cordless-Window-Vacuum-Cleaner-Wiper-Tank-cleaner-New-/252651225539?epid=1637420789&hash=item3ad32fc1c3:g:CMIAAOSwj85YNxNy
p100
aVhttp://www.ebay.com/itm/HENRY-HETTY-JAMES-VACUUM-CLEANER-DUST-BAGS-x-10-/112215056972?epid=1545412372&hash=item1a2089e24c:g:yUkAAOSw44BYNvJX
p101
aVhttp://www.ebay.com/itm/5-X-bags-For-Daewoo-RC300-310-350-370-805-rc350bk-/112214902349?hash=item1a2087864d:g:~yoAAOSwa~BYNsPY
p102
aVhttp://www.ebay.com/itm/10-x-Vacuum-Bags-For-Currys-Essentials-Cylinder-C14BVR10-Paper-Dust-Bag-/112214104903?hash=item1a207b5b47:g:O90AAOSwo4pYPD5a
p103
aVhttp://www.ebay.com/itm/VACUUM-CLEANER-AIR-FRESHNERS-TO-SUIT-ORECK-/182362827436?var=&hash=item2a75abeaac:m:mb3qRma9cIniqR9umPvOiWg
p104
aVhttp://www.ebay.com/itm/VACUUM-CLEANER-AIR-FRESHNERS-TO-SUIT-KIRBY-/172417621994?var=&hash=item2824e41fea:m:mb3qRma9cIniqR9umPvOiWg
p105
aVhttp://www.ebay.com/itm/VACUUM-CLEANER-AIR-FRESHNERS-TO-SUIT-KARCHER-/182362426281?var=&hash=item2a75a5cba9:m:mb3qRma9cIniqR9umPvOiWg
p106
aVhttp://www.ebay.com/itm/KLARSTEIN-3-IN-1-PROFESSIONAL-HOTEL-SHOP-VACUUM-CLEANER-30-L-FILTER-FREE-P-P-/291942785974?epid=2058928600&hash=item43f92563b6:g:PRMAAOSwImRYY7h~
p107
aVhttp://www.ebay.com/itm/Pack-of-10-Original-Numatic-Hepa-Flo-Henry-Vacuum-Hoover-Bags-NVM-1CH-604015-/182349918095?epid=1404682283&hash=item2a74e6ef8f:g:DoMAAOSwA3dYJNIz
p108
aVhttp://www.ebay.com/itm/VACUUM-CLEANER-AIR-FRESHNERS-TO-SUIT-MORPHY-RICHARDS-/172404740237?var=&hash=item28241f908d:m:mb3qRma9cIniqR9umPvOiWg
p109
aVhttp://www.ebay.com/itm/VACUUM-CLEANER-AIR-FRESHNERS-TO-SUIT-NUMATIC-/172404731433?var=&hash=item28241f6e29:m:mb3qRma9cIniqR9umPvOiWg
p110
aVhttp://www.ebay.com/itm/VACUUM-CLEANER-AIR-FRESHNERS-TO-SUIT-DYSON-/182349813247?var=&hash=item2a74e555ff:m:mb3qRma9cIniqR9umPvOiWg
p111
aVhttp://www.ebay.com/itm/VACUUM-CLEANER-AIR-FRESHNERS-TO-SUIT-HOOVER-/182349811133?var=&hash=item2a74e54dbd:m:mb3qRma9cIniqR9umPvOiWg
p112
aVhttp://www.ebay.com/itm/VACUUM-CLEANER-AIR-FRESHNERS-TO-SUIT-MIELE-/182349810419?var=&hash=item2a74e54af3:m:mb3qRma9cIniqR9umPvOiWg
p113
aVhttp://www.ebay.com/itm/VACUUM-CLEANER-AIR-FRESHNERS-TO-SUIT-VAX-/172404546158?var=&hash=item28241c9a6e:m:mb3qRma9cIniqR9umPvOiWg
p114
aVhttp://www.ebay.com/itm/VACUUM-CLEANER-AIR-FRESHNERS-TO-SUIT-SEBO-/172404543451?var=&hash=item28241c8fdb:m:mb3qRma9cIniqR9umPvOiWg
p115
aVhttp://www.ebay.com/itm/VACUUM-CLEANER-AIR-FRESHNERS-TO-SUIT-HENRY-/172403916956?var=&hash=item282413009c:m:mb3qRma9cIniqR9umPvOiWg
p116
aVhttp://www.ebay.com/itm/Vac-Air-Freshner-Hoover-Vacuum-Cleaner-Pet-Lovers-Summer-Meadows-Disc-/272438288292?var=&hash=item3f6e965fa4:m:mKPf2P7iGqw3ATyLuZMZgkA
p117
aVhttp://www.ebay.com/itm/VACUUM-AIR-FRESHENER-VAC-PELLETS-PACK-OF-10-PET-ODOUR-COMBAT-SMELLS-SCENT-33572-/322310851850?epid=1068506920&hash=item4b0b394d0a:g:cXAAAOSwPe1T13qi
p118
aVhttp://www.ebay.com/itm/New-Neat-Ideas-Vac-Pro-Attachment-Tool-Vacuum-Cleaner-Hair-Dust-Lint-Remover-/232127599442?var=&epid=21001301857&hash=item360be21352:m:mbOfLP-FA67ota3_N8gepJA
p119
aVhttp://www.ebay.com/itm/Neutradol-Super-Fresh-Vac-Sac-Vacuum-Deodoriser-Freshener-3-Sachets-per-pack-/252605507386?var=&epid=1505366941&hash=item3ad076273a:m:m2ipBZ7bj11fHcQHep-3NRA
p120
aVhttp://www.ebay.com/itm/Vacuum-hose-holder-VARIERA-Silver-colour-easier-to-store-your-vacuum-cleaner-/282228120708?epid=1523130942&hash=item41b61b5c84:g:aE0AAOSwnbZYCmYo
p121
aVhttp://www.ebay.com/itm/Wet-Dry-Car-Vacuum-Cleaner-Streetwize-Swcv-Vaccum-12v-/131975449135?epid=1302895754&hash=item1eba598a2f:g:aq8AAOSwCGVYBvbA
p122
aVhttp://www.ebay.com/itm/90x-120cm-Travel-Vacuum-Bag-Space-Storage-Bags-x-Saving-Strong-Saver-Vacum-/401209368166?hash=item5d69f11e66:g:CHAAAOSwYIxYBp1e
p123
aVhttp://www.ebay.com/itm/90x-120cm-Travel-Vacuum-Bag-Space-Storage-Bags-x-Saving-Strong-Saver-Vacum-/401209343686?hash=item5d69f0bec6:g:m74AAOSwPCVYBpaJ
p124
aVhttp://www.ebay.com/itm/50-X-70cm-Travel-Vacuum-Bag-Space-Storage-Bags-70cm-20-28-Savers-Singles-/361776316658?hash=item543b8c80f2:g:zjsAAOSwmLlYBmqo
p125
aVhttp://www.ebay.com/itm/50-X-70cm-Travel-Vacuum-Bag-Space-Storage-Bags-70cm-20-28-Savers-Singles-/401209205545?hash=item5d69eea329:g:swEAAOSwh2xYBmi6
p126
aVhttp://www.ebay.com/itm/6-Pack-Vac-Air-Freshner-Hoover-Vacuum-Cleaner-Pet-Lovers-Spring-Meadows-Disc-/262667469254?epid=1007828071&hash=item3d283381c6:g:UFYAAOSw5cNYF6I5
p127
aVhttp://www.ebay.com/itm/Numatic-601144-Henry-Harry-George-Harry-Hetty-Vacuum-Cleaner-Dusting-Brush-65-mm-/142131758744?epid=1739559614&hash=item2117b68698:g:ZB4AAOSw32lYttPa
p128
aVhttp://www.ebay.com/itm/NUMATIC-604015-NVM-1CH-Hepa-Flo-Henry-Vacuum-Cleaner-Hoover-Dust-Bags-Pack-Of-10-/122155833796?hash=item1c710e19c4:g:UroAAOSwTM5YttPq
p129
aVhttp://www.ebay.com/itm/NUMATIC-604015-NVM-1CH-Hepa-Flo-Henry-Vacuum-Cleaner-Hoover-Dust-Bags-Pack-Of-10-/122155833775?hash=item1c710e19af:g:ZJEAAOSw32lYttPd
p130
aVhttp://www.ebay.com/itm/Vacuum-Cleaner-Hose-For-DC01-DC04-DC07-DC14-DC24-DC25-DC33-DC27-DC40-DC41-/361740857901?var=&hash=item54396f722d:m:m6qnX_Qt3aIHfmOgVUiLSNw
p131
aVhttp://www.ebay.com/itm/5-LEMON-SCENT-VACUUM-CLEANER-FRESHENERS-PELLETS-FRAGRANCE-DUSTBAG-BAGLESS-VF003-/322254415763?epid=1875206123&hash=item4b07dc2793:g:HCsAAOSwxg5X0ABc
p132
aVhttp://www.ebay.com/itm/PACK-OF-5-PINE-VACUUM-CLEANER-FRESHENERS-PELLETS-FRAGRANCE-DUSTBAG-BAGLESS-VF002-/322254414252?epid=1483553607&hash=item4b07dc21ac:g:Bh4AAOSwxg5Xz~-W
p133
aVhttp://www.ebay.com/itm/9-x-Glade-Drop-in-Vac-Lily-of-the-Valley-Aroma-Vacuum-Vac-Fresheners-/262607491473?hash=item3d24a05191:g:jlgAAOSwMgdXyq4t
p134
aVhttp://www.ebay.com/itm/Karcher-WV2-Premium-2nd-Generation-Window-Vacuum-Cleaner-Cordless-Glass-Vac-Kit-/112119993523?epid=1937343917&hash=item1a1adf54b3:g:4rYAAOSwdIFXypyB
p135
aVhttp://www.ebay.com/itm/Window-Vacuum-Battery-Charger-Power-Supply-For-Karcher-WV50-WV55-WV60-WV70-WV75-/311687059635?hash=item4891ff18b3:g:p4YAAOSwEK9UFycR
p136
aVhttp://www.ebay.com/itm/Karcher-Glass-Cleaner-2-Pack-WV50-WV60-WV70-Window-Vacuum-x2-500ml-RM500-/311687017370?hash=item4891fe739a:g:ErwAAOSwBahVUfpq
p137
aVhttp://www.ebay.com/itm/Hose-for-Gutter-Vacuum-GutterVac-51mm-Ultralite-Reinforced-Vacuum-5-Mtr-length-/172319493787?hash=item281f0ace9b:g:p-AAAOxyONBSaQIp
p138
aVhttp://www.ebay.com/itm/6x-VANISH-POWER-POWDER-DEEP-CARPET-CLEANING-Shake-Sprinkel-Brush-Vacuum-650g-/232059126429?epid=862921597&hash=item3607cd429d:g:RnsAAOSwdzVXvjlR
p139
aVhttp://www.ebay.com/itm/5x-VANISH-POWER-POWDER-DEEP-CARPET-CLEANING-Shake-Sprinkel-Brush-Vacuum-650g-/222228929608?hash=item33bde05c48:g:KegAAOSwdzVXvjfD
p140
aVhttp://www.ebay.com/itm/4x-VANISH-POWER-POWDER-DEEP-CARPET-CLEANING-Shake-Sprinkel-Brush-Vacuum-650g-/222228927523?epid=903247909&hash=item33bde05423:g:4YoAAOSwawpXvjbY
p141
aVhttp://www.ebay.com/itm/Mopet-Microfiber-Brown-Mop-Robot-Vacuum-Cleaner-/112107540112?epid=1781493550&hash=item1a1a214e90:g:QvcAAOSwuMZZMBf8
p142
aVhttp://www.ebay.com/itm/Pack-of-Five-Panasonic-Upright-Vacuum-Dust-Bags-U20E-For-Model-MCE3002-/252510571991?epid=899773239&hash=item3acacd8dd7:g:q7AAAOSwaB5XvMsJ
p143
aVhttp://www.ebay.com/itm/2x-VANISH-POWER-POWDER-DEEP-CARPET-CLEANING-Shake-Sprinkel-Brush-Vacuum-650g-/232057928382?hash=item3607bafabe:g:l8cAAOSw1DtXG8iT
p144
aVhttp://www.ebay.com/itm/VANISH-POWER-POWDER-DEEP-CARPET-CLEANING-650g-Shake-Sprinkel-Brush-Vacuum-/232057923337?epid=862914947&hash=item3607bae709:g:dAIAAOxyUrZS4rNx
p145
aVhttp://www.ebay.com/itm/3x-VANISH-POWER-POWDER-DEEP-CARPET-CLEANING-Shake-Sprinkel-Brush-Vacuum-650g-/322238201790?epid=862914947&hash=item4b06e4bfbe:g:H~AAAOSw3mpXG8jh
p146
aVhttp://www.ebay.com/itm/Genuine-Vax-Vacuum-Cleaner-Coral-Cleaning-Pads-Pack-of-2-1113164300-/262580452392?epid=1754953397&hash=item3d2303bc28:g:YD8AAOSwU-pXsyfl
p147
aVhttp://www.ebay.com/itm/Vileda-Windomatic-Cordless-Window-Vacuum-Cleaner-12-Watt-/172303315500?epid=1637420789&hash=item281e13f22c:g:B14AAOSwmgJY47g1
p148
aVhttp://www.ebay.com/itm/Vileda-Windomatic-Cordless-Window-Vacuum-Cleaner-12-Watt-/172303315500?epid=1637420789&hash=item281e13f22c:g:B14AAOSwmgJY47g1
p149
aVhttp://www.ebay.com/itm/Pifco-Window-Vac-Cordless-Rechargeable-Glass-Window-Vacuum-Cleaner-Kit-/282113676401?epid=1879200128&hash=item41af491471:g:L80AAOSwaB5Xl24d
p150
aVhttp://www.ebay.com/itm/PACK-OF-10-VACUUM-AIR-FRESHENER-VAC-PELLETS-IDEAL-NUMATIC-ELECTROLUX-HOOVER-VAC-/322204232617?hash=item4b04de6ba9:g:cXAAAOSwPe1T13qi
p151
aVhttp://www.ebay.com/itm/Glade-Drop-In-Vac-Lily-Of-The-Valley-3-Pack-Scented-Vacuum-Vac-Aroma-Fresheners-/272318349744?epid=1705458943&hash=item3f677041b0:g:9dEAAOSwFqJWmlYp
p152
aVhttp://www.ebay.com/itm/Vac-Vacuum-Cleaner-Summer-Meadow-Scent-Air-Freshener-Discs-12-x-6-Pack-72discs-/131877473448?epid=1893532592&hash=item1eb4828ca8:g:9OoAAOSwyKxXh474
p153
aVhttp://www.ebay.com/itm/AIR-FRESHENER-VAC-PELLETS-PACK-OF-10-IDEAL-ZANUSSI-SEBO-VAX-GOBLIN-MIELE-VACUUM-/222183148746?hash=item33bb25ccca:g:cXAAAOSwPe1T13qi
p154
aVhttp://www.ebay.com/itm/Hoover-Hurricane-V29-Upright-Vacuum-Cleaner-Belts-YMH28950-Original-Quality-/282095889690?var=&hash=item41ae39ad1a:m:mIhElk33Z0GDD6IKblMeG2g
p155
aVhttp://www.ebay.com/itm/Organizer-Mop-Holder-Broom-House-Vacuum-Storage-Suction-Hanger-Wall-Cup-/252451263607?var=&hash=item3ac7449477:m:m1gB4DQH3KDtQeOkY1kfFCQ
p156
aVhttp://www.ebay.com/itm/Replacement-Dust-Bags-For-VAX-6140-6131-6130-6120-Vacuum-Cleaner-/252449705041?var=&hash=item3ac72ccc51:m:mei8fbL3FArZQPLL36ZdQXw
p157
aVhttp://www.ebay.com/itm/Vacuum-Cleaner-Hoover-Drive-Rubber-Belt-For-VAX-U91-P1-Power-1-Anniversary-/282088712263?var=&hash=item41adcc2847:m:mIhElk33Z0GDD6IKblMeG2g
p158
aVhttp://www.ebay.com/itm/Vacuum-Cleaner-Belt-for-ASDA-Genie-Purple-Cyclonic-GUV-01-1400W-Express-/311648475076?var=&hash=item488fb257c4:m:mu5uud0osboA2xP2ALte62A
p159
aVhttp://www.ebay.com/itm/Vacuum-Cleaner-Belt-for-Bissell-POWERFORCE-75Q1-Asda-75Q1E-75Q1-E-/311648358378?var=&hash=item488fb08fea:m:mu5uud0osboA2xP2ALte62A
p160
aVhttp://www.ebay.com/itm/Glade-Drop-In-Vac-Lily-Of-The-Valley-3-Pack-Scented-Vacuum-Vac-Aroma-Fresheners-/131864873418?epid=1705458943&hash=item1eb3c249ca:g:X6IAAOSwiwVWTdRk
p161
aVhttp://www.ebay.com/itm/9-x-Glade-Drop-in-Vac-Lily-of-the-Valley-Aroma-Vacuum-Vac-Fresheners-/131864873114?epid=1705458943&hash=item1eb3c2489a:g:wp0AAOSweuxWTdiR
p162
aVhttp://www.ebay.com/itm/Wall-Mop-Storage-House-New-Hanger-Vacuum-Cup-Suction-Broom-Hot-Holder-Organizer-/322172355056?var=&hash=item4b02f801f0:m:mae1iUMXoDCmSrIXHma4hRA
p163
aVhttp://www.ebay.com/itm/Suction-Vacuum-Cup-Wall-Organizer-Storage-Broom-Hot-Holder-Mop-Hanger-New-House-/272289080327?var=&hash=item3f65b1a407:m:mCc49Gc31FxWqRhB5HgZELA
p164
aVhttp://www.ebay.com/itm/Vacuum-Cleaner-Belt-for-HOOVER-SMART-SM1800-SM1901-/311640447300?var=&hash=item488f37d944:m:mu5uud0osboA2xP2ALte62A
p165
aVhttp://www.ebay.com/itm/Drive-Belts-Vax-Action-602-604-Flair-Pet-Vacuum-Cleaner-Hoover-Belt-YMH28950-/272281705991?var=&hash=item3f65411e07:m:mu5uud0osboA2xP2ALte62A
p166
aVhttp://www.ebay.com/itm/Vacuum-Cleaner-Belts-for-Argos-YMH28950-Hoover-Vacuum-Cleaner-Belts-Free-Post-/272281705632?var=&hash=item3f65411ca0:m:mu5uud0osboA2xP2ALte62A
p167
aVhttp://www.ebay.com/itm/Vacuum-Cleaner-Belts-for-Tesco-YMH28950-Hoover-Vacuum-Cleaner-Belts-Free-Post-/272281704648?var=&hash=item3f654118c8:m:mu5uud0osboA2xP2ALte62A
p168
aVhttp://www.ebay.com/itm/Vacuum-Cleaner-Hoover-Drive-Rubber-Belt-For-VAX-U91-P1-Power-1-Anniversary-/311640431787?var=&hash=item488f379cab:i:311640431787
p169
aVhttp://www.ebay.com/itm/1-2-5-Vacuum-Cleaner-Belt-for-HOOVER-HURRICANE-POWER-HP2300-HU4217-1-/301992444157?var=&hash=item46502700fd:m:mu5uud0osboA2xP2ALte62A
p170
aVhttp://www.ebay.com/itm/NUMATIC-NVM-1CH-Hepa-Flo-Henry-Vacuum-Cleaner-Hoover-Dust-Bags-2-x-Packs-Of-10-/122021190599?epid=1474556049&hash=item1c69079bc7:g:Q2wAAOSw3YNXZ7b6
p171
aVhttp://www.ebay.com/itm/32MM-MAIN-FLOOR-CARPET-HEAD-BRUSH-TOOL-for-ANY-vacuum-with-32mm-fitting-/201605303685?var=&hash=item2ef09ccd85:m:mEA2FrR8BgLdD-9NAxw7t8g
p172
aVhttp://www.ebay.com/itm/30-DISCS-BULK-BUY-PET-AIR-FRESHNER-FRESHENER-FOR-DYSON-VACUUM-CLEANER-/222155188930?hash=item33b97b2ac2:g:VKUAAOSwwE5WXKvS
p173
aVhttp://www.ebay.com/itm/6-DISCS-AIR-FRESHNER-FRESHENER-FOR-VACUUM-CLEANER-ELECTROLUX-/322153665332?hash=item4b01dad334:g:SiEAAOSwt6ZWUzuW
p174
aVhttp://www.ebay.com/itm/Karcher-WV50-WV60-WV70-WV75-Plus-Window-Vacuum-Battery-Charger-Power-Supply-/391482774601?var=&hash=item5b26311449:m:mqv6wMmUQeW8J__EMcqWD5w
p175
aVhttp://www.ebay.com/itm/PACK-OF-5-LEMON-SCENTED-STICK-VACUUM-FRESHENERS-DYSON-ELECTROLUX-PF09-9090109415-/331879850455?hash=item4d4594a1d7:g:PYsAAOxyF0pTfMPw
p176
aVhttp://www.ebay.com/itm/JML-Vacuum-Seal-Storage-Bags-Travel-Large-Jumbo-Compressed-Bag-Clothes-Space-/381665880087?var=&epid=1909930920&hash=item58dd0f2817:m:m7T59zrAnctZJ_LBF_lNlfQ
p177
aVhttp://www.ebay.com/itm/Genuine-ELECTROLUX-Vacuum-Cleaner-E42N-Paper-Bags-Pack-of-5-/331876329829?hash=item4d455ee965:g:jLgAAOxyHE5Rn9LL
p178
aVhttp://www.ebay.com/itm/LINT-LIZARD-VACUUM-HOSE-ATTACHMENT-cleaner-washing-machine-dryer-vent-/152117181694?hash=item236ae3fcfe:g:iQ8AAOSwNsdXQreZ
p179
aVhttp://www.ebay.com/itm/450ml-Spray-Bottle-for-Karcher-WV2-Window-Vacuum-Spare-Cloth-Pads-Covers-x-2-/191886181206?hash=item2cad4ec356:g:n9AAAOSw3R1XTpNv
p180
aVhttp://www.ebay.com/itm/450ml-Spray-Bottle-for-Karcher-WV70-Window-Vacuum-Spare-Cloth-Pads-Covers-x-2-/191886181207?hash=item2cad4ec357:g:6JkAAOSwvg9XTpe0
p181
aVhttp://www.ebay.com/itm/UNIVERSAL-448ml-Cordless-Window-Vacuum-Spray-Bottle-Pads-Glass-Cleaner-Covers-/262463511888?hash=item3d1c0b5d50:g:bWIAAOSwxndXTp-H
p182
aVhttp://www.ebay.com/itm/450ml-Spray-Bottle-for-BELDRAY-Window-Vac-Vacuum-Spare-Cloth-Pads-Covers-x-2-/381655636985?hash=item58dc72dbf9:g:Z-gAAOSwxndXTpc3
p183
aVhttp://www.ebay.com/itm/SET-OF-2-EXTRA-LARGE-GUSSETED-VACUUM-VAC-PACK-BLANKET-DUVET-BEDDING-STORAGE-BAGS-/182156461601?hash=item2a695f0621:g:S88AAOSwMNxXUAp9
p184
aVhttp://www.ebay.com/itm/Vacuum-Air-Freshener-6-Pack-White-Hoover-All-models-Vac-Fresh-Pellets-Henry-/112008470140?hash=item1a14399e7c:g:st4AAOSwn8FXRvhM
p185
aVhttp://www.ebay.com/itm/Hoover-Air-Freshener-10-Pack-Vacuum-All-models-Vac-Fresh-Pellets-Henry-More-/112008442959?hash=item1a1439344f:g:KlAAAOSwoJZXRuwc
p186
aVhttp://www.ebay.com/itm/Hoover-Air-Freshener-Vac-Disc-6-Pack-Fit-ALL-Vacuum-Cleaners-Pet-Lovers-Summer-/112008424281?epid=1007828071&hash=item1a1438eb59:g:ZfMAAOSwUfNXRukv
p187
aVhttp://www.ebay.com/itm/Hoover-Air-Freshener-Vac-Disc-6-Pack-Fit-ALL-Vacuum-Cleaners-Pet-Lovers-Spring-/121997873599?epid=1707833415&hash=item1c67a3d1bf:g:AXgAAOSwUfNXRuY2
p188
aVhttp://www.ebay.com/itm/Karcher-Window-Vacuum-Accessories-Spray-Bottle-Kit-with-Microfibre-Cleaning-Head-/162082659704?epid=1126361593&hash=item25bce11d78:g:yN0AAOSwmgJY3QOF
p189
aVhttp://www.ebay.com/itm/VACUUM-FRESHENERS-PURE-ORANGE-LEMON-DEODORISER-TABS-FRAGRANCES-ODOURS-CLEANER-/331860726475?var=&epid=1337628347&hash=item4d4470d2cb:m:mShNCP5O4mqeaI_slA3Ismg
p190
aVhttp://www.ebay.com/itm/GENUINE-KARCHER-STRONG-VACUUM-CLEANER-BAGS-T7-1-T9-1-Bp-T10-1-Larger-Bags-/162070809982?var=&hash=item25bc2c4d7e:m:m3ZwRUXZBsXP3N48LleGUJA
p191
aVhttp://www.ebay.com/itm/GENUINE-KARCHER-STRONG-VACUUM-CLEANER-BAGS-for-CV30-CV30-1-CV38-1-CV48-2-hoover-/152090536870?var=&hash=item23694d6ba6:m:mgyV982EkUoaVfjEU4TazLw
p192
aVhttp://www.ebay.com/itm/New-600w-2-in-1-STICK-BAGLESS-HAND-HELD-UPRIGHT-VACUUM-CLEANER-HEPA-FILTER-/391454649102?var=&epid=1742217429&hash=item5b2483eb0e:m:mU5LVtS5vciyK_sFZ_dbHJg
p193
aVhttp://www.ebay.com/itm/WINDOW-VAC-VACUUM-Replacement-Rubber-Blades-KARCHER-NILFISK-LIDL-etc-NEW-/301952283115?var=&hash=item464dc231eb:m:myJY379Fd03tE3FMSBdFeXw
p194
aVhttp://www.ebay.com/itm/Dyson-Stick-Vacuum-Blue-Release-Catch-Spring-DC30-DC31-DC34-DC35-DC44-DC45-/322098007874?hash=item4afe898f42:g:qlsAAOSwubRXK1If
p195
aVhttp://www.ebay.com/itm/To-fit-20-X-MIELE-GN-Type-Vacuum-Cleaner-Hoover-DUST-BAGS-FILTERS-CAT-DOG-/252356393717?hash=item3ac19cfaf5:g:wnIAAOSwkNZUfYwh
p196
aVhttp://www.ebay.com/itm/KIRBY-Sentria-Vacuum-Cleaner-Style-F-Hoover-Bags-G10-G10E-G10SE-New-Twist-Fit-/252356393442?hash=item3ac19cf9e2:g:Sp4AAOSw0vBUkZWI
p197
aVhttp://www.ebay.com/itm/Five-Vacuum-Cleaner-paper-dust-bag-bags-for-Hoover-WHIRLWIND-H58-TCPW1450-/281999750238?hash=item41a87eb45e:g:4d4AAOSwgApXCqt4
p198
aVhttp://www.ebay.com/itm/Super-Fresh-Vacuum-Sac-x-3-12BES-/351703626759?epid=1505366941&hash=item51e32b7407:g:sv8AAOSwLqFV8aE4
p199
aVhttp://www.ebay.com/itm/2-in-1-HAND-HELD-UPRIGHT-BAGLESS-COMPACT-LIGHTWEIGHT-VACUUM-CLEANER-HOOVER-/162031395879?var=&epid=901255232&hash=item25b9d2e427:m:mP8T8ZXFj6qaWyo0ANNyxVQ
p200
aVhttp://www.ebay.com/itm/OZMO-Natural-Vacuum-Freshener-Ideal-for-Bagless-Vacuums-Flower-Shop-scent80667-/172142963283?hash=item2814852a53:g:4bQAAOSwxvxW8Utz
p201
aVhttp://www.ebay.com/itm/For-Kirby-Vacuum-Air-Freshner-Pellets-Pack-Of-Five-Pop-In-Bag-5-AIR-/121927713099?hash=item1c6375414b:g:uB4AAOSwDNdVsgrc
p202
aVhttp://www.ebay.com/itm/PACK-OF-2-EXTRA-LARGE-GUSSETED-VACUUM-VAC-STACKABLE-DUVET-BEDDING-STORAGE-BAGS-/111914226424?epid=1112710443&hash=item1a0e9b92f8:g:HtsAAOSwll1WzrLO
p203
aVhttp://www.ebay.com/itm/Karcher-WV5-Premium-2nd-Generation-Window-Vacuum-Cleaner-Stand-Alone-Karcher-/141905558259?epid=1261053371&hash=item210a3afaf3:g:8dMAAOSwKtVWw1HC
p204
aVhttp://www.ebay.com/itm/Vacuum-Cleaner-Hoover-Electrolux-Henry-Air-Fresheners-CHOOSE-QUANTITY-/262286311587?var=&hash=item3d117b80a3:m:mponcZ5u4UsqBRZmmqBGXfg
p205
aVhttp://www.ebay.com/itm/2-XL-EXTRA-LARGE-VACUUM-STACKABLE-DUVET-BEDDING-STORAGE-BAGS-RUSSEL-/172087005132?epid=1813488232&hash=item28112f4fcc:g:VIsAAOSw--1WsT-D
p206
aVhttp://www.ebay.com/itm/Replacement-Vacuum-Cleaner-Dust-Bags-For-Hoover-H4-/301859311087?epid=1655899129&hash=item4648378def:g:GyMAAOSwJb9WqfUP
p207
aVhttp://www.ebay.com/itm/Replacement-Vacuum-Cleaner-Dust-Bags-For-G-Dirt-Devil-Royal-Handy-/301859279700?epid=1755954017&hash=item4648371354:g:ow0AAOSwX~dWqeaz
p208
aVhttp://www.ebay.com/itm/Henry-Vacuum-Cleaner-Hoover-Air-Freshner-Sticks-Pet-Odours-Remover-Pack-Of-10-/131706193365?epid=1789164752&hash=item1eaa4d05d5:g:dHwAAOSwa-dWj9K9
p209
aVhttp://www.ebay.com/itm/Miele-Vacuum-Cleaner-Hoover-Air-Freshner-Sticks-Pet-Odours-Remover-Pack-Of-10-/111880482804?epid=1888981270&hash=item1a0c98aff4:g:dHwAAOSwa-dWj9K9
p210
aVhttp://www.ebay.com/itm/Miele-Vacuum-Cleaner-Hoover-Air-Freshner-Sticks-Pet-Odours-Remover-Pack-Of-5-/131706193302?epid=1988934427&hash=item1eaa4d0596:g:2ToAAOSwaA5Wj9FO
p211
aVhttp://www.ebay.com/itm/Electrolux-Vacuum-Cleaner-Air-Freshner-Sticks-Pet-Odours-Remover-Pack-Of-5-/111880482768?hash=item1a0c98afd0:g:2ToAAOSwaA5Wj9FO
p212
aVhttp://www.ebay.com/itm/Universal-Vacuum-Cleaner-Air-Freshner-Sticks-Pet-Odours-Remover-Pack-Of-5-/131706192981?hash=item1eaa4d0455:g:2ToAAOSwaA5Wj9FO
p213
aVhttp://www.ebay.com/itm/Vax-Vacuum-Cleaner-Hoover-Air-Freshner-Sticks-Pet-Odours-Remover-Pack-Of-5-/111880482162?epid=1289036082&hash=item1a0c98ad72:g:2ToAAOSwaA5Wj9FO
p214
aVhttp://www.ebay.com/itm/Vax-Vacuum-Cleaner-Hoover-Air-Freshner-Sticks-Pet-Odours-Remover-Pack-Of-10-/121870604172?epid=1588988054&hash=item1c600dd78c:g:dHwAAOSwa-dWj9K9
p215
aVhttp://www.ebay.com/itm/Henry-Vacuum-Cleaner-Hoover-Air-Freshner-Sticks-Pet-Odours-Remover-Pack-Of-20-/131706192710?epid=1189100393&hash=item1eaa4d0346:g:~qYAAOSwoydWj9L1
p216
aVhttp://www.ebay.com/itm/Sebo-Vacuum-Cleaner-Hoover-Air-Freshner-Sticks-Pet-Odours-Remover-Pack-Of-10-/131706192662?epid=1388975947&hash=item1eaa4d0316:g:dHwAAOSwa-dWj9K9
p217
aVhttp://www.ebay.com/itm/Sebo-Vacuum-Cleaner-Hoover-Air-Freshner-Sticks-Pet-Odours-Remover-Pack-Of-20-/121870603537?epid=1789035799&hash=item1c600dd511:g:~qYAAOSwoydWj9L1
p218
aVhttp://www.ebay.com/itm/Electrolux-Vacuum-Cleaner-Air-Freshner-Sticks-Pet-Odours-Remover-Pack-Of-10-/121870603519?hash=item1c600dd4ff:g:dHwAAOSwa-dWj9K9
p219
aVhttp://www.ebay.com/itm/Universal-Vacuum-Cleaner-Air-Freshner-Sticks-Pet-Odours-Remover-Pack-Of-10-/111880480925?hash=item1a0c98a89d:g:dHwAAOSwa-dWj9K9
p220
aVhttp://www.ebay.com/itm/Henry-Vacuum-Cleaner-Hoover-Air-Freshner-Sticks-Pet-Odours-Remover-Pack-Of-5-/131706192129?epid=1988934537&hash=item1eaa4d0101:g:2ToAAOSwaA5Wj9FO
p221
aVhttp://www.ebay.com/itm/Miele-Vacuum-Cleaner-Hoover-Air-Freshner-Sticks-Pet-Odours-Remover-Pack-Of-20-/111880480865?epid=1388975048&hash=item1a0c98a861:g:~qYAAOSwoydWj9L1
p222
aVhttp://www.ebay.com/itm/EZ-Vac-Hanging-Vacuum-Storage-Bag-With-Cover-Large-/401055248243?epid=1540104684&hash=item5d60c16f73:g:1s8AAOSwHnFVo2tV
p223
aVhttp://www.ebay.com/itm/KLARSTEIN-SUPER-PRIMA-30-L-WET-DRY-VACUUM-CLEANER-INDUSTRIAL-SHOP-VAC-1200W-/201501373273?hash=item2eea6af359:g:KL8AAOSwa~BYY8r4
p224
aVhttp://www.ebay.com/itm/Sebo-Vacuum-Cleaner-Hoover-Air-Freshner-Sticks-Pet-Odours-Remover-Pack-Of-5-/131696745430?epid=1488983544&hash=item1ea9bcdbd6:g:2ToAAOSwaA5Wj9FO
p225
aVhttp://www.ebay.com/itm/6-x-UNIVERSAL-Spray-Bottle-Cover-Cloth-Glass-Cleaner-Pads-for-Window-Vacuum-Vac-/262223710442?hash=item3d0dc048ea:g:MUwAAOSwZG9Wik-9
p226
aVhttp://www.ebay.com/itm/2-x-UNIVERSAL-Spray-Bottle-Cover-Cloth-Glass-Cleaner-Pads-for-Window-Vacuum-Vac-/262223673058?hash=item3d0dbfb6e2:g:LgkAAOSwT~9Wikt0
p227
aVhttp://www.ebay.com/itm/Spray-Bottle-Kit-for-Karcher-WV5-Premium-Window-Vacuum-Cloth-Cover-Pad-/252237364787?hash=item3aba84be33:g:INkAAOSwHaBWiirM
p228
aVhttp://www.ebay.com/itm/4-x-UNIVERSAL-Spray-Bottle-Cover-Cloth-Glass-Cleaner-Pads-for-Window-Vacuum-Vac-/281900845134?hash=item41a299884e:g:ldsAAOSwT~9Wik87
p229
aVhttp://www.ebay.com/itm/UNIVERSAL-Spray-Bottle-Cloth-Cover-Pad-Cleaning-Kit-for-Window-Vacuum-Glass-Vac-/281900819158?epid=3002685795&hash=item41a29922d6:g:INkAAOSwHaBWiirM
p230
aVhttp://www.ebay.com/itm/4-x-Spray-Bottle-Cover-Cloth-Glass-Cleaner-Pad-for-KARCHER-WV5-Window-Vacuum-Vac-/381509697556?epid=1889053070&hash=item58d3c00014:g:UzIAAOSw-7RVHT9R
p231
aVhttp://www.ebay.com/itm/Henry-Vacuum-Cleaner-Hoover-Air-Freshener-Sticks-Pet-Odours-Remover-Pack-Of-20-/121859994797?hash=item1c5f6bf4ad:g:~qYAAOSwoydWj9L1
p232
aVhttp://www.ebay.com/itm/Henry-Vacuum-Cleaner-Hoover-Air-Freshener-Sticks-Pet-Odours-Remover-Pack-Of-10-/111869169242?epid=1988996808&hash=item1a0bec0e5a:g:dHwAAOSwa-dWj9K9
p233
aVhttp://www.ebay.com/itm/Henry-Vacuum-Cleaner-Hoover-Air-Freshener-Sticks-Pet-Odours-Remover-Pack-Of-5-/131695927272?epid=1888893307&hash=item1ea9b05fe8:g:2ToAAOSwaA5Wj9FO
p234
aVhttp://www.ebay.com/itm/Vax-Vacuum-Cleaner-Hoover-Air-Freshener-Sticks-Pet-Odours-Remover-Pack-Of-10-/121859993643?epid=1188956705&hash=item1c5f6bf02b:g:dHwAAOSwa-dWj9K9
p235
aVhttp://www.ebay.com/itm/Vax-Vacuum-Cleaner-Hoover-Air-Freshener-Sticks-Pet-Odours-Remover-Pack-Of-5-/121859993600?hash=item1c5f6bf000:g:2ToAAOSwaA5Wj9FO
p236
aVhttp://www.ebay.com/itm/Universal-Vacuum-Cleaner-Air-Freshener-Sticks-Pet-Odours-Remover-Pack-Of-5-/121859992877?hash=item1c5f6bed2d:g:2ToAAOSwaA5Wj9FO
p237
aVhttp://www.ebay.com/itm/Universal-Vacuum-Cleaner-Air-Freshener-Sticks-Pet-Odours-Remover-Pack-Of-10-/131695925911?hash=item1ea9b05a97:g:dHwAAOSwa-dWj9K9
p238
aVhttp://www.ebay.com/itm/Universal-Vacuum-Cleaner-Air-Freshener-Sticks-Pet-Odours-Remover-Pack-Of-20-/131695925897?hash=item1ea9b05a89:g:~qYAAOSwoydWj9L1
p239
aVhttp://www.ebay.com/itm/Electrolux-Vacuum-Cleaner-Air-Freshener-Sticks-Pet-Odours-Remover-Pack-Of-5-/111869167471?hash=item1a0bec076f:g:2ToAAOSwaA5Wj9FO
p240
aVhttp://www.ebay.com/itm/Electrolux-Vacuum-Cleaner-Air-Freshener-Sticks-Pet-Odours-Remover-Pack-Of-10-/131695925215?hash=item1ea9b057df:g:dHwAAOSwa-dWj9K9
p241
aVhttp://www.ebay.com/itm/Electrolux-Vacuum-Cleaner-Air-Freshener-Sticks-Pet-Odours-Remover-Pack-Of-20-/121859991982?hash=item1c5f6be9ae:g:~qYAAOSwoydWj9L1
p242
aVhttp://www.ebay.com/itm/Miele-Vacuum-Cleaner-Hoover-Air-Freshener-Sticks-Pet-Odours-Remover-Pack-Of-5-/111869166693?epid=1388969220&hash=item1a0bec0465:g:2ToAAOSwaA5Wj9FO
p243
aVhttp://www.ebay.com/itm/Miele-Vacuum-Cleaner-Hoover-Air-Freshener-Sticks-Pet-Odours-Remover-Pack-Of-10-/111869166645?epid=1888891402&hash=item1a0bec0435:g:dHwAAOSwa-dWj9K9
p244
aVhttp://www.ebay.com/itm/Miele-Vacuum-Cleaner-Hoover-Air-Freshener-Sticks-Pet-Odours-Remover-Pack-Of-20-/111869166611?epid=1888890832&hash=item1a0bec0413:g:~qYAAOSwoydWj9L1
p245
aVhttp://www.ebay.com/itm/Sebo-Vacuum-Cleaner-Hoover-Air-Freshener-Sticks-Pet-Odours-Remover-Pack-Of-20-/131695922765?epid=1089009098&hash=item1ea9b04e4d:g:~qYAAOSwoydWj9L1
p246
aVhttp://www.ebay.com/itm/Sebo-Vacuum-Cleaner-Hoover-Air-Freshener-Sticks-Pet-Odours-Remover-Pack-Of-10-/131695921584?hash=item1ea9b049b0:g:dHwAAOSwa-dWj9K9
p247
aVhttp://www.ebay.com/itm/Sebo-Vacuum-Cleaner-Hoover-Air-Freshener-Sticks-Pet-Odours-Remover-Pack-Of-5-/121859987105?epid=1789027956&hash=item1c5f6bd6a1:g:2ToAAOSwaA5Wj9FO
p248
aVhttp://www.ebay.com/itm/DYSON-VACUUM-Crevice-Tool-DC54-DC55-DC56-DC58-DC59-DC63-DC65-DC66-DC76-DC77-DC78-/221988663963?hash=item33af8e329b:g:ZTUAAOSwoydWjtPu
p249
aVhttp://www.ebay.com/itm/DYSON-VACUUM-Crevice-Tool-DC37-DC38-DC39-DC42-DC46-DC47-DC48-DC49-DC50-Ball-/321969617947?hash=item4af6e27c1b:g:ZTUAAOSwoydWjtPu
p250
aVhttp://www.ebay.com/itm/DYSON-VACUUM-Crevice-Tool-DC19T2-DC22-DC23-DC26-DC28-DC28c-DC29-DC30-DC32-DC36-/321969616006?hash=item4af6e27486:g:ZTUAAOSwoydWjtPu
p251
aVhttp://www.ebay.com/itm/DYSON-VACUUM-Crevice-Tool-DC16-DC24-DC27-DC51-DC52-DC53-DC75-Big-Ball-Cinetic-/221988654312?hash=item33af8e0ce8:g:ZTUAAOSwoydWjtPu
p252
aVhttp://www.ebay.com/itm/DYSON-VACUUM-Crevice-Tool-DC25-DC31-DC33-DC34-DC35-DC40-DC41-DC43-DC44-DC45-V6-/221988652491?hash=item33af8e05cb:g:ZTUAAOSwoydWjtPu
p253
aVhttp://www.ebay.com/itm/12x-Disc-VAC-Freshner-Spring-Summer-Meadow-For-Pet-Lovers-All-Vacuum-Cleaners-/151931634732?var=&hash=item235fd4c42c:m:mpDxGf4KtnpTWlGRqICGuMw
p254
aVhttp://www.ebay.com/itm/10-AIR-VACUUM-AIR-FRESHNERS-FRESHEN-DEODORISE-CLEANER-FRAGRANCED-HOOVER-DUST-/361454710412?var=&epid=1552908677&hash=item5428612e8c:m:mERc02IFLUtEhXtaphV5tdg
p255
aVhttp://www.ebay.com/itm/ONECONCEPT-CLEAN-450-W-RED-BAGLESS-COMPACT-CYLINDER-HANDHELD-VAC-VACUUM-CLEANER-/231780812654?epid=1542273049&hash=item35f736876e:g:op4AAOSw9GhYY6-4
p256
aVhttp://www.ebay.com/itm/ONECONCEPT-CLEANBUTLER-HANDHELD-VACUUM-CLEANER-450W-PERMANENT-FILTER-VIOLET-/231780812592?epid=1442259341&hash=item35f7368730:g:HD4AAOSwxN5Wavds
p257
aVhttp://www.ebay.com/itm/30L-WET-DRY-VACUUM-CLEANER-INDUSTRIAL-BAGLESS-SHOP-WAREHOUSE-1200W-FREE-P-P-UK-/291634502469?hash=item43e6c55b45:g:dzkAAOSw44BYY8M0
p258
aVhttp://www.ebay.com/itm/Leifheit-Rechargeable-WINDOW-VACUUM-Instant-Water-Removal-No-Wet-Frames-2976-1-/401035337534?epid=1946390930&hash=item5d5f919f3e:g:QRIAAMXQEgpTGHvc
p259
aVhttp://www.ebay.com/itm/Miele-HyClean-GN-Vacuum-Bags-/301809051168?hash=item464538a620:g:IbYAAOSwf-VWVyKb
p260
aVhttp://www.ebay.com/itm/Glade-Drop-in-Vac-Lily-of-the-Valley-Vacuum-Cleaner-Fresheners-/121811550473?epid=1387809974&hash=item1c5c88c109:g:H3sAAOSwAYtWQaiG
p261
aVhttp://www.ebay.com/itm/ROBOTIC-VACUUM-HOOVER-FLOOR-CARPET-CLEANER-BAGLESS-CLEANING-FREE-P-P-UK-DEAL-/291610330453?epid=1740740020&hash=item43e5548555:g:pcsAAOSw-0xYY8fK
p262
aVhttp://www.ebay.com/itm/CORDLESS-GLASS-WINDOW-VAC-VACUUM-RECHARGEABLE-CLEANER-deluxe-model-/161878010174?hash=item25b0ae693e:g:4BAAAOSwstxVS1jh
p263
aVhttp://www.ebay.com/itm/Kitchen-Craft-KitschNFun-Dog-Crumb-Pet-Table-Top-Desktop-Vacuum-Cleaner-/252142520751?hash=item3ab4dd89af:g:NAMAAOSwI-BWLgVZ
p264
aVhttp://www.ebay.com/itm/Kitchen-Craft-KitschNFun-Cat-Crumb-Pet-Table-Top-Desktop-Vacuum-Cleaner-/272027488914?epid=1602895561&hash=item3f561a1292:g:NacAAOSwA4dWLgVh
p265
aVhttp://www.ebay.com/itm/Acana-Ozmo-Vacuum-Deoderiser-Freshener-x-4-/401015372382?epid=1176732704&hash=item5d5e60fa5e:g:vIwAAOSwXshWr9K~
p266
aVhttp://www.ebay.com/itm/PACK-OF-2-EXTRA-LARGE-STACKABLE-GUSSETED-VACUUM-VAC-DUVET-BEDDING-STORAGE-BAGS-/201439543913?epid=1112710443&hash=item2ee6bb8269:g:6xoAAOSwjNBWCumN
p267
aVhttp://www.ebay.com/itm/Original-Vacuum-Sac-x-3-12HS-/331656565033?epid=1128714198&hash=item4d38459129:g:DEsAAOSwiLdV-V~L
p268
aVhttp://www.ebay.com/itm/Neutradol-Original-Vacuum-Sac-x-3-/400995997564?epid=1144981850&hash=item5d5d39577c:g:mCgAAOSw5dNWsnD3
p269
aVhttp://www.ebay.com/itm/Neutradol-Super-Fresh-Vacuum-Sac-x-3-/201430291081?epid=1045007054&hash=item2ee62e5289:g:ow0AAOSwnLdWsnDX
p270
aVhttp://www.ebay.com/itm/NEW-Vac-Disc-Freshener-For-All-Vacuum-Cleaners-Great-For-Pet-Lovers-6-Pack-/391249288627?var=&epid=1007828071&hash=item5b18465db3:m:mi5L3F1mp337FynoTxXECdQ
p271
aVhttp://www.ebay.com/itm/NUMATIC-NVM-1CH-Hepa-Flo-Henry-Vacuum-Cleaner-Hoover-Dust-Bags-2-x-Packs-Of-10-/121747924543?hash=item1c58bde63f:g:NcwAAOSwzgRWvFpP
p272
aVhttp://www.ebay.com/itm/4-x-KARCHER-WV65-Window-Vacuum-Cloths-Covers-Spray-Bottle-Glass-Vac-Cleaner-Pads-/281773581498?epid=719526096&hash=item419b03a4ba:g:h~cAAOSw9N1VzdUn
p273
aVhttp://www.ebay.com/itm/2-x-KARCHER-WV60-Window-Vacuum-Cloths-Covers-Spray-Bottle-Glass-Vac-Cleaner-Pads-/281773581475?epid=1543955622&hash=item419b03a4a3:g:f2UAAOSwjVVVzcjg
p274
aVhttp://www.ebay.com/itm/4-x-KARCHER-WV60-Window-Vacuum-Cloths-Covers-Spray-Bottle-Glass-Vac-Cleaner-Pads-/271957626470?epid=719526096&hash=item3f51f00e66:g:JPYAAOSwLVZVzdUW
p275
aVhttp://www.ebay.com/itm/2-x-KARCHER-WV70-Window-Vacuum-Cloths-Covers-Spray-Bottle-Glass-Vac-Cleaner-Pads-/271957626476?epid=1543955622&hash=item3f51f00e6c:g:f2UAAOSwjVVVzcjg
p276
aVhttp://www.ebay.com/itm/2-x-KARCHER-WV50-Window-Vacuum-Cloths-Covers-Spray-Bottle-Glass-Vac-Cleaner-Pads-/271957626463?epid=1543955622&hash=item3f51f00e5f:g:f2UAAOSwjVVVzcjg
p277
aVhttp://www.ebay.com/itm/4-x-KARCHER-WV75-Window-Vacuum-Cloths-Covers-Spray-Bottle-Glass-Vac-Cleaner-Pads-/281773581452?epid=719526096&hash=item419b03a48c:g:soIAAOSwjVVVzdVl
p278
aVhttp://www.ebay.com/itm/4-x-KARCHER-WV2-WV5-Window-Vacuum-Cloths-Covers-Spray-Bottle-Glass-Vac-Pads-/281773581453?epid=719526096&hash=item419b03a48d:g:W4wAAOSwHnFVzdSq
p279
aVhttp://www.ebay.com/itm/4-x-KARCHER-WV70-Window-Vacuum-Cloths-Covers-Spray-Bottle-Glass-Vac-Cleaner-Pads-/271957626446?epid=719526096&hash=item3f51f00e4e:g:TSkAAOSw3ydVzdVJ
p280
aVhttp://www.ebay.com/itm/4-x-KARCHER-WV50-Window-Vacuum-Cloths-Covers-Spray-Bottle-Glass-Vac-Cleaner-Pads-/271957626448?epid=719526096&hash=item3f51f00e50:g:fv8AAOSw9N1VzdTQ
p281
aVhttp://www.ebay.com/itm/2-x-KARCHER-WV65-Window-Vacuum-Cloths-Covers-Spray-Bottle-Glass-Vac-Cleaner-Pads-/281773581436?epid=1543955622&hash=item419b03a47c:g:f2UAAOSwjVVVzcjg
p282
aVhttp://www.ebay.com/itm/2-KARCHER-WV2-WV5-Window-Vacuum-Cloths-Covers-Spray-Bottle-Glass-Vac-Pads-/271957626430?epid=1543955622&hash=item3f51f00e3e:g:f2UAAOSwjVVVzcjg
p283
aVhttp://www.ebay.com/itm/2-x-KARCHER-WV75-Window-Vacuum-Cloths-Covers-Spray-Bottle-Glass-Vac-Cleaner-Pads-/271957626435?epid=1543955622&hash=item3f51f00e43:g:f2UAAOSwjVVVzcjg
p284
aVhttp://www.ebay.com/itm/2-x-KARCHER-WV55-Window-Vacuum-Cloths-Covers-Spray-Bottle-Glass-Vac-Cleaner-Pads-/281773581423?epid=1543955622&hash=item419b03a46f:g:f2UAAOSwjVVVzcjg
p285
aVhttp://www.ebay.com/itm/8-x-KARCHER-WV70-Window-Vac-Vacuum-Cloths-Covers-Glass-Pads-Cleaning-Capsules-/381344479573?epid=1088790622&hash=item58c9e6f955:g:urcAAOSwgQ9Vt4d1
p286
aVhttp://www.ebay.com/itm/2-x-Window-Vac-Vacuum-Cleaner-Rubber-Squeegee-Blades-For-Karcher-WV70-WV75-280mm-/311412370355?epid=892078721&hash=item48819fabb3:g:PYMAAOSw~gRVt2cQ
p287
aVhttp://www.ebay.com/itm/2-x-Window-Vac-Vacuum-Cleaner-Rubber-Squeegee-Blades-For-Karcher-WV50-WV60-280mm-/301698796925?epid=1791175586&hash=item463ea64d7d:g:PYMAAOSw~gRVt2cQ
p288
aVhttp://www.ebay.com/itm/2-x-Window-Vac-Vacuum-Cleaner-Rubber-Squeegee-Blades-For-Karcher-WV2-WV5-280mm-/391211345099?epid=1188803845&hash=item5b160364cb:g:PYMAAOSw~gRVt2cQ
p289
aVhttp://www.ebay.com/itm/KARCHER-WV2-PLUS-Window-Vac-Vacuum-Cordless-Handheld-Glass-Mirror-Cleaner-Device-/171866569495?epid=677596779&hash=item28040bbb17:g:0pYAAOSwdGFY3Q98
p290
aVhttp://www.ebay.com/itm/DRIVE-BELT-Hoover-Upright-GLOBE-TWIST-AND-STEER-Vacuum-REPLACES-V34-0385-0121-x2-/131556032562?var=&hash=item1ea159c032:m:m334TbYH-T_E6lvdOWccgwg
p291
aVhttp://www.ebay.com/itm/2-Packs-of-Genuine-Miele-FJM-Vacuum-Bags-Total-of-8-Bags-FREE-DELIVERY-/351439968858?hash=item51d3745a5a:g:RJ8AAOSwxH1T36D8
p292
aVhttp://www.ebay.com/itm/KIRBY-Sentria-Vacuum-Cleaner-Style-F-Hoover-Bags-G10-G10E-G10SE-New-Twist-Fit-/252005508548?epid=505162053&hash=item3aacb2e5c4:g:Sp4AAOSw0vBUkZWI
p293
aVhttp://www.ebay.com/itm/6-x-KIRBY-Vacuum-Cleaner-Bags-Hoover-HEPA-Micron-Magic-G10-G10E-G10SE-F-Twist-/261942454900?epid=532387157&hash=item3cfcfcaa74:g:Sp4AAOSw0vBUkZWI
p294
aVhttp://www.ebay.com/itm/Heated-Vacuum-Ironing-Board-Table-by-Snail-For-Faster-Better-Ironing-Results-/171834475663?hash=item280222048f:g:m34AAOSwMmBViKvp
p295
aVhttp://www.ebay.com/itm/KARCHER-WV2-WV5-Window-Vacuum-Cleaner-rubber-blades-170mm-x-2-SMALL-HEAD-new-/301651436234?epid=1238393073&hash=item463bd3a2ca:g:QSAAAMXQHU1RpyXK
p296
aVhttp://www.ebay.com/itm/KARCHER-WV2-WV5-Window-Vacuum-Cleaner-Squeegee-Rubber-Blades-280mm-x-2-new-/301651430558?epid=810872034&hash=item463bd38c9e:g:iaAAAOxyxSNRnfvx
p297
aVhttp://www.ebay.com/itm/Floor-Sweeper-Vacuum-Lower-Handle-for-GTECH-SW02-SW04-SW08-GSW09-SW11-SW17-SW19-/301646976284?hash=item463b8f951c:g:RqsAAOSwxH1UFyb6
p298
aVhttp://www.ebay.com/itm/2-x-Microfibre-Cleaning-Pads-Cloths-For-Karcher-WV2-WV5-Window-Vacuums-/301637952084?epid=1188743592&hash=item463b05e254:g:OIMAAOSwPe1UJDRS
p299
aVhttp://www.ebay.com/itm/To-fit-10-MIELE-FJM-Type-Purefilta-Hepa-Hoover-VACUUM-DUST-BAGS-/271872069595?epid=1554317687&hash=item3f4cd68fdb:g:dUYAAOSw8w1X7SHR
p300
aVhttp://www.ebay.com/itm/WINDOW-VACUUM-VAC-RECHARGEABLE-CORDLESS-GLASS-CLEANER-top-of-the-range-/161698030776?hash=item25a5f424b8:g:4BAAAOSwstxVS1jh
p301
aVhttp://www.ebay.com/itm/2-x-KARCHER-WV75-Window-Vac-Vacuum-Cloths-Covers-Glass-Pads-Cleaning-Capsules-/191560744677?epid=1188682906&hash=item2c99e8fee5:g:pdsAAOSwNSxVMON~
p302
aVhttp://www.ebay.com/itm/6-x-KARCHER-WV50-Window-Vac-Vacuum-Cloths-Covers-Glass-Pads-Cleaning-Capsules-/191560751908?epid=1988651858&hash=item2c99e91b24:g:OV4AAOSwPhdVMOdK
p303
aVhttp://www.ebay.com/itm/2-x-KARCHER-WV70-Window-Vac-Vacuum-Cloths-Covers-Glass-Pads-Cleaning-Capsules-/191560743858?epid=1688715206&hash=item2c99e8fbb2:g:pdsAAOSwNSxVMON~
p304
aVhttp://www.ebay.com/itm/4-x-KARCHER-WV50-Window-Vac-Vacuum-Cloths-Covers-Glass-Pads-Cleaning-Capsules-/191560742490?epid=1388694339&hash=item2c99e8f65a:g:72AAAOSwNSxVMOYd
p305
aVhttp://www.ebay.com/itm/2-x-KARCHER-WV65-Window-Vac-Vacuum-Cloths-Covers-Glass-Pads-Cleaning-Capsules-/381229502616?epid=1688714936&hash=item58c30c9098:g:pdsAAOSwNSxVMON~
p306
aVhttp://www.ebay.com/itm/2-x-KARCHER-WV60-Window-Vac-Vacuum-Cloths-Covers-Glass-Pads-Cleaning-Capsules-/311340199608?epid=1888625472&hash=item487d526eb8:g:pdsAAOSwNSxVMON~
p307
aVhttp://www.ebay.com/itm/2-x-KARCHER-WV55-Window-Vac-Vacuum-Cloths-Covers-Glass-Pads-Cleaning-Capsules-/381229501490?epid=1088664336&hash=item58c30c8c32:g:pdsAAOSwNSxVMON~
p308
aVhttp://www.ebay.com/itm/Karcher-WV2-Premium-2nd-Generation-Window-Vacuum-Cleaner-/121613086522?epid=687839062&hash=item1c50b46f3a:g:IUMAAOSwNSxVHyK-
p309
aVhttp://www.ebay.com/itm/4-x-KARCHER-WV70-Window-Vacuum-Cloths-Covers-Spray-Bottle-Glass-Vac-Cleaner-Pads-/191550028146?epid=1694023413&hash=item2c99457972:g:UzIAAOSw-7RVHT9R
p310
aVhttp://www.ebay.com/itm/2-x-KARCHER-WV50-Window-Vacuum-Cloths-Covers-Spray-Bottle-Glass-Vac-Cleaner-Pads-/191550016771?epid=865353308&hash=item2c99454d03:g:c8IAAOSw-7RVHTaO
p311
aVhttp://www.ebay.com/itm/4-x-KARCHER-WV70-Window-Vacuum-Cloths-Covers-Spray-Bottle-Glass-Vac-Cleaner-Pads-/191550028146?epid=1694023413&hash=item2c99457972:g:UzIAAOSw-7RVHT9R
p312
aVhttp://www.ebay.com/itm/2-x-KARCHER-WV50-Window-Vacuum-Cloths-Covers-Spray-Bottle-Glass-Vac-Cleaner-Pads-/191550016771?epid=865353308&hash=item2c99454d03:g:c8IAAOSw-7RVHTaO
p313
aVhttp://www.ebay.com/itm/6-x-KARCHER-WV50-Window-Vacuum-Cloths-Covers-Spray-Bottle-Glass-Vac-Cleaner-Pads-/311330765892?epid=1788742845&hash=item487cc27c44:g:fV8AAOSwBLlVHU1g
p314
aVhttp://www.ebay.com/itm/2-x-KARCHER-WV60-Window-Vacuum-Cloths-Covers-Spray-Bottle-Glass-Vac-Cleaner-Pads-/381213613843?epid=865369976&hash=item58c21a1f13:g:c8IAAOSw-7RVHTaO
p315
aVhttp://www.ebay.com/itm/2-x-KARCHER-WV55-Window-Vacuum-Cloths-Covers-Spray-Bottle-Glass-Vac-Cleaner-Pads-/311330722728?epid=865343333&hash=item487cc1d3a8:g:c8IAAOSw-7RVHTaO
p316
aVhttp://www.ebay.com/itm/2-x-KARCHER-WV75-Window-Vacuum-Cloths-Covers-Spray-Bottle-Glass-Vac-Cleaner-Pads-/381213618528?epid=865344810&hash=item58c21a3160:g:c8IAAOSw-7RVHTaO
p317
aVhttp://www.ebay.com/itm/6-x-KARCHER-WV75-Window-Vacuum-Cloths-Covers-Spray-Bottle-Glass-Vac-Cleaner-Pads-/311330767668?epid=1288745644&hash=item487cc28334:g:fV8AAOSwBLlVHU1g
p318
aVhttp://www.ebay.com/itm/4-x-KARCHER-WV60-Window-Vacuum-Cloths-Covers-Spray-Bottle-Glass-Vac-Cleaner-Pads-/381213630401?epid=1888613777&hash=item58c21a5fc1:g:UzIAAOSw-7RVHT9R
p319
aVhttp://www.ebay.com/itm/6-x-KARCHER-WV60-Window-Vacuum-Cloths-Covers-Spray-Bottle-Glass-Vac-Cleaner-Pads-/381213676530?epid=1588692555&hash=item58c21b13f2:g:fV8AAOSwBLlVHU1g
p320
aVhttp://www.ebay.com/itm/4-x-KARCHER-WV65-Window-Vacuum-Cloths-Covers-Spray-Bottle-Glass-Vac-Cleaner-Pads-/311330731670?epid=1488695528&hash=item487cc1f696:g:UzIAAOSw-7RVHT9R
p321
aVhttp://www.ebay.com/itm/4-x-KARCHER-WV75-Window-Vacuum-Cloths-Covers-Spray-Bottle-Glass-Vac-Cleaner-Pads-/381213628405?epid=719526096&hash=item58c21a57f5:g:UzIAAOSw-7RVHT9R
p322
aVhttp://www.ebay.com/itm/2-x-KARCHER-WV65-Window-Vacuum-Cloths-Covers-Spray-Bottle-Glass-Vac-Cleaner-Pads-/191550017594?epid=865354330&hash=item2c9945503a:g:c8IAAOSw-7RVHTaO
p323
aVhttp://www.ebay.com/itm/4-x-KARCHER-WV55-Window-Vacuum-Cloths-Covers-Spray-Bottle-Glass-Vac-Cleaner-Pads-/311330732341?epid=1494278031&hash=item487cc1f935:g:UzIAAOSw-7RVHT9R
p324
aVhttp://www.ebay.com/itm/4-x-KARCHER-WV50-Window-Vacuum-Cloths-Covers-Spray-Bottle-Glass-Vac-Cleaner-Pads-/381213632451?epid=1292162169&hash=item58c21a67c3:g:UzIAAOSw-7RVHT9R
p325
aVhttp://www.ebay.com/itm/2-x-KARCHER-WV70-Window-Vacuum-Cloths-Covers-Spray-Bottle-Glass-Vac-Cleaner-Pads-/381213617072?epid=865335664&hash=item58c21a2bb0:g:c8IAAOSw-7RVHTaO
p326
aVhttp://www.ebay.com/itm/MIELE-S4210-s4211-FJM-Type-Hoover-VACUUM-HEPA-DUST-10-BAGS-Filters-/271810290621?epid=517077985&hash=item3f4927e3bd:g:ybUAAOSwpLNX7SEw
p327
aVhttp://www.ebay.com/itm/To-fit-10-MIELE-FJM-Type-Hoover-VACUUM-HEPA-DUST-Bags-Filters-/251884445044?epid=1554317687&hash=item3aa57b9d74:g:vGcAAOSwmLlX7SD6
p328
aVhttp://www.ebay.com/itm/UNI104-5-Vacuum-Cleaner-Bags-For-Numatic-Henry-Hetty-James-Basil-David-Edward-/351329089221?epid=1007977243&hash=item51ccd876c5:g:cNoAAOSwPe1T36Dw
p329
aVhttp://www.ebay.com/itm/To-fit-Bosch-Type-K-Arriva-Purefilta-HEPA-Vacuum-Cleaner-Paper-Dust-Bag-x5-/271776755747?epid=820515875&hash=item3f47283023:g:ARMAAOSwd4tT80Uy
p330
aVhttp://www.ebay.com/itm/HOME-TEK-hometek-Hunter-Handheld-Vacuum-Cleaner-hoover-Filter-HT807-HG205-/331479645027?epid=1643475394&hash=item4d2db9fb63:g:8gcAAOSwyQtVwdS4
p331
aVhttp://www.ebay.com/itm/Ozmo-Vacuum-Deoderiser-Freshener-x-4-5625-/351303086431?epid=1313509383&hash=item51cb4bb15f:g:OyQAAOSwu4BVm8Uj
p332
aVhttp://www.ebay.com/itm/TWO-Microfibre-Cleaning-Pads-Cloths-For-Karcher-WV50-WV55-WV60-Window-Vacuums-/331466895071?hash=item4d2cf76edf:g:BW8AAOSwT6pVvhFE
p333
aVhttp://www.ebay.com/itm/TESCO-VC206-VC207-VC406-Vacuum-Cleaner-Bag-Hoover-Bags-Fresheners-10-or-20-Pack-/191496727376?var=&hash=item2c96182b50:m:msY0DapTB5Uvg2_zOoQ6HHg
p334
aVhttp://www.ebay.com/itm/Karcher-WV2-Premium-Window-Vac-Vacuum-Battery-Charger-Power-Supply-Genuine-/311258165019?epid=624564713&hash=item48786eaf1b:g:MWMAAOxy63FSsubw
p335
aVhttp://www.ebay.com/itm/Karcher-WV5-Window-Vac-Vacuum-Battery-Charger-Power-Supply-Genuine-/311258147272?epid=624564713&hash=item48786e69c8:g:MWMAAOxy63FSsubw
p336
aVhttp://www.ebay.com/itm/Window-Vac-Vacuum-Battery-Charger-Power-Supply-For-Karcher-WV5-/391030490726?epid=1188621459&hash=item5b0b3bc666:g:p4YAAOSwEK9UFycR
p337
aVhttp://www.ebay.com/itm/Karcher-WV2-Replacement-Window-Vac-Vacuum-Battery-Charger-Power-Supply-Genuine-/311258145720?epid=624564713&hash=item48786e63b8:g:MWMAAOxy63FSsubw
p338
aVhttp://www.ebay.com/itm/Window-Vac-Vacuum-Battery-Charger-Power-Supply-Compatible-with-Karcher-WV2-/391030481508?epid=1988590014&hash=item5b0b3ba264:g:p4YAAOSwEK9UFycR
p339
aVhttp://www.ebay.com/itm/Pack-of-10-Original-Numatic-Hepa-Flo-Henry-Vacuum-Hoover-Bags-NVM-1CH-604015-/281562114777?epid=1404682283&hash=item418e68ead9:g:MqIAAOSw-W5UtVhx
p340
aVhttp://www.ebay.com/itm/HENRY-HVR200-HVR200M-HVR200T-HVC200-Numatic-Vacuum-Dust-Bags-Hoover-Bag-x-10-20-/311237200179?var=&hash=item48772ec933:m:mchq045CbKFnGp1NasihsAA
p341
aVhttp://www.ebay.com/itm/GENUINE-HARRY-HHR200-HHR200a-HHR20012-Numatic-Vacuum-Bags-Cloth-Hoover-Bag-10-20-/191466039587?var=&hash=item2c9443e923:m:mfyu9sBJVesahwXbJLE3ghw
p342
aVhttp://www.ebay.com/itm/GENUINE-HENRY-HVR200-HVR200M-HVR200T-HVC200-Numatic-Vacuum-Bags-Hoover-Bag-10-20-/311237213991?var=&hash=item48772eff27:m:mfyu9sBJVesahwXbJLE3ghw
p343
aVhttp://www.ebay.com/itm/Genuine-HETTY-HET200-HET200a-HET200A2-Numatic-Vacuum-Bags-Cloth-Hoover-Bag-10-20-/381107044060?var=&hash=item58bbbffedc:m:mfyu9sBJVesahwXbJLE3ghw
p344
aVhttp://www.ebay.com/itm/HETTY-HET200-HET200a-HET200-A2-Numatic-Vacuum-Dust-Bags-Paper-Hoover-Bag-x-10-20-/381107044007?var=&hash=item58bbbffea7:m:mchq045CbKFnGp1NasihsAA
p345
aVhttp://www.ebay.com/itm/HARRY-HHR200-HHR200a-HHR200-12-Numatic-Vacuum-Bags-Paper-Hoover-Bag-x-10-20-Pk-/191466038452?var=&hash=item2c9443e4b4:m:mchq045CbKFnGp1NasihsAA
p346
aVhttp://www.ebay.com/itm/JAMES-JVC200-JVC225-JVC235-JVR225-Numatic-Vacuum-Dust-Bags-Hoover-Bag-x-10-20-/311237223499?var=&hash=item48772f244b:m:mfyu9sBJVesahwXbJLE3ghw
p347
aVhttp://www.ebay.com/itm/NUVAC-NNV200-VNR200-2-VNP180-NVH370-Numatic-Vacuum-Bags-Paper-Hoover-Bag-x-10-20-/381107052873?var=&hash=item58bbc02149:m:mchq045CbKFnGp1NasihsAA
p348
aVhttp://www.ebay.com/itm/NUVAC-NNV200-VNR200-2-VNP180-NVH370-Numatic-Vacuum-Bags-Cloth-Hoover-Bag-x-10-20-/381107054641?var=&hash=item58bbc02831:m:mfyu9sBJVesahwXbJLE3ghw
p349
aVhttp://www.ebay.com/itm/GENUINE-HENRY-XTRA-HVX200a-Numatic-Vacuum-Bags-Cloth-Hoover-Bag-x-10-20-Pk-/191466025828?var=&hash=item2c9443b364:m:mfyu9sBJVesahwXbJLE3ghw
p350
aVhttp://www.ebay.com/itm/HENRY-XTRA-HVX200a-Numatic-Vacuum-Cleaner-Dust-Bags-Paper-Hoover-Bag-x-10-20-Pk-/311237233305?var=&hash=item48772f4a99:m:mchq045CbKFnGp1NasihsAA
p351
aVhttp://www.ebay.com/itm/ORECK-XL-Vacuum-Cleaner-Upright-Hoover-Dust-Bag-XL100-XL200-XL888-XL988-XL5000-/311210560732?var=&hash=item4875984cdc:m:mFVh-MboN_VSCAyYP2i8vgA
p352
aVhttp://www.ebay.com/itm/ORECK-XL-Vacuum-Cleaner-Upright-Hoover-Dust-Bag-XL5300-XL8000-XL8300-XL9100-/191444200324?var=&hash=item2c92f6ab84:m:mjHMZQphC3WlzHVoySQdREg
p353
aVhttp://www.ebay.com/itm/ORECK-XL-Vacuum-Cleaner-Upright-Hoover-Bags-XL100-XL200-XL888-XL988-XL5000-/311210549035?var=&hash=item4875981f2b:m:mjHMZQphC3WlzHVoySQdREg
p354
aVhttp://www.ebay.com/itm/ORECK-XL-Vacuum-Cleaner-Upright-Hoover-Dust-Bag-XL9200-XL9300-XL9300E-XL9400-/311210551514?var=&hash=item48759828da:m:mjHMZQphC3WlzHVoySQdREg
p355
aVhttp://www.ebay.com/itm/ORECK-XL-Vacuum-Cleaner-Upright-Hoover-Bags-XL5300-XL8000-XL8300-XL9100-/381084662444?var=&hash=item58ba6a7aac:m:mFVh-MboN_VSCAyYP2i8vgA
p356
aVhttp://www.ebay.com/itm/ORECK-XL-Vacuum-Cleaner-Upright-Hoover-Bags-XL9200-XL9300-XL9300E-XL9400-/311210559883?var=&hash=item487598498b:m:mFVh-MboN_VSCAyYP2i8vgA
p357
aVhttp://www.ebay.com/itm/Purefilta-HEPA-Vacuum-10-Bags-Filter-Pack-To-fit-Miele-F-J-M-FJM-Red-Collar-/261684550108?epid=507089791&hash=item3ced9d59dc:g:GlkAAOSwPCVX7SEo
p358
aVhttp://www.ebay.com/itm/RUSSELL-HOBBS-Vacuum-Cleaner-Dust-Bag-E62-U62-Hoover-Bags-18213-Fresheners-/311183592198?var=&hash=item4873fccb06:m:mOXMftnjR8olk_xzdvelr4g
p359
aVhttp://www.ebay.com/itm/RUSSELL-HOBBS-Vacuum-Cleaner-Dust-Bag-E62-U62-Hoover-Bags-/381059853697?var=&hash=item58b8efed81:m:mSDRiPiOQpHd33ZG7BLexaw
p360
aVhttp://www.ebay.com/itm/TESCO-VC010-Vacuum-Cleaner-Dust-Bags-E62-U62-Bag-Fresheners-Spare-Filter-Pads-/311183582783?var=&hash=item4873fca63f:m:mOXMftnjR8olk_xzdvelr4g
p361
aVhttp://www.ebay.com/itm/NILFISK-Vacuum-Cleaner-Dust-Bag-E62-U62-Bags-Fresheners-Coupe-Neo-GM60-/311183589192?var=&hash=item4873fcbf48:m:mOXMftnjR8olk_xzdvelr4g
p362
aVhttp://www.ebay.com/itm/PROLINE-Vacuum-Cleaner-Dust-Bags-U62-E62-Spare-Bag-VC300-VC400-VC400C-Fresheners-/191421045533?var=&hash=item2c91955b1d:m:mOXMftnjR8olk_xzdvelr4g
p363
aVhttp://www.ebay.com/itm/NILFISK-Vacuum-Cleaner-Hoover-Dust-Bag-E62-DC0038-DCC038-DD2804-DD2821-DDCYLBG5-/381060670751?var=&hash=item58b8fc651f:m:mSDRiPiOQpHd33ZG7BLexaw
p364
aVhttp://www.ebay.com/itm/VAX-Vacuum-Bags-E62-U62-Hoover-Bag-Cylinder-VEC-03-Pet-V074-Swift-/311182586108?var=&hash=item4873ed70fc:m:mSDRiPiOQpHd33ZG7BLexaw
p365
aVhttp://www.ebay.com/itm/ELECTROLUX-E62-U62-Vacuum-Cleaner-Dust-Bags-The-Boss-Bag-B3100-B3106-B3107-B3116-/191420331521?var=&hash=item2c918a7601:m:mSDRiPiOQpHd33ZG7BLexaw
p366
aVhttp://www.ebay.com/itm/ARGOS-PROACTION-Vacuum-Cleaner-Bags-E62-U62-Paper-Bag-Spare-CJ718-SL204-Spare-/191420314359?var=&hash=item2c918a32f7:m:mMVtGBptoiMyMHTpLU6ku-A
p367
aVhttp://www.ebay.com/itm/TESCO-VC010-Vacuum-Cleaner-Dust-Bags-E62-U62-Bag-Spare-Replacement-/311182588947?var=&hash=item4873ed7c13:m:mSDRiPiOQpHd33ZG7BLexaw
p368
aVhttp://www.ebay.com/itm/DIRT-DEVIL-Vacuum-Cleaner-E62-Dust-Bag-DC0038-DCC038-DD2804-DD2821-DDCYLBG5-/191421031930?var=&hash=item2c919525fa:m:mOXMftnjR8olk_xzdvelr4g
p369
aVhttp://www.ebay.com/itm/NILFISK-Vacuum-Cleaner-Dust-Bag-E62-U62-Paper-Bags-Coupe-Neo-GM60-/191421011309?var=&hash=item2c9194d56d:m:mSDRiPiOQpHd33ZG7BLexaw
p370
aVhttp://www.ebay.com/itm/ELECTROLUX-E62-U62-Vacuum-Cleaner-Dust-Bags-B3100-B3106-B3107-B3116-Bag-Filter-/191421024275?var=&hash=item2c91950813:m:mOXMftnjR8olk_xzdvelr4g
p371
aVhttp://www.ebay.com/itm/VAX-Vacuum-Cleaner-Dust-Bags-E62-U62-Hoover-Bag-Essentials-VEC-03-Pet-V074-Swift-/381060689194?var=&hash=item58b8fcad2a:m:mOXMftnjR8olk_xzdvelr4g
p372
aVhttp://www.ebay.com/itm/PROLINE-Vacuum-Cleaner-Dust-Bags-U62-E62-Type-Spare-Bag-VC300-VC400-VC400C-/381059866192?var=&hash=item58b8f01e50:m:mSDRiPiOQpHd33ZG7BLexaw
p373
aVhttp://www.ebay.com/itm/KARCHER-Vacuum-Cleaner-Paper-Dust-Bags-TBS32-TBS34-TBS35-CW20-CW50-CW100-F-/381064798753?var=&hash=item58b93b6221:m:m_tc97ocRTXvLdpEc3WUEkg
p374
aVhttp://www.ebay.com/itm/KARCHER-MV2-Vacuum-Cleaner-Dust-Bag-Solid-Collar-Paper-Bags-Air-Fresheners-/311188442564?var=&hash=item487446cdc4:m:m122HqFGUzlkl-njkwwB_Wg
p375
aVhttp://www.ebay.com/itm/KIRBY-Vacuum-Cleaner-Drive-Belts-for-G3-G4-G5-Diamond-Sentria-Ultimate-G-/271681357693?var=&hash=item3f4178877d:m:m5LrueDWsgxNvanVhTDeF_g
p376
aVhttp://www.ebay.com/itm/ORIGINALE-BOSCH-MOTORE-DELLASPIRAPOLVERE-FILTRO-DI-PROTEZIONE-618907-/151473625238?hash=item2344881896:g:yUIAAOSwstxVKQLc
p377
aVhttp://www.ebay.com/itm/Vacuum-Cleaner-Freshener-Vac-Freshener-x6-FREE-P-P-/231381929650?epid=1007828071&hash=item35df700eb2:m:mu_-jxnWdp0WXIC_cxh2msA
p378
aVhttp://www.ebay.com/itm/Vacuum-Cleaner-Drive-Belts-Suitable-For-Panasonic-MCE4000-Series-MCUG302-/111482445268?hash=item19f4df1dd4:g:-aAAAOSwRLZT91a4
p379
aVhttp://www.ebay.com/itm/KARCHER-wv55-wv65-wv75-Window-Vacuum-Cleaner-rubber-blades-280mm-170mm-new-/291263664063?hash=item43d0aacfbf:g:ZmoAAMXQTghRIkJD
p380
aVhttp://www.ebay.com/itm/KARCHER-wv55-wv65-wv75-Window-Vacuum-Cleaner-blades-170mm-x-2-SMALL-HEAD-/301347381400?hash=item4629b42098:g:QSAAAMXQHU1RpyXK
p381
aVhttp://www.ebay.com/itm/KARCHER-wv55-wv65-wv75-Window-Vacuum-Cleaner-Rubber-Blades-280mm-x-2-NEW-/301347379190?hash=item4629b417f6:g:iaAAAOxyxSNRnfvx
p382
aVhttp://www.ebay.com/itm/Hand-Held-Vacuum-Cordless-Window-Glass-Cleaner-Microfibre-Pads-Kingavon-/281457456933?epid=1432889130&hash=item41882bf725:g:tZYAAOSwGvhULlhW
p383
aVhttp://www.ebay.com/itm/2-x-Microfibre-Cleaning-Pads-Cloths-For-Karcher-WV65-WV70-WV75-Window-Vacuums-/301327944659?epid=631711868&hash=item46288b8bd3:g:oq4AAOSwfcVUJDRg
p384
aVhttp://www.ebay.com/itm/2-x-Microfibre-Cleaning-Pads-Cloths-For-Karcher-WV50-WV55-WV60-Window-Vacuums-/311106664586?epid=1788650557&hash=item486f66f88a:g:OIMAAOSwPe1UJDRS
p385
aVhttp://www.ebay.com/itm/Dust-Bags-Paper-Hoover-Bag-for-PARKSIDE-LIDL-PNTS-1300-1400-1500-Vacuum-Cleaner-/191332418080?var=&hash=item2c8c4d0220:m:m0LS_2JT46-ons5r5xTfB_A
p386
aVhttp://www.ebay.com/itm/Vacuum-Cleaner-Dust-Bags-Paper-Hoover-Bag-for-PARKSIDE-LIDL-PNTS-1300-1400-1500-/380999130276?var=&hash=item58b5515ca4:m:mbH8y0iXmAJGrErvk9YI4Ow
p387
aVhttp://www.ebay.com/itm/ELECTROLUX-E53N-ES53-Vacuum-Hoover-Bags-Power-Plus-Z4471-Z4431-S-Z4432-Z4435-/311086156516?var=&hash=item486e2e0ae4:m:m5_A6jmW1D2TyIgW1nZbAtQ
p388
aVhttp://www.ebay.com/itm/ELECTROLUX-E53N-ES53-Vacuum-Hoover-Power-Plus-Z4431-S-Z4432-Z4435-Z4471-Bags-/380994848681?var=&hash=item58b51007a9:m:mWJWsZf8Yj100vt3voKypGg
p389
aVhttp://www.ebay.com/itm/HOOVER-H20-Vacuum-Dust-Bags-Purepower-Paper-Bag-Spare-PU2012-PU2115-Fresh-/191323467934?var=&hash=item2c8bc4709e:m:mMQPU0XPTcMRlTR3UW5UgCw
p390
aVhttp://www.ebay.com/itm/Hoover-Vacuum-Cleaner-Dust-Bags-H58-H63-H64-Whirlwind-Paper-TCPW2000-TCPW1450-/311086116326?var=&hash=item486e2d6de6:m:m7YXt73qDaDuw1ZzEvtdhng
p391
aVhttp://www.ebay.com/itm/Hoover-Vacuum-Paper-Dust-Bags-H58-H63-H64-Whirlwind-TCPW2000-TCPW1450-Fresheners-/191323419292?var=&hash=item2c8bc3b29c:m:mgwV-YaQZzZDAX9ZPigPilw
p392
aVhttp://www.ebay.com/itm/BUSH-ARGOS-Wet-Dry-Vacuum-Cleaner-Dust-Bag-Canister-Bags-Fresheners-/191323444305?var=&hash=item2c8bc41451:m:m0LS_2JT46-ons5r5xTfB_A
p393
aVhttp://www.ebay.com/itm/NILFISK-Vacuum-Cleaner-Hoover-Bags-Dust-Bag-Paper-GA70-GS80-GM80-GM80P-GD80-/380994820301?var=&hash=item58b50f98cd:m:m6gJ7mnFxM6bUD-SIrIKzNw
p394
aVhttp://www.ebay.com/itm/HOOVER-H20-Vacuum-Cleaner-Dust-Bags-Purepower-Paper-Bag-Spare-PU2012-PU2115-/191323461778?var=&hash=item2c8bc45892:m:mloxxBA4J7ZCS1UVVm6gXhw
p395
aVhttp://www.ebay.com/itm/PANASONIC-Vacuum-Cleaner-Hoover-Bags-Upright-Bag-10-20-Pk-MCUG302-MC-UG302-/380994841385?var=&hash=item58b50feb29:m:mDI9SWbb-NbsAtEYYHqnweQ
p396
aVhttp://www.ebay.com/itm/PANASONIC-Vacuum-Hoover-Bags-Upright-Bag-10-20-Pack-MCUG302-MC-UG302-/191323454690?var=&hash=item2c8bc43ce2:m:mUpDpk0d0XLt-oOe6VZJc4Q
p397
aVhttp://www.ebay.com/itm/MIELE-ASPIRAPOLVERE-PLASTICA-SACCHETTO-POLVERE-CUSTODIA-CORNICE-FISSAGGIO-/151407767249?hash=item23409b2ed1:g:JIsAAOSwDk5UEG0l
p398
aVhttp://www.ebay.com/itm/BOSCH-Vacuum-Cleaner-Bag-Hoover-Bags-Spare-SMILEY-ARRIVA-BSG1400-BSG1500-/191315524563?var=&hash=item2c8b4b3bd3:m:m8XVqJkmsZ024YdnNGpuvcw
p399
aVhttp://www.ebay.com/itm/ELECTROLUX-Z-4105-E59-U59-Vacuum-Bag-Hoover-Bag-Powerlite-Z3318-Z3319-Bags-/191315554011?var=&hash=item2c8b4baedb:m:m_pzZotnbMnUpSVrip5UFVw
p400
aVhttp://www.ebay.com/itm/ELECTROLUX-Z-4105-E59-U59-Vacuum-Bags-Hoover-Bag-Powerlite-Z3318-Z3319-/191315546288?var=&hash=item2c8b4b90b0:m:m2JWcijFY9JbFG17Yxv8dPg
p401
aVhttp://www.ebay.com/itm/BOSCH-Vacuum-Bag-Hoover-Dust-Bags-Spare-SMILEY-ARRIVA-BSG1400-BSG1500-/380991385569?var=&hash=item58b4db2fe1:m:m9f2MbGNbakMkVhNcbJxCPw
p402
aVhttp://www.ebay.com/itm/PANASONIC-Vacuum-Cleaner-MCE3011-MCE3001-Hoover-Bag-Upright-Bags-Fresheners-/311078950693?var=&hash=item486dc01725:m:mDI9SWbb-NbsAtEYYHqnweQ
p403
aVhttp://www.ebay.com/itm/PANASONIC-Vacuum-Cleaner-MCE3011-MCE3001-Hoover-Bag-Upright-Bags-10-20-Pk-/191315501090?var=&hash=item2c8b4ae022:m:mUpDpk0d0XLt-oOe6VZJc4Q
p404
aVhttp://www.ebay.com/itm/Goblin-Aztec-Vacuum-Dust-Bags-Paper-Hoover-Bag-340-342-344-1200-1250-Fresh-/380990789275?var=&hash=item58b4d2169b:m:mVPMwrEsbGll5K8MvTzGU_w
p405
aVhttp://www.ebay.com/itm/PANASONIC-Vacuum-Cleaner-MC-UG304-MCUG304-Hoover-Bags-Upright-Bag-10-20-/380990874739?var=&hash=item58b4d36473:m:mUpDpk0d0XLt-oOe6VZJc4Q
p406
aVhttp://www.ebay.com/itm/Goblin-Aztec-Vacuum-Dust-Bags-Paper-Hoover-Bag-340-342-344-1200-1250-/191314279617?var=&hash=item2c8b383cc1:m:mYAEUvsClxeHQUpVSGKQ0pw
p407
aVhttp://www.ebay.com/itm/HOOVER-H20-Vacuum-Bags-Purepower-U3470B-U3480-U3485-U3488-U3490-U3495-U3520-F-/311077727941?var=&hash=item486dad6ec5:m:mtPxUxaNjn_QvXuuINQP7Ww
p408
aVhttp://www.ebay.com/itm/HOOVER-H20-Vacuum-Dust-Bags-Purepower-U3470B-U3480-U3485-U3488-U3490-U3495-U3520-/191314309195?var=&hash=item2c8b38b04b:m:mloxxBA4J7ZCS1UVVm6gXhw
p409
aVhttp://www.ebay.com/itm/PANASONIC-Vacuum-Cleaner-MC-UG304-MCUG304-Hoover-Bags-Upright-Bag-10-or-20-/380990879657?var=&hash=item58b4d377a9:m:mDI9SWbb-NbsAtEYYHqnweQ
p410
aVhttp://www.ebay.com/itm/ELECTROLUX-E44-E49-Vacuum-Cleaner-Dust-Bags-MONDO-Hoover-Bag-Z1136-Z1150-Z1150E-/191305072746?var=&hash=item2c8aabc06a:m:m-PJBO2ZQz2V9LcueeYnUww
p411
aVhttp://www.ebay.com/itm/ELECTROLUX-E53N-ES53-Vacuum-Bags-Hoover-POWERMAX-Z4520-T-Z4590-ZCE2000-Bag-/380984971767?var=&hash=item58b47951f7:m:m5_A6jmW1D2TyIgW1nZbAtQ
p412
aVhttp://www.ebay.com/itm/HOOVER-Vacuum-Dust-Bags-Type-H18-Turbopower-2-U2090-U2106-U2107-U2111-U2119-Bag-/380984995053?var=&hash=item58b479aced:m:muWfwFlTVNQKCsJz5E15zWw
p413
aVhttp://www.ebay.com/itm/ELECTROLUX-Vacuum-Bags-Hoover-Bag-E53N-ES53-Z4494-Z4472-Z4490-Z4491-S-Z4492-/191305158976?var=&hash=item2c8aad1140:m:mWJWsZf8Yj100vt3voKypGg
p414
aVhttp://www.ebay.com/itm/ELECTROLUX-E53N-ES53-Vacuum-Bags-Hoover-Bag-POWERMAX-Z4520-T-Z4590-ZCE2000-/191303962236?var=&hash=item2c8a9ace7c:m:mWJWsZf8Yj100vt3voKypGg
p415
aVhttp://www.ebay.com/itm/HOOVER-Vacuum-Bags-Type-H18-Turbopower-2-U2090-U2106-U2107-U2111-U2119-Bag-F-/311067805271?var=&hash=item486d160657:m:mQNENPh9zzTdPnI4ucBucGw
p416
aVhttp://www.ebay.com/itm/HOOVER-Vacuum-Dust-Bags-H16-Aquamaster-Aqua-S4378-S4398-S4402-S4492-Paper-Bag-/191304022457?var=&hash=item2c8a9bb9b9:m:mqP_vLuq_dYAi-M9H43vGsg
p417
aVhttp://www.ebay.com/itm/DIRT-DEVIL-Vacuum-Handheld-Hoover-Dust-Bags-Handy-DD150-DD153-DD500-DD550-/380985712336?var=&hash=item58b4849ed0:m:mTUNWPCXN6r62ghW1mctrUQ
p418
aVhttp://www.ebay.com/itm/BOSCH-Vacuum-Cleaner-Hoover-K-Bags-BSG1511-BSG1600-BSG1700-BSN1700GB-/191304111170?var=&hash=item2c8a9d1442:m:m9f2MbGNbakMkVhNcbJxCPw
p419
aVhttp://www.ebay.com/itm/ELECTROLUX-Vacuum-Bags-Hoover-Bag-E53N-ES53-Z4472-Z4490-Z4491-S-Z4492-Z4494-/191305159940?var=&hash=item2c8aad1504:m:m5_A6jmW1D2TyIgW1nZbAtQ
p420
aVhttp://www.ebay.com/itm/Vacuum-Cleaner-Hose-Fits-DYSON-DC14-DC15-DC24-DC25-White-Grey-Yellow-Lavender-4M-/191304989136?var=&hash=item2c8aaa79d0:m:me1wpliUKgrwSbcAMF5Xyug
p421
aVhttp://www.ebay.com/itm/HOOVER-H20-Vacuum-Bags-Purepower-UB3550-U3576-U6125-PU2110-Hoover-Bag-Fresh-/380985673215?var=&hash=item58b48405ff:m:mtPxUxaNjn_QvXuuINQP7Ww
p422
aVhttp://www.ebay.com/itm/HOOVER-H20-Vacuum-Bags-Purepower-U3330-U3340-U3350-U3360-U3430-U3440-U3442-F-/191303606940?var=&hash=item2c8a95629c:m:mtPxUxaNjn_QvXuuINQP7Ww
p423
aVhttp://www.ebay.com/itm/Morphy-Richards-Vacuum-Dust-Bags-70028-70029-70030-70041-Premair-70072-EcoVac-/191303575123?var=&hash=item2c8a94e653:m:mxAtZWhYE-gvTYUMpsI3T2w
p424
aVhttp://www.ebay.com/itm/Morphy-Richards-Vacuum-Dust-Bags-1600-1700-2000-70001-70002-70003-70006-/311067365636?var=&hash=item486d0f5104:m:mxAtZWhYE-gvTYUMpsI3T2w
p425
aVhttp://www.ebay.com/itm/ELECTROLUX-E53N-ES53-Vacuum-Bags-Power-Plus-Hoover-Z4410-Z4411-Z4412-Z4430-Bag-/191305047353?var=&hash=item2c8aab5d39:m:m5_A6jmW1D2TyIgW1nZbAtQ
p426
aVhttp://www.ebay.com/itm/Morphy-Richards-Vacuum-Hoover-Dust-Bag-70020-70021-70025-73277-70042-PerformAir-/191304104936?var=&hash=item2c8a9cfbe8:m:mxAtZWhYE-gvTYUMpsI3T2w
p427
aVhttp://www.ebay.com/itm/HOOVER-H20-Vacuum-Cleaner-Bags-Purepower-UB3550-U3576-U6125-PU2110-Hoover-Bag-/311068862174?var=&hash=item486d2626de:m:mloxxBA4J7ZCS1UVVm6gXhw
p428
aVhttp://www.ebay.com/itm/HOOVER-H20-Vacuum-Dust-Bags-Purepower-U3330-U3340-U3350-U3360-U3430-U3440-U3442-/191303605292?var=&hash=item2c8a955c2c:m:mloxxBA4J7ZCS1UVVm6gXhw
p429
aVhttp://www.ebay.com/itm/Hoover-Telios-H52-Vacuum-Cleaner-Dust-Bag-T2300-T2400-T4405-T4412-T4500-F-/191305103135?var=&hash=item2c8aac371f:m:mh_i5TTAbOMiHQmR7zB3Jjg
p430
aVhttp://www.ebay.com/itm/HOOVER-Telios-H52-Vacuum-Cleaner-Bags-Dust-Bag-T2300-T2400-T4405-T4412-T4500-/191305103083?var=&hash=item2c8aac36eb:m:mDdFFOmCfjb3qjGf0J2bU1A
p431
aVhttp://www.ebay.com/itm/HOOVER-Arianne-H30-Bags-Vacuum-Cleaner-Bag-T1700-T2000-T2001-T2100-T2110-T2200-/191305028340?var=&hash=item2c8aab12f4:m:mDdFFOmCfjb3qjGf0J2bU1A
p432
aVhttp://www.ebay.com/itm/DIRT-DEVIL-Vacuum-Handheld-Hoover-Bags-Handy-Zip-DD150-DD153-DD500-DD550-/191305094600?var=&hash=item2c8aac15c8:m:mrV3jbweMJ8SCUBSFyCZ2gQ
p433
aVhttp://www.ebay.com/itm/ELECTROLUX-E44-E49-Vacuum-Cleaner-Dust-Bags-Hoover-Bag-MONDO-Z1136-Z1150-Z1150E-/191305074427?var=&hash=item2c8aabc6fb:m:mD9ZJA290uugYXv1mPirCJQ
p434
aVhttp://www.ebay.com/itm/Morphy-Richards-Vacuum-Hoover-Bags-70020-70021-70025-73277-70042-PerformAir-/311067894296?var=&hash=item486d176218:m:mBFhgt04dGVkPaEEOk0ZORw
p435
aVhttp://www.ebay.com/itm/Morphy-Richards-Vacuum-Cleaner-Bags-1600-1700-2000-70001-70002-70003-70006-/311067371361?var=&hash=item486d0f6761:m:mBFhgt04dGVkPaEEOk0ZORw
p436
aVhttp://www.ebay.com/itm/Hoover-Capture-Freespace-Flash-Sprint-Vacuum-Dust-Bags-Paper-H58-H63-H64-Bag-/191305108788?var=&hash=item2c8aac4d34:m:m7YXt73qDaDuw1ZzEvtdhng
p437
aVhttp://www.ebay.com/itm/ELECTROLUX-E53N-ES53-Vacuum-Bags-Power-Plus-Hoover-Z4410-Z4411-Z4412-Z4430-/191305047335?var=&hash=item2c8aab5d27:m:mWJWsZf8Yj100vt3voKypGg
p438
aVhttp://www.ebay.com/itm/ELECTROLUX-E51-Vacuum-Cleaner-Dust-Bags-Xio-The-Boss-Z1013-Z1014-Z1015-Z1025-/380984131672?var=&hash=item58b46c8058:m:mcw2sIP1uZDyZeqBtReeM5w
p439
aVhttp://www.ebay.com/itm/HOOVER-H20-Vacuum-Dust-Bags-Purepower-Bag-U3522-U3525-U3560-U3565-U3576-U3566-/311066340829?var=&hash=item486cffaddd:m:mloxxBA4J7ZCS1UVVm6gXhw
p440
aVhttp://www.ebay.com/itm/HOOVER-Vacuum-Dust-Bags-H16-Aquamaster-Aqua-Bag-CB100-Module-900-S4326-S4328-/191302122619?var=&hash=item2c8a7ebc7b:m:m_Fdj1PshyZGZoN3_ZbEPQQ
p441
aVhttp://www.ebay.com/itm/HENRY-NUVAC-NNV200-Numatic-Vacuum-Cleaner-Hose-1-8m-2-5m-5m-Metre-Extra-Long-/191297198572?var=&hash=item2c8a3399ec:m:mqm0U2sSMnAjYL52khsBGXw
p442
aVhttp://www.ebay.com/itm/PANASONIC-Vacuum-Cleaner-Dust-Bags-MCE3002-MCE3003-Upright-Paper-Bag-10-20-/311065950378?var=&hash=item486cf9b8aa:m:mUpDpk0d0XLt-oOe6VZJc4Q
p443
aVhttp://www.ebay.com/itm/PANASONIC-Vacuum-Cleaner-Dust-Bags-MCE3002-MCE3003-Upright-Paper-Bag-10-20-/311065950378?var=&hash=item486cf9b8aa:m:mUpDpk0d0XLt-oOe6VZJc4Q
p444
aVhttp://www.ebay.com/itm/HOOVER-Vacuum-Cleaner-Dust-Bags-Type-H16-Aquamaster-CB100-Module-900-S4326-S4328-/311065937077?var=&hash=item486cf984b5:m:mqP_vLuq_dYAi-M9H43vGsg
p445
aVhttp://www.ebay.com/itm/NILFISK-Vacuum-Cleaner-Bags-G-Series-Paper-Bag-Spare-GS84-G90-GD90-GD90C-/380983976694?var=&hash=item58b46a22f6:m:mnWf93VtPvbi7RtVMoCFK9A
p446
aVhttp://www.ebay.com/itm/ELECTROLUX-E51-Vacuum-Cleaner-Dust-Bags-Xio-The-Boss-Z1013-Z1014-Z1015-Z1025-/311066238088?var=&hash=item486cfe1c88:m:mfKDNiGffgXhyu2vV0NXN2w
p447
aVhttp://www.ebay.com/itm/ELECTROLUX-E51-Vacuum-Cleaner-Dust-Bags-Paper-Bag-Z2312-Z2315-Z2330-Fresheners-/311065928959?var=&hash=item486cf964ff:m:mfKDNiGffgXhyu2vV0NXN2w
p448
aVhttp://www.ebay.com/itm/PANASONIC-Vacuum-Cleaner-Dust-Bags-MCE3002-MCE3003-Upright-Paper-Bag-10-20-/191302135668?var=&hash=item2c8a7eef74:m:mDI9SWbb-NbsAtEYYHqnweQ
p449
aVhttp://www.ebay.com/itm/DAEWOO-Vacuum-Dust-Bags-Bag-Paper-RC300-RC310-RC320-RC350-RC350BK-RC370-/380984216113?var=&hash=item58b46dca31:m:mtuxgsQpiIsXGMJ6sEBv3Xg
p450
aVhttp://www.ebay.com/itm/HOOVER-H16-Type-Sensory-Bags-Vacuum-Dust-Bag-T5604-TS1623-TS1724-TS1828-Fresh-/380984127886?var=&hash=item58b46c718e:m:mGpk_XhVBtsDExuygDvmu_Q
p451
aVhttp://www.ebay.com/itm/DAEWOO-Vacuum-Bags-Cleaner-Bag-Paper-RC300-RC310-RC320-RC350-RC350BK-RC370-/191302587072?var=&hash=item2c8a85d2c0:m:mtyN-0hFOlKgDwy9bxzNyGw
p452
aVhttp://www.ebay.com/itm/HOOVER-Vacuum-Cleaner-Dust-Bags-H18-Turbopower-2-U2125-U2129-U2188-U2460-Bag-/191302163506?var=&hash=item2c8a7f5c32:m:mXP0GubLPr5XAnGPTnaNmlA
p453
aVhttp://www.ebay.com/itm/HOOVER-H16-Type-Sensory-Bags-Vacuum-Cleaner-Dust-Bag-T5604-TS1623-TS1724-TS1828-/191302374858?var=&hash=item2c8a8295ca:m:mDdFFOmCfjb3qjGf0J2bU1A
p454
aVhttp://www.ebay.com/itm/Vacuum-Cleaner-Bags-Air-Freshener-Sticks-Perfume-Scented-Hoover-Bag-Fresheners-/191302184206?var=&hash=item2c8a7fad0e:m:mU5NKpRs7uTFt6gDr-bl3sg
p455
aVhttp://www.ebay.com/itm/AQUAVAC-Vacuum-Dust-Bags-Type-ZR81-Wet-Dry-Boxer-20-Extra-300-302-Super-30-40-/191294206622?var=&hash=item2c8a05f29e:m:m0LS_2JT46-ons5r5xTfB_A
p456
aVhttp://www.ebay.com/itm/NILFISK-Vacuum-Cleaner-Dust-Bags-Paper-Spare-Bag-G-Series-GM90-GS90-GS90C-/311060105247?var=&hash=item486ca0881f:m:mFeJD1qrU50T7tg25cVf9Sw
p457
aVhttp://www.ebay.com/itm/AQUAVAC-Vacuum-Dust-Bags-ZR81-Paper-Bag-600-610-612-615-620-770-790-7003-7303-/311058745508?var=&hash=item486c8bc8a4:m:m0LS_2JT46-ons5r5xTfB_A
p458
aVhttp://www.ebay.com/itm/NILFISK-Vacuum-Cleaner-Dust-Bags-Paper-Hoover-Bag-G-Series-GM90-GS90-GS90C-/380980070584?var=&hash=item58b42e88b8:m:mnWf93VtPvbi7RtVMoCFK9A
p459
aVhttp://www.ebay.com/itm/ELECTROLUX-Type-E44-E49-Vacuum-Cleaner-Dust-Bags-MONDO-Z1190-Z1190E-1190Q-Bag-/380979130417?var=&hash=item58b4203031:m:mD9ZJA290uugYXv1mPirCJQ
p460
aVhttp://www.ebay.com/itm/HOOVER-Vacuum-Dust-Bags-H16-Aquamaster-Aqua-S4402-S4492-S4508-S4514-S5000-/191295633527?var=&hash=item2c8a1bb877:m:m_Fdj1PshyZGZoN3_ZbEPQQ
p461
aVhttp://www.ebay.com/itm/HOOVER-H20-Vacuum-Bags-Purepower-U3450-U3456-U3460-U3462-U3464-U3466-U3470-F-/311058755772?var=&hash=item486c8bf0bc:m:mtPxUxaNjn_QvXuuINQP7Ww
p462
aVhttp://www.ebay.com/itm/AQUAVAC-Vacuum-Dust-Bags-ZR81-Bag-Wet-Dry-600-610-612-615-620-770-790-7003-7303-/311058745543?var=&hash=item486c8bc8c7:m:mbH8y0iXmAJGrErvk9YI4Ow
p463
aVhttp://www.ebay.com/itm/AQUAVAC-Vacuum-Cleaner-Bags-ZR81-Paper-Bag-Wet-Dry-BMS2000-BMS2999-Series-/311058909841?var=&hash=item486c8e4a91:m:m0LS_2JT46-ons5r5xTfB_A
p464
aVhttp://www.ebay.com/itm/JEYES-Ensign-Vacuum-Cleaner-Dust-Bags-350-360-450-460-Ranger-400-Bag-Fresheners-/380979095419?var=&hash=item58b41fa77b:m:m_tc97ocRTXvLdpEc3WUEkg
p465
aVhttp://www.ebay.com/itm/Hoover-Telios-Type-H52-Vacuum-Dust-Bags-T4536-T5500-T5515-T5600-T5603-T5610-/311058686554?var=&hash=item486c8ae25a:m:m6fU_uuO1CK__XD3nYXKXyw
p466
aVhttp://www.ebay.com/itm/HOOVER-Vacuum-Bags-H16-Aquamaster-Aqua-S4402-S4492-S4508-S4514-S5000-F-/191295634778?var=&hash=item2c8a1bbd5a:m:mqP_vLuq_dYAi-M9H43vGsg
p467
aVhttp://www.ebay.com/itm/Hoover-Telios-Type-H52-Vacuum-Bags-T4536-T5500-T5515-T5600-T5603-T5610-F-/191293921601?var=&hash=item2c8a019941:m:mh_i5TTAbOMiHQmR7zB3Jjg
p468
aVhttp://www.ebay.com/itm/HOOVER-Vacuum-Cleaner-Dust-Bags-Type-H16-Aquamaster-Bag-S4398-S4470-S4484-/380979016506?var=&hash=item58b41e733a:m:m_Fdj1PshyZGZoN3_ZbEPQQ
p469
aVhttp://www.ebay.com/itm/AQUAVAC-Vacuum-Dust-Bags-ZR81-Wet-Dry-Bag-Boxer-20-Extra-300-302-Super-30-40-/380979317015?var=&hash=item58b4230917:m:mbH8y0iXmAJGrErvk9YI4Ow
p470
aVhttp://www.ebay.com/itm/HOOVER-Vacuum-Cleaner-Bags-Type-H18-Turbopower-3-Paper-U2880-U2881-U2882-F-/311058798160?var=&hash=item486c8c9650:m:mXP0GubLPr5XAnGPTnaNmlA
p471
aVhttp://www.ebay.com/itm/JEYES-Ensign-Vacuum-Cleaner-Dust-Bags-Paper-350-360-450-460-Ranger-400-Bag-/380979087706?var=&hash=item58b41f895a:m:mPWgu7uMUhomxeC-rOfUd6g
p472
aVhttp://www.ebay.com/itm/ELECTROLUX-E44-E49-Vacuum-Dust-Bags-Paper-Bag-MONDO-Z1175-Z1175E-Z1176-Z1176E-/311059929966?var=&hash=item486c9ddb6e:m:mD9ZJA290uugYXv1mPirCJQ
p473
aVhttp://www.ebay.com/itm/HOOVER-Vacuum-Cleaner-Bags-Type-H16-Aquamaster-Bag-S4398-S4470-S4484-F-/380979019592?var=&hash=item58b41e7f48:m:mqP_vLuq_dYAi-M9H43vGsg
p474
aVhttp://www.ebay.com/itm/HOOVER-Vacuum-Cleaner-Dust-Bags-Type-H16-Aquamaster-S4330-S4332-S4338-S4396-/380979179178?var=&hash=item58b420eeaa:m:m_Fdj1PshyZGZoN3_ZbEPQQ
p475
aVhttp://www.ebay.com/itm/HOOVER-Vacuum-Cleaner-Dust-Bags-H16-Aquamaster-Paper-Bag-S4330-S4332-S4338-S4396-/380979179227?var=&hash=item58b420eedb:m:mqP_vLuq_dYAi-M9H43vGsg
p476
aVhttp://www.ebay.com/itm/HOOVER-Vacuum-Dust-Bags-Type-H16-Aquamaster-Commercial-C2706-C2708-C2710-C3284-/311058709870?var=&hash=item486c8b3d6e:m:mqP_vLuq_dYAi-M9H43vGsg
p477
aVhttp://www.ebay.com/itm/HOOVER-Vacuum-Cleaner-Dust-Bags-H18-Turbopower-2-Paper-Bag-U2462-U2464-U2466-/380979259507?var=&hash=item58b4222873:m:mXP0GubLPr5XAnGPTnaNmlA
p478
aVhttp://www.ebay.com/itm/HOOVER-Vacuum-Cleaner-Dust-Bags-Type-H18-Turbopower-2-Paper-U2462-U2464-U2466-/380979257096?var=&hash=item58b4221f08:m:mXhhIJyDJQVvkuGVZkQRCyw
p479
aVhttp://www.ebay.com/itm/ELECTROLUX-E53N-ES53-Vacuum-Cleaner-Dust-Bags-Paper-Bag-Z4495-Z4499-Fresheners-/311058670057?var=&hash=item486c8aa1e9:m:m5_A6jmW1D2TyIgW1nZbAtQ
p480
aVhttp://www.ebay.com/itm/ELECTROLUX-E53N-ES53-Vacuum-Dust-Bags-Paper-CE-Power-ZCE-1800-2200-BOOST-Z6050-/380979139520?var=&hash=item58b42053c0:m:m5_A6jmW1D2TyIgW1nZbAtQ
p481
aVhttp://www.ebay.com/itm/ELECTROLUX-E53N-ES53-Type-Vacuum-Cleaner-Dust-Bags-Paper-Bag-Spare-Z4495-Z4499-/311058671882?var=&hash=item486c8aa90a:m:mWJWsZf8Yj100vt3voKypGg
p482
aVhttp://www.ebay.com/itm/ELECTROLUX-Vacuum-Cleaner-Type-E60-Dust-Bags-Z4622-Z4623-Z1358-Z1368-Z1481-Z1492-/311060134259?var=&hash=item486ca0f973:m:mN2rzhcOlKG7wFuqoHszHKg
p483
aVhttp://www.ebay.com/itm/ROWENTA-Vacuum-Cleaner-Dust-Bags-ZR81-Bag-Wet-Dry-Enduro-Vorace-Multi-Craft-RU-/191294214848?var=&hash=item2c8a0612c0:m:m0LS_2JT46-ons5r5xTfB_A
p484
aVhttp://www.ebay.com/itm/ELECTROLUX-E53N-ES53-Vacuum-Dust-Bags-TANGO-Z5001-BOLERO-Z5002-SAMBA-Z5003-Bag-/191293898977?var=&hash=item2c8a0140e1:m:m5_A6jmW1D2TyIgW1nZbAtQ
p485
aVhttp://www.ebay.com/itm/Goblin-Aztec-Vacuum-Cleaner-Dust-Bags-Paper-Bag-Spare-1300-1350-1400-1405-1607-/311058782684?var=&hash=item486c8c59dc:m:mVPMwrEsbGll5K8MvTzGU_w
p486
aVhttp://www.ebay.com/itm/ELECTROLUX-Vacuum-Cleaner-E60-Dust-Bags-Z4622-Z4623-Z1358-Z1368-Z1481-Z1492-Bag-/311060139510?var=&hash=item486ca10df6:m:m_Vgv26RfwqZ9-YT-yBnZAQ
p487
aVhttp://www.ebay.com/itm/HOOVER-H20-Vacuum-Dust-Bags-Purepower-U3450-U3456-U3460-U3462-U3464-U3466-U3470-/380979225993?var=&hash=item58b421a589:m:mloxxBA4J7ZCS1UVVm6gXhw
p488
aVhttp://www.ebay.com/itm/ELECTROLUX-Type-E53N-ES53-Vacuum-Dust-Bags-CE-Power-ZCE-1800-2200-BOOST-Z6050-/311058661905?var=&hash=item486c8a8211:m:mWJWsZf8Yj100vt3voKypGg
p489
aVhttp://www.ebay.com/itm/Morphy-Richards-Vacuum-Cleaner-Bags-70313-Pets-70314-Family-73276-Paper-Bag-/380979289435?var=&hash=item58b4229d5b:m:mxAtZWhYE-gvTYUMpsI3T2w
p490
aVhttp://www.ebay.com/itm/PANASONIC-Vacuum-Cleaner-Hoover-Bags-Upright-10-20-Pack-MCUG304-MC-UG304-/380979946265?var=&hash=item58b42ca319:m:mUpDpk0d0XLt-oOe6VZJc4Q
p491
aVhttp://www.ebay.com/itm/Goblin-Aztec-Vacuum-Cleaner-Dust-Bags-Double-Paper-Bag-1300-1350-1400-1405-1607-/191294044733?var=&hash=item2c8a037a3d:m:mYAEUvsClxeHQUpVSGKQ0pw
p492
aVhttp://www.ebay.com/itm/PANASONIC-Vacuum-Cleaner-Hoover-Bags-Upright-Paper-Bag-MCUG304-MC-UG304-/191295392701?var=&hash=item2c8a180bbd:m:mDI9SWbb-NbsAtEYYHqnweQ
p493
aVhttp://www.ebay.com/itm/ELECTROLUX-E44-E49-Vacuum-Cleaner-Dust-Bags-MONDO-Z1160-Z1160E-Z1170-Z1170E-/311059931746?var=&hash=item486c9de262:m:m-PJBO2ZQz2V9LcueeYnUww
p494
aVhttp://www.ebay.com/itm/Morphy-Richards-Vacuum-Dust-Bags-70313-Pets-70314-Family-73276-Paper-Bag-/311058859933?var=&hash=item486c8d879d:m:mBFhgt04dGVkPaEEOk0ZORw
p495
aVhttp://www.ebay.com/itm/KARCHER-Vacuum-Cleaner-Dust-Bags-Paper-Bag-TBS32-TBS34-TBS35-CW20-CW50-CW100-/191294227773?var=&hash=item2c8a06453d:m:mPWgu7uMUhomxeC-rOfUd6g
p496
aVhttp://www.ebay.com/itm/ELECTROLUX-Type-E44-E49-Vacuum-Cleaner-Dust-Bags-Paper-MONDO-Z1100-Z1110-Z1115-/311058811722?var=&hash=item486c8ccb4a:m:m-PJBO2ZQz2V9LcueeYnUww
p497
aVhttp://www.ebay.com/itm/ROWENTA-Vacuum-Cleaner-Dust-Bags-ZR81-Bag-Wet-Dry-Enduro-Vorace-Multi-Craft-RB-/191294216526?var=&hash=item2c8a06194e:m:mbH8y0iXmAJGrErvk9YI4Ow
p498
aVhttp://www.ebay.com/itm/Morphy-Richards-Vacuum-Cleaner-Dust-Bags-Paper-Bag-Spare-70033-70035-70044-70047-/191295597256?var=&hash=item2c8a1b2ac8:m:mxAtZWhYE-gvTYUMpsI3T2w
p499
aVhttp://www.ebay.com/itm/ELECTROLUX-E44-E49-Vacuum-Cleaner-Dust-Bags-MONDO-Z1175-Z1175E-Z1176-Z1176E-/380979968586?var=&hash=item58b42cfa4a:m:m-PJBO2ZQz2V9LcueeYnUww
p500
aVhttp://www.ebay.com/itm/Morphy-Richards-Vacuum-Dust-Bags-Paper-Bag-Spare-70033-70035-70044-70047-/380980058071?var=&hash=item58b42e57d7:m:mBFhgt04dGVkPaEEOk0ZORw
p501
aVhttp://www.ebay.com/itm/Morphy-Richards-Vacuum-Cleaner-Bags-Allergy-Domatic-Handy-Storm-Pets-2000W-/311060115661?var=&hash=item486ca0b0cd:m:mBFhgt04dGVkPaEEOk0ZORw
p502
aVhttp://www.ebay.com/itm/HOOVER-Turbopower-Vacuum-Dust-Bags-Type-H18-U2198-U2332-U2334-U2336-U2406-U2408-/380978280333?var=&hash=item58b413378d:m:muWfwFlTVNQKCsJz5E15zWw
p503
aVhttp://www.ebay.com/itm/HOOVER-Turbopower-Vacuum-Dust-Bags-Type-H18-U1294-U1296-U1400-U1650-U2194-U2196-/380978283258?var=&hash=item58b41342fa:m:muWfwFlTVNQKCsJz5E15zWw
p504
aVhttp://www.ebay.com/itm/HOOVER-H20-Vacuum-Bags-Purepower-P3455-U3120-U3125-U3128-U3130-U3134-U3135-F-/191292378014?var=&hash=item2c89ea0b9e:m:mtPxUxaNjn_QvXuuINQP7Ww
p505
aVhttp://www.ebay.com/itm/ELECTROLUX-E51-Type-Vacuum-Cleaner-Bags-Z1026-Z1027-Paper-Bag-Z1036-Z1010-/311057688511?var=&hash=item486c7ba7bf:m:mSuXPVG1Z2zaWz3A4gv1VmQ
p506
aVhttp://www.ebay.com/itm/AQUAVAC-Vacuum-Bag-Type-ZR81-Bags-7403-7413-7506-8500-8502-8503-9003-/191292697935?var=&hash=item2c89eeed4f:m:mbH8y0iXmAJGrErvk9YI4Ow
p507
aVhttp://www.ebay.com/itm/AQUAVAC-Vacuum-Bag-Type-ZR81-Bags-7403-7413-7506-8500-8502-8503-9003-Series-/311057708657?var=&hash=item486c7bf671:m:m0LS_2JT46-ons5r5xTfB_A
p508
aVhttp://www.ebay.com/itm/HOOVER-Turbopower-Vacuum-Bags-Type-H18-U1294-U1296-U1400-U1650-U2194-U2196-F-/191292420243?var=&hash=item2c89eab093:m:mQNENPh9zzTdPnI4ucBucGw
p509
aVhttp://www.ebay.com/itm/ELECTROLUX-E51-Type-Vacuum-Dust-Bags-Z1026-Z1027-Paper-Bag-Z1036-Z1010-/380978416228?var=&hash=item58b4154a64:m:mi2CO7Z0VPcG1fzUsn6QrYw
p510
aVhttp://www.ebay.com/itm/ELECTROLUX-E51-Type-Vacuum-Dust-Bags-Z1037-Z2301-Z2305-Z2306-Z2310-/380978328344?var=&hash=item58b413f318:m:mi2CO7Z0VPcG1fzUsn6QrYw
p511
aVhttp://www.ebay.com/itm/ELECTROLUX-E51-Type-Vacuum-Dust-Bags-Z1026-Z1027-Paper-Bag-Z1036-Z1010-/380978416228?var=&hash=item58b4154a64:m:mi2CO7Z0VPcG1fzUsn6QrYw
p512
aVhttp://www.ebay.com/itm/ELECTROLUX-E51-Type-Vacuum-Dust-Bags-Z1037-Z2301-Z2305-Z2306-Z2310-/380978328344?var=&hash=item58b413f318:m:mi2CO7Z0VPcG1fzUsn6QrYw
p513
aVhttp://www.ebay.com/itm/ELECTROLUX-Type-E44-E49-Vacuum-Cleaner-Hoover-Bags-MONDO-Z1118-Z1120-Z1122-/191292640414?var=&hash=item2c89ee0c9e:m:mD9ZJA290uugYXv1mPirCJQ
p514
aVhttp://www.ebay.com/itm/ELECTROLUX-Type-E44-E49-Vacuum-Hoover-Dust-Bags-MONDO-Z1118-Z1120-Z1122-/191292633812?var=&hash=item2c89edf2d4:m:m-PJBO2ZQz2V9LcueeYnUww
p515
aVhttp://www.ebay.com/itm/HOOVER-H20-Vacuum-Dust-Bags-Purepower-U3136-U3137-U3138-U3140-U3141-U3142-U3150-/311057561030?var=&hash=item486c79b5c6:m:mloxxBA4J7ZCS1UVVm6gXhw
p516
aVhttp://www.ebay.com/itm/Filtamagic-Vacuum-Cleaner-Air-Freshener-Fragrance-Capsules-Pack-of-10-/261555587701?var=&hash=item3ce5ed8a75:m:m-q3mlW70Uiq6bVL6XhV7Pg
p517
aVhttp://www.ebay.com/itm/2-PACKS-OF-10-AIR-FRESHENER-VAC-PELLETS-COMBATS-MITES-PURIFIES-PERFUMES-33572X2-/321476694831?hash=item4ad981132f:g:cXAAAOSwPe1T13qi
p518
aVhttp://www.ebay.com/itm/UNIVERSAL-LEMON-ORANGE-VACUUM-HOOVER-AIR-FRESHENERS-16-PELLET-ODOURS-CLEANER-/181477273695?var=&epid=1337628347&hash=item2a40e3705f:m:mIxoSbduZLLLhY7EE-BlYVQ
p519
aVhttp://www.ebay.com/itm/SAMSUNG-SU3351-SU3352-SU3360-SU3363-SU4040-Hoover-Vacuum-Cleaner-Drive-Belts-/251590217414?var=&hash=item3a93f20ec6:m:mIhElk33Z0GDD6IKblMeG2g
p520
aVhttp://www.ebay.com/itm/COMPATIBILE-DYSON-DC11-REPLACEMENT-VACUUM-CLEANER-PRE-FILTER-907647-01-905446-02-/131202977226?hash=item1e8c4e8dca:g:C-kAAOSwA3dYmYtx
p521
aVhttp://www.ebay.com/itm/MENALUX-PACK-OF-5-LEMON-VACUUM-FRESHENERS-DRAPER-KARCHER-DIRT-DEVIL-9090109415-/321413597245?hash=item4ad5be483d:g:7DoAAMXQuCdTf1Ci
p522
aVhttp://www.ebay.com/itm/UNIVERSAL-LEMON-VACUUM-Hoover-Air-Fresheners-PELLET-ODOURS-CLEANER-FRESHNER-/271487866584?var=&hash=item3f35f016d8:m:mSZnbISZ36yVAy3GjG7KdSg
p523
aVhttp://www.ebay.com/itm/PANASONIC-Vacuum-Cleaner-Dust-Bags-MC-E864-MC-E865-MC-E867-MC-E870-MC-E871-/310919777897?var=&hash=item4864434e69:m:meKxw9Upqcbbideit8h5uVQ
p524
aVhttp://www.ebay.com/itm/PANASONIC-Vacuum-Cleaner-Hoover-Dust-Bags-MC-E743-MC-E746-MC-E747-MC-E750-/380877535502?var=&hash=item58ae11f90e:m:mfcIJpTirWyFXMwWjWiuoUw
p525
aVhttp://www.ebay.com/itm/PANASONIC-Vacuum-Cleaner-Hoover-Dust-Bags-MC-E775-MC-E778-MC-E778K-MC-E781-/310919775092?var=&hash=item4864434374:m:mfcIJpTirWyFXMwWjWiuoUw
p526
aVhttp://www.ebay.com/itm/PANASONIC-Vacuum-Cleaner-Hoover-Dust-Bags-MC-E80-MC-E800-MC-E850-MC-E851-MC-E852-/310919776165?var=&hash=item48644347a5:m:mK1kn5YFFpxAKChuxPbJ4rQ
p527
aVhttp://www.ebay.com/itm/PANASONIC-Vacuum-Cleaner-Dust-Bags-MC-E873-MC-E873K-MC-E875-MC-E88-MC-E880-/310919778519?var=&hash=item48644350d7:m:meKxw9Upqcbbideit8h5uVQ
p528
aVhttp://www.ebay.com/itm/PANASONIC-Vacuum-Cleaner-Hoover-Dust-Bags-MC-E650-MC-E652-MC-E655-MC-E70-MC-E700-/191124599888?var=&hash=item2c7fe9f450:m:mK1kn5YFFpxAKChuxPbJ4rQ
p529
aVhttp://www.ebay.com/itm/PANASONIC-Vacuum-Cleaner-Hoover-Dust-Bags-MC-E751-MC-E752-MC-E770-MC-E771-/191124613642?var=&hash=item2c7fea2a0a:m:mfcIJpTirWyFXMwWjWiuoUw
p530
aVhttp://www.ebay.com/itm/PANASONIC-Vacuum-Cleaner-Hoover-Dust-Bags-MC-E1000-MC-E1010-MC-E60-MC-E61-MC-E62-/191124598543?var=&hash=item2c7fe9ef0f:m:meKxw9Upqcbbideit8h5uVQ
p531
aVhttp://www.ebay.com/itm/PANASONIC-Vacuum-Cleaner-Hoover-Dust-Bags-MC-E7140-MC-E730-MC-E735-MC-E736-/310919772756?var=&hash=item4864433a54:m:mK1kn5YFFpxAKChuxPbJ4rQ
p532
aVhttp://www.ebay.com/itm/PANASONIC-Vacuum-Cleaner-Hoover-Dust-Bags-MC-E860-MC-E861-MC-E862-MC-E863-/191124618898?var=&hash=item2c7fea3e92:m:mfcIJpTirWyFXMwWjWiuoUw
p533
aVhttp://www.ebay.com/itm/PANASONIC-Vacuum-Cleaner-Hoover-Dust-Bags-MC-E737-MC-E740-MC-E7400-MC-E741-/191124608472?var=&hash=item2c7fea15d8:m:mfcIJpTirWyFXMwWjWiuoUw
p534
aVhttp://www.ebay.com/itm/Miele-Vacuum-Cleaner-Air-Freshener-Pellets-Pack-Of-Ten-Pop-In-Bag-/301137846213?hash=item461d36dfc5:g:3DIAAOxyTkJSMwc2
p535
aVhttp://www.ebay.com/itm/SEBO-Vacuum-Cleaner-Dust-Bags-X1-1-X1-X4-X5-XP2-C1-C2-C3-Bag-Paper-Extra-Pet-/191104669370?var=&hash=item2c7eb9d6ba:m:m8Nb-g-AJ7pK9cR0IZkGIZw
p536
aVhttp://www.ebay.com/itm/MIELE-GN-Type-Bag-Vacuum-Cleaner-Bags-S300i-S400-S600-S800-S2110-S2111-S3800-/191099488689?var=&hash=item2c7e6ac9b1:m:mvSVAkZccCxjQ4UJjzG3I8Q
p537
aVhttp://www.ebay.com/itm/MIELE-GN-Type-Bag-Vacuum-Cleaner-Bags-S300-S8999-Allervac-Sensor-Solution-Hepa-/191099501152?var=&hash=item2c7e6afa60:m:mvSVAkZccCxjQ4UJjzG3I8Q
p538
aVhttp://www.ebay.com/itm/MIELE-U-Type-Bag-Vacuum-Cleaner-Upright-Bags-S7000-S7260-S7510-S7210-S7280-S7580-/191098333843?var=&hash=item2c7e592a93:m:mK0PxjjLolXjrhwug60d9Ww
p539
aVhttp://www.ebay.com/itm/MIELE-U-Type-Bag-Vacuum-Cleaner-Upright-Bags-S7-S7000-S7999-Series-Filters-/310895381349?var=&hash=item4862cf0b65:m:mK0PxjjLolXjrhwug60d9Ww
p540
aVhttp://www.ebay.com/itm/Vacuum-Cleaner-Hoover-Electrolux-Henry-Air-Fresheners-Pack-Of-Ten-Quick-Post-/310881172047?epid=1188428313&hash=item4861f63a4f:g:3DIAAOxyTkJSMwc2
p541
aVhttp://www.ebay.com/itm/Gutter-Vac-Hose-Universal-Vacuum-Hose-51MM-2-Inch-5M-Metre-Incl-Machine-Fitting-/111278837808?epid=1188422634&hash=item19e8bc5030:g:plEAAOxywh1S~K1r
p542
aVhttp://www.ebay.com/itm/UNI104-Pack-of-5-Vacuum-Cleaner-Bags-for-Numatic-Nuvac-Rucksack-1C-2C-Models-/390770920671?hash=item5afbc30cdf:g:cNMAAOSwVFlT36Dt
p543
aVhttp://www.ebay.com/itm/Neutradol-Vac-Sac-Deodorizer-3-Vacuum-Deodorizer-Sachets-Super-Fresh-Scent-/350986872807?epid=1505366941&hash=item51b872a7e7:g:vn0AAMXQyFFTkzjz
p544
aVhttp://www.ebay.com/itm/FJM-MIELE-VACUUM-CLEANER-DUST-BAGS-CAT-DOG-S700-S6210-S6220-TT6000-S4000-S500-/201024083768?var=&hash=item2ecdf81738:m:m0X3oytS1odpGl8zY9fiOKg
p545
aVhttp://www.ebay.com/itm/GN-G-N-MIELE-VACUUM-CLEANER-DUST-BAGS-CAT-DOG-S8320-S5261-TT500-S2110-S2111-/201024056507?var=&hash=item2ecdf7acbb:m:mxUF6jgsdBh-xT90NEU2chQ
p546
aVhttp://www.ebay.com/itm/Vacuum-Cleaner-Hoover-Electrolux-Henry-Air-Fresheners-Pack-Of-Twenty-20-/301054204830?epid=1488700494&hash=item46183a9b9e:g:RKoAAOxy4dNSvp8L
p547
aVhttp://www.ebay.com/itm/HOOVER-Vacuum-Cleaner-AIR-FRESHENER-Freshner-Suitable-for-Pet-House-Odours-AFR-/131076706175?epid=1739720331&hash=item1e84c7cf7f:m:mAOOucnti0ubhocTg__DejQ
p548
aVhttp://www.ebay.com/itm/HOOVER-DYSON-ELECTROLUX-VACUUM-VAC-FRESHENERS-PET-ODOUR-SMELL-TWIN-PACK-/111242090607?hash=item19e68b986f:m:mAOOucnti0ubhocTg__DejQ
p549
aVhttp://www.ebay.com/itm/Omnipole-24-GutterVac-Xtreme-Gutter-cleaning-machine-Reach-4-Sky-Vacuum-Gutters-/181280856203?hash=item2a352e588b:g:QHIAAOxyNo9SqjrR
p550
aVhttp://www.ebay.com/itm/Omnipole-36-GutterVac-Gutter-Cleaning-Machine-4200W-Reach-4-Sky-Vacuum-Gutters-/181280851488?hash=item2a352e4620:g:JTsAAOSw~gRVjBsO
p551
aVhttp://www.ebay.com/itm/Omnipole-48-GutterVac-gutter-cleaning-machine-4200Wt-Reach-4-Sky-Vacuum-Gutter-/181280848884?hash=item2a352e3bf4:g:F7UAAOSwVFlUFr4~
p552
aVhttp://www.ebay.com/itm/BELTS-VAX-vacuum-cleaner-hoover-1700-V006-VS18-VS183-VS19-V041-V193-Free-Post-UK-/271332188061?var=&hash=item3f2ca89f9d:m:my7xOE7_Xg6bqH9ZBHLo96A
p553
aVhttp://www.ebay.com/itm/ARGOS-VALUE-YMH28950-HOOVER-VACUUM-BELTS-FREE-POSTAGE-/271332151568?var=&hash=item3f2ca81110:m:my7xOE7_Xg6bqH9ZBHLo96A
p554
aVhttp://www.ebay.com/itm/KARCHER-wv50-wv60-wv70-Window-Vacuum-Cleaner-blades-170mm-x-2-SMALL-HEAD-/291018282777?hash=item43c20a9719:g:QSAAAMXQHU1RpyXK
p555
aVhttp://www.ebay.com/itm/KARCHER-wv50-wv60-wv70-Window-Vacuum-Cleaner-Rubber-Blades-280mm-x-2-NEW-/291018279685?hash=item43c20a8b05:g:iaAAAOxyxSNRnfvx
p556
aVhttp://www.ebay.com/itm/KARCHER-WV50-Window-Vacuum-Cleaner-rubber-blades-170mm-x-2-SMALL-HEAD-new-/301014227484?epid=1688407470&hash=item4615d89a1c:g:QSAAAMXQHU1RpyXK
p557
aVhttp://www.ebay.com/itm/KARCHER-wv50-wv60-wv70-Window-Vacuum-Cleaner-rubber-blades-280mm-170mm-New-/301014225675?hash=item4615d8930b:g:ZmoAAMXQTghRIkJD
p558
aVhttp://www.ebay.com/itm/KARCHER-WV50-Window-Vacuum-Cleaner-Squeegee-Rubber-Blades-280mm-x-2-new-/291014417686?epid=1688408358&hash=item43c1cf9d16:g:iaAAAOxyxSNRnfvx
p559
aVhttp://www.ebay.com/itm/Miele-GN-Type-S2111-Vacuum-Hoover-Cleaner-Dust-Bags-20-Pack-8-filters-/301005565274?epid=1188370558&hash=item4615546d5a:g:iygAAMXQatBSb3cB
p560
aVhttp://www.ebay.com/itm/Miele-GN-Type-S646-S828-Vacuum-Hoover-Cleaner-Dust-Bags-20-Pack-8-filters-/310781800306?hash=item485c09ef72:g:iygAAMXQatBSb3cB
p561
aVhttp://www.ebay.com/itm/Miele-GN-Type-S5260-S612-Vacuum-Hoover-Cleaner-Dust-Bags-20-Pack-8-filters-/301003650227?hash=item46153734b3:g:iygAAMXQatBSb3cB
p562
aVhttp://www.ebay.com/itm/Miele-GN-Type-S420I-S4512-Vacuum-Hoover-Cleaner-Dust-Bags-20-Pack-8-filters-/301003647100?hash=item461537287c:g:iygAAMXQatBSb3cB
p563
aVhttp://www.ebay.com/itm/Miele-GN-Type-S5211-S600-Vacuum-Hoover-Cleaner-Dust-Bags-20-Pack-8-filters-/310781775782?hash=item485c098fa6:g:iygAAMXQatBSb3cB
p564
aVhttp://www.ebay.com/itm/Miele-GN-Type-S5210-S5980-Vacuum-Hoover-Cleaner-Dust-Bags-20-Pack-8-filters-/310781771096?hash=item485c097d58:g:iygAAMXQatBSb3cB
p565
aVhttp://www.ebay.com/itm/Miele-GN-Type-S5121-S5411-Vacuum-Hoover-Cleaner-Dust-Bags-20-Pack-8-filters-/390689080270?hash=item5af6e243ce:g:iygAAMXQatBSb3cB
p566
aVhttp://www.ebay.com/itm/Miele-GN-Type-S5111-S5380-Vacuum-Hoover-Cleaner-Dust-Bags-20-Pack-8-filters-/390689078191?hash=item5af6e23baf:g:iygAAMXQatBSb3cB
p567
aVhttp://www.ebay.com/itm/Miele-GN-Type-S400I-S438I2-Vacuum-Hoover-Cleaner-Dust-Bags-20-Pack-8-filters-/390689077912?hash=item5af6e23a98:g:iygAAMXQatBSb3cB
p568
aVhttp://www.ebay.com/itm/Miele-GN-Type-S5000-S5360-Vacuum-Hoover-Cleaner-Dust-Bags-20-Pack-8-filters-/301003629369?hash=item461536e339:g:iygAAMXQatBSb3cB
p569
aVhttp://www.ebay.com/itm/Miele-GN-Type-S400-S438I-Vacuum-Hoover-Cleaner-Dust-Bags-20-Pack-8-filters-/310781757867?hash=item485c0949ab:g:iygAAMXQatBSb3cB
p570
aVhttp://www.ebay.com/itm/Miele-GN-Type-S4782-S5281-Vacuum-Hoover-Cleaner-Dust-Bags-20-Pack-8-filters-/301003628477?hash=item461536dfbd:g:iygAAMXQatBSb3cB
p571
aVhttp://www.ebay.com/itm/Miele-GN-Type-S5280-S300I-Vacuum-Hoover-Cleaner-Dust-Bags-20-Pack-8-filters-/390689075775?hash=item5af6e2323f:g:iygAAMXQatBSb3cB
p572
aVhttp://www.ebay.com/itm/Miele-GN-Type-S456I-2-S624-Vacuum-Hoover-Cleaner-Dust-Bags-20-Pack-8-filters-/301003626533?epid=888351673&hash=item461536d825:g:iygAAMXQatBSb3cB
p573
aVhttp://www.ebay.com/itm/Miele-GN-Type-S424I-S434I-Vacuum-Hoover-Cleaner-Dust-Bags-20-Pack-8-filters-/310781755056?hash=item485c093eb0:g:iygAAMXQatBSb3cB
p574
aVhttp://www.ebay.com/itm/Miele-GN-Type-S456I-S5261-Vacuum-Hoover-Cleaner-Dust-Bags-20-Pack-8-filters-/310781754204?hash=item485c093b5c:g:iygAAMXQatBSb3cB
p575
aVhttp://www.ebay.com/itm/Miele-GN-Type-S2110-S421I-Vacuum-Hoover-Cleaner-Dust-Bags-20-Pack-8-filters-/301003624151?hash=item461536ced7:g:iygAAMXQatBSb3cB
p576
aVhttp://www.ebay.com/itm/Miele-GN-Type-S5181-S5510-Vacuum-Hoover-Cleaner-Dust-Bags-20-Pack-8-filters-/390689070171?hash=item5af6e21c5b:g:iygAAMXQatBSb3cB
p577
aVhttp://www.ebay.com/itm/YMH29707-Vax-Hoover-Vacuum-Cleaner-Drive-Belts-aka-1-9-127773-00-/310776734642?var=&hash=item485bbca3b2:m:mu5uud0osboA2xP2ALte62A
p578
aVhttp://www.ebay.com/itm/Russel-Single-Large-Clothes-Duvet-Bedding-Vacuum-Storage-Bag-130-X-90cm-/390673825580?epid=1064773542&hash=item5af5f97f2c:g:LnwAAOSwP~tW31GH
p579
aVhttp://www.ebay.com/itm/H-L-Russel-Ltd-Vacuum-Storage-Bags-Set-Of-2-Medium-90-X-55cm-/390673825547?epid=1913504960&hash=item5af5f97f0b:g:j7wAAOSwq7JT36Dt
p580
aVhttp://www.ebay.com/itm/Hoover-Bags-for-Panasonic-Upright-MCE3002-/281170541375?var=&hash=item417711fb3f:m:mMF0gpihrdKXfKYYfZNgLJw
p581
aVhttp://www.ebay.com/itm/VACUUM-CLEANER-HOOVER-ELECTROLUX-HENRY-AIR-FRESHNERS-VAC-FRESHNER-PACK-OF-20-/111153740275?epid=1288419154&hash=item19e14779f3:g:BK4AAOxy06hSHFrn
p582
aVhttp://www.ebay.com/itm/24-PACKS-OF-2-EXTRA-STRENGTH-PET-VACUUM-FRESHENER-FOR-PET-ODOUR-CAT-DOG-ANIMAL-/221268767776?hash=item3384a57420:g:C~sAAOxytbBSDkVf
p583
aVhttp://www.ebay.com/itm/VACUUM-CLEANER-HOOVER-HENRY-AIR-FRESHNERS-VAC-FRESHNER-PACK-OF-10-TEN-/111138393593?hash=item19e05d4df9:g:UGEAAOSwKrhVbZ9Q
p584
aVhttp://www.ebay.com/itm/Genuine-Karcher-WV50-WV55-WV60-WV70-Window-Vacuum-Glass-Cleaner-500ml-RM500-/390631941110?epid=677543978&hash=item5af37a63f6:g:qYgAAOxyOlhS62IE
p585
aVhttp://www.ebay.com/itm/UNI225-4-Micropor-Vacuum-Bags-for-Miele-S241-S256i-S290-S299-S300i-S399i-/390622256613?hash=item5af2e69de5:g:csIAAOSwVFlT36D~
p586
aVhttp://www.ebay.com/itm/UNI225-4-Micropor-Vacuum-Bags-for-Miele-S241-S256i-S290-S299-S300i-S399i-/390622256613?hash=item5af2e69de5:g:csIAAOSwVFlT36D~
p587
aVhttp://www.ebay.com/itm/UNI225-Pack-of-4-Quality-Micropor-Vacuum-Bags-for-Miele-Models-with-3-wheels-/350829170018?hash=item51af0c4d62:g:BWgAAOSwRLZT36Dz
p588
aVhttp://www.ebay.com/itm/UNI225-Pack-of-4-Compatible-Miele-Type-FJM-Vacuum-Cleaner-Bags-3-Wheeled-Models-/350829170000?hash=item51af0c4d50:g:AGsAAOSwd4tT36DY
p589
aVhttp://www.ebay.com/itm/UNI225-Pack-of-4-Micropor-Vacuum-Bags-for-Miele-Cat-and-Dog-Models-Type-FJM-/390622256598?epid=1207919780&hash=item5af2e69dd6:g:j64AAOSwbqpT36De
p590
aVhttp://www.ebay.com/itm/Genuine-Numatic-Henry-Vacuum-Hoover-Bags-Hepa-Flo-HepaFlo-NVM-1CH-1-2-4-6-10-/190860715787?var=&hash=item2c702f670b:m:msGvR0Hf6LGr-RrZB1PHsUA
p591
aVhttp://www.ebay.com/itm/Ozmo-Natural-Vacuum-Fresheners-Flower-Shop-Fragrance-4-Sachets-For-ALL-Vacs-/350735483610?hash=item51a976c2da:g:qh8AAOSw14xWG8W1
p592
aVhttp://www.ebay.com/itm/Genuine-SEBO-Upright-Vacuum-Cleaner-Extension-Stretch-HOSE-ASSEMBLY-KIT-/121063128008?epid=1532437285&hash=item1c2fecbbc8:g:zYkAAOxy8F1RF3UJ
p593
aVhttp://www.ebay.com/itm/Vacuum-Storage-Bags-Set-Of-2-Medium-90-X-55cm-/310427459941?epid=1913504960&hash=item4846eb2165:g:Y~8AAOxyeglTXQEn
p594
aVhttp://www.ebay.com/itm/Pack-of-5-Vacuum-Fresheners-Spring-Fresh-Scent-For-All-Bagged-Vacuums-/320962425053?hash=item4abad9f0dd:g:QE8AAOxyOmBSJz1z
p595
aVhttp://www.ebay.com/itm/Eucaplyptus-Vacuum-Cleaner-Fresheners-5-For-ALL-Vacuum-Including-Bagless-Dyson-/320950747592?epid=1353327645&hash=item4aba27c1c8:g:7DkAAOSwoudW3zaM
p596
aVhttp://www.ebay.com/itm/Karcher-WV-Window-Vacuum-Replacement-Microfibre-Cloths-x-2-for-glass-and-mirrors-/170860938648?epid=1604849437&hash=item27c81b0598:g:0HkAAOSwepJXVt~f
p597
aVhttp://www.ebay.com/itm/Karcher-Window-Vacuum-Spray-Bottle-Kit-c-w-microfibe-cloth-and-chemical-sample-/180904093529?epid=1126361593&hash=item2a1eb96759:g:XrIAAOSwxH1UKTDz
p598
aVhttp://www.ebay.com/itm/10-Vacuum-Hoover-Bag-Fresh-Spring-Fragrance-NEW-BLUE-/310402585249?epid=1788341538&hash=item48456f92a1:g:3DIAAOxyTkJSMwc2
p599
aVhttp://www.ebay.com/itm/Dyson-All-Hoover-Pet-Airfreshner-Vacuum-freshener-for-All-Pet-House-Odours-/110877051858?epid=1739720331&hash=item19d0c98bd2:m:mAOOucnti0ubhocTg__DejQ
p600
aVhttp://www.ebay.com/itm/GLADE-DROP-IN-VAC-LILY-OF-THE-VALLEY-3-VACUUM-FRESHENERS-/370590343322?epid=1705458943&hash=item5648e7e09a:g:4jMAAOxyi-ZTYAaE
p601
aVhttp://www.ebay.com/itm/4-x-SPACE-BAG-SUIT-CARRIER-HANGING-VACUUM-STORAGE-BAG-/280642845181?hash=item41579df9fd:g:4vAAAOxyLm9TEFIB
p602
a.