(lp1
Vhttp://www.ebay.com/itm/How-to-Make-a-Watercolor-Paint-Itself-Nita-Engle-/132192566447?epid=88412133&hash=item1ec74a7caf:g:dNkAAOSwq1JZGVlw
p2
aVhttp://www.ebay.com/itm/The-Sweet-Little-Book-of-Candy-Making-From-the-Simple-to-the-Spectactular-Ma-/321932766277?epid=189773700&hash=item4af4b02c45:g:b6UAAOSwAKxWWKWF
p3
aVhttp://www.ebay.com/itm/How-To-Make-Anyone-Like-You-by-Leil-Lowndes-NEW-/161228842816?epid=90870215&hash=item2589fce740:g:IbMAAMXQC-tTA~WD
p4
aVhttp://www.ebay.com/itm/How-to-Make-Natural-Massage-Bars-by-Dr-Miriam-Kinai-9781482566758-/252264037254?epid=201996489&hash=item3abc1bbb86:g:L8kAAOSwX~dWpCGk
p5
aVhttp://www.ebay.com/itm/How-to-Make-Your-Dolls-House-Special-Fresh-Ideas-for-Decorating-Beryl-Armstrong-/152321623120?epid=89070128&hash=item2377138450:g:BwcAAOSwal5YLdjM
p6
aVhttp://www.ebay.com/itm/How-to-Make-Millions-with-Your-Ideas-An-Entrepreneurs-Guide-Dan-S-Kennedy-/132012329293?epid=1804331316&hash=item1ebc8c494d:g:LrcAAOSwiONYNbZZ
p7
aVhttp://www.ebay.com/itm/Dont-Make-Me-Count-to-Three-by-Ginger-Plowman-9780972304641-Paperback-2009-/232174913732?epid=92566219&hash=item360eb408c4:g:U1MAAOSwImRYUfds
p8
aVhttp://www.ebay.com/itm/HOW-TO-MAKE-VINTAGE-TOYS-46-antique-guide-books-on-CD-Vintage-Toys-/152357801959?hash=item23793b8fe7:m:mk845O6kBw9aAaVb32tHAEw
p9
aVhttp://www.ebay.com/itm/Chit-Chat-Talk-To-The-Face-Make-up-Set-Lip-Liner-Eyeliner-Mascara-Eyeshadows-/122353572326?epid=2019543872&hash=item1c7cd759e6:g:YrkAAOSw~AVYoHAU
p10
aVhttp://www.ebay.com/itm/Steampunk-Jewellery-Twenty-to-Make-Carolyn-Schulz-Paperback-Book-97817822-/132218451036?epid=179580363&hash=item1ec8d5745c:g:OIwAAOSw241YWp9V
p11
aVhttp://www.ebay.com/itm/Rs-CNC-Pro-JIG-To-make-Festool-style-MFT-type-replacement-perforated-tops-/322562487830?hash=item4b1a38f616:g:SQUAAOSw9mFWNi5n
p12
aVhttp://www.ebay.com/itm/Bolgers-T3-Carnauba-Wax-Flakes-use-to-make-beeswax-furniture-wax-polish-1kg-/140885987989?epid=1588318578&hash=item20cd759295:g:g~kAAOxy9dVTkZ1l
p13
aVhttp://www.ebay.com/itm/Fine-Ground-Natural-Calcium-Carbonate-use-to-make-Chalk-Pastel-Paint-100g-/181746133882?epid=1188736967&hash=item2a50e9eb7a:g:O-kAAOSwpDdVVcdd
p14
aVhttp://www.ebay.com/itm/Beeswax-Alchemy-How-to-Make-Your-Own-Soap-Candles-Balms-Creams-and-Salves-f-/132099409288?epid=213146379&hash=item1ec1bd0588:g:pWsAAOSwB-1YpwCa
p15
aVhttp://www.ebay.com/itm/Learn-How-to-Make-1-962-50-Via-My-Horse-Racing-System-Make-Money-Online-/122569739606?hash=item1c89b9cd56:g:3YsAAOSwLmVXERNJ
p16
aVhttp://www.ebay.com/itm/Flippin-Non-Stick-Fantastic-Pancake-Maker-Fast-Easy-Way-to-Make-Pefect-Panicakes-/162439241219?hash=item25d2221e03:g:7LYAAOSwzgBY0OBM
p17
aVhttp://www.ebay.com/itm/Crocheted-Hearts-Twenty-to-Make-May-Corfield-Paperback-Book-9781782210634-/132126505054?epid=212674851&hash=item1ec35a785e:g:yz8AAOSwB09YCyOo
p18
aVhttp://www.ebay.com/itm/Born-to-Make-You-Happy-Spears-Britney-CD-0638592500228-Acceptable-/131980863687?epid=1505040833&hash=item1ebaac28c7:g:0P8AAOSwXeJYDfo1
p19
aVhttp://www.ebay.com/itm/Wayside-Medicine-Forgotten-Plants-to-Make-Your-Own-Herbal-Remedies-2017-Julie-/132180460466?epid=237092864&hash=item1ec691c3b2:g:smsAAOSwX61ZCtsd
p20
aVhttp://www.ebay.com/itm/How-to-make-this-vintage-antique-delicate-pretty-irish-crochet-square-pattern-/201246362640?hash=item2edb37cc10:m:m-bvLHBXB5vFUE_JA_OfzcQ
p21
aVhttp://www.ebay.com/itm/HUDA-BEAUTY-3D-HIGHLIGHTER-PALETTE-Make-Up-2017-Edition-2-styles-to-choose-UK-/282561550500?var=&hash=item41c9fb18a4:m:mv_5Mevl334ODowoS6HsIZw
p22
aVhttp://www.ebay.com/itm/Better-Than-Before-What-I-Learned-About-Making-and-Breaking-Habits-to-Sleep-M-/311679239909?epid=221479263&hash=item489187c6e5:g:Bj4AAOSwawpXtcOR
p23
aVhttp://www.ebay.com/itm/Bolgers-Carnauba-Wax-Flakes-T3-grade-use-with-beeswax-to-make-wax-polish-100g-/140885999013?epid=1088277134&hash=item20cd75bda5:g:obkAAOxyAbxTkZyU
p24
aVhttp://www.ebay.com/itm/THE-EASY-WAY-TO-MAKE-AN-INCOME-FROM-HOME-/152315444191?hash=item2376b53bdf:g:yYcAAOSwLEtYl1N2
p25
aVhttp://www.ebay.com/itm/PLASTIC-BOW-TEMPLATES-TO-MAKE-YOUR-OWN-GLITTER-HAIR-BOWS-HAIR-CLIPS-SLIDES-/292011614454?var=&hash=item43fd3fa0f6:m:m5w_13MWl3z5i3W_BJOg6XQ
p26
aVhttp://www.ebay.com/itm/Spiralina2Go-vegetable-Spiraliser-with-5-cutting-tools-to-make-Spaghetti-jul-/182636049233?epid=2141579964&hash=item2a85f4f351:g:YwAAAOSwPK1ZTsIA
p27
aVhttp://www.ebay.com/itm/Frame-loom-to-make-pom-pom-blanket-31-5-x-26-inches-with-instructions-/112474702906?hash=item1a3003c43a:g:ZggAAOSwo4pYc-w1
p28
aVhttp://www.ebay.com/itm/Escape-the-Game-How-to-Make-Puzzles-and-Escape-Rooms-by-Adam-Clare-9781536826852-/331971504538?epid=227842490&hash=item4d4b0b299a:g:agoAAOSwNRdX2hVg
p29
aVhttp://www.ebay.com/itm/Profitable-Plumbing-How-to-Make-the-Most-Money-in-the-Plumbing-and-Heating-Trad-/252538693245?epid=43554492&hash=item3acc7aa67d:g:vJ8AAOSwmLlX2G56
p30
aVhttp://www.ebay.com/itm/KNITTING-PATTERN-TO-MAKE-BUNDLES-OF-JOY-6-COCOON-HATS-IN-3-SIZES-BABY-REBORN-/171466715364?epid=1988547694&hash=item27ec3670e4:g:zc0AAOSwxH1UG9o3
p31
aVhttp://www.ebay.com/itm/Learn-to-Apply-Make-Up-Training-DVD-/131975667374?hash=item1eba5cdeae:g:9q4AAOSwh2xYB0hJ
p32
aVhttp://www.ebay.com/itm/Crocheted-Granny-Squares-Twenty-to-Make-Val-Pierce-Paperback-Book-9781844-/132019050427?epid=117444563&hash=item1ebcf2d7bb:g:HeEAAOSwbsBXi3mQ
p33
aVhttp://www.ebay.com/itm/Frame-loom-to-make-pom-pom-blankets-31-5-x-26-inches-with-instructions-KIT-/112475829291?hash=item1a3014f42b:g:XiIAAOSw5cNYc--d
p34
aVhttp://www.ebay.com/itm/The-Hummingbird-Bakery-Cake-Days-Recipes-to-make-every-day-special-Tarek-Malou-/152558446140?epid=99757394&hash=item238531263c:g:Td4AAOSwCU1YwOMM
p35
aVhttp://www.ebay.com/itm/How-To-Make-Sweets-and-Treats-Peacock-Rebecca-Peacock-Diana-New-Book-/152296947955?epid=209621759&hash=item23759b00f3:g:d4QAAOSwzqFY9363
p36
aVhttp://www.ebay.com/itm/WERE-OFF-TO-MAKE-UMRAH-childrens-kids-Islamic-Book-fun-prophets-kabah-salah-/152183561124?epid=93446637&hash=item236ed8dba4:g:xZwAAOSwKtVWy64U
p37
aVhttp://www.ebay.com/itm/Were-Off-to-Make-Umrah-HB-/151687485774?epid=93446637&hash=item235147594e:g:cBMAAOSwv0tVXHB5
p38
aVhttp://www.ebay.com/itm/HUDA-BEAUTY-3D-HIGHLIGHTER-PALETTE-Make-Up-2017-Edition-2-styles-to-choose-UK-/282561550500?var=&hash=item41c9fb18a4:m:mv_5Mevl334ODowoS6HsIZw
p39
aVhttp://www.ebay.com/itm/Adorable-Ladies-you-Make-Me-Smile-Disney-Eeyore-Long-Pyjamas-Sizes-8-to-22-UK-/131988785980?var=&epid=1054663201&hash=item1ebb250b3c:m:m-kOiaPll2o72RHelAL0wXA
p40
aVhttp://www.ebay.com/itm/First-Time-Director-How-to-Make-Your-Breakthrough-Movie-Gil-Bettman-/132099374914?epid=89609654&hash=item1ec1bc7f42:g:COMAAOSwr~lYpvmF
p41
aVhttp://www.ebay.com/itm/How-to-Make-Money-on-the-Internet-Apple-eBay-Amazon-Facebook-There-Are-So-/152549475733?epid=114384162&hash=item2384a84595:m:mAk2gEh2sQ8DTYnz4oaYEPg
p42
aVhttp://www.ebay.com/itm/FROTHY-MILK-THERMOMETER-TO-MAKE-PROFESSIONAL-LATTE-CAPPUCCINO-COFFEE-IN-059-/122497908861?epid=880668778&hash=item1c8571c07d:g:OJIAAOSwa~hZZI67
p43
aVhttp://www.ebay.com/itm/THE-STUDLEY-COLLECTION-CORNER-TV-UNIT-WILL-MAKE-A-SPLENDID-ADDITION-TO-THE-HOME-/112385431341?epid=1349187072&hash=item1a2ab1972d:g:ZUoAAOSw5VFWL3Xb
p44
aVhttp://www.ebay.com/itm/Dont-Get-a-Job-Make-a-Job-How-to-make-it-as-a-creative-PB-1780677464-/131754870382?epid=221148830&hash=item1ead33c66e:g:fJIAAOSwr7ZW6onS
p45
aVhttp://www.ebay.com/itm/How-to-make-Festive-Winter-Floral-Designs-designs-/162261961179?hash=item25c79109db:g:NKUAAOSwLnBXWoLl
p46
aVhttp://www.ebay.com/itm/Luxury-sex-dice-game-toy-for-adults-packaged-beautifully-to-make-the-perfect-/182525060251?hash=item2a7f57649b:g:9tMAAOSwls5Y69Xp
p47
aVhttp://www.ebay.com/itm/Traditional-Wooden-Toys-Their-History-and-How-to-Make-Them-New-Hobbins-Cyri-/122241479156?epid=92124900&hash=item1c7628f1f4:g:l5oAAOSwImRYOE5s
p48
aVhttp://www.ebay.com/itm/Life-Hacks-Handy-Tips-to-Make-Life-Easier-1849536449-/152081200974?epid=209482363&hash=item2368bef74e:g:~QEAAOSwhRxXLKO9
p49
aVhttp://www.ebay.com/itm/Sea-Tech-4-in-1-Beach-Bomb-Lead-Mould-to-make-3-4-5-and-6oz-Weights-Loops-/152354554669?hash=item23790a032d:g:7BwAAOSwm8VUv5YH
p50
aVhttp://www.ebay.com/itm/How-to-Make-a-Metal-bending-Machine-Bob-Mann-/132173868668?epid=86516782&hash=item1ec62d2e7c:g:s-cAAOSwT-FZAwer
p51
aVhttp://www.ebay.com/itm/HANDMADE-POTTERY-AT-HOME-CERAMICS-TO-MAKE-ON-THE-KITCHEN-TABLE-US1-2-PB467-NEW-/122110827668?epid=160095373&hash=item1c6e5f5c94:g:XpwAAOSw14xWIDGV
p52
aVhttp://www.ebay.com/itm/KNITTING-PATTERN-TO-MAKE-CHESTER-BABY-REBORN-DOLL-4-PIECE-ROMPER-SET-/170693698337?hash=item27be232321:m:m-b7_bGU6vrPZ1zi3SeglLA
p53
aVhttp://www.ebay.com/itm/Frame-loom-to-make-pom-pom-blanket-with-design-31-5-x-26-/112471805673?hash=item1a2fd78ee9:g:thwAAOSw4hdXIgtf
p54
aVhttp://www.ebay.com/itm/Jeremy-Boyce-How-To-Make-And-Fly-Stunt-Kites-A-Comprehensive-Guide-On-Preparin-/112296925448?hash=item1a256b1908:g:xp0AAOSw5cNYmzd4
p55
aVhttp://www.ebay.com/itm/KNITTING-PATTERN-TO-MAKE-CHANTILLY-DRESS-SHRUG-SET-FOR-BABY-OR-REBORN-DOLL-/171242607964?epid=1088400198&hash=item27dedad55c:g:r7EAAOxywh1S~dg1
p56
aVhttp://www.ebay.com/itm/KNITTING-PATTERN-TO-MAKE-VALENTINA-GORGEOUS-MATINEE-SETS-FOR-BABY-OR-REBORN-/171098173708?epid=1788411097&hash=item27d63ef10c:g:dAwAAMXQE9hSA3fp
p57
aVhttp://www.ebay.com/itm/Walnut-Crystals-To-make-Traditional-Wood-Dye-as-used-on-floorboards-etc-100g-/170942393308?epid=1088277791&hash=item27ccf5ebdc:m:mv8_RBbZw1wgVyzhfp6oHaA
p58
aVhttp://www.ebay.com/itm/WAYS-TO-MAKE-ME-HAPPY-T-SHIRT-BUY-ME-FOOD-HUNGRY-CUTE-HIPSTER-FASHION-TUMBLR-NEW-/201558874395?var=&hash=item2eedd8591b:m:mPtGuBQe4ZenijwWjo4CBZw
p59
aVhttp://www.ebay.com/itm/How-To-Make-Holsters-Al-Stohlman-/142437234286?epid=1205486859&hash=item2129ebb66e:g:8ukAAOSwDrNZXg6M
p60
aVhttp://www.ebay.com/itm/KNITTING-PATTERN-TO-MAKE-DAWNS-ANGEL-COAT-LEGGINS-HAT-FOR-BABY-REBORN-DOLL-/171620920198?hash=item27f5676b86:g:p5gAAOSwMpZUoXla
p61
aVhttp://www.ebay.com/itm/5-x-Black-Off-On-Miniature-Push-to-Make-Switch-SPST-/252832700076?hash=item3ade00d6ac:g:mOIAAOSwMvtZVhiY
p62
aVhttp://www.ebay.com/itm/How-To-Make-Money-Trading-Binary-Options-Video-Tutorial-/262519357047?hash=item3d1f5f7e77:g:At4AAOSwv9FXg7ed
p63
aVhttp://www.ebay.com/itm/Frame-loom-to-make-pom-pom-blankets-31-5-x-26-inches-with-printed-instructions-/112487179383?hash=item1a30c22477:g:lT4AAOSw5cNYc-ud
p64
aVhttp://www.ebay.com/itm/KNITTING-PATTERN-TO-MAKE-WALLACE-3PIECE-TEDDY-SET-FOR-BABY-OR-REBORN-DOLL-/170968817065?epid=1888247830&hash=item27ce891da9:m:maZK-Ay54SJJMBFvdF_Dq3w
p65
aVhttp://www.ebay.com/itm/Fittings-to-Make-1-Hose-Assembly-for-Shimano-Hydraulic-Brake-Banjo-Insert-Seal-/141360220408?hash=item20e9b9c8f8:g:P9UAAOSw5UZY8tHV
p66
aVhttp://www.ebay.com/itm/KNITTING-PATTERN-TO-MAKE-WALLACE-3PIECE-TEDDY-SET-FOR-BABY-OR-REBORN-DOLL-/170968817065?epid=1888247830&hash=item27ce891da9:m:maZK-Ay54SJJMBFvdF_Dq3w
p67
aVhttp://www.ebay.com/itm/The-Vitamix-Cookbook-Over-200-delicious-whole-food-recipes-to-make-in-your-blen-/381987581416?epid=226887685&hash=item58f03bede8:g:kpcAAOSwax5Yt8mj
p68
aVhttp://www.ebay.com/itm/Make-Up-Palette-Urban-Beauty-Case-Cosmetic-Set-Travel-All-You-Need-To-Go-45pc-/381483375379?epid=1012589965&hash=item58d22e5b13:g:~BMAAOSwHQ9WYajd
p69
aVhttp://www.ebay.com/itm/KNITTING-PATTERN-TO-MAKE-WILL-AND-TED-BABY-REBORN-/170686674152?hash=item27bdb7f4e8:m:m8LoWUhX9-PTJYTGvy7S7TA
p70
aVhttp://www.ebay.com/itm/KNITTING-PATTERN-TO-MAKE-ROSSETTI-BABY-MATINEE-SET-/170891179531?hash=item27c9e8760b:m:mNEJXRB4kLW-zIckmXcR23Q
p71
aVhttp://www.ebay.com/itm/Frame-loom-to-make-pom-pom-blankets-23-5-x21-inches-car-seat-moses-basket-/112462667185?hash=item1a2f4c1db1:g:Xe0AAOSw9NdXwFrG
p72
aVhttp://www.ebay.com/itm/Salad-Maker-Bowl-Cutter-Slicer-Easy-to-Make-Salad-Too-Great-Slicers-in-60-second-/222522257290?hash=item33cf5c2f8a:g:Km8AAOSwdGFYs~yK
p73
aVhttp://www.ebay.com/itm/Sew-Serendipity-Bags-Fabulous-Bags-to-Make-and-Love-Kay-Whitt-Hardcover-Book-/132067147853?epid=109123924&hash=item1ebfd0c04d:g:ZSwAAOSwqfNXkyxj
p74
aVhttp://www.ebay.com/itm/Tripoli-fine-abrasive-powder-Use-to-make-Burnishing-cream-metal-polish-25g-/130954030415?epid=1888281588&hash=item1e7d77ed4f:g:kgcAAOSwbopZVSau
p75
aVhttp://www.ebay.com/itm/NJL3281D-SemiConductor-Case-TO264-Make-ON-Semi-ON-Semiconductor-/401092302748?hash=item5d62f6d79c:g:bZ8AAOSwlY1ZL~jX
p76
aVhttp://www.ebay.com/itm/KNITTING-PATTERN-TO-MAKE-ROSSETTI-BABY-MATINEE-SET-/170891179531?hash=item27c9e8760b:m:mNEJXRB4kLW-zIckmXcR23Q
p77
aVhttp://www.ebay.com/itm/1-LITRE-BEROL-FABRIC-PAINTING-MEDIUM-MIX-WITH-ANY-PAINT-TO-MAKE-TEXTILE-FRIENDLY-/391581912932?epid=1557688959&hash=item5b2c19cf64:g:RBEAAOSwPCVX8mH-
p78
aVhttp://www.ebay.com/itm/How-to-make-hand-Shadows-book-32-silhouettes-great-story-telling-teaching-aid-/162305633421?epid=2092003010&hash=item25ca2b6c8d:g:h1cAAOSw2xRYQb9F
p79
a.