(lp1
Vhttp://www.ebay.com/itm/The-Walking-Dead-Volume-6-This-Sorrowful-Life-Robert-Kirkman-Paperback-Book-/142080717353?epid=91395070&hash=item2114abb229:g:qOEAAOSwN9tZdwvR
p2
aVhttp://www.ebay.com/itm/The-Nightingale-Gallery-Sorrowful-Mysteries-of-Brot-Doherty-Paul-Paperback-/301988140901?epid=88103687&hash=item464fe55765:m:m_yFAwIc8lKA5tyBh2xMx-g
p3
aVhttp://www.ebay.com/itm/The-House-of-Crows-The-Sorrowful-Mysteries-of-Broth-Doherty-Paul-Paperback-/301986302506?epid=91875970&hash=item464fc94a2a:g:da8AAOSw4YJZYe5W
p4
aVhttp://www.ebay.com/itm/The-Anger-of-God-Sorrowful-Mysteries-of-Brother-Ath-Doherty-Paul-Paperback-/391482850457?epid=89066127&hash=item5b26323c99:g:10EAAOSw0j9ZWYzy
p5
aVhttp://www.ebay.com/itm/The-Field-of-Blood-The-Sorrowful-Mysteries-of-Broth-Doherty-Paul-Paperback-/391481874168?epid=86454004&hash=item5b262356f8:g:pXEAAOSwrfVZP-Fw
p6
aVhttp://www.ebay.com/itm/House-of-the-Red-Slayer-Sorrowful-Mysteries-of-Brot-Doherty-Paul-Paperback-/142020802743?epid=88871419&hash=item21111978b7:g:S8gAAOSw8d5ZP-Bv
p7
aVhttp://www.ebay.com/itm/By-Murders-Bright-Light-The-Sorrowful-Mysteries-of-Doherty-Paul-Paperback-/301978261903?epid=88844424&hash=item464f4e998f:g:M5wAAOSwwvZZP8Gp
p8
aVhttp://www.ebay.com/itm/Murder-Most-Holy-Sorrowful-Mysteries-of-Brother-Ath-Doherty-Paul-Paperback-/142005639521?epid=88881022&hash=item2110321961:g:WJwAAOSwpHFZa7bz
p9
aVhttp://www.ebay.com/itm/The-Devils-Domain-Sorrowful-Mysteries-of-Brother-A-Doherty-Paul-Paperback-/141988402741?epid=91237284&hash=item210f2b1635:g:KPUAAOSw3h1ZP8HE
p10
aVhttp://www.ebay.com/itm/The-Walking-Dead-Volume-6-This-Sorrowful-Life-Walking-PB-9781582406848-/152044255274?epid=91395070&hash=item23668b382a:g:rxMAAOSwbwlXBQZb
p11
aVhttp://www.ebay.com/itm/The-Devils-Domain-Sorrowful-Mysteries-of-Brother-A-Doherty-Paul-Paperback-/141911424938?epid=91237284&hash=item210a947faa:g:1m4AAOSw~rpZXD6d
p12
aVhttp://www.ebay.com/itm/Marilla-Ness-Sorrowful-Woman-CD-/381552210780?epid=30635977&hash=item58d648b35c:g:BjkAAOSwx-9WyzTi
p13
aVhttp://www.ebay.com/itm/The-Assassins-Riddle-The-Sorrowful-Mysteries-of-Broth-Mass-Market-Paperback-/361469369828?epid=88403457&hash=item542940dde4:g:8UYAAOSwGotWmSbC
p14
aVhttp://www.ebay.com/itm/Wolves-Of-The-North-Sorrowful-Howling-Blue-Moon-Double-Sided-Thin-Pullover-RM33S-/131678808934?var=&epid=1061958925&hash=item1ea8ab2b66:m:mqPqh25-qzGpbRy5yO1mq0A
p15
aVhttp://www.ebay.com/itm/The-House-of-Shadows-Sorrowful-Mysteries-of-Brother-Doherty-Paul-Paperback-/391328019236?epid=91920884&hash=item5b1cf7b324:g:IHIAAOSwpjRZdrPg
p16
aVhttp://www.ebay.com/itm/Devotion-to-the-Sorrowful-Mother-Including-Prayers-and-Paperback-NEW-2009-0-/311457839629?epid=1505643808&hash=item4884557a0d:g:c8oAAOSw42JWD6qQ
p17
aVhttp://www.ebay.com/itm/The-Anger-of-God-Sorrowful-Mysteries-of-Brother-Ath-Doherty-Paul-Paperback-/141776505792?epid=89066127&hash=item210289cbc0:g:4jwAAOSwFJBZSjTE
p18
aVhttp://www.ebay.com/itm/By-Murders-Bright-Light-The-Sorrowful-Mysteries-of-Doherty-Paul-Paperback-/391146604804?epid=88844424&hash=item5b12278904:g:N7QAAOSw6ShZP-Cs
p19
aVhttp://www.ebay.com/itm/The-Assassins-Riddle-The-Sorrowful-Mysteries-of-Bro-Paul-Harding-Paperback-/301595234022?epid=88403457&hash=item46387a0ee6:g:ZacAAOSwuVdZddka
p20
aVhttp://www.ebay.com/itm/The-Field-of-Blood-The-Sorrowful-Mysteries-of-Broth-Doherty-Paul-Paperback-/301567174808?epid=86454004&hash=item4636cde898:g:sCQAAOSw3h1ZP~pp
p21
aVhttp://www.ebay.com/itm/The-House-of-Crows-The-Sorrowful-Mysteries-of-Broth-Doherty-Paul-Paperback-/141609108134?epid=91875970&hash=item20f88f82a6:g:MwsAAOSwRXRZXrO9
p22
aVhttp://www.ebay.com/itm/Henryk-Gorecki-Symphony-3-Sorrowful-Songs-NEW-CD-/351250236586?epid=114604801&hash=item51c82544aa:g:agEAAOSwg3FUhw48
p23
aVhttp://www.ebay.com/itm/The-Devils-Domain-Sorrowful-Mysteries-of-Brother-A-Doherty-Paul-Paperback-/191337122249?epid=91237284&hash=item2c8c94c9c9:g:E44AAOSwTf9ZP-Dm
p24
aVhttp://www.ebay.com/itm/The-House-of-Crows-The-Sorrowful-Mysteries-of-Brother-Mass-Market-Paperback-/190942700005?epid=91875970&hash=item2c751261e5:g:8kIAAOSwpDdVAB5o
p25
aVhttp://www.ebay.com/itm/The-House-of-Shadows-Sorrowful-Mysteries-of-Brother-Doherty-Paul-Paperback-/391328019236?epid=91920884&hash=item5b1cf7b324:g:IHIAAOSwpjRZdrPg
p26
aVhttp://www.ebay.com/itm/Devotion-to-the-Sorrowful-Mother-Including-Prayers-and-Paperback-NEW-2009-0-/311457839629?epid=1505643808&hash=item4884557a0d:g:c8oAAOSw42JWD6qQ
p27
aVhttp://www.ebay.com/itm/The-Anger-of-God-Sorrowful-Mysteries-of-Brother-Ath-Doherty-Paul-Paperback-/141776505792?epid=89066127&hash=item210289cbc0:g:4jwAAOSwFJBZSjTE
p28
aVhttp://www.ebay.com/itm/By-Murders-Bright-Light-The-Sorrowful-Mysteries-of-Doherty-Paul-Paperback-/391146604804?epid=88844424&hash=item5b12278904:g:N7QAAOSw6ShZP-Cs
p29
aVhttp://www.ebay.com/itm/The-Assassins-Riddle-The-Sorrowful-Mysteries-of-Bro-Paul-Harding-Paperback-/301595234022?epid=88403457&hash=item46387a0ee6:g:ZacAAOSwuVdZddka
p30
aVhttp://www.ebay.com/itm/The-Field-of-Blood-The-Sorrowful-Mysteries-of-Broth-Doherty-Paul-Paperback-/301567174808?epid=86454004&hash=item4636cde898:g:sCQAAOSw3h1ZP~pp
p31
aVhttp://www.ebay.com/itm/The-House-of-Crows-The-Sorrowful-Mysteries-of-Broth-Doherty-Paul-Paperback-/141609108134?epid=91875970&hash=item20f88f82a6:g:MwsAAOSwRXRZXrO9
p32
aVhttp://www.ebay.com/itm/Henryk-Gorecki-Symphony-3-Sorrowful-Songs-NEW-CD-/351250236586?epid=114604801&hash=item51c82544aa:g:agEAAOSwg3FUhw48
p33
aVhttp://www.ebay.com/itm/The-Devils-Domain-Sorrowful-Mysteries-of-Brother-A-Doherty-Paul-Paperback-/191337122249?epid=91237284&hash=item2c8c94c9c9:g:E44AAOSwTf9ZP-Dm
p34
aVhttp://www.ebay.com/itm/The-House-of-Crows-The-Sorrowful-Mysteries-of-Brother-Mass-Market-Paperback-/190942700005?epid=91875970&hash=item2c751261e5:g:8kIAAOSwpDdVAB5o
p35
aVhttp://www.ebay.com/itm/The-House-of-Shadows-Sorrowful-Mysteries-of-Brother-Doherty-Paul-Paperback-/391328019236?epid=91920884&hash=item5b1cf7b324:g:IHIAAOSwpjRZdrPg
p36
aVhttp://www.ebay.com/itm/Devotion-to-the-Sorrowful-Mother-Including-Prayers-and-Paperback-NEW-2009-0-/311457839629?epid=1505643808&hash=item4884557a0d:g:c8oAAOSw42JWD6qQ
p37
aVhttp://www.ebay.com/itm/The-Anger-of-God-Sorrowful-Mysteries-of-Brother-Ath-Doherty-Paul-Paperback-/141776505792?epid=89066127&hash=item210289cbc0:g:4jwAAOSwFJBZSjTE
p38
aVhttp://www.ebay.com/itm/By-Murders-Bright-Light-The-Sorrowful-Mysteries-of-Doherty-Paul-Paperback-/391146604804?epid=88844424&hash=item5b12278904:g:N7QAAOSw6ShZP-Cs
p39
aVhttp://www.ebay.com/itm/The-Assassins-Riddle-The-Sorrowful-Mysteries-of-Bro-Paul-Harding-Paperback-/301595234022?epid=88403457&hash=item46387a0ee6:g:ZacAAOSwuVdZddka
p40
aVhttp://www.ebay.com/itm/The-Field-of-Blood-The-Sorrowful-Mysteries-of-Broth-Doherty-Paul-Paperback-/301567174808?epid=86454004&hash=item4636cde898:g:sCQAAOSw3h1ZP~pp
p41
aVhttp://www.ebay.com/itm/The-House-of-Crows-The-Sorrowful-Mysteries-of-Broth-Doherty-Paul-Paperback-/141609108134?epid=91875970&hash=item20f88f82a6:g:MwsAAOSwRXRZXrO9
p42
aVhttp://www.ebay.com/itm/Henryk-Gorecki-Symphony-3-Sorrowful-Songs-NEW-CD-/351250236586?epid=114604801&hash=item51c82544aa:g:agEAAOSwg3FUhw48
p43
aVhttp://www.ebay.com/itm/The-Devils-Domain-Sorrowful-Mysteries-of-Brother-A-Doherty-Paul-Paperback-/191337122249?epid=91237284&hash=item2c8c94c9c9:g:E44AAOSwTf9ZP-Dm
p44
aVhttp://www.ebay.com/itm/The-House-of-Crows-The-Sorrowful-Mysteries-of-Brother-Mass-Market-Paperback-/190942700005?epid=91875970&hash=item2c751261e5:g:8kIAAOSwpDdVAB5o
p45
aVhttp://www.ebay.com/itm/The-House-of-Shadows-Sorrowful-Mysteries-of-Brother-Doherty-Paul-Paperback-/391328019236?epid=91920884&hash=item5b1cf7b324:g:IHIAAOSwpjRZdrPg
p46
aVhttp://www.ebay.com/itm/Devotion-to-the-Sorrowful-Mother-Including-Prayers-and-Paperback-NEW-2009-0-/311457839629?epid=1505643808&hash=item4884557a0d:g:c8oAAOSw42JWD6qQ
p47
aVhttp://www.ebay.com/itm/The-Anger-of-God-Sorrowful-Mysteries-of-Brother-Ath-Doherty-Paul-Paperback-/141776505792?epid=89066127&hash=item210289cbc0:g:4jwAAOSwFJBZSjTE
p48
aVhttp://www.ebay.com/itm/By-Murders-Bright-Light-The-Sorrowful-Mysteries-of-Doherty-Paul-Paperback-/391146604804?epid=88844424&hash=item5b12278904:g:N7QAAOSw6ShZP-Cs
p49
aVhttp://www.ebay.com/itm/The-Assassins-Riddle-The-Sorrowful-Mysteries-of-Bro-Paul-Harding-Paperback-/301595234022?epid=88403457&hash=item46387a0ee6:g:ZacAAOSwuVdZddka
p50
aVhttp://www.ebay.com/itm/The-Field-of-Blood-The-Sorrowful-Mysteries-of-Broth-Doherty-Paul-Paperback-/301567174808?epid=86454004&hash=item4636cde898:g:sCQAAOSw3h1ZP~pp
p51
aVhttp://www.ebay.com/itm/The-House-of-Crows-The-Sorrowful-Mysteries-of-Broth-Doherty-Paul-Paperback-/141609108134?epid=91875970&hash=item20f88f82a6:g:MwsAAOSwRXRZXrO9
p52
aVhttp://www.ebay.com/itm/Henryk-Gorecki-Symphony-3-Sorrowful-Songs-NEW-CD-/351250236586?epid=114604801&hash=item51c82544aa:g:agEAAOSwg3FUhw48
p53
aVhttp://www.ebay.com/itm/The-Devils-Domain-Sorrowful-Mysteries-of-Brother-A-Doherty-Paul-Paperback-/191337122249?epid=91237284&hash=item2c8c94c9c9:g:E44AAOSwTf9ZP-Dm
p54
aVhttp://www.ebay.com/itm/The-House-of-Crows-The-Sorrowful-Mysteries-of-Brother-Mass-Market-Paperback-/190942700005?epid=91875970&hash=item2c751261e5:g:8kIAAOSwpDdVAB5o
p55
aVhttp://www.ebay.com/itm/The-House-of-Shadows-Sorrowful-Mysteries-of-Brother-Doherty-Paul-Paperback-/391328019236?epid=91920884&hash=item5b1cf7b324:g:IHIAAOSwpjRZdrPg
p56
aVhttp://www.ebay.com/itm/Devotion-to-the-Sorrowful-Mother-Including-Prayers-and-Paperback-NEW-2009-0-/311457839629?epid=1505643808&hash=item4884557a0d:g:c8oAAOSw42JWD6qQ
p57
aVhttp://www.ebay.com/itm/The-Anger-of-God-Sorrowful-Mysteries-of-Brother-Ath-Doherty-Paul-Paperback-/141776505792?epid=89066127&hash=item210289cbc0:g:4jwAAOSwFJBZSjTE
p58
aVhttp://www.ebay.com/itm/By-Murders-Bright-Light-The-Sorrowful-Mysteries-of-Doherty-Paul-Paperback-/391146604804?epid=88844424&hash=item5b12278904:g:N7QAAOSw6ShZP-Cs
p59
aVhttp://www.ebay.com/itm/The-Assassins-Riddle-The-Sorrowful-Mysteries-of-Bro-Paul-Harding-Paperback-/301595234022?epid=88403457&hash=item46387a0ee6:g:ZacAAOSwuVdZddka
p60
aVhttp://www.ebay.com/itm/The-Field-of-Blood-The-Sorrowful-Mysteries-of-Broth-Doherty-Paul-Paperback-/301567174808?epid=86454004&hash=item4636cde898:g:sCQAAOSw3h1ZP~pp
p61
aVhttp://www.ebay.com/itm/The-House-of-Crows-The-Sorrowful-Mysteries-of-Broth-Doherty-Paul-Paperback-/141609108134?epid=91875970&hash=item20f88f82a6:g:MwsAAOSwRXRZXrO9
p62
aVhttp://www.ebay.com/itm/Henryk-Gorecki-Symphony-3-Sorrowful-Songs-NEW-CD-/351250236586?epid=114604801&hash=item51c82544aa:g:agEAAOSwg3FUhw48
p63
aVhttp://www.ebay.com/itm/The-Devils-Domain-Sorrowful-Mysteries-of-Brother-A-Doherty-Paul-Paperback-/191337122249?epid=91237284&hash=item2c8c94c9c9:g:E44AAOSwTf9ZP-Dm
p64
aVhttp://www.ebay.com/itm/The-House-of-Crows-The-Sorrowful-Mysteries-of-Brother-Mass-Market-Paperback-/190942700005?epid=91875970&hash=item2c751261e5:g:8kIAAOSwpDdVAB5o
p65
aVhttp://www.ebay.com/itm/By-Murders-Bright-Light-The-Sorrowful-Mysteries-of-Doherty-Paul-Paperback-/301978261903?epid=88844424&hash=item464f4e998f:g:M5wAAOSwwvZZP8Gp
p66
aVhttp://www.ebay.com/itm/Murder-Most-Holy-Sorrowful-Mysteries-of-Brother-Ath-Doherty-Paul-Paperback-/142005639521?epid=88881022&hash=item2110321961:g:WJwAAOSwpHFZa7bz
p67
aVhttp://www.ebay.com/itm/The-Devils-Domain-Sorrowful-Mysteries-of-Brother-A-Doherty-Paul-Paperback-/141988402741?epid=91237284&hash=item210f2b1635:g:KPUAAOSw3h1ZP8HE
p68
aVhttp://www.ebay.com/itm/The-Walking-Dead-Volume-6-This-Sorrowful-Life-Walking-PB-9781582406848-/152044255274?epid=91395070&hash=item23668b382a:g:rxMAAOSwbwlXBQZb
p69
aVhttp://www.ebay.com/itm/The-Devils-Domain-Sorrowful-Mysteries-of-Brother-A-Doherty-Paul-Paperback-/141911424938?epid=91237284&hash=item210a947faa:g:1m4AAOSw~rpZXD6d
p70
aVhttp://www.ebay.com/itm/Marilla-Ness-Sorrowful-Woman-CD-/381552210780?epid=30635977&hash=item58d648b35c:g:BjkAAOSwx-9WyzTi
p71
aVhttp://www.ebay.com/itm/The-Assassins-Riddle-The-Sorrowful-Mysteries-of-Broth-Mass-Market-Paperback-/361469369828?epid=88403457&hash=item542940dde4:g:8UYAAOSwGotWmSbC
p72
aVhttp://www.ebay.com/itm/Wolves-Of-The-North-Sorrowful-Howling-Blue-Moon-Double-Sided-Thin-Pullover-RM33S-/131678808934?var=&epid=1061958925&hash=item1ea8ab2b66:m:mqPqh25-qzGpbRy5yO1mq0A
p73
aVhttp://www.ebay.com/itm/The-House-of-Shadows-Sorrowful-Mysteries-of-Brother-Doherty-Paul-Paperback-/391328019236?epid=91920884&hash=item5b1cf7b324:g:IHIAAOSwpjRZdrPg
p74
aVhttp://www.ebay.com/itm/Devotion-to-the-Sorrowful-Mother-Including-Prayers-and-Paperback-NEW-2009-0-/311457839629?epid=1505643808&hash=item4884557a0d:g:c8oAAOSw42JWD6qQ
p75
aVhttp://www.ebay.com/itm/The-Anger-of-God-Sorrowful-Mysteries-of-Brother-Ath-Doherty-Paul-Paperback-/141776505792?epid=89066127&hash=item210289cbc0:g:4jwAAOSwFJBZSjTE
p76
aVhttp://www.ebay.com/itm/By-Murders-Bright-Light-The-Sorrowful-Mysteries-of-Doherty-Paul-Paperback-/391146604804?epid=88844424&hash=item5b12278904:g:N7QAAOSw6ShZP-Cs
p77
aVhttp://www.ebay.com/itm/The-Assassins-Riddle-The-Sorrowful-Mysteries-of-Bro-Paul-Harding-Paperback-/301595234022?epid=88403457&hash=item46387a0ee6:g:ZacAAOSwuVdZddka
p78
aVhttp://www.ebay.com/itm/The-Field-of-Blood-The-Sorrowful-Mysteries-of-Broth-Doherty-Paul-Paperback-/301567174808?epid=86454004&hash=item4636cde898:g:sCQAAOSw3h1ZP~pp
p79
aVhttp://www.ebay.com/itm/The-House-of-Crows-The-Sorrowful-Mysteries-of-Broth-Doherty-Paul-Paperback-/141609108134?epid=91875970&hash=item20f88f82a6:g:MwsAAOSwRXRZXrO9
p80
aVhttp://www.ebay.com/itm/Henryk-Gorecki-Symphony-3-Sorrowful-Songs-NEW-CD-/351250236586?epid=114604801&hash=item51c82544aa:g:agEAAOSwg3FUhw48
p81
aVhttp://www.ebay.com/itm/The-Devils-Domain-Sorrowful-Mysteries-of-Brother-A-Doherty-Paul-Paperback-/191337122249?epid=91237284&hash=item2c8c94c9c9:g:E44AAOSwTf9ZP-Dm
p82
aVhttp://www.ebay.com/itm/The-House-of-Crows-The-Sorrowful-Mysteries-of-Brother-Mass-Market-Paperback-/190942700005?epid=91875970&hash=item2c751261e5:g:8kIAAOSwpDdVAB5o
p83
a.