(lp1
Vhttp://www.ebay.com/itm/Thermaltake-View-28-Black-Midi-Tower-Gaming-Case-USB-3-0-/112409062747?epid=820106735&hash=item1a2c1a2d5b:g:CAAAAOSwDiBZFZ27
p2
aVhttp://www.ebay.com/itm/Vibox-Gaming-PC-Pyro-SA4-Red-3-9GHz-Dual-Core-Radeon-Graphics-4GB-RAM-1TB-/360610178880?epid=813575018&hash=item53f60aa740:g:wAUAAOSwJ4hZAKzn
p3
aVhttp://www.ebay.com/itm/CiT-Lightspeed-White-Midi-Tower-Gaming-Case-USB-3-0-/112014094418?epid=1266833487&hash=item1a148f7052:g:QAoAAOSw4q9XTsNU
p4
aVhttp://www.ebay.com/itm/NZXT-Noctis-450-ROG-Gunmetal-Midi-Tower-Gaming-Case-USB-3-0-/381945316313?epid=570516651&hash=item58edb703d9:g:V9gAAOSwNnRYkGB1
p5
aVhttp://www.ebay.com/itm/NZXT-S340-RAZER-Special-Edition-Black-Mid-Tower-Gaming-PC-Case-USB-3-0-x-2-w-W-/201953396358?epid=1542105847&hash=item2f055c4686:g:KT4AAOSwJ4hY-hMr
p6
aVhttp://www.ebay.com/itm/Kolink-Punisher-Midi-Tower-ATX-Red-LED-Desktop-PC-Gaming-Case-Black-/222415854542?epid=1773505648&hash=item33c9049bce:g:JW0AAOSw4A5YqveB
p7
aVhttp://www.ebay.com/itm/Sama-Ark-Black-Full-Tower-Gaming-PC-CASE-5-x-RGB-Fans-USB-3-0-/201869148703?epid=598211991&hash=item2f0056c21f:g:7mYAAOSwmgJY4j1v
p8
aVhttp://www.ebay.com/itm/CiT-Dark-Soul-Black-Midi-Tower-Case-USB-3-0-/381926881436?epid=500248895&hash=item58ec9db89c:g:kgwAAOSwZQRYffd-
p9
aVhttp://www.ebay.com/itm/Vibox-Desktop-Gaming-PC-Tower-AMD-Quad-Core-Radeon-R7-Graphics-8GB-RAM-1TB-/190745815565?epid=812672798&hash=item2c69562a0d:g:14UAAOSwvihZALVe
p10
aVhttp://www.ebay.com/itm/Kolink-Sanctuary-Black-Midi-Tower-Gaming-Case-USB-3-0-/382039464637?epid=535811691&hash=item58f3539abd:g:RBkAAOSwhQhY7gqj
p11
aVhttp://www.ebay.com/itm/HP-DESKTOP-TOWER-PC-C2D-2-8-Ghz-250-GB-HDD-8-GB-Ram-WINDOWS-7-19-TFT-/322476483924?hash=item4b1518a554:g:PM8AAOSwU9xURjz3
p12
aVhttp://www.ebay.com/itm/NZXT-S340-Black-Midi-Tower-Gaming-Case-USB-3-0-/111713426095?epid=1493353778&hash=item1a02a39aaf:g:P0MAAOSwu4BVnQE3
p13
aVhttp://www.ebay.com/itm/DELL-DESKTOP-TOWER-PC-6-GHZ-2X3-GHZ-CORE-2-DUO-1TB-8GB-19-WI-FI-WINDOWS-7-/221963336006?epid=677887071&hash=item33ae0bb946:g:h6oAAOSwajVUQOYK
p14
aVhttp://www.ebay.com/itm/CiT-Flash-Mid-Tower-Gaming-PC-Case-Black-RED-LED-Fans-USB-3-0-/201946822447?epid=907426091&hash=item2f04f7f72f:g:Y-IAAOSwxu5ZLUvX
p15
aVhttp://www.ebay.com/itm/WINDOWS-10-GAMING-COMPUTER-PC-INTEL-CORE-2-DUO-E8400-3-00GHz-8GB-RAM-1TB-HDD-/302295057698?epid=927067916&hash=item4662308522:g:JZIAAOSwvflZP~T1
p16
aVhttp://www.ebay.com/itm/CiT-G-Force-White-Midi-Tower-Gaming-Case-USB-3-0-/182378320016?epid=2076930929&hash=item2a76985090:g:l5UAAOSw-0xYQg4M
p17
aVhttp://www.ebay.com/itm/Kolink-Refractor-Midi-ATX-USB-3-0-Windowed-Blue-LED-Gaming-Tower-PC-Case-Black-/222577876472?epid=1262709933&hash=item33d2acddf8:g:Q8gAAOSwEPtZZM6y
p18
aVhttp://www.ebay.com/itm/HP-Z210-Desktop-Tower-E3-1230-3-2GHz-16GB-RAM-500GB-HDD-NVidia-Graphics-Win-10-/401246772685?hash=item5d6c2bddcd:g:ZagAAOSwo4pYWoqt
p19
aVhttp://www.ebay.com/itm/BitFenix-Comrade-Midi-Tower-Gaming-PC-Case-Tower-White-USB-3-0-/331997658748?epid=1037576811&hash=item4d4c9a3e7c:g:p8kAAOSw-CpX~i97
p20
aVhttp://www.ebay.com/itm/FULL-DELL-FAST-500GB-DESKTOP-TOWER-PC-TFT-COMPUTER-WITH-WINDOWS-10-WIFI-4GB-/201750604902?epid=526480338&hash=item2ef945ec66:g:olsAAOSwImRYUrvx
p21
aVhttp://www.ebay.com/itm/Aero-Cool-Aero-300-Black-Midi-Tower-Gaming-Case-USB-3-0-/112266704417?hash=item1a239df621:g:gJwAAOSwA3dYd78y
p22
aVhttp://www.ebay.com/itm/Game-Max-Cobalt-Black-Midi-Tower-Gaming-Case-USB-3-0-/112317647908?epid=563038179&hash=item1a26a74c24:g:t2MAAOSwx6pYtDLp
p23
aVhttp://www.ebay.com/itm/BitFenix-Nova-Black-Midi-Tower-Gaming-Case-USB-3-0-/111807973632?epid=16003303194&hash=item1a08464900:g:rKEAAOSwo0JWL7Na
p24
aVhttp://www.ebay.com/itm/CiT-Flash-Midi-Tower-PC-Black-Green-Esports-Gaming-Tempered-Glass-Case-USB-3-0-/222521573727?epid=908176201&hash=item33cf51c15f:g:L9UAAOSwn-tZJF4V
p25
aVhttp://www.ebay.com/itm/Phanteks-Enthoo-Evolv-mATX-Black-Midi-Tower-Case-USB-3-0-/112385337035?epid=812464012&hash=item1a2ab026cb:g:lx8AAOSw7U5ZAJW2
p26
aVhttp://www.ebay.com/itm/Game-Max-Destroyer-Mid-Tower-PC-Gaming-Case-With-Window-4-Fans-USB3-Blue-LED-/331679658336?epid=1142124179&hash=item4d39a5f160:g:CLMAAOSwAYtWG4pq
p27
aVhttp://www.ebay.com/itm/ULTRA-FAST-GAMING-TOWER-PC-INTEL-CORE-2-QUAD-8GB-RAM-2GB-NVIDIA-GT710-500GB-HDD-/291853731966?hash=item43f3d6887e:g:em4AAOSwAPVZGrh8
p28
aVhttp://www.ebay.com/itm/AvP-Pulse-Black-Midi-Tower-Gaming-Case-USB-3-0-/182350893076?epid=1161171646&hash=item2a74f5d014:g:htgAAOSwcUBYJgVU
p29
aVhttp://www.ebay.com/itm/Thermaltake-Tower-900-Black-Full-Tower-Gaming-Case-USB-3-0-/182410093899?epid=18003296158&hash=item2a787d254b:g:608AAOSwnHZYbMhJ
p30
aVhttp://www.ebay.com/itm/PHANTEKS-ENTHOO-EVOLV-BLACK-STEEL-GAMING-CASE-PC-TOWER-ATX-PH-ES515E-BK-/272749405006?epid=1740625120&hash=item3f8121a34e:g:tTMAAOSwOMdZXMC1
p31
aVhttp://www.ebay.com/itm/AVP-X6-RGB-Mid-Tower-Black-PC-Case-2xRGB-Fans-1xRGB-LED-Strip-RC-USB-3-0-/201985378645?epid=20002717295&hash=item2f07444955:g:DgIAAOSwfJJZZf7c
p32
aVhttp://www.ebay.com/itm/Phanteks-Enthoo-Evolv-ATX-Glass-Silver-Midi-Tower-Gaming-Case-USB-3-0-/381665850528?epid=1469957099&hash=item58dd0eb4a0:g:pisAAOSwvg9XWqAv
p33
aVhttp://www.ebay.com/itm/Phanteks-Enthoo-Pro-M-Black-Midi-Tower-Gaming-Case-USB-3-0-/381338997345?epid=2060828195&hash=item58c9935261:g:D1EAAOSw~gRVsKRZ
p34
aVhttp://www.ebay.com/itm/Game-Max-Vega-Black-Midi-Tower-Gaming-Case-USB-3-0-/112325961221?epid=563171051&hash=item1a27262605:g:fxEAAOSwCU1YvZEz
p35
aVhttp://www.ebay.com/itm/HP-Z210-Desktop-Tower-E3-1230-3-2GHz-16GB-RAM-500GB-HDD-NVidia-Graphics-Win-10-/401246772685?hash=item5d6c2bddcd:g:ZagAAOSwo4pYWoqt
p36
aVhttp://www.ebay.com/itm/ULTRA-FAST-Gaming-PC-Quad-Core-i7-Computer-SSD-16GB-Windows-10-Intel-Desktop-PC-/172732565223?var=&epid=908828301&hash=item2837a9c6e7:m:mDiuLqH7cE35eymDPKa0GsQ
p37
aVhttp://www.ebay.com/itm/Game-Max-Destroyer-Mid-Tower-PC-Gaming-Case-With-Window-4-Fans-USB3-Green-LED-/332237527647?epid=1342080547&hash=item4d5ae65a5f:g:FpIAAOSw~FJZKEtq
p38
aVhttp://www.ebay.com/itm/Thermaltake-Core-P5-Klar-Midi-Tower-Gaming-Schutzhulle-USB-3-0-/182518969907?epid=1242233001&hash=item2a7efa7633:g:TpQAAOSwwbdWIRdA
p39
aVhttp://www.ebay.com/itm/Bitfenix-Nova-Midi-Tower-USB3-0-Silent-Full-ATX-LED-PC-Gaming-Case-Black-/331717222173?epid=1542251087&hash=item4d3be31f1d:g:jHMAAOSwnipWVZFA
p40
aVhttp://www.ebay.com/itm/HP-Elite-8200-Tower-Core-i5-2400-3-1GHz-8GB-Ram-500GB-HDD-/122593060461?epid=1670179500&hash=item1c8b1da66d:g:eqAAAOSw1JhZZJ8w
p41
aVhttp://www.ebay.com/itm/Game-Max-Proteus-Black-Gaming-PC-Midi-Tower-Case-USB-3-0-/222401857528?epid=1867357256&hash=item33c82f07f8:g:MY0AAOSwLEtYmaIb
p42
aVhttp://www.ebay.com/itm/Dell-Optiplex-D05D-Mini-Tower-Intel-Core-i5-250GB-3-20GHz-4GB-Ram-/332313372040?epid=1865115401&hash=item4d5f6ba588:g:ZAYAAOSwlXhZaMmH
p43
aVhttp://www.ebay.com/itm/CiT-G-Force-Black-Midi-Tower-Gaming-Case-USB-3-0-/381570433294?epid=1462714779&hash=item58d75ec10e:g:N3gAAOSwZQxW6DHk
p44
aVhttp://www.ebay.com/itm/Cheap-HP-Dual-2X-Screen-Monitor-Computer-Set-PC-WiFi-Fast-Windows-7-PRO-Computer-/252934369097?hash=item3ae4102f49:g:zz8AAOSwAPVZFaF7
p45
aVhttp://www.ebay.com/itm/NZXT-H440-Black-Black-Gaming-Mid-Tower-Case-New-Edition-CA-H442W-M8-/222384765184?epid=1642099390&hash=item33c72a3900:g:cq4AAOSwZQRYg1Qy
p46
aVhttp://www.ebay.com/itm/Phanteks-Enthoo-Pro-M-Mid-Tower-Gaming-PC-Case-Tempered-Glass-Window-Black-/322527320069?epid=1687509723&hash=item4b18205805:g:Ww0AAOSwY3BZJVb-
p47
aVhttp://www.ebay.com/itm/CiT-Defender-Black-Midi-Tower-Gaming-Case-/111807037016?epid=1730563943&hash=item1a0837fe58:g:fFEAAOSw5ZBWLha~
p48
aVhttp://www.ebay.com/itm/AvP-STORM-28-GAMING-PC-COMPUTER-TOWER-CASE-FRONT-USB-3-0-HD-AUDIO-PORTS-/112424464577?epid=20003304442&hash=item1a2d0530c1:g:8VYAAOSwrx5UYfZE
p49
aVhttp://www.ebay.com/itm/DELL-DESKTOP-TOWER-PC-INTEL-QUAD-CORE-CPU-500-GB-HD-8GB-RAM-WI-FI-WINDOWS-7-/322003433664?epid=723003883&hash=item4af8e678c0:g:1yYAAOSwh-1W4T4c
p50
aVhttp://www.ebay.com/itm/Corsair-Crystal-Series-570X-Black-Midi-Tower-Gaming-Case-USB-3-0-/182362340400?epid=17003294691&hash=item2a75a47c30:g:zWEAAOSwXeJYNBWr
p51
aVhttp://www.ebay.com/itm/Kolink-Aviator-V-Black-Midi-Tower-Gaming-Case-USB-3-0-/182168547179?hash=item2a6a176f6b:g:SeoAAOSwuhhXWrD~
p52
aVhttp://www.ebay.com/itm/Game-Max-Explorer-Black-Midi-Tower-Gaming-Case-USB-3-0-/182099829188?hash=item2a65fee1c4:g:9EQAAOSwD2pXF0DL
p53
aVhttp://www.ebay.com/itm/Cougar-Panzer-MAX-Black-Full-Tower-Gaming-Case-USB-3-0-/112192456812?epid=2028647874&hash=item1a1f31086c:g:qg8AAOSwnbZYGzUj
p54
aVhttp://www.ebay.com/itm/Cooler-Master-MasterCase-5-Pro-Black-Midi-Tower-Gaming-Case-USB-3-0-/181838023998?epid=1041892758&hash=item2a56640d3e:g:XtIAAOSw3ydV5nYM
p55
aVhttp://www.ebay.com/itm/Phanteks-Eclipse-P400S-Tempered-Glass-Midi-Tower-Gaming-Case-Window-White-/322387987562?epid=2126113988&hash=item4b0fd24c6a:g:ln0AAOSwEzxYdy8Z
p56
aVhttp://www.ebay.com/itm/HP-GAMING-PC-6GHZ-DESKTOP-1TB-8GB-COMPUTER-TOWER-WINDOWS-10-NEW-GFX-HDMI-/192116101385?var=&hash=item2cbb031109:m:mfYppmgg0EfwPK8XD1YTKzg
p57
aVhttp://www.ebay.com/itm/WINDOWS-7-FULL-DELL-COMPUTER-DESKTOP-TOWER-SET-PC-4GB-RAM-160GB-HDD-WIFI-BARGAIN-/201553023978?epid=937440914&hash=item2eed7f13ea:g:9BMAAOSwAvJW~j96
p58
aVhttp://www.ebay.com/itm/Kolink-Satellite-Plus-Black-Midi-Tower-Gaming-Case-USB-3-0-/382084810277?epid=561311362&hash=item58f6078625:g:tYUAAOSwi7RZGsjW
p59
aVhttp://www.ebay.com/itm/Phanteks-Enthoo-Evolv-mATX-Silver-Midi-Tower-Case-USB-3-0-/382059376136?epid=820609470&hash=item58f4836e08:g:LE8AAOSwvihZAJX~
p60
aVhttp://www.ebay.com/itm/Thermaltake-Tower-900-PC-Gaming-Watercooling-Case-E-ATX-Tempered-Glass-Sides-/322367289094?hash=item4b0e967706:g:urgAAOSw241YXA7K
p61
aVhttp://www.ebay.com/itm/Phanteks-Eclipse-P400S-Vetro-Bianco-Midi-Tower-Case-Da-Gioco-USB-3-0-/382156389524?epid=2126164982&hash=item58fa4bbc94:g:wsYAAOSw44BYfJ~2
p62
aVhttp://www.ebay.com/itm/HP-Elite-Tower-8300-CMT-Intel-i3-3220-3-30GHz-4GB-DDR3-500GB-Win-7-WiFi-USB-3-0-/332094799595?hash=item4d52647eeb:g:62YAAOSwNnRYfjIs
p63
aVhttp://www.ebay.com/itm/Kolink-Punisher-RGB-Black-Midi-Tower-Gaming-Case-USB-3-0-/112320158921?epid=578947578&hash=item1a26cd9cc9:g:b5IAAOSw2gxYtwi5
p64
aVhttp://www.ebay.com/itm/AvP-Hyperion-Black-Midi-Tower-Gaming-Case-USB-3-0-/381343369154?epid=1138788770&hash=item58c9d607c2:g:KBIAAOSwAoRXF36b
p65
aVhttp://www.ebay.com/itm/Phanteks-Eclipse-P400S-Tempered-Glass-Midi-Tower-Gaming-Case-Window-Gunmetal-/222375446524?epid=2126109414&hash=item33c69c07fc:g:I8IAAOSw44BYdy~e
p66
aVhttp://www.ebay.com/itm/Thermaltake-Versa-N25-Mid-Tower-Atx-Gaming-PC-Case-USB-3-0-/201965666373?epid=1169378443&hash=item2f06178045:g:LS4AAOSwHptY~2dl
p67
aVhttp://www.ebay.com/itm/Fast-Dell-Desktop-Pc-Tower-Core-2-Duo-New-1-TB-HDD-8GB-Ddr2-22-Monitor-Wi-Fi-x-/331793512392?hash=item4d406f37c8:g:mFkAAOSwzOxUWO0b
p68
aVhttp://www.ebay.com/itm/Game-Max-Sirius-Black-Midi-Tower-Gaming-Case-USB-3-0-/112377390554?epid=784848404&hash=item1a2a36e5da:g:A8UAAOSwHHFY-JMT
p69
aVhttp://www.ebay.com/itm/Cooler-Master-MasterCase-5-Window-Black-Midi-Tower-Gaming-Case-USB-3-0-/112191212639?epid=2062254413&hash=item1a1f1e0c5f:g:NGsAAOSwA3dYGbm2
p70
aVhttp://www.ebay.com/itm/CiT-Prism-BLACK-RGB-Midi-Tower-PC-Case-2-x-RGB-Front-Fans-1-x-USB-3-0-/201865279928?epid=2069476625&hash=item2f001bb9b8:g:vVYAAOSwfRdZNTgc
p71
aVhttp://www.ebay.com/itm/ULTRA-SMALL-COMPLETE-DELL-DESKTOP-TOWER-PC-COMPUTER-19-LCD-Wifi-DVD-Cheap-/252779534360?var=&hash=item3adad59818:m:mSbtO4RwjSDHG6dxfKYSc2w
p72
aVhttp://www.ebay.com/itm/Corsair-Graphite-780T-Black-Full-Tower-Gaming-Case-USB-3-0-/181700776153?epid=588201021&hash=item2a4e35d0d9:g:94EAAOSw-zxWp683
p73
aVhttp://www.ebay.com/itm/Customised-Dell-Optiplex-Core-2-Quad-or-Core-2-Duo-Desktop-or-Tower-PC-Computers-/262542293169?var=&hash=item3d20bd78b1:m:mR5mmzW3DpTnpB98nJO7i_A
p74
aVhttp://www.ebay.com/itm/Game-Max-Polaris-Black-Full-Tower-Gaming-Case-USB-3-0-/382072247587?epid=842212458&hash=item58f547d523:g:JU4AAOSwjqVZDGpX
p75
aVhttp://www.ebay.com/itm/Game-Max-Onyx-Black-Midi-Tower-Gaming-Case-USB-3-0-/381994230206?epid=598366829&hash=item58f0a161be:g:6FgAAOSwTf9ZSial
p76
aVhttp://www.ebay.com/itm/Phanteks-Enthoo-Evolv-ATX-Tower-Tempered-Glass-Gaming-PC-Case-Grey-/322384892214?epid=1470344573&hash=item4b0fa31136:g:w7oAAOSwa~BYc4WM
p77
aVhttp://www.ebay.com/itm/CIT-Vanquish-Red-LED-Midi-ATX-USB3-Gaming-Tower-PC-Case-Side-Window-/221786426279?epid=1830457148&hash=item33a3804ba7:g:xcIAAOSwrklVNR~t
p78
aVhttp://www.ebay.com/itm/Corsair-Crystal-460X-RGB-Black-Midi-Tower-Gaming-Case-USB-3-0-/112257215074?epid=2077090993&hash=item1a230d2a62:g:RHEAAOSw241Ya5Eg
p79
aVhttp://www.ebay.com/itm/Kolink-Satellite-Black-Midi-Tower-Gaming-Case-USB-3-0-/112007556057?epid=1747932644&hash=item1a142babd9:g:tawAAOSwQaJXRZQG
p80
aVhttp://www.ebay.com/itm/Kolink-Vault-Black-Midi-Tower-Gaming-Case-USB-3-0-/182146721482?epid=1067775029&hash=item2a68ca66ca:g:EGUAAOSwMHdXRZAj
p81
aVhttp://www.ebay.com/itm/Inwin-805-Red-Black-Midi-Tower-Gaming-Case-USB-3-0-/381519652517?epid=1055523111&hash=item58d457e6a5:g:OT4AAOSw5dNWl4kw
p82
aVhttp://www.ebay.com/itm/DELL-FULL-COMPLETE-SYSTEM-DESKTOP-TOWER-PC-SET-WIFI-FAST-COMPUTER-17-LCD-TFT-/252675057984?hash=item3ad49b6940:g:CsAAAOSwojRYStsg
p83
aVhttp://www.ebay.com/itm/HP-Compaq-Elite-8200-CMT-Tower-i3-3-10GHz-4GB-DDR3-250GB-HDD-Win-7-Pro-WiFi-/332094806989?hash=item4d52649bcd:g:RBEAAOSw241YfjRc
p84
aVhttp://www.ebay.com/itm/ULTRA-FAST-Quad-Core-Gaming-PC-Tower-PC-8GB-RAM-1TB-HDD-Windows-10-WIFI-/302198681138?epid=2081289790&hash=item465c71ee32:g:wqAAAOSw9OFZJXkK
p85
aVhttp://www.ebay.com/itm/Phanteks-Enthoo-Evolv-ATX-Glass-Black-Midi-Tower-Gaming-Case-USB-3-0-/182165932251?epid=1969932619&hash=item2a69ef88db:g:8OMAAOSw9eVXWp~0
p86
aVhttp://www.ebay.com/itm/AvP-Storm-P28-Black-Midi-Tower-Gaming-Case-USB-3-0-/381245839077?epid=20003304442&hash=item58c405d6e5:g:8iUAAOSwEeFVQ149
p87
aVhttp://www.ebay.com/itm/Phanteks-Enthoo-Evolv-ATX-Glass-Gunmetal-Midi-Tower-Gaming-Case-USB-3-0-/182165932289?epid=1470344573&hash=item2a69ef8901:g:H5UAAOSwuhhXWqAN
p88
aVhttp://www.ebay.com/itm/CiT-Barricade-Black-Midi-Tower-Case-USB-3-0-/381445550345?epid=1230555076&hash=item58cfed3109:g:XTEAAOSwo0JWKNoX
p89
aVhttp://www.ebay.com/itm/Aero-Cool-X-Predator-II-Black-Full-Tower-Gaming-Case-USB-3-0-/111980050216?hash=item1a1287f728:g:wsgAAOSwZVlXkQ~n
p90
aVhttp://www.ebay.com/itm/Corsair-Carbide-Air-240-White-Midi-Tower-Gaming-Case-USB-3-0-/181608276790?epid=1930553476&hash=item2a48b26336:g:5wAAAOSwpzdWp68W
p91
aVhttp://www.ebay.com/itm/Kolink-K6T-Black-Midi-Tower-Gaming-Case-USB-3-0-/382039430199?epid=578950554&hash=item58f3531437:g:-YQAAOSwrddY7gMI
p92
aVhttp://www.ebay.com/itm/Dell-OptiPlex-FAST-Desktop-Tower-QUAD-Core-i3-3-30GHz-8GB-1TB-HDD-Windows-10-/142373169292?epid=20005144047&hash=item21261a288c:g:H6QAAOSwdjNZA6Wn
p93
aVhttp://www.ebay.com/itm/HP-Z600-Dual-Xeon-X5550-2-66GHz-12GB-DDR3-ECC-250GB-NVS-295-NO-OS-/272761097411?hash=item3f81d40cc3:g:HVAAAOSwEjFXc9tK
p94
aVhttp://www.ebay.com/itm/Kolink-K6T-Black-Midi-Tower-Gaming-Case-USB-3-0-/382039430199?epid=578950554&hash=item58f3531437:g:-YQAAOSwrddY7gMI
p95
aVhttp://www.ebay.com/itm/Shinobee-Home-Office-PC-Student-Computer-Tower-Quad-Core-Windows-10-Pro-AMD-/182525062831?hash=item2a7f576eaf:g:8o0AAOSwpkFY69Zb
p96
aVhttp://www.ebay.com/itm/CiT-Spectre-Black-Midi-Tower-Gaming-Case-USB-3-0-/181910900418?epid=1936853556&hash=item2a5abc0ec2:g:ytgAAOSw~bFWKg-p
p97
aVhttp://www.ebay.com/itm/CiT-G-Force-Black-Mid-Tower-Gaming-PC-Case-USB-3-0-2x-12cm-RED-15-LED-Front-Fans-/201868890981?epid=1462714779&hash=item2f0052d365:g:ppQAAOSwmgJY2Pb4
p98
aVhttp://www.ebay.com/itm/Cooler-Master-MasterCase-Pro-5-NVIDIA-Black-Midi-Tower-Gaming-Case-USB-3-0-/381835538927?epid=2069884196&hash=item58e72bf1ef:g:hbEAAOSw5cNYGeia
p99
aVhttp://www.ebay.com/itm/Dell-780-Cheap-Tower-PC-Intel-Dual-Core-4GB-DDR3-320GB-Windows-7-WiFi-/322088559728?hash=item4afdf96470:g:afkAAOSwwvZZOSBG
p100
aVhttp://www.ebay.com/itm/AvP-STORM-P28-BLACK-FRONT-USB-3-0-HD-AUDIO-MIC-PORTS-ATX-GAMING-TOWER-CASE-/262946894672?epid=20003304442&hash=item3d38db3350:g:2VMAAOSw1-RUZJob
p101
aVhttp://www.ebay.com/itm/Corsair-Crystal-460X-Black-Midi-Tower-Gaming-Case-USB-3-0-/381874760275?hash=item58e9826a53:g:qCkAAOSwj85YQg5G
p102
aVhttp://www.ebay.com/itm/Corsair-Carbide-Air-240-White-Midi-Tower-Gaming-Case-USB-3-0-/181608276790?epid=1930553476&hash=item2a48b26336:g:5wAAAOSwpzdWp68W
p103
aVhttp://www.ebay.com/itm/Game-Max-Destroyer-Black-Midi-Tower-Gaming-Case-USB-3-0-/111786543424?epid=1142124179&hash=item1a06ff4940:g:X0QAAOSw5dNWjSnH
p104
aVhttp://www.ebay.com/itm/Kolink-Punisher-Midi-Tower-ATX-Blue-LED-Desktop-PC-Gaming-Case-White-/322443670359?epid=1572947309&hash=item4b1323f357:g:vDMAAOSwax5YvUBV
p105
aVhttp://www.ebay.com/itm/Thermaltake-Tower-900-PC-Gaming-Watercooling-Case-E-ATX-Tempered-Glass-Sides-/322367289094?hash=item4b0e967706:g:urgAAOSw241YXA7K
p106
aVhttp://www.ebay.com/itm/NZXT-Source-340-Elite-Midi-Tower-Gaming-Tempered-Glass-PC-Case-White-/322425470912?epid=1388113756&hash=item4b120e3fc0:g:SUcAAOSw4CFYpcm3
p107
aVhttp://www.ebay.com/itm/Game-Max-Onyx-RGB-Mid-Tower-ATX-3-x-RGB-Fans-Tempered-Glass-Sides-Front-USB-3-/322452216678?epid=598366829&hash=item4b13a65b66:g:feoAAOSwdGFYyCfy
p108
aVhttp://www.ebay.com/itm/Tower-PC-HP-Pavilion-550-252na-QUAD-CORE-i5-6400-3-3GHz-8GB-1TB-PCIE-x1-x16-RED-/332111891016?hash=item4d53694a48:g:kjQAAOSwnHZYk0GB
p109
aVhttp://www.ebay.com/itm/Thermaltake-View-27-View-27-Black-Midi-Tower-Gaming-Case-USB-3-0-/112143941995?epid=26003301706&hash=item1a1c4cc16b:g:Z~0AAOSwzaJX4lcS
p110
aVhttp://www.ebay.com/itm/Fast-Gaming-PC-Computer-Desktop-Tower-Intel-Hexa-6-Core-Xeon-i7-Ram-Hdd-Window10-/222524334697?hash=item33cf7be269:g:IwoAAOSwFJBZXreN
p111
aVhttp://www.ebay.com/itm/NZXT-S340-Elite-Black-Red-Mid-Tower-Case-CA-S340W-B4-/322397928958?epid=691486853&hash=item4b1069fdfe:g:UPsAAOSw5cNYg1tw
p112
aVhttp://www.ebay.com/itm/Aero-Cool-X-Predator-X1-Black-Midi-Tower-Gaming-Case-USB-3-0-/111670951631?hash=item1a001b7ecf:g:~KUAAOSwpDdVVMN9
p113
aVhttp://www.ebay.com/itm/DELL-DESKTOP-TOWER-PC-5-8-GHZ-2X2-9-GHZ-CORE-2-DUO-1TB-8GB-WI-FI-WINDOWS-7-/321747452687?hash=item4ae9a4830f:g:h6oAAOSwajVUQOYK
p114
aVhttp://www.ebay.com/itm/Thermaltake-View-28-Riing-Black-Midi-Tower-Gaming-Case-USB-3-0-/382060890958?epid=781483627&hash=item58f49a8b4e:g:ErMAAOSww9xZAceH
p115
aVhttp://www.ebay.com/itm/DELL-FULL-COMPLETE-SYSTEM-DESKTOP-TOWER-PC-SET-WIFI-COMPUTER-17-TFT-SCREEN-/252679106462?hash=item3ad4d92f9e:g:CsAAAOSwojRYStsg
p116
aVhttp://www.ebay.com/itm/Inwin-805-Gold-Black-Midi-Tower-Gaming-Case-USB-3-0-/181991355375?epid=1056080818&hash=item2a5f87b3ef:g:kDAAAOSwT~9Wl4j0
p117
aVhttp://www.ebay.com/itm/Raijintek-Aeneas-Black-Midi-Tower-Gaming-Case-USB-3-0-/181731778529?epid=1338016697&hash=item2a500edfe1:g:QjIAAOSwpDdVQozw
p118
aVhttp://www.ebay.com/itm/Corsair-Obsidian-750D-Black-Full-Tower-Gaming-Case-USB-3-0-/381196712990?epid=1839357709&hash=item58c1183c1e:g:yeMAAOSw5VFWMO2e
p119
aVhttp://www.ebay.com/itm/Phanteks-Enthoo-Evolv-ATX-Tower-Tempered-Glass-Gaming-PC-Case-Black-/222505128733?epid=1740625120&hash=item33ce56d31d:g:pBkAAOSwn-tZEajk
p120
aVhttp://www.ebay.com/itm/CiT-Spectre-White-Full-Tower-Gaming-Case-USB-3-0-/381260958365?epid=1532363067&hash=item58c4ec8a9d:g:8EUAAOSwl8NVVdO3
p121
aVhttp://www.ebay.com/itm/WINDOWS-7-DELL-OPTIPLEX-TOWER-PC-COMPUTER-INTEL-CORE-2-DUO-4GB-RAM-320GB-HD-WIFI-/301732432771?epid=1988136763&hash=item4640a78b83:g:2y8AAOSwd0BV6wTU
p122
aVhttp://www.ebay.com/itm/FULL-DELL-CORE-2-DUO-DESKTOP-TOWER-PC-TFT-COMPUTER-WITH-WINDOWS-7-WIFI-4GB-/321716387472?epid=548948847&hash=item4ae7ca7e90:g:LlMAAOSwy5ZXBYYD
p123
aVhttp://www.ebay.com/itm/Phanteks-Enthoo-Evolv-ATX-Black-Midi-Tower-Gaming-Case-USB-3-0-/381630580384?epid=1940487320&hash=item58daf486a0:g:ZcEAAOSwYmZXMgE-
p124
aVhttp://www.ebay.com/itm/Thermaltake-Versa-H15-Black-Midi-Tower-Gaming-Case-USB-3-0-/382091065624?epid=1538440174&hash=item58f666f918:g:czIAAOSwPh5ZG4bu
p125
aVhttp://www.ebay.com/itm/HP-DESKTOP-TOWER-PC-C2D-2-8-Ghz-250-GB-HDD-4-GB-Ram-WINDOWS-7-19-TFT-/222466399446?hash=item33cc07dcd6:g:PM8AAOSwU9xURjz3
p126
aVhttp://www.ebay.com/itm/Thermaltake-Versa-C22-Mid-Tower-Gaming-PC-Case-RGB-LED-2-x-USB-3-0-/201953512501?epid=8003303821&hash=item2f055e0c35:g:MVwAAOSwyWZZPpkF
p127
aVhttp://www.ebay.com/itm/Aero-Cool-X-Predator-X1-Devil-Red-Black-Midi-Tower-Gaming-Case-USB-3-0-/381561358636?hash=item58d6d4492c:g:oLMAAOSwv9hW2OBR
p128
aVhttp://www.ebay.com/itm/HP-Compaq-Elite-8200-CMT-Tower-i3-3-10GHz-4GB-DDR3-250GB-HDD-Win-7-Pro-WiFi-/332094806989?hash=item4d52649bcd:g:RBEAAOSw241YfjRc
p129
aVhttp://www.ebay.com/itm/Phanteks-Enthoo-Evolv-ATX-Gunmetal-Midi-Tower-Gaming-Case-USB-3-0-/182126178116?epid=1640585142&hash=item2a6790ef44:g:kMgAAOSw~oFXMgF-
p130
aVhttp://www.ebay.com/itm/Game-Max-Draco-Black-Midi-Tower-Gaming-Case-USB-3-0-/382072247564?epid=843433659&hash=item58f547d50c:g:Xn0AAOSwtGlZDGoi
p131
aVhttp://www.ebay.com/itm/Phanteks-Enthoo-Evolv-ATX-Gunmetal-Midi-Tower-Gaming-Case-USB-3-0-/182126178116?epid=1640585142&hash=item2a6790ef44:g:kMgAAOSw~oFXMgF-
p132
aVhttp://www.ebay.com/itm/Inwin-707-Black-Full-Tower-Gaming-Case-USB-3-0-/381328054837?epid=1837569455&hash=item58c8ec5a35:g:6xQAAOSwyQtVo7fF
p133
aVhttp://www.ebay.com/itm/Game-Max-Draco-Black-Midi-Tower-Gaming-Case-USB-3-0-/382072247564?epid=843433659&hash=item58f547d50c:g:Xn0AAOSwtGlZDGoi
p134
aVhttp://www.ebay.com/itm/WINDOWS-10-DELL-OPTIPLEX-COMPUTER-DESKTOP-TOWER-PC-INTEL-4GB-RAM-500GB-HDD-WIFI-/142241595556?epid=866304672&hash=item211e4280a4:g:k7kAAOSw9GhYdfsl
p135
aVhttp://www.ebay.com/itm/Windows-10-Core-i5-Quad-Core-HDMI-Gaming-Tower-PC-8GB-DDR3-500GB-HDD-DVDRW-/262979760768?hash=item3d3ad0b280:g:JOAAAOSwY3BZFFgI
p136
aVhttp://www.ebay.com/itm/Antec-P100-Silver-Midi-Tower-Gaming-Case-USB-3-0-/111258145795?epid=2126061066&hash=item19e7809403:g:vQgAAOSwq7JUI1L1
p137
aVhttp://www.ebay.com/itm/XigmaTek-Eden-Black-Mid-Tower-PC-Case-with-7-Colour-LED-Lighting-/182643761762?epid=850120955&hash=item2a866aa262:g:f24AAOSw~e5ZVWny
p138
aVhttp://www.ebay.com/itm/DELL-DESKTOP-TOWER-PC-5-8-GHZ-2X2-9-GHZ-CORE-2-DUO-1TB-8GB-WI-FI-WINDOWS-7-/321747452687?hash=item4ae9a4830f:g:h6oAAOSwajVUQOYK
p139
aVhttp://www.ebay.com/itm/Game-Max-Nero-White-Midi-Tower-Gaming-Case-USB-3-0-/381623935952?epid=1967701555&hash=item58da8f23d0:g:vQoAAOSwRH5XK3b5
p140
aVhttp://www.ebay.com/itm/Corsair-Carbide-Air-540-Black-Midi-Tower-Gaming-Case-USB-3-0-/181749968645?epid=1608214849&hash=item2a51246f05:g:b-gAAOSweW5VWxCL
p141
aVhttp://www.ebay.com/itm/HP-Z600-Xeon-X5550-2-66GHz-8GB-DDR3-ECC-250GB-NVS-295-NO-OS-/282420765332?hash=item41c196e294:g:HVAAAOSwEjFXc9tK
p142
aVhttp://www.ebay.com/itm/CiT-Lightspeed-Black-Midi-Tower-Gaming-Case-USB-3-0-/112014094222?epid=1166702968&hash=item1a148f6f8e:g:~lEAAOSwmtJXTsLw
p143
aVhttp://www.ebay.com/itm/Ultra-Fast-Computer-Dekstop-Tower-PC-6-4-GHZ-4GB-160GB-DVD-WINDOWS-7-PRO-/321489500370?epid=1888507727&hash=item4ada4478d2:g:KCgAAOSwVFlT6TtA
p144
aVhttp://www.ebay.com/itm/DELL-OR-HP-COMPUTER-TOWER-PC-DUO-CORE-5-6GHZ-TO-6-0GHZ-4GB-RAM-WINDOWS-XP-PRO-/201948740275?epid=625116847&hash=item2f05153ab3:g:uGQAAOSwzJ5XYTDh
p145
aVhttp://www.ebay.com/itm/Aero-Cool-P7C1-Black-Midi-Tower-Gaming-Case-USB-3-0-/112151534130?epid=1287516627&hash=item1a1cc09a32:g:TrEAAOSwmfhX699D
p146
aVhttp://www.ebay.com/itm/Zalman-Z11-Neo-Black-Midi-Tower-Gaming-Case-USB-3-0-/111706676940?epid=1937648702&hash=item1a023c9ecc:g:NkEAAOSwLVZVkTwe
p147
aVhttp://www.ebay.com/itm/CiT-G-Force-Black-BLU-Mid-Tower-Gaming-PC-Case-USB-3-0-2x-12cm-15-LED-Front-Fans-/201913855307?epid=1161573164&hash=item2f0300ed4b:g:DnAAAOSwhvFZCHWH
p148
aVhttp://www.ebay.com/itm/Corsair-Carbide-Series-Air-740-Black-Midi-Tower-Gaming-Case-USB-3-0-/182268866399?epid=2004344074&hash=item2a70122f5f:g:FeEAAOSw8oFXzU40
p149
aVhttp://www.ebay.com/itm/Sama-Ark-Black-Full-Tower-PC-Case-5-x-RGB-Fans-Integrated-RGB-USB-3-0-/262914970984?epid=598211991&hash=item3d36f41568:g:dM4AAOSwA29Y3OXl
p150
aVhttp://www.ebay.com/itm/AvP-Pulse-Black-Midi-Tower-Gaming-PC-Case-USB-3-0-with-LED-light-system-/262921993452?epid=1161171646&hash=item3d375f3cec:g:wrQAAOSw3utY4mIZ
p151
aVhttp://www.ebay.com/itm/EXTREME-Quad-Core-i7-Gaming-PC-Windows-10-Desktop-Computer-16GB-GTX-1050ti-4GB-/192176453517?var=&hash=item2cbe9bf78d:m:mTD8LYmGY9cC1HOxj_BYRgw
p152
aVhttp://www.ebay.com/itm/Windows-10-Gaming-PC-Intel-G870-3-10GHz-Desktop-Computer-8GB-16GB-DDR3-1TB-HDMI-/302365475368?var=&epid=2017062851&hash=item4666630228:m:mZGUMgi_2nVBaoIXyihnakQ
p153
aVhttp://www.ebay.com/itm/Phanteks-Eclipse-P400S-White-Midi-Tower-Gaming-Case-USB-3-0-/111900325098?hash=item1a0dc774ea:g:n~4AAOSwFNZWudCW
p154
aVhttp://www.ebay.com/itm/HP-DESKTOP-TOWER-PC-i3-Sec-Gen-Cpu-500-GB-8-GB-DDR3-WINDOWS-7-19-TFT-Wifi-/322363142571?hash=item4b0e5731ab:g:PM8AAOSwU9xURjz3
p155
aVhttp://www.ebay.com/itm/Thermaltake-View-31-TG-RGB-Black-Midi-Tower-Gaming-Case-USB-3-0-/381984921879?epid=572211049&hash=item58f0135917:g:o28AAOSwSlBYtWSl
p156
aVhttp://www.ebay.com/itm/Cheap-HP-Dual-Screen-Computer-250GB-HDD-4GB-RAM-Dual-Core-Win-10-/321736009176?hash=item4ae8f5e5d8:g:~kMAAOSwkShY~1GK
p157
aVhttp://www.ebay.com/itm/Dell-Vostro-220-Tower-Intel-Core-2-Duo-4GB-Ram-250GB-HDD-Window-7-WiFi-Computer-/252602477530?hash=item3ad047ebda:g:-JEAAOSwDrNZOp82
p158
aVhttp://www.ebay.com/itm/FAST-DESKTOP-COMPUTER-TOWER-PC-INTEL-CORE-i3-530-2-93GHz-WINDOWS-10-8GB-DDR3-/122556822350?hash=item1c88f4b34e:g:qRsAAOSwi8VZSPS3
p159
aVhttp://www.ebay.com/itm/CiT-Prism-Black-Midi-Tower-Gaming-Case-USB-3-0-/182346005237?epid=2069476625&hash=item2a74ab3af5:g:zVUAAOSwImRYIFHW
p160
aVhttp://www.ebay.com/itm/Game-Max-Centurion-Black-Midi-Tower-Gaming-Case-USB-3-0-/111992772358?epid=1669887024&hash=item1a134a1706:g:uUgAAOSwcL5XMftR
p161
aVhttp://www.ebay.com/itm/Phanteks-Enthoo-Evolv-ATX-Tower-Tempered-Glass-Gaming-PC-Case-Grey-/322384892214?epid=1470344573&hash=item4b0fa31136:g:w7oAAOSwa~BYc4WM
p162
aVhttp://www.ebay.com/itm/FULL-DELL-DUAL-CORE-DESKTOP-TOWER-PC-TFT-COMPUTER-WITH-WINDOWS-10-WIFI-4GB-/322065674255?epid=631211814&hash=item4afc9c300f:g:bfkAAOSwy5ZXBYje
p163
aVhttp://www.ebay.com/itm/Phanteks-Eclipse-P400S-Tempered-Glass-Midi-Tower-Gaming-Case-Window-Black-/222375442946?epid=2126114672&hash=item33c69bfa02:g:BUcAAOSw44BYdy3F
p164
aVhttp://www.ebay.com/itm/FULL-DUAL-CORE-DESKTOP-TOWER-PC-TFT-COMPUTER-WITH-WINDOWS-10-WIFI-6GB-/201729802145?hash=item2ef8087fa1:g:cD0AAOSw4GVYOWCc
p165
aVhttp://www.ebay.com/itm/Corsair-Carbide-Clear-400C-White-Midi-Tower-Gaming-Case-USB-3-0-/381874759774?epid=1975232494&hash=item58e982685e:g:kVUAAOSwiDFYQg~L
p166
aVhttp://www.ebay.com/itm/Corsair-Carbide-88R-Black-Midi-Tower-Gaming-Case-USB-3-0-/381449824168?epid=1343560032&hash=item58d02e67a8:g:yMsAAOSwNnRYiJoj
p167
aVhttp://www.ebay.com/itm/Phanteks-Enthoo-Evolv-mATX-Anthracite-Midi-Tower-Case-USB-3-0-/382059376439?epid=812461310&hash=item58f4836f37:g:oF8AAOSw7U5ZAJZL
p168
aVhttp://www.ebay.com/itm/CiT-Illusion-Black-Midi-Tower-Case-USB-3-0-/182346005191?epid=526553757&hash=item2a74ab3ac7:g:HoYAAOSwo4pYIFG4
p169
aVhttp://www.ebay.com/itm/CiT-1017-Black-Midi-Tower-Gaming-Case-500W-Power-Supply-/181724955328?hash=item2a4fa6c2c0:g:-~AAAOSweW5VOP3F
p170
aVhttp://www.ebay.com/itm/Sama-Ark-Black-Full-Tower-Gaming-Case-USB-3-0-/381989266784?epid=598211991&hash=item58f055a560:g:VfMAAOSwXYtYuVsR
p171
aVhttp://www.ebay.com/itm/FULL-DELL-FAST-500GB-DESKTOP-TOWER-PC-TFT-COMPUTER-WITH-WINDOWS-10-WIFI-4GB-/201668479423?epid=526480338&hash=item2ef460c9bf:g:7vkAAOSwNRdX2TO0
p172
aVhttp://www.ebay.com/itm/DELL-DESKTOP-TOWER-PC-INTEL-CORE-2-DUO-NEW-1-TB-16-GB-DDR3-22-WI-FI-WIN7-/221957417028?hash=item33adb16844:g:h6oAAOSwajVUQOYK
p173
aVhttp://www.ebay.com/itm/ULTRA-FAST-Quad-Core-4-2Ghz-16GB-1TB-Desktop-Gaming-PC-Computer-AMD-WIFI-a5-/262336197101?hash=item3d1474b1ed:g:KfYAAOSwxp9W59k2
p174
aVhttp://www.ebay.com/itm/Corsair-Vengeance-C70-Green-Midi-Tower-Gaming-Case-USB-3-0-/181666371596?hash=item2a4c28d80c:g:EQEAAOSwT5tWMO36
p175
aVhttp://www.ebay.com/itm/WINDOWS-10-DELL-OPTIPLEX-COMPUTER-DESKTOP-TOWER-PC-INTEL-4GB-RAM-320GB-HDD-WIFI-/142073659900?epid=1592356399&hash=item21144001fc:g:6I0AAOSwOyJX21PK
p176
aVhttp://www.ebay.com/itm/Corsair-Carbide-400C-Black-Midi-Tower-Gaming-Case-USB-3-0-/181984296291?epid=1356490385&hash=item2a5f1bfd63:g:diAAAOSwGotWryuD
p177
aVhttp://www.ebay.com/itm/Thermaltake-Versa-N27-Snow-White-Midi-Tower-Gaming-Case-USB-3-0-/112351518472?epid=600947973&hash=item1a28ac1f08:g:P7UAAOSwol5Y23hn
p178
aVhttp://www.ebay.com/itm/Phanteks-Enthoo-Pro-Black-Full-Tower-Gaming-Case-USB-3-0-/181731620150?epid=1729542358&hash=item2a500c7536:g:CPYAAOSwA29Y3Sj2
p179
aVhttp://www.ebay.com/itm/CiT-G-Force-Nero-Midi-Tower-Case-Da-Gioco-USB-3-0-/381946807827?epid=1966064303&hash=item58edcdc613:g:fJMAAOSwwpdW6DG0
p180
aVhttp://www.ebay.com/itm/DELL-DESKTOP-TOWER-PC-INTEL-QUAD-CORE-CPU-1TB-HDD-8GB-DDR3-WI-FI-WIN-7-K-M-/321916632692?epid=538061243&hash=item4af3b9fe74:g:zGwAAOSwI-BWQOHz
p181
aVhttp://www.ebay.com/itm/Aero-Cool-aero-300-Black-Midi-Tower-Gaming-Case-USB-3-0-/112359347552?hash=item1a29239560:g:gJwAAOSwA3dYd78y
p182
aVhttp://www.ebay.com/itm/Game-Max-Elysium-Black-Midi-Tower-Gaming-Case-USB-3-0-/112393248408?epid=563059484&hash=item1a2b28de98:g:fhEAAOSw-3FZCKC2
p183
aVhttp://www.ebay.com/itm/ULTRA-FAST-Corsair-Quad-Core-i7-Gaming-PC-Desktop-Computer-16GB-RAM-GTX-1060-6GB-/172720153954?var=&hash=item2836ec6562:m:mO0VDaq7qZE8Aq8VU0aBqfg
p184
aVhttp://www.ebay.com/itm/Game-Max-Falcon-Mid-Tower-PC-Gaming-Case-With-Window-2-X-Fans-USB3-Blue-LED-/331683169315?epid=1642162781&hash=item4d39db8423:g:x7cAAOSwT5tWIMIW
p185
aVhttp://www.ebay.com/itm/BitFenix-Shadow-Black-Full-Tower-Gaming-Case-USB-3-0-/181732449773?epid=1520534751&hash=item2a50191ded:g:cSoAAOSwBLlVQ5e1
p186
aVhttp://www.ebay.com/itm/Corsair-Carbide-Clear-600C-Black-Full-Tower-Gaming-Case-USB-3-0-/181955246308?epid=1673402516&hash=item2a5d60b8e4:g:2YwAAOSwpzdWqAkX
p187
aVhttp://www.ebay.com/itm/Ultra-Fast-Gaming-PC-QUAD-CORE-i5-Computer-2-50GHz-1TB-16GB-RAM-nVidia-2GB-GT710-/192218311396?epid=2017062851&hash=item2cc11aaae4:g:2KQAAOSwDrNZPl71
p188
aVhttp://www.ebay.com/itm/SUPER-FAST-GAMING-COMPUTER-PC-GT710-CORE-2-DUO-E8400-3-00Ghz-4GB-RAM-160GB-HD-/322314137976?epid=621523444&hash=item4b0b6b7178:g:heEAAOSwA3dYGPhA
p189
aVhttp://www.ebay.com/itm/Aerocool-DS-230-Black-Mid-Tower-case-With-7-Colour-LED-DS-230-/222415707743?epid=26003391889&hash=item33c9025e5f:g:c1QAAOSwfVpYqs6m
p190
aVhttp://www.ebay.com/itm/ULTRA-FAST-DELL-PC-COMPUTER-DESKTOP-TOWER-WINDOWS-10-WIFI-8GB-RAM-1000GB-HDD-/162477142967?epid=764930497&hash=item25d46473b7:g:ECMAAOSwRUhY85vw
p191
aVhttp://www.ebay.com/itm/Kolink-Luminosity-Black-Midi-Tower-Gaming-Case-USB-3-0-/112368174173?epid=533977526&hash=item1a29aa445d:g:PYAAAOSw4CFY7gqF
p192
aVhttp://www.ebay.com/itm/DELL-DESKTOP-TOWER-PC-2-4-GHZ-Q6600-CORE-2-QUAD-500-GB-8GB-WI-FI-WINDOWS-7-/221807986533?hash=item33a4c94765:g:h6oAAOSwajVUQOYK
p193
aVhttp://www.ebay.com/itm/Game-Max-Silent-White-Mid-ATX-Tower-Gaming-PC-Case-USB-3-0-Water-cooling-Ready-/201865154005?epid=2082852937&hash=item2f0019cdd5:g:uAYAAOSwc-tY1Qze
p194
aVhttp://www.ebay.com/itm/Phanteks-Enthoo-Pro-M-Acrylic-Black-Midi-Tower-Gaming-Case-USB-3-0-/182024903903?epid=1958166478&hash=item2a61879cdf:g:oKMAAOSwzgRWwdcs
p195
aVhttp://www.ebay.com/itm/ULTRA-FAST-Quad-Core-i7-Customise-Gaming-PC-HDD-Windows-10-Desktop-Computer-/122551205711?var=&hash=item1c889eff4f:m:ms5-t9SsG5wYeVRFnB734rQ
p196
aVhttp://www.ebay.com/itm/GAMING-COMPUTER-TOWER-PC-INTEL-CORE-2-DUO-3-00GHz-4GB-500GB-2GB-nVidia-graphics-/291917086668?hash=item43f79d3fcc:g:4UkAAOSwImRYCI-X
p197
aVhttp://www.ebay.com/itm/NZXT-S340-White-Midi-Tower-Gaming-Case-USB-3-0-/381323472954?epid=809538398&hash=item58c8a6703a:g:~8oAAOSwu4BVnjbp
p198
aVhttp://www.ebay.com/itm/2x-Push-Open-compatible-tower-computer-case-Catch-Latch-Phanteks-Enthoo-Primo-/201392816164?epid=1288872587&hash=item2ee3f28024:g:R5wAAOSwECZUq92l
p199
aVhttp://www.ebay.com/itm/Barebones-HP-XW6600-Workstation-Twin-Quad-Core-5400-Xeon-Up-To-32GB-RAM-650W-PSU-/142032127645?epid=1806149373&hash=item2111c6469d:g:HQ8AAOSwo4pYihrp
p200
aVhttp://www.ebay.com/itm/BitFenix-Shinobi-Black-Midi-Tower-Gaming-Case-USB-3-0-/111647281459?hash=item19feb25133:g:dqQAAOSwymxVLk63
p201
aVhttp://www.ebay.com/itm/Windows-7-Core-i5-Quad-Core-HDMI-Gaming-Tower-PC-8GB-DDR3-1000GB-HDD-DVDRW-/262979767421?hash=item3d3ad0cc7d:g:lo8AAOSwcaFZFFmJ
p202
aVhttp://www.ebay.com/itm/WINDOWS-10-DELL-OPTIPLEX-COMPUTER-DESKTOP-TOWER-PC-INTEL-4GB-RAM-250GB-HDD-WIFI-/142245803917?epid=844332567&hash=item211e82b78d:g:SYoAAOSwjDZYepVt
p203
aVhttp://www.ebay.com/itm/Core-i5-Lenovo-M90PPC-tower-4GB-HDD-250GB-WIFI-HDMI-win7pro-DVD-Fast-Delivery-UK-/252754036748?hash=item3ad950880c:g:HN4AAOSwFe5X0pg9
p204
aVhttp://www.ebay.com/itm/WINDOWS-7-FULL-DELL-COMPUTER-DESKTOP-TOWER-SET-PC-4GB-RAM-160GB-HDD-WIFI-BARGAIN-/301763914135?epid=937440914&hash=item464287e997:g:8F4AAOSwo0JWGNRB
p205
aVhttp://www.ebay.com/itm/Kolink-Punisher-Black-Midi-Tower-Gaming-Case-USB-3-0-/112023395000?epid=1773505648&hash=item1a151d5ab8:g:QmsAAOSwuhhXWrDF
p206
aVhttp://www.ebay.com/itm/Zoostorm-7200-TOWER-i3-4170-3-7Ghz-8GB-DDR3-320GB-HD-WINDOWS-10-PRO-PC-/252972483597?hash=item3ae655c40d:g:qpMAAOSwaeRZMst5
p207
aVhttp://www.ebay.com/itm/Aero-Cool-DS-230-Black-Midi-Tower-Gaming-Case-USB-3-0-/182289658600?epid=1885898533&hash=item2a714f72e8:g:eAYAAOSwmfhX47hB
p208
aVhttp://www.ebay.com/itm/Dell-OptiPlex-Fast-cheap-Desktop-Core-i5-8GB-2TB-HDD-Windows-10-Tower-Business-/201915650895?hash=item2f031c534f:g:lQ0AAOSwhvFZCwXg
p209
aVhttp://www.ebay.com/itm/Corsair-Carbide-SPEC-04-Red-Midi-Tower-Gaming-Case-USB-3-0-/112393230583?epid=835495099&hash=item1a2b2898f7:g:z3cAAOSw7GRZCJxC
p210
aVhttp://www.ebay.com/itm/Ultra-Fast-Quad-Core-i5-Desktop-Gaming-PC-1TB-16GB-RAM-GTX-1050Ti-4GB-Windows-10-/192194216668?var=&hash=item2cbfab02dc:m:mAiVjX5UqKlDbJmpKE8TmZQ
p211
aVhttp://www.ebay.com/itm/Fast-Gaming-Computer-PC-Intel-i5-Quad-Core-3-10GHz-8GB-Ram-1TB-HDD-Windows-10-/252846891888?epid=2081091125&hash=item3aded96370:g:mvEAAOSwVJhZURbq
p212
aVhttp://www.ebay.com/itm/Lian-Li-PC-9NB-Black-Midi-Tower-Gaming-Case-USB-3-0-/381252669897?epid=1922530802&hash=item58c46e11c9:g:c3oAAOSwBahVS5qh
p213
aVhttp://www.ebay.com/itm/Cooler-Master-MasterBox-5t-Black-Midi-Tower-Gaming-Case-USB-3-0-/381850783494?epid=749648908&hash=item58e8148f06:g:Md4AAOSwiDFYLCjI
p214
aVhttp://www.ebay.com/itm/AMD-FX-8350-EIGHT-CORE-DESKTOP-PC-COMPUTER-ATI-USB3-0-barebone-/252032796635?hash=item3aae5347db:g:vAEAAOSw--1WsLqt
p215
aVhttp://www.ebay.com/itm/Game-Max-Centauri-Black-Midi-Tower-Gaming-Case-USB-3-0-/182480726345?epid=563005223&hash=item2a7cb2e949:g:ss4AAOSwOgdYvt~~
p216
aVhttp://www.ebay.com/itm/CiT-G-Force-White-RGB-EDITION-Mid-Tower-Gaming-PC-Case-USB-3-0-2x-12cm-LED-Fans-/201913859202?epid=2076930929&hash=item2f0300fc82:g:nr0AAOSww9xZCHdS
p217
aVhttp://www.ebay.com/itm/SUPER-FAST-GAMING-TOWER-PC-INTEL-CORE-2-QUAD-8GB-DDR3-1TB-HDD-2GB-NVIDIA-GT710-/302050608748?hash=item46539e866c:g:TAQAAOSw2gxYwEHM
p218
aVhttp://www.ebay.com/itm/Sama-Ark-Schwarz-Full-Tower-Gaming-Gehause-USB-3-0-/382029945702?hash=item58f2c25b66:g:VfMAAOSwXYtYuVsR
p219
aVhttp://www.ebay.com/itm/FAST-DELL-DUAL-CORE-PC-COMPUTER-DESKTOP-TOWER-WINDOWS-10-WIFI-8GB-RAM-500GB-HDD-/263044015918?epid=2004176582&hash=item3d3ea5272e:g:yLUAAOSwVJhZRm9V
p220
aVhttp://www.ebay.com/itm/Windows-10-Dell-OptiPlex-Core-2-DUO-4GB-250-GB-DVD-RW-Tower-Desktop-PC-Computer-/322065696574?epid=1189124673&hash=item4afc9c873e:g:H3QAAOSwAvJXBZGB
p221
aVhttp://www.ebay.com/itm/CiT-Lightspeed-Micro-ATX-Midi-Tower-USB3-Windowed-PC-Gaming-Case-Blue-LED-Fans-/222442783316?epid=1166702968&hash=item33ca9f8254:g:eNwAAOSwSlBYy~wa
p222
aVhttp://www.ebay.com/itm/Aero-Cool-QS240-Black-Midi-Tower-Gaming-Case-USB-3-0-/381529913994?epid=1755604213&hash=item58d4f47a8a:g:LqIAAOSwa-dWpjr4
p223
aVhttp://www.ebay.com/itm/DELL-DESKTOP-TOWER-PC-INTEL-QUAD-CORE-CPU-500-GB-HD-8GB-RAM-19-WI-FI-WINDOWS-7-/221936673916?epid=689156725&hash=item33ac74e47c:g:h6oAAOSwajVUQOYK
p224
aVhttp://www.ebay.com/itm/Game-Max-Silent-White-Midi-Tower-Gaming-Case-USB-3-0-/381874760623?epid=2082852937&hash=item58e9826baf:g:jH4AAOSwo4pYRK5W
p225
aVhttp://www.ebay.com/itm/Cooler-Master-690-III-Black-Full-Tower-Gaming-Case-USB-3-0-/182522764741?hash=item2a7f345dc5:g:lEAAAOSw4A5YwXdr
p226
aVhttp://www.ebay.com/itm/FAST-GREEN-GOBLIN-COMPUTER-PC-INTEL-CORE-2-DUO-E7500-2-93GHz-4GB-RAM-160GB-WIN7-/322390585895?hash=item4b0ff9f227:g:oUQAAOSwnHZYel1B
p227
aVhttp://www.ebay.com/itm/Phanteks-Enthoo-Pro-M-Mid-Tower-Gaming-PC-Case-Full-Acrylic-Side-Window-Black-/332213130416?epid=1155632501&hash=item4d597214b0:g:b10AAOSwhvFZEaqe
p228
aVhttp://www.ebay.com/itm/FAST-DELL-OPTIPLEX-COMPUTER-TOWER-DESKTOP-PC-CUSTOMISE-RAM-HDD-PROCESSOR-WINDOWS-/121983624628?var=&hash=item1c66ca65b4:m:ml9ksYz-eh-gSJa2MAXW8bw
p229
aVhttp://www.ebay.com/itm/CiT-1016-Black-Midi-Tower-Case-500W-Power-Supply-/111803853593?hash=item1a08076b19:g:Y-YAAOSwo6lWKNJ3
p230
aVhttp://www.ebay.com/itm/FAST-HP-DC7900-CORE-2-QUAD-PC-8GB-RAM-500GB-WINDOWS-7-TOWER-COMPUTER-/253031102577?hash=item3ae9d43871:g:fKAAAOSwAO9ZWjsG
p231
aVhttp://www.ebay.com/itm/CiT-Goblin-Black-Midi-Tower-Gaming-Case-USB-3-0-/381506173355?epid=1523893455&hash=item58d38a39ab:g:KW8AAOSw~otWg-5L
p232
aVhttp://www.ebay.com/itm/WINDOWS-10-FULL-HP-COMPUTER-DESKTOP-TOWER-SET-PC-8GB-RAM-500GB-HDD-INTEL-CORE-I5-/142262371548?hash=item211f7f84dc:g:9McAAOSwcLxYIGdS
p233
a.