(lp1
Vhttp://www.ebay.com/itm/2-Adjustable-Barbell-Squat-Rack-Spotter-Stands-Weight-Gym-Bench-Power-Sale-Price-/282581396461?epid=20005869773&hash=item41cb29ebed:g:~pcAAOSwqjJZcW8B
p2
aVhttp://www.ebay.com/itm/Squat-Magic-by-New-Image-Unisex-Lower-Body-Workout-Machine-Legs-and-Core-Toning-/162599596784?var=&epid=26003793016&hash=item25dbb0f2f0:m:mfIz9_hrJzlzoG5X-h7DUhQ
p3
a.