(lp0
Vhttp://www.ebay.com/itm/Gate-Check-Stroller-Bag-Air-Travel-Cover-x-Umbrella-Pram-Protective-Pouch-Red-/401344118705?epid=1717601061&hash=item5d71f93fb1:g:K0AAAOSwz71ZOpcO
p1
aVhttp://www.ebay.com/itm/Gate-Check-Baby-Pram-Air-Travel-Bag-Pushchair-Stroller-Cover-/262700092199?hash=item3d2a254b27:g:qMYAAOSwcUBYMr6z
p2
aVhttp://www.ebay.com/itm/Valterra-3-Cartridge-Pneumatic-Gate-Slide-Valve-Metal-Air-Cylinder-/282275964502?epid=0&hash=item41b8f56656:g:KLUAAOSwj85YQA8O
p3
aVhttp://www.ebay.com/itm/Gates-OE-Alternator-Belt-Air-Conditioning-Belt-Nissan-Elgrand-E51-3-5L-Petrol-/252913459668?hash=item3ae2d121d4:g:DOAAAOSwX61ZB-XB
p4
aVhttp://www.ebay.com/itm/6PK906-GENUINE-DAYCO-ALTERNATOR-FAN-DRIVE-Auxiliary-flat-or-v-BELT-/391637746309?epid=1109581584&hash=item5b2f6dc285:g:BysAAOSw1WJZJ0kp
p5
aVhttp://www.ebay.com/itm/Portable-Baby-Umbrella-Stroller-Pram-Air-Plane-Train-Travel-Check-Gate-Bag-Cover-/122089937341?hash=item1c6d2099bd:g:jRQAAOSw1WJZLnem
p6
aVhttp://www.ebay.com/itm/Gates-Hand-Operated-Air-Brake-Tubing-Assembly-Tool-E690T-/221615491864?epid=1736808173&hash=item3399500b18:g:QzAAAOSw0vBUczT8
p7
aVhttp://www.ebay.com/itm/6PK1740-GENUINE-DAYCO-ALTERNATOR-FAN-DRIVE-Auxiliary-flat-or-v-BELT-/291956798006?epid=1909474510&hash=item43f9fb3236:g:8YEAAOSwBt5ZJ0k9
p8
aVhttp://www.ebay.com/itm/6PK1415-GENUINE-DAYCO-ALTERNATOR-FAN-DRIVE-Auxiliary-flat-or-v-BELT-/391637745422?epid=1809460576&hash=item5b2f6dbf0e:g:-h4AAOSww9xZJ0lA
p9
aVhttp://www.ebay.com/itm/Gates-Auxiliary-Alternator-Belt-Air-Con-Belts-Fits-Nissan-Skyline-3-5-350GT-/280942229390?hash=item416976378e:g:vMsAAOSwYGFUuP2l
p10
aVhttp://www.ebay.com/itm/V-BAND-CLAMP-FLANGES-COMPLETE-STAINLESS-STEEL-EXHAUST-TURBO-HOSE-2-75-70mm-/112334716127?epid=508115949&hash=item1a27abbcdf:g:P00AAOSwWxNYx-nZ
p11
aVhttp://www.ebay.com/itm/V-BAND-CLAMP-FLANGES-COMPLETE-STAINLESS-STEEL-EXHAUST-TURBO-HOSE-2-35-60mm-/122397686524?epid=508110222&hash=item1c7f787afc:g:wwYAAOSw4CFYx-nU
p12
aVhttp://www.ebay.com/itm/V-BAND-CLAMP-FLANGES-COMPLETE-STAINLESS-STEEL-EXHAUST-TURBO-HOSE-1-75-45mm-/112334715787?epid=508109767&hash=item1a27abbb8b:g:ZwEAAOSwhQhYx-nJ
p13
aVhttp://www.ebay.com/itm/4PK922EE-GENUINE-DAYCO-ALTERNATOR-FAN-DRIVE-Auxiliary-flat-or-v-BELT-/371801666452?epid=1809586693&hash=item56911b3394:g:HxsAAOSwcB5ZJ0kr
p14
aVhttp://www.ebay.com/itm/4PK805-GENUINE-DAYCO-ALTERNATOR-FAN-DRIVE-Auxiliary-flat-or-v-BELT-/391637744610?epid=1244619853&hash=item5b2f6dbbe2:g:U8EAAOSwi7RZJ0kn
p15
aVhttp://www.ebay.com/itm/GATES-Alternator-AC-Air-Con-Conditioning-Belts-Fits-Toyota-MR2-2-0-TURBO-Import-/351284369366?epid=714844130&hash=item51ca2e17d6:g:AIwAAOSw1ZBUtOFh
p16
aVhttp://www.ebay.com/itm/6PK800-GENUINE-DAYCO-ALTERNATOR-FAN-DRIVE-Auxiliary-flat-or-v-BELT-/391637744967?epid=1709461633&hash=item5b2f6dbd47:g:IYgAAOSw-3FZJ0km
p17
aVhttp://www.ebay.com/itm/GENUINE-Gates-Alternator-Belt-NO-AIR-CONDITIONING-Honda-S2000-1999-TO-2005-/272543511113?hash=item3f74dbf249:g:ZQAAAOSw9GhYk0XT
p18
aVhttp://www.ebay.com/itm/6PK1836S-GENUINE-DAYCO-ALTERNATOR-FAN-DRIVE-Auxiliary-flat-or-v-BELT-/391637744664?epid=1631033188&hash=item5b2f6dbc18:g:ozcAAOSwCQZZJ0kv
p19
aVhttp://www.ebay.com/itm/MAZDA-RX7-FD-TWIN-TURBO-GATES-AIR-PUMP-ALTERNATOR-BELT-AC-POWER-STEERING-BELT-/271754244355?epid=1488651954&hash=item3f45d0b103:g:lJkAAOSw2s1UxiY5
p20
aVhttp://www.ebay.com/itm/MAZDA-RX7-FD-TWIN-TURBO-GATES-AIR-PUMP-ALTERNATOR-BELT-POWER-STEERING-BELT-/281577256313?hash=item418f4ff579:g:ZXgAAOSwmrlUxifF
p21
aVhttp://www.ebay.com/itm/Mitsubishi-Lancer-Evo-7-8-9-GATES-Alternator-Power-Steering-Air-Con-Belt-/271643471010?hash=item3f3f366ca2:g:QUYAAOSw8cNUR7E9
p22
aVhttp://www.ebay.com/itm/5PK730-GENUINE-DAYCO-ALTERNATOR-FAN-DRIVE-Auxiliary-flat-or-v-BELT-/291956798052?epid=1309441471&hash=item43f9fb3264:g:xkUAAOSwR29ZJ0ko
p23
aVhttp://www.ebay.com/itm/V-BAND-OUTER-CLAMP-STAINLESS-STEEL-EXHAUST-TURBO-HOSE-RADIATOR-2-5-63-5mm-/112334715643?hash=item1a27abbafb:g:pWYAAOSw2gxYx-m9
p24
aVhttp://www.ebay.com/itm/1x-Blue-Print-Air-Filter-ADG02215-/351445317981?epid=1838865780&hash=item51d3c5f95d:g:de0AAOSwxg5Xx1q8
p25
aVhttp://www.ebay.com/itm/Gates-A-C-Air-Con-Aux-Belt-Fits-Subaru-Impreza-2-0-WRX-STi-00-07-/281598078185?hash=item41908dace9:g:1ZcAAOSwe-FU3hVL
p26
aVhttp://www.ebay.com/itm/Gates-Air-Con-Alternator-Power-Steering-Pump-Belt-Fits-Toyota-Soarer-2-5-JZZ30-/351525807297?epid=1448163572&hash=item51d89224c1:g:6pcAAOSwFnFWAsty
p27
aVhttp://www.ebay.com/itm/Portable-Gate-Check-Baby-Pram-Air-Travel-Bag-Baby-Pushchair-Stroller-Cover-/222300700413?hash=item33c2277efd:g:RrMAAOSwcUBYMl39
p28
aVhttp://www.ebay.com/itm/GATES-Power-Steering-Alternator-Air-Conditioning-AC-Belts-x-3-Skyline-R33-GTS-T-/281198158172?hash=item4178b7615c:g:ywAAAOxyDEVScQXI
p29
aVhttp://www.ebay.com/itm/6PK2210-GENUINE-DAYCO-ALTERNATOR-FAN-DRIVE-Auxiliary-flat-or-v-BELT-/371801666863?epid=1409427923&hash=item56911b352f:g:0vMAAOSwIaFZJ0k5
p30
aVhttp://www.ebay.com/itm/6PK1053-GENUINE-DAYCO-ALTERNATOR-FAN-DRIVE-Auxiliary-flat-or-v-BELT-/371801666659?epid=1828294621&hash=item56911b3463:g:wTAAAOSw-K9ZJ0ku
p31
aVhttp://www.ebay.com/itm/Gates-A-C-Air-Con-Aux-Belt-Fits-Subaru-Impreza-UK-Turbo-2000-93-00-/351313861860?epid=1788711287&hash=item51cbf01ce4:g:8OsAAOSweW5U3hU-
p32
aVhttp://www.ebay.com/itm/Gates-Power-Steering-Alternator-Air-Con-Belts-Fits-Nissan-Silvia-S15-SR20-2-0-/271093229439?hash=item3f1e6a677f:g:2A8AAOSw2XFUk-vL
p33
aVhttp://www.ebay.com/itm/4PK942-GENUINE-DAYCO-ALTERNATOR-FAN-DRIVE-Auxiliary-flat-or-v-BELT-/291956797806?epid=1737283857&hash=item43f9fb316e:g:rAoAAOSwJH1ZJ0kq
p34
aVhttp://www.ebay.com/itm/FERRARI-208-308-328-Mondial-AC-AIR-CONDITIONING-BELT-GATES-11M875-124108-/291591385877?epid=1337229219&hash=item43e4337315:g:hscAAOSwQJhUbLdb
p35
aVhttp://www.ebay.com/itm/Belt-power-steering-A-c-Gates-OEM-Mazda-MX-5-MX5-PAS-air-conditioning-/162092889527?hash=item25bd7d35b7:g:-wUAAOSwzJ5XUrr1
p36
aVhttp://www.ebay.com/itm/6PK2225-GENUINE-DAYCO-ALTERNATOR-FAN-DRIVE-Auxiliary-flat-or-v-BELT-/291956798574?epid=1009602065&hash=item43f9fb346e:g:H88AAOSwcB5ZJ0k7
p37
aVhttp://www.ebay.com/itm/Lancer-Evo-2-0-Turbo-5-6-RS-GATES-Alternator-Power-Steering-Belt-NO-AIR-CON-/271088748379?epid=1688329590&hash=item3f1e26075b:g:7uMAAOxy4t1Slzxy
p38
aVhttp://www.ebay.com/itm/6PK1904-GENUINE-DAYCO-ALTERNATOR-FAN-DRIVE-Auxiliary-flat-or-v-BELT-/371801666786?epid=1409424244&hash=item56911b34e2:g:dpMAAOSwPh5ZJ0kk
p39
aVhttp://www.ebay.com/itm/Ford-Fiesta-Fusion-1-4-TDCi-Gates-Alternator-Drive-Fan-Belt-Air-Con-2002-2008-/331289873087?epid=1215992213&hash=item4d226a4abf:g:MpUAAOxy4dNS1qxu
p40
aVhttp://www.ebay.com/itm/6PK1355-GENUINE-DAYCO-ALTERNATOR-FAN-DRIVE-Auxiliary-flat-or-v-BELT-/371801666892?epid=1309596714&hash=item56911b354c:g:XnMAAOSw8HBZJ0ku
p41
aVhttp://www.ebay.com/itm/GATES-Alternator-Water-Pump-Air-Con-Belt-Fits-Toyota-Celica-1-8-VVTL-i-190BHP-/271610439304?hash=item3f3d3e6688:g:Nb8AAOSw7NNUGo8B
p42
aVhttp://www.ebay.com/itm/6PK1105-GENUINE-DAYCO-ALTERNATOR-FAN-DRIVE-Auxiliary-flat-or-v-BELT-/291956798573?epid=1909464395&hash=item43f9fb346d:g:DJsAAOSwZKBZJ0ko
p43
aVhttp://www.ebay.com/itm/5PK2020-GENUINE-DAYCO-ALTERNATOR-FAN-DRIVE-Auxiliary-flat-or-v-BELT-/371801666436?epid=1909467790&hash=item56911b3384:g:KJEAAOSw~FJZJ0kx
p44
aVhttp://www.ebay.com/itm/6PK1775-GENUINE-DAYCO-ALTERNATOR-FAN-DRIVE-Auxiliary-flat-or-v-BELT-/291956798291?epid=1309451709&hash=item43f9fb3353:g:PM0AAOSwaEhZJ0k6
p45
aVhttp://www.ebay.com/itm/Astra-MK5-H-1-4-16v-Gates-Alternator-Drive-Belt-With-Air-Con-2004-2009-/331851777721?epid=1509833840&hash=item4d43e846b9:g:uN0AAOSwQiRUlYAg
p46
aVhttp://www.ebay.com/itm/6PK728-GENUINE-DAYCO-ALTERNATOR-FAN-DRIVE-Auxiliary-flat-or-v-BELT-/371801666954?epid=1209453591&hash=item56911b358a:g:R8QAAOSwaeRZJ0k6
p47
aVhttp://www.ebay.com/itm/5PK875-GENUINE-DAYCO-ALTERNATOR-FAN-DRIVE-Auxiliary-flat-or-v-BELT-/371801666442?epid=1209464173&hash=item56911b338a:g:yRsAAOSwK6RZJ0kx
p48
aVhttp://www.ebay.com/itm/4PK812-GENUINE-DAYCO-ALTERNATOR-FAN-DRIVE-Auxiliary-flat-or-v-BELT-/291956798060?epid=1409420084&hash=item43f9fb326c:g:XOkAAOSwuMZZJ0ks
p49
aVhttp://www.ebay.com/itm/Mitsubishi-Lancer-Evo-4-GATES-Alternator-Power-Steering-Air-Conditioning-Belt-/351203866705?hash=item51c561b851:g:gHYAAOSw8cNUR6o8
p50
aVhttp://www.ebay.com/itm/6PK2290-GENUINE-DAYCO-ALTERNATOR-FAN-DRIVE-Auxiliary-flat-or-v-BELT-/371801666798?epid=1709468567&hash=item56911b34ee:g:XjUAAOSw8HBZJ0kp
p51
aVhttp://www.ebay.com/itm/5PK1145-GENUINE-DAYCO-ALTERNATOR-FAN-DRIVE-Auxiliary-flat-or-v-BELT-/371801666416?epid=1609460972&hash=item56911b3370:g:VCQAAOSwi7RZJ0kv
p52
aVhttp://www.ebay.com/itm/6PK1076-GENUINE-DAYCO-ALTERNATOR-FAN-DRIVE-Auxiliary-flat-or-v-BELT-/371801666490?epid=1909473223&hash=item56911b33ba:g:ElMAAOSwjL5ZJ0k8
p53
aVhttp://www.ebay.com/itm/5PK872-GENUINE-DAYCO-ALTERNATOR-FAN-DRIVE-Auxiliary-flat-or-v-BELT-/371801666406?epid=1309448066&hash=item56911b3366:g:KHoAAOSw~FJZJ0kv
p54
aVhttp://www.ebay.com/itm/2X-V-BAND-OUTER-CLAMP-STAINLESS-STEEL-EXHAUST-TURBO-HOSE-RADIATOR-4-5-114mm-/112334716029?epid=508116644&hash=item1a27abbc7d:g:i5MAAOSwdGFYx-nV
p55
aVhttp://www.ebay.com/itm/V-BAND-OUTER-CLAMP-STAINLESS-STEEL-EXHAUST-TURBO-HOSE-RADIATOR-2-75-70mm-/122397686185?epid=508117358&hash=item1c7f7879a9:g:S-AAAOSwax5Yx-nE
p56
aVhttp://www.ebay.com/itm/4PK675-GENUINE-DAYCO-ALTERNATOR-FAN-DRIVE-Auxiliary-flat-or-v-BELT-/391637744379?epid=1309600316&hash=item5b2f6dbafb:g:oykAAOSwCQZZJ0kt
p57
aVhttp://www.ebay.com/itm/Ford-Focus-1-8TD-TDCi-TDDi-Gates-Alternator-Drive-Fan-Belt-Air-Con-1998-2004-/231137005010?epid=1716062852&hash=item35d0d6cdd2:g:MpUAAOxy4dNS1qxu
p58
aVhttp://www.ebay.com/itm/Astra-MK4-1-4-1-6-1-8-8v16v-Gates-Alternator-Drive-Belt-Without-Air-Con-1998-05-/331420960490?epid=1109844178&hash=item4d2a3a86ea:g:uN0AAOSwQiRUlYAg
p59
aVhttp://www.ebay.com/itm/6PK2195-GENUINE-DAYCO-ALTERNATOR-FAN-DRIVE-Auxiliary-flat-or-v-BELT-/291956798497?epid=1309594002&hash=item43f9fb3421:g:3tYAAOSwKytZJ0k1
p60
aVhttp://www.ebay.com/itm/V-BAND-CLAMP-FLANGES-COMPLETE-STAINLESS-STEEL-EXHAUST-TURBO-HOSE-3-76mm-/122397686623?epid=508124508&hash=item1c7f787b5f:g:7YwAAOSwOddYx-ne
p61
aVhttp://www.ebay.com/itm/GENUINE-GATES-Auxiliary-Belt-With-Air-Con-ALTERNATOR-Honda-Civic-2-0-Type-S-EV1-/350253870686?epid=858620262&hash=item518cc1ee5e:g:nSEAAOSwiCRUhtGX
p62
aVhttp://www.ebay.com/itm/6PK2870-GENUINE-DAYCO-ALTERNATOR-FAN-DRIVE-Auxiliary-flat-or-v-BELT-/291956798405?epid=1909471169&hash=item43f9fb33c5:g:o6MAAOSwCQZZJ0k9
p63
aVhttp://www.ebay.com/itm/V-BAND-CLAMP-FLANGES-COMPLETE-STAINLESS-STEEL-EXHAUST-TURBO-HOSE-1-5-38mm-/112334715738?epid=508129567&hash=item1a27abbb5a:g:PeEAAOSw32lYx-nG
p64
aVhttp://www.ebay.com/itm/Gates-Alternator-Air-Con-Belt-Fits-Nissan-350Z-Fairlady-02-06-VQ35DE-/270495800218?epid=1674762945&hash=item3eface5b9a:g:ZAIAAOSw-W5UuP6l
p65
aVhttp://www.ebay.com/itm/Mitsubishi-Lancer-Evo-Turbo-5-6-GATES-Alternator-Power-Steering-Air-Con-Belt-/350572284878?hash=item519fbc8bce:g:x9EAAOxygj5Slz3q
p66
aVhttp://www.ebay.com/itm/6PK1705-GENUINE-DAYCO-ALTERNATOR-FAN-DRIVE-Auxiliary-flat-or-v-BELT-/291956798260?epid=1709472302&hash=item43f9fb3334:g:ToYAAOSwIQdZJ0k6
p67
aVhttp://www.ebay.com/itm/Ford-Focus-1-8-16V-2-0-16V-Gates-Alternator-Drive-Fan-Belt-Air-Con-1998-2004-/331289857601?epid=1765963927&hash=item4d226a0e41:g:MpUAAOxy4dNS1qxu
p68
aVhttp://www.ebay.com/itm/6PK1885-GENUINE-DAYCO-ALTERNATOR-FAN-DRIVE-Auxiliary-flat-or-v-BELT-/371801666586?epid=0&hash=item56911b341a:g:8HcAAOSwBt5ZJ0km
p69
aVhttp://www.ebay.com/itm/GATES-Alternator-Water-Pump-Air-Con-Belts-Fits-Suzuki-Swift-1-6-Sport-VVT-05-10-/281813906194?epid=1349837385&hash=item419d6af312:g:3P0AAOSw4HVWC9rG
p70
aVhttp://www.ebay.com/itm/Mitsubishi-FTO-GR-GPX-GATES-Power-Steering-Alternator-Air-Con-Auxiliary-Belts-/280993377027?hash=item416c82ab03:g:OlIAAOxyVLNS2SqF
p71
aVhttp://www.ebay.com/itm/STEPHANIE-LAW-CONTRAPUNTOS-Y-CADENCIAS-FUNDA-DE-LIBRO-CUERO-PARA-APPLE-iPAD-/191889911060?var=&hash=item2cad87ad14:m:mM2NBDAWmkgYG1PlhB8E6MQ
p72
aVhttp://www.ebay.com/itm/Mazda-RX8-2-6-FE1-SE1-GATES-Alternator-Air-Con-Belts-/350250672798?hash=item518c91229e:g:rAYAAOxywOtSXRUa
p73
aVhttp://www.ebay.com/itm/FERRARI-208-308-328-Mondial-AC-AIR-CONDITIONING-BELT-GATES-11M925-105046-/291591384897?epid=1237318751&hash=item43e4336f41:g:do8AAOSwkNZUbdpo
p74
aVhttp://www.ebay.com/itm/6PK986-GENUINE-DAYCO-ALTERNATOR-FAN-DRIVE-Auxiliary-flat-or-v-BELT-/291956798461?epid=1009603671&hash=item43f9fb33fd:g:ugQAAOSws5pZJ0kv
p75
aVhttp://www.ebay.com/itm/V-BAND-OUTER-CLAMP-STAINLESS-STEEL-EXHAUST-TURBO-HOSE-RADIATOR-3-5-89mm-/112334715806?epid=508128631&hash=item1a27abbb9e:g:VN0AAOSwzgBYx-nL
p76
aVhttp://www.ebay.com/itm/UK-Gate-Check-Baby-Pram-Air-Travel-Bag-Baby-Pushchair-Stroller-Cover-Orangize-/232327389939?hash=item3617caa2f3:g:RrMAAOSwcUBYMl39
p77
aVhttp://www.ebay.com/itm/V-BAND-CLAMP-STAINLESS-STEEL-EXHAUST-TURBO-HOSE-REPLACEMENT-FLANGES-2-75-70mm-/112334715676?epid=508125891&hash=item1a27abbb1c:g:U-0AAOSwzgBYx-nC
p78
aVhttp://www.ebay.com/itm/GATES-Power-Steering-Alternator-Air-Con-Belt-Fits-Toyota-Celica-Turbo-GT4-ST205-/280941655237?epid=703694470&hash=item41696d74c5:g:lsgAAOSwyZ5Uq8o9
p79
aVhttp://www.ebay.com/itm/V-BAND-CLAMP-FLANGES-COMPLETE-STAINLESS-STEEL-EXHAUST-TURBO-HOSE-3-25-83mm-/122397686273?epid=508248131&hash=item1c7f787a01:g:aOIAAOSwCU1Yx-nF
p80
aVhttp://www.ebay.com/itm/Corsa-B-C-MK1-MK2-1-0-1-2-1997-2007-Gates-Alternator-Drive-Belt-NO-Air-Con-/331205973660?epid=1677712449&hash=item4d1d6a169c:g:cugAAOxynwlTd1Yy
p81
aVhttp://www.ebay.com/itm/5PK1355-GATES-ALTERNATOR-BELT-VAUXHALL-ASTRA-H-1-4-2004-2011-WITH-AIR-CON-/231569043135?epid=1509833840&hash=item35ea972ebf:g:TfEAAOSwpdpVXbPc
p82
aVhttp://www.ebay.com/itm/for-Mazda-RX8-2-6-FE1-SE1-GATES-Alternator-Air-Con-Belts-/272202212724?hash=item3f60842574:g:cxQAAOSwfl9XBNCg
p83
aVhttp://www.ebay.com/itm/Gates-Power-Steering-Air-Con-Belts-Fits-Subaru-Impreza-2-0-Prodrive-P1-/280951221083?epid=858994314&hash=item4169ff6b5b:g:hxoAAOxyg7xSX50A
p84
aVhttp://www.ebay.com/itm/Aluminium-Blastgates-125mm-Air-Dust-Extraction-for-Workshop-Wood-Chippings-/152016695833?hash=item2364e6b219:g:MMwAAOSwL7VWmQ9k
p85
aVhttp://www.ebay.com/itm/V-BAND-OUTER-CLAMP-STAINLESS-STEEL-EXHAUST-TURBO-HOSE-RADIATOR-5-127mm-/122397686269?hash=item1c7f7879fd:g:iggAAOSwdGFYx-nE
p86
aVhttp://www.ebay.com/itm/GATES-AC-AIR-CON-CONDITIONING-BELT-UK-JDM-IMPORTS-TOYOTA-MR2-2-0-3S-GE-MK2-/271739724438?hash=item3f44f32296:g:-IgAAOSwm8VUtN4g
p87
aVhttp://www.ebay.com/itm/6PK1975-GENUINE-DAYCO-ALTERNATOR-FAN-DRIVE-Auxiliary-flat-or-v-BELT-/371801666501?epid=0&hash=item56911b33c5:g:0mAAAOSwIaFZJ0kr
p88
aVhttp://www.ebay.com/itm/4PK895-GENUINE-DAYCO-ALTERNATOR-FAN-DRIVE-Auxiliary-flat-or-v-BELT-/371801666328?epid=1009464337&hash=item56911b3318:g:TgkAAOSwIQdZJ0ku
p89
aVhttp://www.ebay.com/itm/Belt-power-steering-OR-A-c-Gates-OEM-Mazda-MX-5-MX5-PAS-OR-air-conditioning-/172229870053?epid=1068152850&hash=item2819b341e5:g:tMMAAOSwmtJXUsHm
p90
aVhttp://www.ebay.com/itm/4PK736-GENUINE-DAYCO-ALTERNATOR-FAN-DRIVE-Auxiliary-flat-or-v-BELT-/371801666505?epid=1709454485&hash=item56911b33c9:g:0m8AAOSwIaFZJ0kt
p91
aVhttp://www.ebay.com/itm/6PK1873-GENUINE-DAYCO-ALTERNATOR-FAN-DRIVE-Auxiliary-flat-or-v-BELT-/391637744630?epid=1009460083&hash=item5b2f6dbbf6:g:XlIAAOSw8HBZJ0kr
p92
aVhttp://www.ebay.com/itm/V-BAND-CLAMP-FLANGES-COMPLETE-STAINLESS-STEEL-EXHAUST-TURBO-HOSE-2-25-57mm-/122397686498?epid=508132528&hash=item1c7f787ae2:g:kfoAAOSwXYtYx-nT
p93
aVhttp://www.ebay.com/itm/V-BAND-OUTER-CLAMP-STAINLESS-STEEL-EXHAUST-TURBO-HOSE-RADIATOR-3-76mm-/122397686278?epid=508126954&hash=item1c7f787a06:g:aQkAAOSwCU1Yx-nG
p94
aVhttp://www.ebay.com/itm/V-BAND-CLAMP-FLANGES-COMPLETE-STAINLESS-STEEL-EXHAUST-TURBO-HOSE-3-5-89mm-/122397686323?epid=508117463&hash=item1c7f787a33:g:Y2UAAOSwsW9Yx-nJ
p95
aVhttp://www.ebay.com/itm/4PK835-GENUINE-DAYCO-ALTERNATOR-FAN-DRIVE-Auxiliary-flat-or-v-BELT-/291956798323?epid=1638249872&hash=item43f9fb3373:g:-qEAAOSwlY1ZJ0ko
p96
aVhttp://www.ebay.com/itm/4PK850-GENUINE-DAYCO-ALTERNATOR-FAN-DRIVE-Auxiliary-flat-or-v-BELT-/291956797939?epid=1837124759&hash=item43f9fb31f3:g:yiAAAOSwq1JZJ0k6
p97
aVhttp://www.ebay.com/itm/Ford-Focus-Focus-C-MAX1-6-TDCi-Gates-Alternator-Drive-Fan-Belt-Air-Con-2004-11-/231307584983?epid=1216072294&hash=item35db01a5d7:g:MpUAAOxy4dNS1qxu
p98
aVhttp://www.ebay.com/itm/5PK1850-GENUINE-DAYCO-ALTERNATOR-FAN-DRIVE-Auxiliary-flat-or-v-BELT-/291956797909?epid=1509443362&hash=item43f9fb31d5:g:7V8AAOSw0hlZJ0k7
p99
aVhttp://www.ebay.com/itm/6PK1865-GENUINE-DAYCO-ALTERNATOR-FAN-DRIVE-Auxiliary-flat-or-v-BELT-/391637744829?epid=1731035151&hash=item5b2f6dbcbd:g:H3MAAOSw5cRZJ0kp
p100
aVhttp://www.ebay.com/itm/4PK862-GENUINE-DAYCO-ALTERNATOR-FAN-DRIVE-Auxiliary-flat-or-v-BELT-/371801666461?epid=1737828049&hash=item56911b339d:g:-vEAAOSwtGlZJ0k~
p101
aVhttp://www.ebay.com/itm/6PK975-GENUINE-DAYCO-ALTERNATOR-FAN-DRIVE-Auxiliary-flat-or-v-BELT-/291956798507?epid=1309605159&hash=item43f9fb342b:g:7MMAAOSw0hlZJ0ks
p102
aVhttp://www.ebay.com/itm/1x-Blue-Print-Air-Filter-ADG02234-/391191642311?epid=1937727839&hash=item5b14d6c0c7:g:MQAAAOSwvzRXx1pb
p103
aVhttp://www.ebay.com/itm/6PK1050S-GENUINE-DAYCO-ALTERNATOR-FAN-DRIVE-Auxiliary-flat-or-v-BELT-/291956798247?epid=1809453631&hash=item43f9fb3327:g:B0UAAOSw1WJZJ0kr
p104
aVhttp://www.ebay.com/itm/6PK1160-GENUINE-DAYCO-ALTERNATOR-FAN-DRIVE-Auxiliary-flat-or-v-BELT-/391637745121?epid=1909597818&hash=item5b2f6dbde1:g:6CEAAOSwfRdZJ0kk
p105
aVhttp://www.ebay.com/itm/6PK780-GENUINE-DAYCO-ALTERNATOR-FAN-DRIVE-Auxiliary-flat-or-v-BELT-/291956798182?epid=1609620161&hash=item43f9fb32e6:g:iqQAAOSw8lpZJ0k-
p106
aVhttp://www.ebay.com/itm/6PK1580S-GENUINE-DAYCO-ALTERNATOR-FAN-DRIVE-Auxiliary-flat-or-v-BELT-/391637745551?epid=1009580876&hash=item5b2f6dbf8f:g:nyoAAOSwYvFZJ0km
p107
aVhttp://www.ebay.com/itm/6PK1538-GENUINE-DAYCO-ALTERNATOR-FAN-DRIVE-Auxiliary-flat-or-v-BELT-/291956798155?epid=1409435135&hash=item43f9fb32cb:g:HwwAAOSwcB5ZJ0kq
p108
aVhttp://www.ebay.com/itm/6PK2120-GENUINE-DAYCO-ALTERNATOR-FAN-DRIVE-Auxiliary-flat-or-v-BELT-/391637744652?epid=1242969211&hash=item5b2f6dbc0c:g:oEMAAOSwYvFZJ0lA
p109
aVhttp://www.ebay.com/itm/5PK1050-GENUINE-DAYCO-ALTERNATOR-FAN-DRIVE-Auxiliary-flat-or-v-BELT-/291956798287?epid=1309433715&hash=item43f9fb334f:g:xocAAOSwR29ZJ0kv
p110
aVhttp://www.ebay.com/itm/4PK884-GENUINE-DAYCO-ALTERNATOR-FAN-DRIVE-Auxiliary-flat-or-v-BELT-/391637744758?epid=1409444532&hash=item5b2f6dbc76:g:nxYAAOSwYvFZJ0kk
p111
aVhttp://www.ebay.com/itm/6PK966-GENUINE-DAYCO-ALTERNATOR-FAN-DRIVE-Auxiliary-flat-or-v-BELT-/291956798444?epid=1009468382&hash=item43f9fb33ec:g:LyYAAOSwblZZJ0kp
p112
aVhttp://www.ebay.com/itm/5PK880-GENUINE-DAYCO-ALTERNATOR-FAN-DRIVE-Auxiliary-flat-or-v-BELT-/371801666513?epid=1509457202&hash=item56911b33d1:g:XKoAAOSwuMZZJ0kk
p113
aVhttp://www.ebay.com/itm/6PK1173-GENUINE-DAYCO-ALTERNATOR-FAN-DRIVE-Auxiliary-flat-or-v-BELT-/291956797930?epid=1909460558&hash=item43f9fb31ea:g:DLIAAOSwZKBZJ0kq
p114
a.