(lp0
Vhttp://www.ebay.com/itm/Roominate-Studio-Toy-/141877324088?hash=item21088c2938:g:JfgAAOSwYIhWl7dY
p1
aVhttp://www.ebay.com/itm/Wholesale-10pcs-lot-Abominate-Super-Heroes-Building-Blocks-Minifigures-Kids-Toys-/352039575379?hash=item51f7319f53:g:AWgAAOSwRUhY~368
p2
a.