(lp1
Vhttp://www.ebay.com/itm/Jellyfish-Spilt-Milk-Deluxe-Edition-NEW-2CD-/311272742456?epid=1337302031&hash=item48794d1e38:g:-1YAAOSw2s1UyLKP
p2
aVhttp://www.ebay.com/itm/The-Blood-Spilt-Asa-Larsson-/381803341178?epid=114371261&hash=item58e540a57a:g:5pwAAOSwpLNX95KX
p3
aVhttp://www.ebay.com/itm/NEW-OFFICIAL-9-SHOPKINS-SOFT-TOY-SPILT-MILK-PLUSH-SOFT-TOY-/131773667379?hash=item1eae529833:g:HMkAAOSwjwlXBScp
p4
aVhttp://www.ebay.com/itm/OFFICIAL-SHOPKINS-8-PLUSH-SOFT-TOY-TOYS-APPLE-BLOSSOM-SPILT-MILK-LIPPS-LIPS-/301940074030?var=&epid=1066968910&hash=item464d07e62e:m:me8nLHglpVasHWadU8IIjSw
p5
aVhttp://www.ebay.com/itm/Kent-Armstrong-Spilt-Tube-Jazz-Bass-Pickup-Rear-Position-/252674950265?epid=2100643740&hash=item3ad499c479:g:6pYAAOSwojRYSsQb
p6
aVhttp://www.ebay.com/itm/Shopkins-Soft-Toy-Spilt-Milk-8-Plush-Official-Collect-Them-All-New-/182414876324?epid=2130250446&hash=item2a78c61ea4:g:LjYAAOSw5cNYcmit
p7
aVhttp://www.ebay.com/itm/VW-T1-Beetle-Billet-Polished-3-Gauge-Radio-Mount-T2-Spilt-Bay-Van-Bus-Bug-Camper-/151229426882?epid=1788489573&hash=item2335f9ecc2:m:mbwgfAV-6CQ_YhyOPx0McGw
p8
aVhttp://www.ebay.com/itm/DOLLS-HOUSE-Metal-Spilt-Tin-Of-Paint-Brush-/192085704651?hash=item2cb9333fcb:g:8IQAAOSwTuJYq1hr
p9
aVhttp://www.ebay.com/itm/NEW-OFFICIAL-8-SHOPKINS-SOFT-TOY-SHOPKIN-PLUSH-TOY-KISS-STRAWBERRY-KOOKY-COOKIE-/131761381215?var=&hash=item1ead971f5f:m:mG_Llxh0JkA17CN0dTlVQSA
p10
aVhttp://www.ebay.com/itm/Kathryn-Joseph-Bones-You-Have-Thrown-Me-And-Blood-Ive-Spilled-NEW-CD-/351725972763?epid=1339191944&hash=item51e4806d1b:g:hYIAAOSwLs5XLEu1
p11
aVhttp://www.ebay.com/itm/BORDER-FINE-ARTS-SPILT-MILK-COLLIE-DOG-PUPPIES-GOOSE-FARM-COUNTRYSIDE-PRINT-/361801947620?hash=item543d1399e4:g:FawAAOxybLpRgoQU
p12
aVhttp://www.ebay.com/itm/Novelty-Half-Pint-Mug-Glass-full-pint-glasses-spilt-in-two-novelty-gifts-/332207808416?hash=item4d5920dfa0:g:se4AAOSw-0xYWrGh
p13
aVhttp://www.ebay.com/itm/Am-I-Cute-Or-What-Dog-Cat-ID-25mm-with-Spilt-Ring-FREE-ENGRAVING-/152241520275?var=&hash=item23724d3e93:m:muVdtdV-wl1LpTfkcxYJ9iw
p14
aVhttp://www.ebay.com/itm/Ivy-Stationery-19mm-Brassed-Paper-Fasteners-Spilt-Pins-Pack-of-50-8mm-Head-/352041054065?hash=item51f7482f71:g:LBsAAOSw33hZAdcU
p15
aVhttp://www.ebay.com/itm/AHIMSA-COMPILATION-LP-SPILT-MILK-/382097439525?hash=item58f6c83b25:g:dlIAAOSwurZZJHKe
p16
aVhttp://www.ebay.com/itm/Spilt-milk-prosecco-print-picture-keepsake-gift-wall-art-decor-/122563598256?hash=item1c895c17b0:g:XBoAAOSwgv5ZTkPv
p17
aVhttp://www.ebay.com/itm/OIL-ABSORBANT-MAT-DOES-NOT-SOAK-UP-WATER-ONLY-SPILT-OIL-Absorbency-2-6L-per-mat-/182149224056?hash=item2a68f09678:g:h-4AAOSwxH1UDbyg
p18
aVhttp://www.ebay.com/itm/NEW-12pc-WOOD-CARVING-CHISEL-SET-SPILT-PROOF-HANDLES-/282058013242?hash=item41abf7ba3a:g:GgkAAOxy7nNTWDSf
p19
aVhttp://www.ebay.com/itm/New-Womens-Long-Sleeve-Bodycon-Checked-Knit-Cowl-Polo-Neck-Top-Dress-Tunic-8-16-/182208291668?var=&hash=item2a6c75e354:m:myvsXT5Bxh-MT5hiOFQ_qQA
p20
aVhttp://www.ebay.com/itm/DOLLS-HOUSE-Metal-Spilt-Tin-Of-Paint-Brush-/192085704651?hash=item2cb9333fcb:g:8IQAAOSwTuJYq1hr
p21
aVhttp://www.ebay.com/itm/WOMENS-LADIES-12-TARTAN-SKATER-SKIRT-MINI-SHORTS-GIRLS-PLEATED-CHECK-SPILT-8-14-/322421330111?var=&epid=1852566000&hash=item4b11cf10bf:m:maledC5cwOaUG9kN22YzeOg
p22
aVhttp://www.ebay.com/itm/Spilled-Words-The-Crimson-Kiss-Quote-Collection-by-CICI-B-9780995003934-/252827627640?epid=236817197&hash=item3addb37078:g:rMkAAOSwsW9Y1ISJ
p23
aVhttp://www.ebay.com/itm/womens-size-16-navy-chiffon-blouse-with-large-floaty-spilt-angel-sleeves-/252331468966?hash=item3ac020a8a6:g:E-AAAOSwxvxW8ZDh
p24
aVhttp://www.ebay.com/itm/MHS-Leopard-Unisex-Welding-Oversleeves-Cow-Spilt-Leather-18-Forearm-Protection-/182599842264?epid=928070535&hash=item2a83cc79d8:g:u5IAAOSww9xZLoa3
p25
aVhttp://www.ebay.com/itm/VIRGIN-FOR-WOMEN-HAIR-GROWTH-OIL-THICKENS-HAIR-STOPS-DANDRUFF-STOP-SPILT-ENDS-/151849016876?hash=item235ae81e2c:g:9pwAAOSwqrtWoMJ-
p26
aVhttp://www.ebay.com/itm/Cat-ID-Tag-MOUSE-Aluminium-with-Spilt-Ring-27mm-x-20mm-FREE-ENGRAVING-/162547891432?var=&hash=item25d89bfce8:m:mUomzeAvD0TmoppzQ-m-7rQ
p27
aVhttp://www.ebay.com/itm/40mm-Disc-Gold-Plated-Key-Ring-Spilt-Ring-FREE-ENGRAVING-/162472897086?var=&hash=item25d423aa3e:m:mc7uOyKEozL7YgjM-0PE-uA
p28
aVhttp://www.ebay.com/itm/Kathryn-Joseph-Bones-You-Have-Thrown-Me-and-Blood-Ive-Spilled-CD-NEW-/282323798478?epid=1339191944&hash=item41bbcf49ce:g:ZpEAAOSw44BYd7OI
p29
aVhttp://www.ebay.com/itm/VIRGIN-FOR-WOMEN-HAIR-GROWTH-OIL-THICKENS-HAIR-STOPS-DANDRUFF-STOP-SPILT-ENDS-/231791666245?epid=1845438158&hash=item35f7dc2445:g:WnwAAOSwk1JWebFX
p30
aVhttp://www.ebay.com/itm/Spilled-Milk-Based-on-a-True-Story-by-K-L-Randis-9780615835600-Paperback-2013-/332014208927?epid=201799830&hash=item4d4d96c79f:g:MD8AAOSwal5YEFBF
p31
aVhttp://www.ebay.com/itm/SHOPKINS-SEASON-1-SPILT-MILK-GREEN-RARE-1-075-DAIRY-SECTION-/311696710826?hash=item4892925caa:g:wf4AAOSwdIFX1woi
p32
aVhttp://www.ebay.com/itm/It-Looked-Like-Spilt-Milk-Charles-Green-Shaw-/370834659573?epid=179612816&hash=item565777d8f5:g:~4gAAMXQTT9RuyCe
p33
aVhttp://www.ebay.com/itm/Engraved-Bone-Dog-Pet-Tags-38mm-FREE-ENGRAVING-AND-SPILT-RING-/252969569945?var=&hash=item3ae6294e99:m:m_qHbbReYbviXSPeDQvcSFA
p34
aVhttp://www.ebay.com/itm/SHOPKINS-SEASON-1-SPILT-MILK-GREEN-RARE-1-075-DAIRY-SECTION-/311696710826?hash=item4892925caa:g:wf4AAOSwdIFX1woi
p35
aVhttp://www.ebay.com/itm/SPILT-CROATIA-JUMBO-FRIDGE-MAGNET-BRAND-NEW-/270777099053?hash=item3f0b92a32d:m:mr0_OZPfCsbDKB_ZhDyxvEg
p36
aVhttp://www.ebay.com/itm/The-Blood-Spilt-Rebecka-Martinsson-2-Asa-Larsson-/371850919344?epid=114371261&hash=item56940abdb0:g:QD4AAOSw9GhYjCB9
p37
aVhttp://www.ebay.com/itm/VIRGIN-FOR-WOMEN-HAIR-GROWTH-OIL-THICKENS-HAIR-STOPS-DANDRUFF-STOP-SPILT-ENDS-/231791666245?epid=1845438158&hash=item35f7dc2445:g:WnwAAOSwk1JWebFX
p38
aVhttp://www.ebay.com/itm/Kylie-Jenner-New-Kylighter-Face-Highlighter-All-6-Shades-In-Stock-Uk-/232293451228?var=&hash=item3615c4c5dc:m:mM5aBkDvph8SsUVzcCqTWRA
p39
aVhttp://www.ebay.com/itm/Spilled-Water-Grindley-Sally-Good-Book-/182189493532?epid=90954543&hash=item2a6b570d1c:g:SywAAOSw6n5Xrxmu
p40
aVhttp://www.ebay.com/itm/NEW-LARGE-NGT-7-WAY-SPILT-SHOT-WEIGHTS-NON-TOXIC-LEADS-CARP-FISHING-TACKLE-/172300372862?hash=item281de70b7e:g:WwoAAOSwaB5Xqj2z
p41
aVhttp://www.ebay.com/itm/Never-Cry-Over-Spilt-Milk-It-Could-Of-Been-Beer-Half-Pint-Tankard-Half-Pint-/301928353840?hash=item464c551030:g:jWwAAOSwhDdXDmCR
p42
aVhttp://www.ebay.com/itm/Kathryn-Joseph-Bones-You-Have-Thrown-Me-and-Blood-Ive-Spilled-CD-NEU-/351955809815?epid=231952035&hash=item51f2337617:g:sA0AAOSwopRYd6V8
p43
aVhttp://www.ebay.com/itm/Dog-ID-Tags-Aluminium-25mm-with-Spilt-Ring-FREE-ENGRAVING-/152241799373?var=&hash=item23725180cd:m:mvx1DgSeQHvIFMnYMg1CY9w
p44
aVhttp://www.ebay.com/itm/Girls-T-Shirt-Tops-Official-Monster-High-7-14-Years-/361318860806?var=&hash=item5420484806:m:m4fVGzd_p1o62Zhi7qyEPVw
p45
aVhttp://www.ebay.com/itm/MUKLUK-NEOPRENE-SPILT-FINGER-GLOVES-CARP-COARSE-FISHING-/120648240637?var=&hash=item1c17320dfd:m:m4lgSMWPgt1qSJj_wTln_vQ
p46
aVhttp://www.ebay.com/itm/It-Looked-Like-Spilt-Milk-NEW-BOOK-/371952380099?epid=194120422&hash=item569a16e8c3:g:t7sAAOSwX9FZGyfx
p47
aVhttp://www.ebay.com/itm/VW-Brake-Line-Hose-Front-Drum-430mm-Pair-T1-Beetle-T3-T2-Spilt-Screen-Early-Bus-/181496634178?epid=1330618251&hash=item2a420adb42:g:w7QAAOSwd4tUJyyA
p48
aVhttp://www.ebay.com/itm/BARLATTE-BROWN-STRIPED-SPILT-BISTRO-STYLE-WAIST-APRON-WITH-POCKET-RESTAURANT-BAR-/201628290797?var=&hash=item2ef1fb8eed:m:mgwo3tkiCHZ7GtRjx1I2x7Q
p49
aVhttp://www.ebay.com/itm/3-WAY-QUICK-RELEASE-PCL-TYPE-AIR-LINE-SPLITTER-Y-CONNECTOR-AIRLINE-COUPLING-/322358561110?epid=545129660&hash=item4b0e114956:g:xp0AAOSw6DtYUBpk
p50
aVhttp://www.ebay.com/itm/VIRGIN-FOR-WOMEN-HAIR-GROWTH-OIL-THICKENS-HAIR-STOPS-DANDRUFF-STOP-SPILT-ENDS-/121787912253?hash=item1c5b20103d:g:LyIAAOSwXshWsRbZ
p51
aVhttp://www.ebay.com/itm/VIRGIN-FOR-WOMEN-HAIR-GROWTH-OIL-THICKENS-HAIR-STOPS-DANDRUFF-STOP-SPILT-ENDS-/262605224728?epid=1845438158&hash=item3d247dbb18:g:QRoAAOSwgmJXyLEg
p52
aVhttp://www.ebay.com/itm/Earth-Rod-Clamp-Spilt-Type-5-8-/121643162831?epid=4002908628&hash=item1c527f5ccf:g:7FoAAOSwAuNW3zzs
p53
aVhttp://www.ebay.com/itm/Chrome-Dice-Valve-Caps-Cap-x4-VW-Camper-Beetle-Bug-Spilt-Ghia-Bay-Bus-T1-Car-/150740619046?epid=1126778569&hash=item2318d74f26:g:H6IAAOSwr~lYqycZ
p54
a.