(lp1
Vhttp://www.ebay.com/itm/VESPER-LILIANNA-BARDOT-NECKLINE-DRESS-YELLOW-PINK-UK-6-8-10-14-NEW-FULL-STRETCH-/122588378175?var=&hash=item1c8ad6343f:m:mGa_HkfrwGLNYGxAp5HuiwA
p2
aVhttp://www.ebay.com/itm/Hagen-Vesper-Cat-Furniture-Scratcher-Bed-Pole-High-Base-Black-or-Walnut-/400881363291?var=&epid=1342193791&hash=item5d5664295b:m:mmwlyOSKrG6goua39QGk1iQ
p3
aVhttp://www.ebay.com/itm/Hagen-Vesper-Cat-Furniture-Scratcher-Bed-V-High-Lounge-/122409496188?epid=1554717401&hash=item1c802cae7c:g:Ki4AAOSwBLlU~xOL
p4
aVhttp://www.ebay.com/itm/Vesper-V-Stool-Expandable-play-and-sleeping-spot-for-cats-Walnut-or-White-/122221451719?var=&hash=item1c74f759c7:m:mz4JKyqP78cVCs7m_T78C1Q
p5
aVhttp://www.ebay.com/itm/Hagen-Vesper-Cat-Furniture-Scratcher-Bed-V-Cube-Rattan-/171715721307?epid=1950816044&hash=item27fb0df85b:g:JOsAAOSwNSxVABta
p6
aVhttp://www.ebay.com/itm/Vesper-Cat-Furniture-V-High-Base-New-Rattan-and-Memory-Foam-Cat-Tree-Stratcher-/122433604712?epid=1039842837&hash=item1c819c8c68:g:0FMAAOSw4CFY5fU4
p7
aVhttp://www.ebay.com/itm/Kiniki-Vesper-Tan-Through-Swim-Micro-Brief-/141796917092?var=&epid=1854122448&hash=item2103c13f64:m:mcA1944m4etsi6NNgeDNaUA
p8
aVhttp://www.ebay.com/itm/1-Fiore-Vesper-Seamed-Stockings-20-Denier-Mesh-Patterned-Tops-Black-or-Red-/191302487923?var=&hash=item2c8a844f73:m:mRPFGMDZC-O9NQOZ9LXjDIA
p9
aVhttp://www.ebay.com/itm/Kiniki-Vesper-Tan-Through-Tube-Swimsuit-/151843499080?var=&epid=1654218756&hash=item235a93ec48:m:m0lQtC-ivml4gIW1u2VizFA
p10
aVhttp://www.ebay.com/itm/Kiniki-Vesper-Tan-Through-Swim-Brief-/141769753639?var=&epid=1054189808&hash=item210222c427:m:mjZAEAwSzZrJx4dKPsUzpMw
p11
aVhttp://www.ebay.com/itm/Vesper-Marine-WMX850-Watchmate-AIS-Transponder-/371819335931?epid=1274737586&hash=item569228d0fb:g:h4AAAOSwll1WxydL
p12
aVhttp://www.ebay.com/itm/Kiniki-Vesper-Tan-Through-Tie-Side-Bikini-Tanga-/131623819899?var=&epid=1554221624&hash=item1ea5641a7b:m:m8tQ1MxXbauStHwruo756eg
p13
aVhttp://www.ebay.com/itm/Vesper-Marine-External-Alarm-for-Watchmate-AIS-Units-/351937728664?hash=item51f11f9098:g:vyUAAOSwzJ5XamZH
p14
aVhttp://www.ebay.com/itm/Vesper-Marine-AIS-VHF-1-0m-Stainless-Steel-Mast-mount-Antenna-VA159-/371809180991?hash=item56918ddd3f:g:Mv0AAOSw-0xYbsiW
p15
aVhttp://www.ebay.com/itm/Kiniki-Vesper-Tan-Through-Swim-Hipster-/141769729431?var=&epid=1754261523&hash=item2102226597:m:mIqBaNJSDMfUiB_JM62uxUQ
p16
aVhttp://www.ebay.com/itm/Kiniki-Vesper-Tan-Through-Swim-Hipster-/141769729431?var=&epid=1754261523&hash=item2102226597:m:mIqBaNJSDMfUiB_JM62uxUQ
p17
aVhttp://www.ebay.com/itm/Kiniki-Vesper-Tan-Through-Bandeau-Bikini-Top-/141757992673?var=&epid=1254219016&hash=item21016f4ee1:m:m-gZD5VPlW8q14RbX9rTQbQ
p18
aVhttp://www.ebay.com/itm/Vesper-Marine-10-Pin-Power-cable-for-AIS-units-/282368570734?hash=item41be7a756e:g:OeUAAOSwtfhYrBpn
p19
aVhttp://www.ebay.com/itm/1-Fiore-Vesper-Medias-Con-Costura-20-Denier-Malla-Estampado-Tops-negro-o-rojo-/191483932429?var=&hash=item2c9554ef0d:m:mRPFGMDZC-O9NQOZ9LXjDIA
p20
a.