(lp1
Vhttp://www.ebay.com/itm/Job-Lot-6-X-Smooch-Nail-Polish-15ml-In-6-Assorted-Shades-/332143192122?hash=item4d5546e83a:g:K8wAAOSwdGFYuFtR
p2
aVhttp://www.ebay.com/itm/SMOOCH-Black-Lash-Mascara-New-in-a-Box-/172534580069?epid=1173095706&hash=item282bdcc365:g:tAwAAOSw2gxYpaMN
p3
aVhttp://www.ebay.com/itm/W7-Cosmetics-Smooch-Blusher-Cookie-Crumble-4g-/192099638125?epid=1322852561&hash=item2cba07db6d:g:FC4AAOSwqM1Ym1qd
p4
aVhttp://www.ebay.com/itm/W7-SMOOCH-blusher-in-peachy-4g-/232232729621?hash=item3612263c15:g:UUMAAOSwPe1UKrF1
p5
aVhttp://www.ebay.com/itm/W7-SMOOCH-blusher-in-sugar-rush-4g-/232232729232?hash=item3612263a90:g:GxAAAOSwYIhWk5Tt
p6
aVhttp://www.ebay.com/itm/bareMinerals-GEN-NUDE-Matte-Liquid-Lipcolor-All-Shades-Boxed-NEW-/112281912182?var=&hash=item1a24860376:m:m4d5fU3Ab9n16IE1wQN60UA
p7
aVhttp://www.ebay.com/itm/Smooch-Bronzing-Compact-Powder-Duo-10g-Boxed-with-Brush-and-Mirror-/262810837932?epid=1040508027&hash=item3d30bf23ac:g:1HgAAOSwo4pYRphc
p8
aVhttp://www.ebay.com/itm/Smooch-Blusher-4g-Cookie-Crumble-Peach-Coral-Boxed-with-Mirror-/262810837058?epid=1322852561&hash=item3d30bf2042:g:UZkAAOSw6DtYRqFN
p9
aVhttp://www.ebay.com/itm/Pink-Tease-Shimmer-Glitter-Smooch-Lip-Gloss-Wand-Set-of-7x-15g-Makeup-Cosmetic-/272481437144?hash=item3f7128c5d8:g:RgAAAOSwux5YTEx2
p10
aVhttp://www.ebay.com/itm/Look-Beauty-Fat-Lips-Intense-Colour-Lip-Balm-Stain-Choose-Your-Colour-/332035944293?var=&hash=item4d4ee26f65:m:mKYjuItbj5QfHtk84mYgR_g
p11
aVhttp://www.ebay.com/itm/Pack-and-Smooch-IPhone-7-PLUS-6s-PLUS-Case-Cover-Wallet-SHETLAND-100-Wool-/232136648298?hash=item360c6c266a:g:vs4AAOSwImRYIJWF
p12
aVhttp://www.ebay.com/itm/Pack-and-Smooch-IPad-Air-2-IPad-Pro-9-7-Case-Sleeve-Cover-LLEYN-100-Wool-In-/332025313549?hash=item4d4e40390d:g:dpAAAOSwnbZYII5a
p13
aVhttp://www.ebay.com/itm/2-Look-Beauty-Pout-Lip-Stain-Scarlet-Smooch-Pucker-Up-Peach-/322320425360?epid=1865031437&hash=item4b0bcb6190:g:94MAAOSwNRdX9qTG
p14
aVhttp://www.ebay.com/itm/Pack-and-Smooch-IPad-Air-2-IPad-Pro-9-7-Sleeve-Cover-LLEYN-100-Wool-Felt-In-/332025142675?hash=item4d4e3d9d93:g:Hz0AAOSwImRYIFPD
p15
aVhttp://www.ebay.com/itm/Pack-and-Smooch-IPad-Pro-12-9-Case-Sleeve-Cover-100-Wool-Felt-And-Vegetable-/232135925143?hash=item360c611d97:g:n9IAAOSw5cNYH9jX
p16
aVhttp://www.ebay.com/itm/RIMMEL-LONDON-Rich-Moisture-Lipstick-choose-shade-/381835388906?var=&epid=1604302050&hash=item58e729a7ea:m:mhH-tJ_XD995KgauGsSZ1aA
p17
aVhttp://www.ebay.com/itm/NYC-SMOOCH-PROOF-16H-LIPSTAIN-ASSORTED-SHADES-NEW-YORK-COLOR-16-HOUR-TINT-/332017397150?var=&epid=1941193834&hash=item4d4dc76d9e:m:m2ntKW5t9fQk10EElVDzJzQ
p18
aVhttp://www.ebay.com/itm/4-x-NYC-SMOOCH-PROOF-LIQUID-LIP-STAIN-RED-PINK-MAUVE-PURPLE-/332015502776?var=&hash=item4d4daa85b8:m:mJy89o3iCjb0g39NZNES_4g
p19
aVhttp://www.ebay.com/itm/SMOOCH-NAIL-POLISH-VARNISH-SET-OF-6-x-15ml-GORGEOUS-COLOURS-NEW-JOB-LOT-/282213470868?hash=item41b53bd294:g:vT4AAOSwZJBX-mNM
p20
aVhttp://www.ebay.com/itm/AVON-PERFECT-KISS-LIPSTICK-NEW-SEALED-CHOOSE-A-SHADE-to-Suit-You-/142137415771?var=&hash=item21180cd85b:m:mpu9OTcEb73mzLOIq7twelA
p21
aVhttp://www.ebay.com/itm/NEW-Calvin-Klein-CK-One-Pure-Color-Lipstick-Smooch-3g-Boxed-Free-P-P-/182301258857?epid=1064352691&hash=item2a72007469:g:hg4AAOSw-29ZTB~L
p22
aVhttp://www.ebay.com/itm/Look-Beauty-Pout-Lip-Stain-New-Pucker-Up-Peach-Scarlet-Smooch-/162202460642?var=&hash=item25c40521e2:m:mWvgBLvl_yE2LHfUI7rKGXA
p23
aVhttp://www.ebay.com/itm/WEDDING-CAKE-TOPPERS-DECORATION-BRIDE-GROOM-GIFT-PRESENT-NOVELTY-DANCER-PARTY-/162190357788?var=&hash=item25c34c751c:m:mkzlwLVcP0AJcZO-pARZrIg
p24
aVhttp://www.ebay.com/itm/W7-Cosmetics-Smooch-Blusher-Peachy-4g-new-boxed-great-colour-/311673553715?epid=1255115301&hash=item4891310333:g:aoQAAOSwV0RXq0sT
p25
aVhttp://www.ebay.com/itm/W7-Cosmetics-Smooch-Blusher-Sweet-Cheeks-4g-new-boxed-great-colour-/112089416481?epid=1155058690&hash=item1a190cc321:g:NUAAAOSwV0RXq0my
p26
aVhttp://www.ebay.com/itm/NYC-NEW-YORK-COLOR-SMOOCH-PROOF-LIQUID-LIP-STAIN-4-VIBRANT-COLOURS-/322193328604?var=&epid=1360303388&hash=item4b043809dc:m:mhqhjU4tCgqYoLqhUOEaSag
p27
aVhttp://www.ebay.com/itm/NYC-Smooch-Proof-Liquid-Lip-Stain-Lipstick-Choice-Of-Colour-/252377421125?var=&epid=1760404747&hash=item3ac2ddd545:m:mg8qKaboeEtQzkua-c9YdtQ
p28
a.