(lp1
Vhttp://www.ebay.com/itm/UNITED-STATES-NAVY-FIGHTER-WEAPONS-SCHOOL-70mm-GLASS-PAPERWEIGHT-/121601905060?hash=item1c5009d1a4:g:DrMAAOSw-7RVDckN
p2
aVhttp://www.ebay.com/itm/New-USN-US-Navy-Master-Diver-Subdued-Qualification-Badge-/221718674177?hash=item339f767b01:g:DbQAAOSwv0tVCXKU
p3
aVhttp://www.ebay.com/itm/USN-United-States-Navy-Garrison-Side-Cap-Badge-NEW-/221717119010?hash=item339f5ec022:g:KKQAAOSwBahVBwPc
p4
aVhttp://www.ebay.com/itm/US-U-S-NAVY-OFFICERS-GILT-METAL-SUBMARINE-BREAST-BADGE-ORIGINAL-V21-/121587535592?hash=item1c4f2e8ee8:g:0uUAAOSwEeFU-BeW
p5
aVhttp://www.ebay.com/itm/US-U-S-NAVY-OFFICERS-GILT-METAL-SUBMARINE-BREAST-BADGE-ORIGINAL-L22-/121586810105?hash=item1c4f237cf9:g:r7EAAOSwe-FU9dgk
p6
aVhttp://www.ebay.com/itm/U-S-N-US-NAVY-USN-FLIGHT-JACKET-UNIFORM-SILVER-BULLION-PILOTS-WING-7-/161622644239?hash=item25a175d60f:g:ncEAAOSwNSxU9br6
p7
aVhttp://www.ebay.com/itm/US-Navy-USN-Cloth-Service-Stripes-Red-on-Blue-/221520387394?hash=item3393a4dd42:g:FAkAAOSwbqpT6MDk
p8
aVhttp://www.ebay.com/itm/Genuine-US-Navy-Military-Gold-Anchor-Naval-Patch-Badge-USN-NEW-/131229458386?var=430490653322&hash=item1e8de29fd2:m:mt50TWxAOAWjaNkuAXebFjQ
p9
aVhttp://www.ebay.com/itm/EARLY-STYLE-U-S-N-US-NAVY-USN-FLIGHT-JACKET-UNIFORM-BULLION-WING-/161251882722?hash=item258b5c76e2:g:w0AAAOxy~dNTJsly
p10
aVhttp://www.ebay.com/itm/U-S-N-US-NAVY-USN-FLIGHT-NURSE-JACKET-UNIFORM-BULLION-WING-/121296923727?hash=item1c3ddc2c4f:g:XGsAAOxyrM5TJslh
p11
aVhttp://www.ebay.com/itm/U-S-N-US-NAVY-USN-FLIGHT-JACKET-UNIFORM-BULLION-AIRCREW-WING-/121296923510?hash=item1c3ddc2b76:g:sMMAAOxydgZTJsk1
p12
aVhttp://www.ebay.com/itm/U-S-N-US-NAVY-USN-FLIGHT-JACKET-UNIFORM-BULLION-COMBAT-AIRCREW-WING-/121296923394?hash=item1c3ddc2b02:g:V24AAOxyrM5TJski
p13
aVhttp://www.ebay.com/itm/U-S-N-US-NAVY-USN-FLIGHT-JACKET-UNIFORM-BULLION-NAVIGATORS-WING-/161251881850?hash=item258b5c737a:g:rkgAAOxydgZTJskS
p14
aVhttp://www.ebay.com/itm/U-S-N-US-NAVY-USN-FLIGHT-JACKET-UNIFORM-BULLION-PILOTS-WING-3-/121296923126?hash=item1c3ddc29f6:g:q7UAAOxydgZTJsjx
p15
aVhttp://www.ebay.com/itm/U-S-N-US-NAVY-USN-FLIGHT-JACKET-UNIFORM-BULLION-PILOTS-WING-1-/161251881362?hash=item258b5c7192:g:rRAAAOxykMpTJsjN
p16
aVhttp://www.ebay.com/itm/WW2-U-S-NAVY-MARINE-CORPS-VMSB-244-G1-JACKET-SQUADRON-PATCH-BOMBING-BANSHEES-/161226263434?hash=item2589d58b8a:g:qZEAAMXQVT9S~6Sy
p17
aVhttp://www.ebay.com/itm/WW2-U-S-NAVY-VO-3-VO3-G1-JACKET-SQUADRON-PATCH-ON-FELT-/121276518360?hash=item1c3ca4cfd8:g:y5YAAMXQlgtS~6PU
p18
aVhttp://www.ebay.com/itm/United-States-Navy-Chiefs-of-Chaplains-The-Chosen-Few-Black-5x3-Flag-/121260656145?hash=item1c3bb2c611:g:WMUAAOxyBvZTWP~y
p19
aVhttp://www.ebay.com/itm/Womens-USN-US-Navy-Hat-with-Cap-Badge-Un-issued-in-Original-Box-/321265528817?epid=872544319&hash=item4acceaeff1:g:SkMAAOxyTjNSnGC4
p20
aVhttp://www.ebay.com/itm/UNITED-STATES-NAVY-USN-SEAL-TEAM-EIGHT-EMBROIDERED-KEY-FOB-/370948301793?hash=item565e3de3e1:g:WukAAOSwAuNW3EHj
p21
aVhttp://www.ebay.com/itm/F-A-18E-Hornet-Fighter-Jet-USN-Strike-US-Navy-Embroidered-Patch-Badge-/121191869568?hash=item1c37992c80:g:9zsAAOxyBXNSVrxv
p22
aVhttp://www.ebay.com/itm/F-A-18E-F-Super-Hornet-Fighter-Jet-United-States-Navy-Embroidered-Badge-Patch-/121183079097?hash=item1c37130ab9:g:kiMAAOxyXHpSQt4B
p23
aVhttp://www.ebay.com/itm/United-States-Navy-Enlisted-Cap-Insignia-Krew-GI-/370853863752?hash=item56589ce148:g:bhAAAOxyV85R4Xis
p24
aVhttp://www.ebay.com/itm/The-United-States-Navy-USN-Blue-Angels-Flight-Demonstration-Sq-5x3-Flag-/380637283266?hash=item589fc003c2:g:f2kAAOxydUJTOX6X
p25
aVhttp://www.ebay.com/itm/The-United-States-Navy-USN-5x3-Flag-/121106751568?hash=item1c32866050:g:Bw0AAMXQuTNTOW51
p26
aVhttp://www.ebay.com/itm/Iron-On-Patch-Brand-New-Military-Army-Flags-Sergeants-Marines-Air-Command-Star-/321049660801?var=510095285113&hash=item4ac00d0d81:m:mU1d0ek5mA1Gmeo-jyUP6gA
p27
aVhttp://www.ebay.com/itm/United-States-Navy-Reserve-Old-Type-Ribbon-/370215201873?hash=item56328bac51:g:ZTsAAOxy7nNTW9zB
p28
aVhttp://www.ebay.com/itm/UNITED-STATES-NAVY-USN-SEAL-TEAM-EIGHT-EMBROIDERED-KEY-FOB-/370948301793?hash=item565e3de3e1:g:WukAAOSwAuNW3EHj
p29
aVhttp://www.ebay.com/itm/F-A-18E-Hornet-Fighter-Jet-USN-Strike-US-Navy-Embroidered-Patch-Badge-/121191869568?hash=item1c37992c80:g:9zsAAOxyBXNSVrxv
p30
aVhttp://www.ebay.com/itm/F-A-18E-F-Super-Hornet-Fighter-Jet-United-States-Navy-Embroidered-Badge-Patch-/121183079097?hash=item1c37130ab9:g:kiMAAOxyXHpSQt4B
p31
aVhttp://www.ebay.com/itm/United-States-Navy-Enlisted-Cap-Insignia-Krew-GI-/370853863752?hash=item56589ce148:g:bhAAAOxyV85R4Xis
p32
aVhttp://www.ebay.com/itm/The-United-States-Navy-USN-Blue-Angels-Flight-Demonstration-Sq-5x3-Flag-/380637283266?hash=item589fc003c2:g:f2kAAOxydUJTOX6X
p33
aVhttp://www.ebay.com/itm/The-United-States-Navy-USN-Crest-5x3-Flag-/121106752670?hash=item1c3286649e:g:0fwAAOxybLpRiC69
p34
aVhttp://www.ebay.com/itm/The-United-States-Navy-USN-5x3-Flag-/121106751568?hash=item1c32866050:g:Bw0AAMXQuTNTOW51
p35
aVhttp://www.ebay.com/itm/Iron-On-Patch-Brand-New-Military-Army-Flags-Sergeants-Marines-Air-Command-Star-/321049660801?var=510095285113&hash=item4ac00d0d81:m:mU1d0ek5mA1Gmeo-jyUP6gA
p36
aVhttp://www.ebay.com/itm/United-States-Navy-Reserve-Old-Type-Ribbon-/370215201873?hash=item56328bac51:g:ZTsAAOxy7nNTW9zB
p37
aVhttp://www.ebay.com/itm/UNITED-STATES-NAVY-USN-SEAL-TEAM-EIGHT-EMBROIDERED-KEY-FOB-/370948301793?hash=item565e3de3e1:g:WukAAOSwAuNW3EHj
p38
aVhttp://www.ebay.com/itm/F-A-18E-Hornet-Fighter-Jet-USN-Strike-US-Navy-Embroidered-Patch-Badge-/121191869568?hash=item1c37992c80:g:9zsAAOxyBXNSVrxv
p39
aVhttp://www.ebay.com/itm/F-A-18E-F-Super-Hornet-Fighter-Jet-United-States-Navy-Embroidered-Badge-Patch-/121183079097?hash=item1c37130ab9:g:kiMAAOxyXHpSQt4B
p40
aVhttp://www.ebay.com/itm/United-States-Navy-Enlisted-Cap-Insignia-Krew-GI-/370853863752?hash=item56589ce148:g:bhAAAOxyV85R4Xis
p41
aVhttp://www.ebay.com/itm/The-United-States-Navy-USN-Blue-Angels-Flight-Demonstration-Sq-5x3-Flag-/380637283266?hash=item589fc003c2:g:f2kAAOxydUJTOX6X
p42
aVhttp://www.ebay.com/itm/The-United-States-Navy-USN-Crest-5x3-Flag-/121106752670?hash=item1c3286649e:g:0fwAAOxybLpRiC69
p43
aVhttp://www.ebay.com/itm/The-United-States-Navy-USN-5x3-Flag-/121106751568?hash=item1c32866050:g:Bw0AAMXQuTNTOW51
p44
aVhttp://www.ebay.com/itm/Iron-On-Patch-Brand-New-Military-Army-Flags-Sergeants-Marines-Air-Command-Star-/321049660801?var=510095285113&hash=item4ac00d0d81:m:mU1d0ek5mA1Gmeo-jyUP6gA
p45
aVhttp://www.ebay.com/itm/United-States-Navy-Reserve-Old-Type-Ribbon-/370215201873?hash=item56328bac51:g:ZTsAAOxy7nNTW9zB
p46
aVhttp://www.ebay.com/itm/UNITED-STATES-NAVY-USN-SEAL-TEAM-EIGHT-EMBROIDERED-KEY-FOB-/370948301793?hash=item565e3de3e1:g:WukAAOSwAuNW3EHj
p47
aVhttp://www.ebay.com/itm/F-A-18E-Hornet-Fighter-Jet-USN-Strike-US-Navy-Embroidered-Patch-Badge-/121191869568?hash=item1c37992c80:g:9zsAAOxyBXNSVrxv
p48
aVhttp://www.ebay.com/itm/F-A-18E-F-Super-Hornet-Fighter-Jet-United-States-Navy-Embroidered-Badge-Patch-/121183079097?hash=item1c37130ab9:g:kiMAAOxyXHpSQt4B
p49
aVhttp://www.ebay.com/itm/United-States-Navy-Enlisted-Cap-Insignia-Krew-GI-/370853863752?hash=item56589ce148:g:bhAAAOxyV85R4Xis
p50
aVhttp://www.ebay.com/itm/The-United-States-Navy-USN-Blue-Angels-Flight-Demonstration-Sq-5x3-Flag-/380637283266?hash=item589fc003c2:g:f2kAAOxydUJTOX6X
p51
aVhttp://www.ebay.com/itm/The-United-States-Navy-USN-Crest-5x3-Flag-/121106752670?hash=item1c3286649e:g:0fwAAOxybLpRiC69
p52
aVhttp://www.ebay.com/itm/The-United-States-Navy-USN-5x3-Flag-/121106751568?hash=item1c32866050:g:Bw0AAMXQuTNTOW51
p53
aVhttp://www.ebay.com/itm/Iron-On-Patch-Brand-New-Military-Army-Flags-Sergeants-Marines-Air-Command-Star-/321049660801?var=510095285113&hash=item4ac00d0d81:m:mU1d0ek5mA1Gmeo-jyUP6gA
p54
aVhttp://www.ebay.com/itm/United-States-Navy-Reserve-Old-Type-Ribbon-/370215201873?hash=item56328bac51:g:ZTsAAOxy7nNTW9zB
p55
aVhttp://www.ebay.com/itm/UNITED-STATES-NAVY-USN-SEAL-TEAM-EIGHT-EMBROIDERED-KEY-FOB-/370948301793?hash=item565e3de3e1:g:WukAAOSwAuNW3EHj
p56
aVhttp://www.ebay.com/itm/F-A-18E-Hornet-Fighter-Jet-USN-Strike-US-Navy-Embroidered-Patch-Badge-/121191869568?hash=item1c37992c80:g:9zsAAOxyBXNSVrxv
p57
aVhttp://www.ebay.com/itm/F-A-18E-F-Super-Hornet-Fighter-Jet-United-States-Navy-Embroidered-Badge-Patch-/121183079097?hash=item1c37130ab9:g:kiMAAOxyXHpSQt4B
p58
aVhttp://www.ebay.com/itm/United-States-Navy-Enlisted-Cap-Insignia-Krew-GI-/370853863752?hash=item56589ce148:g:bhAAAOxyV85R4Xis
p59
aVhttp://www.ebay.com/itm/The-United-States-Navy-USN-Blue-Angels-Flight-Demonstration-Sq-5x3-Flag-/380637283266?hash=item589fc003c2:g:f2kAAOxydUJTOX6X
p60
aVhttp://www.ebay.com/itm/The-United-States-Navy-USN-Crest-5x3-Flag-/121106752670?hash=item1c3286649e:g:0fwAAOxybLpRiC69
p61
aVhttp://www.ebay.com/itm/The-United-States-Navy-USN-5x3-Flag-/121106751568?hash=item1c32866050:g:Bw0AAMXQuTNTOW51
p62
aVhttp://www.ebay.com/itm/Iron-On-Patch-Brand-New-Military-Army-Flags-Sergeants-Marines-Air-Command-Star-/321049660801?var=510095285113&hash=item4ac00d0d81:m:mU1d0ek5mA1Gmeo-jyUP6gA
p63
aVhttp://www.ebay.com/itm/United-States-Navy-Reserve-Old-Type-Ribbon-/370215201873?hash=item56328bac51:g:ZTsAAOxy7nNTW9zB
p64
aVhttp://www.ebay.com/itm/UNITED-STATES-NAVY-USN-SEAL-TEAM-EIGHT-EMBROIDERED-KEY-FOB-/370948301793?hash=item565e3de3e1:g:WukAAOSwAuNW3EHj
p65
aVhttp://www.ebay.com/itm/F-A-18E-Hornet-Fighter-Jet-USN-Strike-US-Navy-Embroidered-Patch-Badge-/121191869568?hash=item1c37992c80:g:9zsAAOxyBXNSVrxv
p66
aVhttp://www.ebay.com/itm/F-A-18E-F-Super-Hornet-Fighter-Jet-United-States-Navy-Embroidered-Badge-Patch-/121183079097?hash=item1c37130ab9:g:kiMAAOxyXHpSQt4B
p67
aVhttp://www.ebay.com/itm/United-States-Navy-Enlisted-Cap-Insignia-Krew-GI-/370853863752?hash=item56589ce148:g:bhAAAOxyV85R4Xis
p68
aVhttp://www.ebay.com/itm/The-United-States-Navy-USN-Blue-Angels-Flight-Demonstration-Sq-5x3-Flag-/380637283266?hash=item589fc003c2:g:f2kAAOxydUJTOX6X
p69
aVhttp://www.ebay.com/itm/The-United-States-Navy-USN-Crest-5x3-Flag-/121106752670?hash=item1c3286649e:g:0fwAAOxybLpRiC69
p70
aVhttp://www.ebay.com/itm/The-United-States-Navy-USN-5x3-Flag-/121106751568?hash=item1c32866050:g:Bw0AAMXQuTNTOW51
p71
aVhttp://www.ebay.com/itm/Iron-On-Patch-Brand-New-Military-Army-Flags-Sergeants-Marines-Air-Command-Star-/321049660801?var=510095285113&hash=item4ac00d0d81:m:mU1d0ek5mA1Gmeo-jyUP6gA
p72
aVhttp://www.ebay.com/itm/United-States-Navy-Reserve-Old-Type-Ribbon-/370215201873?hash=item56328bac51:g:ZTsAAOxy7nNTW9zB
p73
aVhttp://www.ebay.com/itm/Genuine-US-Navy-Military-Gold-Anchor-Naval-Patch-Badge-USN-NEW-/131229458386?var=430490653322&hash=item1e8de29fd2:m:mt50TWxAOAWjaNkuAXebFjQ
p74
aVhttp://www.ebay.com/itm/EARLY-STYLE-U-S-N-US-NAVY-USN-FLIGHT-JACKET-UNIFORM-BULLION-WING-/161251882722?hash=item258b5c76e2:g:w0AAAOxy~dNTJsly
p75
aVhttp://www.ebay.com/itm/U-S-N-US-NAVY-USN-FLIGHT-NURSE-JACKET-UNIFORM-BULLION-WING-/121296923727?hash=item1c3ddc2c4f:g:XGsAAOxyrM5TJslh
p76
aVhttp://www.ebay.com/itm/U-S-N-US-NAVY-USN-FLIGHT-JACKET-UNIFORM-BULLION-AIRCREW-WING-/121296923510?hash=item1c3ddc2b76:g:sMMAAOxydgZTJsk1
p77
aVhttp://www.ebay.com/itm/U-S-N-US-NAVY-USN-FLIGHT-JACKET-UNIFORM-BULLION-COMBAT-AIRCREW-WING-/121296923394?hash=item1c3ddc2b02:g:V24AAOxyrM5TJski
p78
aVhttp://www.ebay.com/itm/U-S-N-US-NAVY-USN-FLIGHT-JACKET-UNIFORM-BULLION-NAVIGATORS-WING-/161251881850?hash=item258b5c737a:g:rkgAAOxydgZTJskS
p79
aVhttp://www.ebay.com/itm/U-S-N-US-NAVY-USN-FLIGHT-JACKET-UNIFORM-BULLION-PILOTS-WING-3-/121296923126?hash=item1c3ddc29f6:g:q7UAAOxydgZTJsjx
p80
aVhttp://www.ebay.com/itm/U-S-N-US-NAVY-USN-FLIGHT-JACKET-UNIFORM-BULLION-PILOTS-WING-1-/161251881362?hash=item258b5c7192:g:rRAAAOxykMpTJsjN
p81
aVhttp://www.ebay.com/itm/WW2-U-S-NAVY-MARINE-CORPS-VMSB-244-G1-JACKET-SQUADRON-PATCH-BOMBING-BANSHEES-/161226263434?hash=item2589d58b8a:g:qZEAAMXQVT9S~6Sy
p82
aVhttp://www.ebay.com/itm/WW2-U-S-NAVY-VO-3-VO3-G1-JACKET-SQUADRON-PATCH-ON-FELT-/121276518360?hash=item1c3ca4cfd8:g:y5YAAMXQlgtS~6PU
p83
aVhttp://www.ebay.com/itm/United-States-Navy-Chiefs-of-Chaplains-The-Chosen-Few-Black-5x3-Flag-/121260656145?hash=item1c3bb2c611:g:WMUAAOxyBvZTWP~y
p84
aVhttp://www.ebay.com/itm/Womens-USN-US-Navy-Hat-with-Cap-Badge-Un-issued-in-Original-Box-/321265528817?epid=872544319&hash=item4acceaeff1:g:SkMAAOxyTjNSnGC4
p85
aVhttp://www.ebay.com/itm/UNITED-STATES-NAVY-USN-SEAL-TEAM-EIGHT-EMBROIDERED-KEY-FOB-/370948301793?hash=item565e3de3e1:g:WukAAOSwAuNW3EHj
p86
aVhttp://www.ebay.com/itm/F-A-18E-Hornet-Fighter-Jet-USN-Strike-US-Navy-Embroidered-Patch-Badge-/121191869568?hash=item1c37992c80:g:9zsAAOxyBXNSVrxv
p87
aVhttp://www.ebay.com/itm/F-A-18E-F-Super-Hornet-Fighter-Jet-United-States-Navy-Embroidered-Badge-Patch-/121183079097?hash=item1c37130ab9:g:kiMAAOxyXHpSQt4B
p88
aVhttp://www.ebay.com/itm/United-States-Navy-Enlisted-Cap-Insignia-Krew-GI-/370853863752?hash=item56589ce148:g:bhAAAOxyV85R4Xis
p89
aVhttp://www.ebay.com/itm/The-United-States-Navy-USN-Blue-Angels-Flight-Demonstration-Sq-5x3-Flag-/380637283266?hash=item589fc003c2:g:f2kAAOxydUJTOX6X
p90
aVhttp://www.ebay.com/itm/The-United-States-Navy-USN-Crest-5x3-Flag-/121106752670?hash=item1c3286649e:g:0fwAAOxybLpRiC69
p91
aVhttp://www.ebay.com/itm/The-United-States-Navy-USN-5x3-Flag-/121106751568?hash=item1c32866050:g:Bw0AAMXQuTNTOW51
p92
aVhttp://www.ebay.com/itm/Iron-On-Patch-Brand-New-Military-Army-Flags-Sergeants-Marines-Air-Command-Star-/321049660801?var=510095285113&hash=item4ac00d0d81:m:mU1d0ek5mA1Gmeo-jyUP6gA
p93
aVhttp://www.ebay.com/itm/United-States-Navy-Reserve-Old-Type-Ribbon-/370215201873?hash=item56328bac51:g:ZTsAAOxy7nNTW9zB
p94
a.