(lp1
Vhttp://www.ebay.com/itm/Tell-Tale-BRAND-NEW-BOOK-by-Mark-Sennen-Paperback-2015-/252719435348?epid=209510362&hash=item3ad7408e54:g:6wIAAOSwopRYde4R
p2
aVhttp://www.ebay.com/itm/AL-WILSON-The-Snake-Show-And-Tell-NEW-NORTHERN-SOUL-45-OUTTA-SIGHT-7-Vinyl-/162574614307?epid=1905883434&hash=item25da33bf23:g:YMMAAOSw1~JZPoGh
p3
aVhttp://www.ebay.com/itm/BKids-B-Kids-Tell-Me-A-Story-Lamp-Baby-Toddler-Children-Musical-Nightligh-/302291708418?epid=1641969875&hash=item4661fd6a02:g:7nkAAOSw3ZRY-nIO
p4
aVhttp://www.ebay.com/itm/Haim-Something-To-Tell-You-NEW-CD-/391820978981?epid=5003422397&hash=item5b3a59ab25:g:A4IAAOSwi8VZR~Xs
p5
aVhttp://www.ebay.com/itm/Can-I-Tell-You-About-Pathological-Demand-Avoidance-Syndrome-A-9781849055130-/232386565809?epid=209383478&hash=item361b5196b1:g:FSEAAOSw1~JZUBOc
p6
aVhttp://www.ebay.com/itm/Only-Time-Will-Tell-BRAND-NEW-BOOK-by-Jeffrey-Archer-Paperback-2011-/252773547909?epid=109221697&hash=item3ada7a3f85:m:mWTRJeSoCDACig4-lW6lZww
p7
aVhttp://www.ebay.com/itm/Rooster-Teflon-Coated-Tell-Tales-Non-Stick-/172349311877?epid=1676055321&hash=item2820d1cb85:g:cb0AAOSwmfhX4dOi
p8
aVhttp://www.ebay.com/itm/Hasbro-Series-1-Yo-Kai-Yokai-Watch-does-not-tell-time-/162366518746?hash=item25cdcc75da:g:RAUAAOSwfRdZLpl8
p9
aVhttp://www.ebay.com/itm/Ralph-Mctell-As-Far-As-I-Can-Tell-NEW-3-x-CD-/351122185727?epid=66696408&hash=item51c0835dff:g:C0oAAOSwKPNTynPL
p10
aVhttp://www.ebay.com/itm/To-My-Boyfriend-When-I-Tell-You-I-Love-You-Cushion-Cover-/172740442848?hash=item283821fae0:g:6EMAAOSwPK1ZSSYk
p11
aVhttp://www.ebay.com/itm/Marti-Webb-Tell-Me-On-A-Sunday-CD-NEW-/302173062200?epid=1404952427&hash=item465aeb0438:g:mtYAAOSwNE5YWtfe
p12
aVhttp://www.ebay.com/itm/Funeral-For-A-Friend-Tales-Dont-Tell-Themselves-2007-CD-New-Sealed-/371918611268?epid=1804940511&hash=item569813a344:g:g98AAOSwrf1ZZlTF
p13
aVhttp://www.ebay.com/itm/Linestorm-Standard-Tell-Tale-Crack-Monitor-for-Crack-Monitoring-Crack-Width-/142038368032?hash=item2112257f20:g:SMcAAOSwrx5UWQD~
p14
aVhttp://www.ebay.com/itm/I-Can-Tell-The-Time-Book-Learn-to-watch-time-Teach-children-to-see-in-clock-/200921456073?epid=113242335&hash=item2ec7da1dc9:g:8HwAAMXQoiJRiRgk
p15
aVhttp://www.ebay.com/itm/Ralph-McTell-As-Far-As-I-Can-Tell-CD-NEW-/302163002675?epid=66696408&hash=item465a518533:g:TEwAAOSw5cNYTGvq
p16
aVhttp://www.ebay.com/itm/Disney-Pirates-of-the-Caribbean-Dead-Men-Tell-No-Tales-Movie-Graphic-Novel-/332263274972?epid=237037677&hash=item4d5c6f39dc:g:mkQAAOSwjvJZQedg
p17
aVhttp://www.ebay.com/itm/To-My-Girlfriend-When-I-Tell-You-I-Love-You-Cushion-Cover-/182628858392?hash=item2a85873a18:g:EO4AAOSwz71ZSR15
p18
aVhttp://www.ebay.com/itm/Go-tell-it-to-the-toucan-CHILDRENS-PICTURE-story-BOOK-NEW-/182546726174?epid=222925051&hash=item2a80a1fd1e:g:fNkAAOSwu-BWOT8d
p19
aVhttp://www.ebay.com/itm/Present-18-Genoa-Tell-Tales-tails-GPTopperCadetLaser-Mirror-by-Lulham-Robinson-/201241824148?hash=item2edaf28b94:g:S18AAOxyTyBSXAoa
p20
aVhttp://www.ebay.com/itm/Jack-Sparrows-Dead-Men-Tell-No-Tales-Salazars-Revenge-Skull-Ring-/172748430685?hash=item28389bdd5d:g:S~oAAOSwwzhZUEao
p21
aVhttp://www.ebay.com/itm/Sincon-Crack-Width-Gauge-for-Crack-Monitoring-for-Crack-Measuring-Tell-Tale-/131860354714?hash=item1eb37d569a:g:7uEAAOSwcwhVL8Dv
p22
aVhttp://www.ebay.com/itm/Guglielmo-Tell-Sanzogno-Benneti-CD-NEW-/302163439696?epid=114575474&hash=item465a583050:g:n4wAAOSw6DtYTTxL
p23
aVhttp://www.ebay.com/itm/SIMON-DREW-LARGE-TOTE-BAG-DONT-TELL-HIM-PIKE-MATCHES-CARD-TEA-TOWEL-NEW-/311750132697?hash=item4895c183d9:g:6~wAAOSwA3dYPE-P
p24
aVhttp://www.ebay.com/itm/8-Silicone-coated-red-rip-stop-nylon-Tell-Tales-by-Lulham-Robinson-Sailing-LR-sa-/200908560141?epid=1462557658&hash=item2ec715570d:m:mi7KjvdOQzGLtpXgiUoR5Sw
p25
aVhttp://www.ebay.com/itm/What-Doctors-Dont-Tell-You-by-Lynne-McTaggart-NEW-/161972685768?epid=92098396&hash=item25b6530bc8:g:i44AAOSwezVWuRfd
p26
aVhttp://www.ebay.com/itm/I-Tell-Bad-Chemistry-Jokes-Funny-Novelty-Gift-Mug-/182342792777?hash=item2a747a3649:g:U-YAAOSwMVdYHImT
p27
aVhttp://www.ebay.com/itm/Fossil-Collective-Tell-Where-I-Lie-NEW-CD-/311006736189?epid=152270025&hash=item4869722f3d:g:w70AAOSwFAZTu7Iy
p28
aVhttp://www.ebay.com/itm/Our-Crime-Was-Being-Jewish-Hundreds-of-Holocaust-Survivors-Tell-9781632206541-/232179715533?epid=213423393&hash=item360efd4dcd:g:YvEAAOSwImRYWBZ0
p29
aVhttp://www.ebay.com/itm/LEARN-TO-TELL-THE-TIME-CLOCK-SHAPED-CHILDRENS-EDUCATIONAL-LEARNING-TOY-ECLO-/311278971269?epid=1123358040&hash=item4879ac2985:g:N6YAAOSw2gxYvWza
p30
aVhttp://www.ebay.com/itm/Prisoners-of-Geography-Ten-Maps-That-Tell-You-Everything-You-Need-to-Know-About-/272375806289?epid=223103686&hash=item3f6adcf951:g:AZMAAOSw4shX2Qqg
p31
aVhttp://www.ebay.com/itm/Taylor-Dayne-Tell-It-to-My-Heart-CD-NEW-/302368140703?epid=209751178&hash=item46668bad9f:g:gU0AAOSwCkZZVnFi
p32
aVhttp://www.ebay.com/itm/Present-18-Genoa-Tell-Tales-tails-GPTopperCadetLaser-Mirror-by-Lulham-Robinson-/191448894475?epid=1462557658&hash=item2c933e4c0b:m:m88rP-KX7O05TsMYqmEfrfw
p33
aVhttp://www.ebay.com/itm/Taylor-Dayne-Tell-It-To-My-Heart-Deluxe-NEW-2CD-/311345610851?epid=2097734306&hash=item487da50063:g:BkkAAOSwstxVOl~V
p34
aVhttp://www.ebay.com/itm/grabmybits-To-Avoid-Injury-Dont-Tell-me-How-to-do-my-Job-Funny-T-Shirt-/201538049308?var=&hash=item2eec9a951c:m:mmEfDIdevwZaDnK8AgYpYzQ
p35
aVhttp://www.ebay.com/itm/RWO-Shroud-Tell-Tales-Pair-/162470419939?hash=item25d3fddde3:g:xmkAAOSw4CFY7cp~
p36
aVhttp://www.ebay.com/itm/Truth-Vs-Falsehood-How-to-Tell-the-Difference-by-David-R-Hawkins-9780971500723-/232353895171?epid=88381166&hash=item36195f1303:g:HAkAAOSwZKBZLTt4
p37
aVhttp://www.ebay.com/itm/I-Lived-to-Tell-It-All-George-Jones-/310688420810?epid=103739186&hash=item48567913ca:m:muesINPvnlmKlAGobJEDHSw
p38
aVhttp://www.ebay.com/itm/Tell-Tails-for-Sailing-Jib-Genoa-Many-Colors-Ist-Class-Post-by-Lulham-Robinson-/192200141037?var=&hash=item2cc00568ed:m:mGyizHoo8tOgj1AASewz4dg
p39
aVhttp://www.ebay.com/itm/New-Funny-Novelty-Joke-FEED-ME-PIZZA-TELL-ME-IM-PRETTY-Printed-T-SHIRT-Tee-/381709672194?var=&hash=item58dfab5f02:m:mHywENp_wbKdtcITFfuvCcA
p40
aVhttp://www.ebay.com/itm/Go-Tell-it-to-the-Toucan-by-Colin-West-Book-New-Paperback-2015-/291993151803?epid=222925051&hash=item43fc25e93b:g:UE4AAOSwoydWqha-
p41
aVhttp://www.ebay.com/itm/The-Top-Ten-Things-Dead-People-Want-To-Tell-You-by-Mike-Dooley-NEW-/161496235696?epid=209410535&hash=item2599ecfeb0:g:jMEAAOSwofxUcxU7
p42
aVhttp://www.ebay.com/itm/The-Tell-Tale-Heart-by-Edgar-Allan-Poe-9780762458615-Paperback-2015-/232275119295?epid=225789382&hash=item3614ad0cbf:g:YGwAAOSw4A5YzSmp
p43
aVhttp://www.ebay.com/itm/Vocaloid-Nendoroid-Miku-Hatsune-Project-Diva-F-Tell-Your-World-Action-Figure-/171945123338?epid=1860340268&hash=item2808ba5e0a:g:uHYAAOSws4JW8YI1
p44
aVhttp://www.ebay.com/itm/Mr-Big-The-Stories-We-Could-Tell-CD-NEW-/302273663008?epid=203453565&hash=item4660ea1020:g:YcgAAOSwA29Y5CeY
p45
aVhttp://www.ebay.com/itm/childrens-TIME-BINGO-game-age-7yrs-BNIB-tell-the-time-learning-resource-/152230887214?hash=item2371aaff2e:g:TN4AAOSwQYZWyiLV
p46
aVhttp://www.ebay.com/itm/The-Dead-Will-Tell-by-Linda-Castillo-BRAND-NEW-BOOK-Paperback-2015-/252968510450?epid=213111871&hash=item3ae61923f2:g:ErsAAOSwB4NWuze-
p47
aVhttp://www.ebay.com/itm/Ally-Carter-Gallagher-Girls-Series-Collection-6-Books-Set-Id-Tell-You-I-Love-Yo-/141990383867?epid=1269219612&hash=item210f4950fb:g:bYQAAOSwvU5XNF4d
p48
aVhttp://www.ebay.com/itm/Childrens-Easyread-Learn-to-Tell-the-Time-Childs-Watch-Grey-/231918401373?epid=1689184246&hash=item35ff69f75d:g:QeIAAOSwYmZXFkBQ
p49
aVhttp://www.ebay.com/itm/Dont-Ever-Tell-Kathys-Story-A-True-Tale-of-a-Childhood-Destroyed-by-/252758513330?epid=89623374&hash=item3ad994d6b2:g:cCEAAOSwX~dWqsa-
p50
aVhttp://www.ebay.com/itm/Linestorm-Corner-Tell-Tale-Crack-Monitor-for-Crack-Monitoring-Crack-Width-/142038368031?hash=item2112257f1f:g:UlcAAOSwaNBUeJ7O
p51
aVhttp://www.ebay.com/itm/SIGNED-HAIM-SOMETHING-TO-TELL-YOU-CD-ALBUM-AUTOGRAPHED-/172780848441?epid=899938369&hash=item283a8a8539:g:ErQAAOSw95FZaStO
p52
aVhttp://www.ebay.com/itm/Tell-Mum-Shes-The-Best-Pink-Silver-Heart-Charm-Bead-Mothers-Day-Gift-/272544561501?hash=item3f74ebf95d:g:6QYAAOSw241YlH0x
p53
aVhttp://www.ebay.com/itm/DANZIG-inspired-Mothers-Day-card-Tell-your-children-not-to-walk-my-way-misfits-/232262072440?hash=item3613e5f878:g:ltcAAOSw~AVYvTsA
p54
aVhttp://www.ebay.com/itm/VINTAGE-TELL-NOBODY-NOT-EVEN-HER-WAR-POSTER-A3-PRINT-/171188951582?hash=item27dba81a1e:g:0S8AAOxygj5SnHyy
p55
aVhttp://www.ebay.com/itm/How-To-Tell-Time-Board-AM-PM-Wine-Glass-Mug-Holder-Gift-Wine-Rack-/292168483859?hash=item4406994413:g:cn0AAOSwEzxYO1oz
p56
aVhttp://www.ebay.com/itm/William-Tell-And-Favourite-Overtures-Cincinnati-Pops-Orch-Kunzel-NEW-CD-/311503011612?epid=114641179&hash=item488706bf1c:g:q3gAAOSwnH1WawYw
p57
aVhttp://www.ebay.com/itm/Pirates-Of-The-Caribbean-Skull-Necklace-Dead-Men-Tell-No-Tales-Johnny-Depp-/222256851404?hash=item33bf8a69cc:g:6pkAAOSw3xJXpk32
p58
aVhttp://www.ebay.com/itm/4-Shroud-Leech-Tell-Tails-by-Lulham-Robinson-L-R-Sails-Mirror-Enterprise-Solo-/200916523532?var=&hash=item2ec78eda0c:m:mLciCAdNyewuQS3odjOVROg
p59
aVhttp://www.ebay.com/itm/Everybody-Lies-What-the-Internet-Can-Tell-Us-About-Who-We-Really-are-/272756538343?epid=238446257&hash=item3f818e7be7:g:yusAAOSwSzFZY1qg
p60
aVhttp://www.ebay.com/itm/EasyRead-Twin-Learn-to-Tell-the-Time-Time-Teaching-Wipe-Clean-Learning-Clock-/331835572145?hash=item4d42f0ffb1:g:WnQAAOSwM0FXISqO
p61
aVhttp://www.ebay.com/itm/Tell-All-My-Friends-CD-/172638851809?hash=item283213d2e1:g:SIcAAOSwaeRZFYo3
p62
aVhttp://www.ebay.com/itm/Pirates-Of-The-Caribbean-Skull-Necklace-Dead-Men-Tell-No-Tales-Johnny-Depp-/222256851404?hash=item33bf8a69cc:g:6pkAAOSw3xJXpk32
p63
aVhttp://www.ebay.com/itm/Ghost-of-Will-Turner-Pirates-of-the-Caribbean-Dead-Men-Tell-No-Tales-Funko-/371954693589?epid=864337663&hash=item569a3a35d5:g:lp4AAOSwrhBZHeMM
p64
aVhttp://www.ebay.com/itm/VINTAGE-TELL-NOBODY-NOT-EVEN-HER-WAR-POSTER-A4-PRINT-/181273817728?epid=1731501298&hash=item2a34c2f280:g:0S8AAOxygj5SnHyy
p65
aVhttp://www.ebay.com/itm/The-Tell-Tale-Heart-New-Dawson-Jill-Book-/302070818765?epid=209302751&hash=item4654d2e7cd:g:k0AAAOSwxg5X1qlY
p66
aVhttp://www.ebay.com/itm/Tell-Me-its-Not-True-Ken-McCoy-/132174563539?epid=233791800&hash=item1ec637c8d3:g:ccwAAOSwjL5ZA7II
p67
aVhttp://www.ebay.com/itm/Billie-Davis-Tell-Him-The-Decca-Years-NEW-CD-/311006742616?epid=44995277&hash=item4869724858:g:HkwAAOSw7I5Tu7Tj
p68
aVhttp://www.ebay.com/itm/Can-I-Tell-You-a-Secret-Kang-Anna-Paperback-Book-9781444926439-NEW-/132107619452?epid=231225490&hash=item1ec23a4c7c:g:WAgAAOSwax5YsYp3
p69
aVhttp://www.ebay.com/itm/VINTAGE-TELL-NOBODY-NOT-EVEN-HER-WAR-POSTER-A3-PRINT-/171188951582?hash=item27dba81a1e:g:0S8AAOxygj5SnHyy
p70
aVhttp://www.ebay.com/itm/2-x-D12-Jumbo-Tell-the-Time-Dice-12-Twelve-Sided-Learning-About-Time-D033-/222031476319?hash=item33b21b765f:g:VmYAAOSwVFlUBg3a
p71
aVhttp://www.ebay.com/itm/8-Silicone-coated-rip-stop-nylon-Tell-Tales-for-Sailing-/190814830582?epid=1462557005&hash=item2c6d733ff6:m:m8xIkjQ0eLMrg0VT0s6_Sqw
p72
a.