(lp1
Vhttp://www.ebay.com/itm/SNAKEBITE-AND-BLACK-RETRO-PUB-BAR-CLUB-MAN-SHED-HOME-BAR-METAL-SIGN-PLAQUE-GIFT-/311901579321?hash=item489ec86839:g:FEUAAOSwbiFZS9Sq
p2
aVhttp://www.ebay.com/itm/VOODOO-30ml-E-Liquid-80VG-20PG-SUB-OHM-/282537469389?var=&hash=item41c88ba5cd:m:mp5mi9n134JxIuLbhI7fagw
p3
aVhttp://www.ebay.com/itm/UK-Retailer-Caline-CP-26-Snake-Bite-Reverb-Guitar-Effects-Pedal-/332262227215?epid=693959155&hash=item4d5c5f3d0f:g:1s4AAOSwbtVZVSGX
p4
aVhttp://www.ebay.com/itm/Snakes-and-Snake-Bite-in-Southern-Africa-Nature-Gui-Marais-Johan-Paperback-/302345398969?epid=91894206&hash=item466530aab9:m:mV9m-16G-Nj0BCkAtz5ONkA
p5
aVhttp://www.ebay.com/itm/JACK-A-CAVO-CHITARRA-STRUMENTO-PIOMBO-TS-elettrica-basso-tastiera-0-6cm-Mono-/292141091660?var=&hash=item4404f74b4c:m:mRxBZnroALjHcVxw62luoow
p6
aVhttp://www.ebay.com/itm/Snakebite-DESTRO-Angolato-MIDI-Cavo-5-PERNO-din-SCHERMATO-PIOMBO-COMPUTER-/302340712501?var=&hash=item4664e92835:m:mNa61RIK-7yaftVclX1eZ5w
p7
aVhttp://www.ebay.com/itm/Motorhead-Snakebite-Love-UK-IMPORT-CD-NEW-/132213336563?epid=1500234898&hash=item1ec88769f3:g:24MAAOSw-K9ZMZUD
p8
aVhttp://www.ebay.com/itm/ECKO-UNLTD-MENS-SNAKEBITE-FZ-ANTHRACITE-HOODIE-HOODY-RRP-63-SAVE-68-OFF-/152566530805?var=&epid=929665565&hash=item2385ac82f5:m:m_-aNsZ6aX99zzKppXJVUPA
p9
aVhttp://www.ebay.com/itm/3-x-Sets-Peter-Wright-Dart-Flights-Snakebite-Flights-Purple-Yellow-Flights-/162520956514?hash=item25d700fe62:g:7skAAOSwxu5ZHgtr
p10
aVhttp://www.ebay.com/itm/Gilbert-Randoms-Rugby-Ball-Snakebite-/132168312172?var=&hash=item1ec5d8656c:m:mtaA-N-4tESeiT406fJ1raQ
p11
aVhttp://www.ebay.com/itm/2-SETS-OF-SNAKEBITE-PETER-WRIGHT-DART-FLIGHTS-/272635838985?hash=item3f7a5cc209:g:JCwAAOSwCQNWdxBS
p12
aVhttp://www.ebay.com/itm/Dart-Red-Dragon-Peter-Wright-Snakebite-22g-Brass-Darts-Flights-Shafts-Case-/182531181913?epid=577029087&hash=item2a7fb4cd59:g:lMMAAOSwAANY8dqH
p13
aVhttp://www.ebay.com/itm/Red-Dragon-Peter-Wright-Snakebite-22g-Brass-Darts-with-Flights-Shafts-/272603172574?epid=577029087&hash=item3f786a4ede:g:URsAAOSwax5Y1S15
p14
aVhttp://www.ebay.com/itm/Liveseeds-Chilli-Pepper-Nepal-Snakebite-10-Seeds-Unusual-/172574907104?hash=item282e441ae0:g:n~IAAOSwCU1Yx5hz
p15
aVhttp://www.ebay.com/itm/Vintage-Citadel-Rogue-Trader-40K-Space-Ork-Snakebite-Banner-Pole-A-oop-/132119911704?hash=item1ec2f5dd18:g:8wsAAOSwol5YwFm8
p16
aVhttp://www.ebay.com/itm/Motorhead-Snake-Bite-Love-LP-Official-2016-17-SPV-Re-issue-CD-Edition-NEW-/182477758400?epid=1234484870&hash=item2a7c859fc0:g:-JMAAOSw32lYvDRP
p17
aVhttp://www.ebay.com/itm/Red-Dragon-Peter-Wright-Snakebite-22g-Brass-Darts-With-Flights-Shafts-Case-/222417411536?epid=577029087&hash=item33c91c5dd0:g:7soAAOSwCU1YrL4h
p18
aVhttp://www.ebay.com/itm/Santa-Cruz-Snakebite-Tee-Bleach-Black-Size-Adult-Large-SALE-/201788957310?var=&epid=1142047484&hash=item2efb8f227e:m:mQZ3UyUeRkHsGlQfof-32ig
p19
aVhttp://www.ebay.com/itm/Red-Dragon-Peter-Wright-Snakebite-22g-Brass-Darts-with-Flights-Shafts-Case-/282328415158?epid=1669359687&hash=item41bc15bbb6:g:lJ0AAOSw4DJYfU74
p20
aVhttp://www.ebay.com/itm/Red-Dragon-Peter-Wright-Snakebite-22g-Brass-Pro-Darts-Flights-Shafts-Case-NEW-/112271085789?epid=1669359687&hash=item1a23e0d0dd:g:~44AAOSwnHZYfMbx
p21
aVhttp://www.ebay.com/itm/6-Mono-Rechts-Gewinkelt-Klinkenstecker-Patch-kabel-Gitarreneffekte-FX-Pedal-/291998635874?var=&hash=item43fc799762:m:mfqd4Tnf6oPviKdQ40rkFOA
p22
aVhttp://www.ebay.com/itm/Red-Dragon-Peter-Wright-Snakebite-22g-Brass-Darts-with-Flights-Shafts-Case-/222375107846?epid=1669359687&hash=item33c696dd06:g:HzcAAOSwo4pYdq78
p23
aVhttp://www.ebay.com/itm/Red-Dragon-Peter-Wright-Snakebite-22g-Brass-Darts-With-Flights-Shafts-Case-/201781134106?epid=1669359687&hash=item2efb17c31a:g:mvIAAOSwt5hYdpB6
p24
aVhttp://www.ebay.com/itm/Snakebite-rechts-gewinkelt-MIDI-kabel-5-polig-DIN-Abgeschirmtes-computer-synth-/122307410394?var=&hash=item1c7a16f9da:m:mNa61RIK-7yaftVclX1eZ5w
p25
aVhttp://www.ebay.com/itm/Snakebite-a-angle-droit-MIDI-cable-5-broches-DIN-blinde-cable-ordinateur-synthe-/291997241858?var=&hash=item43fc645202:m:mNa61RIK-7yaftVclX1eZ5w
p26
aVhttp://www.ebay.com/itm/Snakebite-Droit-a-coude-MIDI-cable-5-broches-DIN-blinde-cable-ordinateur-synthe-/291992295428?var=&hash=item43fc18d804:m:muqT50LJVgtPrt7rdd28gSg
p27
aVhttp://www.ebay.com/itm/Snakebite-right-angled-MIDI-Cable-5-pin-DIN-Shielded-lead-computer-synth-/291990217242?var=&hash=item43fbf9221a:m:mNa61RIK-7yaftVclX1eZ5w
p28
aVhttp://www.ebay.com/itm/Red-Dragon-Darts-22g-Snakebite-Professional-Brass-Darts-Set-of-3-/112255507317?hash=item1a22f31b75:g:ke4AAOSwjDZYaWOX
p29
aVhttp://www.ebay.com/itm/CHITARRA-CAVO-PER-STRUMENTI-0-6cm-jack-guaina-trasparente-tastiera-mono-TS-/302175425041?var=&hash=item465b0f1211:m:mvExLHPO35GlIlTxdHzABZA
p30
aVhttp://www.ebay.com/itm/Snake-Bite-Co-THE-MAMBA-Bartending-Tool-and-Bar-Blade-Bottle-Opener-/192059117475?epid=1186945515&hash=item2cb79d8fa3:g:hYUAAOSw4shX4-il
p31
aVhttp://www.ebay.com/itm/1-4-JACK-to-JACK-CABLE-Fabric-Braid-Guitar-Lead-TS-mono-retro-keyboard-vintage-/291977438040?var=&epid=1855393974&hash=item43fb362358:m:mj2zdlMrAmEGDvXE0xqDwxg
p32
aVhttp://www.ebay.com/itm/6-Mono-Ad-Angolo-Retto-Jack-Patch-Cavi-pedale-per-effetti-FX-chitarra-cavi-/291974707391?var=&hash=item43fb0c78bf:m:mfqd4Tnf6oPviKdQ40rkFOA
p33
aVhttp://www.ebay.com/itm/Snakebite-Direttamente-in-Angolato-MIDI-Cavo-5-pin-DIN-Schermato-piombo-/302166911071?var=&hash=item465a8d285f:m:muqT50LJVgtPrt7rdd28gSg
p34
aVhttp://www.ebay.com/itm/JACK-to-JACK-CABLE-Fabric-Braid-Guitar-keyboard-Lead-1-4-connector-TS-mono-/291970887284?var=&epid=1955367404&hash=item43fad22e74:m:mMbDFo4mHcXNJzDZaVrLY3Q
p35
aVhttp://www.ebay.com/itm/6-Mono-Right-Angled-Jack-Patch-cables-Guitar-effects-FX-Pedal-Leads-Studio-cord-/291970181032?var=&hash=item43fac767a8:m:mfqd4Tnf6oPviKdQ40rkFOA
p36
aVhttp://www.ebay.com/itm/XLR-Male-to-Female-Mic-Cable-Transparent-Sleeve-audio-lead-microphone-balanced-/122267086432?var=&epid=1856413229&hash=item1c77afae60:m:m1o-3HCsRLnOfvc_DKazxAw
p37
aVhttp://www.ebay.com/itm/1-4-JACK-to-JACK-CABLE-balanced-Stereo-TRS-Audio-lead-patch-guitar-instrument-/291970180878?var=&hash=item43fac7670e:m:mL0FGbwJrIUk5fzoOg25R_g
p38
aVhttp://www.ebay.com/itm/Retro-Fabric-Balanced-1-4-Jack-Cable-TRS-Stereo-Audio-lead-stereo-cloth-vintage-/302164459280?var=&hash=item465a67bf10:m:mB-kw5ILq-Fj1K1bnLSyiFw
p39
aVhttp://www.ebay.com/itm/Snakebite-MIDI-Cable-5-pin-DIN-Shielded-lead-straight-connectors-computer-synth-/291970163520?var=&hash=item43fac72340:m:m_UTtizbMYKMhDP-wQe7Buw
p40
aVhttp://www.ebay.com/itm/Snakebite-Straight-to-Angled-MIDI-Cable-5-pin-DIN-Shielded-lead-computer-synth-/122267056109?var=&hash=item1c77af37ed:m:muqT50LJVgtPrt7rdd28gSg
p41
aVhttp://www.ebay.com/itm/JB-Operation-Snakebite-The-Explosive-True-Story-of-an-Afghan-Desert-Siege-Steph-/192048822676?epid=91366484&hash=item2cb7007994:g:UXgAAOSw5cNYSl3w
p42
aVhttp://www.ebay.com/itm/0-6cm-STECKER-ANSCHLUSS-gerade-mono-stereo-6-35-mm-klinkenstecker-gitarrenkabel-/302158724243?var=&hash=item465a103c93:m:m9fYSy5pT9YzbyzPb9PuQHA
p43
aVhttp://www.ebay.com/itm/Red-Dragon-Peter-Wright-Snakebite-22g-Brass-Darts-with-Flights-Shafts-Case-/302150721086?epid=1669359687&hash=item4659961e3e:g:kssAAOSw44BYO0-i
p44
aVhttp://www.ebay.com/itm/Caline-CP-26-Snake-Bite-Reverb-Pedal-/262664722079?epid=693959155&hash=item3d2809969f:g:H1kAAOSwNRdX-Qmz
p45
aVhttp://www.ebay.com/itm/Peter-Wright-Snakebite-Accessory-Pack-with-Red-Dragon-Checkout-Card-/322282971804?hash=item4b098fe29c:g:m3IAAOSwCGVX8~wK
p46
aVhttp://www.ebay.com/itm/21g-25g-Tungsten-Darts-Peter-Wright-Flights-Snakebite-Flights-90-Tungsten-/152235864224?var=&hash=item2371f6f0a0:m:mRK8CHaPRR_HspUogiaypXA
p47
aVhttp://www.ebay.com/itm/IRON-FIST-snake-bite-s-s-tee-/162165781083?var=&hash=item25c1d5725b:m:mD3t5trfNUmB90rkMLaslww
p48
aVhttp://www.ebay.com/itm/MARAIS-JOHAN-SNAKES-SNAKEBITE-IN-S-AFRICA-BOOK-NEW-/302035077226?epid=208916093&hash=item4652b1886a:g:uZIAAOSwZVlXpzbY
p49
aVhttp://www.ebay.com/itm/Vegetable-Pepper-Chilli-Nepal-Snakebite-10-Seeds-/331927459242?hash=item4d486b15aa:g:iG8AAOxyBotTYB6x
p50
aVhttp://www.ebay.com/itm/Snakebite-Whiskey-Mens-Fashion-T-Shirt-Biker-Whisky-Rock-Tattoo-Punk-Motorbike-/361643970823?var=&hash=item5433a91107:m:mQwM2UPSLXvNQctTaVLKOoA
p51
aVhttp://www.ebay.com/itm/Young-Sherlock-Holmes-5-Snake-Bite-Lane-Andrew-Good-Book-/182190145465?epid=152631390&hash=item2a6b60ffb9:g:N4UAAOSwOVpXdUJo
p52
aVhttp://www.ebay.com/itm/Young-Sherlock-Holmes-5-Snake-Bite-By-Andrew-Lane-/201608819130?epid=195243372&hash=item2ef0d271ba:g:Z7YAAOSwGIRXafeb
p53
aVhttp://www.ebay.com/itm/Snake-Bite-In-Search-Of-The-King-Cobra-DVD-/121999533006?epid=44812620&hash=item1c67bd23ce:g:jdoAAOSwR5dXSYtV
p54
aVhttp://www.ebay.com/itm/PETER-WRIGHT-SNAKEBITE-BRASS-DARTS-SET-Red-Dragon-Dart-Stems-Flights-Case-22g-/301955587017?epid=1669359687&hash=item464df49bc9:g:i3EAAOSwN81XNZKP
p55
aVhttp://www.ebay.com/itm/SNAKE-BITE-WHISKEY-JACK-DANIELS-JIM-BEAM-ALCOHOL-BAR-PUP-DRINKING-T-SHIRT-/172192107294?var=&hash=item2817730b1e:m:m_JDGme2f2LP-tvSeD9NYqQ
p56
aVhttp://www.ebay.com/itm/FEMALE-MALE-XLR-CONNECTORS-SETS-3-pin-straight-plug-microphone-mic-cable-lead-/121975458749?var=&hash=item1c664dcbbd:m:mqQ4T4ceCP0wqW4deXgjG2A
p57
aVhttp://www.ebay.com/itm/Snake-Bite-Anaconda-DVD-/301940599104?epid=44828387&hash=item464d0fe940:g:dJAAAOSw3mpXHw7j
p58
aVhttp://www.ebay.com/itm/PETER-WRIGHT-SNAKEBITE-ACCESSORY-PACK-Flights-shafts-many-accessories-/291725128638?hash=item43ec2c33be:g:BUUAAOSwBnVW~QL0
p59
aVhttp://www.ebay.com/itm/PETER-WRIGHT-SNAKEBITE-DARTS-SETS-Red-Dragon-Dart-Stems-Flights-Case-19-26g-/301913879303?var=&epid=1512674753&hash=item464b783307:m:mUXjS0IumN4gr-OXSGfVDWQ
p60
aVhttp://www.ebay.com/itm/PETER-WRIGHT-SNAKEBITE-DART-FLIGHTS-ALL-DESIGNS-100-Red-Dragon-/301901807782?var=&hash=item464ac000a6:m:msGIRwmYB8BQeowOFOofF6Q
p61
aVhttp://www.ebay.com/itm/XLR-CONNECTORS-Female-Male-3-pin-straight-plug-audio-microphone-mic-cable-lead-/301892983579?var=&hash=item464a395b1b:m:mqQ4T4ceCP0wqW4deXgjG2A
p62
aVhttp://www.ebay.com/itm/1-4-JACK-CONNECTOR-straight-mono-stereo-6-35mm-plug-guitar-cable-TS-TRS-audio-/301892893237?var=&hash=item464a37fa35:m:m9fYSy5pT9YzbyzPb9PuQHA
p63
aVhttp://www.ebay.com/itm/Operation-Snakebite-The-Explosive-True-Story-of-an-A-Grey-Stephen-Hardback-/141920343789?epid=91366484&hash=item210b1c96ed:g:fSIAAOSw44BYeoNb
p64
aVhttp://www.ebay.com/itm/Young-Sherlock-Holmes-5-Snake-Bite-By-Andrew-Lane-9780230758865-/381560414169?epid=117592813&hash=item58d6c5dfd9:g:6CUAAOSwPc9W2FQs
p65
aVhttp://www.ebay.com/itm/Operation-Snakebite-The-Explosive-True-Story-of-an-Afghan-Desert-Siege-Stephen-/331780647602?epid=90315313&hash=item4d3faaeab2:g:lT0AAOSwWTRWxIMy
p66
aVhttp://www.ebay.com/itm/3-x-Sets-Peter-Wright-Dart-Flights-Snakebite-Flights-Peter-Wright-Snakebite-/161969525424?var=&hash=item25b622d2b0:m:maijPTD3QPweudH4YI8HDFA
p67
aVhttp://www.ebay.com/itm/4-x-Sets-Peter-Wright-Dart-Flights-Snakebite-Flights-Mixed-Wright-Dart-Flights-/151974533103?hash=item23626357ef:g:U4UAAOSwoydWtNfF
p68
aVhttp://www.ebay.com/itm/Snakebite-Sonnet-By-Max-Phillips-9780349109336-/172062655416?epid=104886195&hash=item280fbbc3b8:g:BbIAAOSwHaBWmA4a
p69
aVhttp://www.ebay.com/itm/PETER-WRIGHT-SNAKEBITE-OFFICIAL-DARTS-PRACTICE-RINGS-Red-Dragon-Checkout-Card-/291659120351?hash=item43e83cfedf:g:OKMAAOSwMORW77eT
p70
aVhttp://www.ebay.com/itm/Peter-Wright-Darts-Set-Snakebite-Flights-Peter-Wright-Dart-Flights-/161939245548?hash=item25b454c9ec:g:J-cAAOSwaA5WjXdM
p71
aVhttp://www.ebay.com/itm/Peter-Wright-Snakebite-Dart-Flights-Small-White-Nylon-Plus-Shafts-Peter-Wright-/161934942540?hash=item25b413214c:g:sOoAAOSwHaBWhrlk
p72
aVhttp://www.ebay.com/itm/Operation-Snakebite-The-Explosive-True-Story-of-an-Afghan-Dese-9780670917860-/201491267220?epid=96492964&hash=item2ee9d0be94:g:41wAAOSwSdZWfZwi
p73
aVhttp://www.ebay.com/itm/20g-Darts-Peter-Wright-Snakebite-Flights-Nylon-Plus-Shafts-Peter-Wright-/151924466495?hash=item235f67633f:g:M3AAAOSwSdZWeWEb
p74
aVhttp://www.ebay.com/itm/Motorhead-Snakebite-Love-CD-1998-/381497400760?epid=3966281&hash=item58d3045db8:g:nKYAAOSwA3dYkcqU
p75
aVhttp://www.ebay.com/itm/Professional-Instrument-Guitar-Cable-Lead-Jack-to-Jack-TS-electric-bass-keyboard-/301829201518?var=&hash=item46466c1e6e:m:mhWoaM59WJNOt6DLqd76jbw
p76
aVhttp://www.ebay.com/itm/Snake-Bite-The-Beauty-of-Snakes-DVD-2005-/301823805259?epid=44828397&hash=item464619c74b:g:v-QAAOSw2xRYkP~1
p77
aVhttp://www.ebay.com/itm/Snake-Bite-Cobra-the-King-of-Snakes-DVD-2005-/291637223970?epid=44821441&hash=item43e6eee222:g:8CwAAOSw9GhYkQGZ
p78
aVhttp://www.ebay.com/itm/Andrew-Lanes-Young-Sherlock-Holmes-Collection-2-Books-Fire-Storm-Snake-Bite-/151893074981?hash=item235d886425:g:1qUAAOSwf-VWUvXt
p79
aVhttp://www.ebay.com/itm/20g-Black-Barrel-Darts-Peter-Wright-Snakebite-Flights-Unicorn-Shafts-/161881097820?hash=item25b0dd865c:g:4sQAAOSw9mFWHnuA
p80
aVhttp://www.ebay.com/itm/Willie-Dixon-Muddy-Waters-Python-Snakebite-III-3-2009-CD-NEW-SEALED-/231722669692?epid=78954614&hash=item35f3bf567c:g:AA0AAOSwbqpT6~VX
p81
aVhttp://www.ebay.com/itm/Snake-Bite-In-Search-of-the-King-Cobra-DVD-2005-Austin-Stevens-/291590575550?epid=44812620&hash=item43e42715be:g:9BMAAOSw9GhYkQGw
p82
aVhttp://www.ebay.com/itm/PROFESSIONAL-FEMALE-to-MALE-XLR-CABLE-mic-microphone-lead-OFC-3-PIN-Balanced-/301768164216?var=&epid=1757109303&hash=item4642c8c378:m:mM6t5eYg1uKou5j4a7in21A
p83
aVhttp://www.ebay.com/itm/GUITAR-INSTRUMENT-CABLE-1-4-jack-lead-transparent-sleeve-keyboard-mono-TS-/121786913994?var=&hash=item1c5b10d4ca:m:m3S9Mz1UahrJd3cjvbqfxtw
p84
aVhttp://www.ebay.com/itm/1-4-JACK-CABLE-instrument-guitar-lead-transparent-sleeve-electric-bass-keyboard-/121786855467?var=&hash=item1c5b0ff02b:m:mF4Mq4ekEM3dHBGYLUQf1dQ
p85
aVhttp://www.ebay.com/itm/PETER-WRIGHT-SNAKEBITE-TUNGSTEN-DARTS-SET-Dart-Stems-Flights-Case-22-26g-/291587786475?var=&epid=1563918786&hash=item43e3fc86eb:m:mCjtJWvJGSh7ziJBNUOtyiw
p86
aVhttp://www.ebay.com/itm/Various-Snakebite-City-4-CD-/301747022252?epid=1706284521&hash=item46418629ac:g:AqEAAOSwu4BV3CVW
p87
aVhttp://www.ebay.com/itm/SNAKEBITE-II-COBRA-BUDDY-GUY-OTIS-RUSH-IKE-TURNER-MORE-2CDs-New-Sealed-/281801976099?hash=item419cb4e923:g:WbYAAOSwHjNV-eOo
p88
aVhttp://www.ebay.com/itm/BUDDY-GUY-JUNIOR-WELLS-VIPER-SNAKEBITE-V-New-Sealed-CD-Blues-/281801918005?epid=84988339&hash=item419cb40635:g:ouoAAOSwFnFV-dRC
p89
aVhttp://www.ebay.com/itm/Snake-Bite-Sea-Serpents-DVD-2005-/381398586226?epid=44824768&hash=item58cd209372:g:SloAAOSw-0xYkQNB
p90
aVhttp://www.ebay.com/itm/Various-Snakebite-City-5-CD-/301737405818?epid=30643386&hash=item4640f36d7a:g:RMoAAOSwLqFV8hbf
p91
aVhttp://www.ebay.com/itm/Snakebite-Bit-Goes-on-CD-/301660093989?epid=1505577310&hash=item463c57be25:g:YJwAAOSwBLlVZ7XA
p92
aVhttp://www.ebay.com/itm/Mungo-Jerry-Snake-Bite-CD-/381279719326?hash=item58c60acf9e:g:NF8AAOSwKrhVa73a
p93
aVhttp://www.ebay.com/itm/Various-Snakebite-City-Vol-8-CD-/301648354197?epid=30633553&hash=item463ba49b95:g:dKcAAOSwpDdVaSPw
p94
aVhttp://www.ebay.com/itm/3-V-Fly-Size-12-Ultimate-Rio-Grande-Diamond-Olive-Snake-Bite-Sea-Trout-Flies-/121567988897?hash=item1c4e044ca1:g:MTkAAOxyyF5RJkbX
p95
aVhttp://www.ebay.com/itm/Various-Snakebite-City-9-2000-Limited-Edition-CD-/381133868123?hash=item58bd594c5b:g:u94AAOSwCypWplBP
p96
aVhttp://www.ebay.com/itm/2-X-Total-Carp-Snake-Bite-Margin-Rig-Size-6-Barbless-To-15lb-Kyrston-Free-P-P-/321592089987?hash=item4ae061dd83:g:fBUAAOSwAL9UbbtK
p97
aVhttp://www.ebay.com/itm/Snake-Bite-The-Ultimate-Guide-To-Snakes-DVD-Region-2-/400805096872?hash=item5d51d86da8:g:p78AAOSw5dNWpk6y
p98
aVhttp://www.ebay.com/itm/3-Vainers-Ultimate-Rio-Grande-Diamond-White-Snake-Bite-SeaTrout-Flies-Size-12-/400793843907?hash=item5d512cb8c3:g:v38AAMXQlUNRJkXe
p99
aVhttp://www.ebay.com/itm/Vegetable-Pepper-Chilli-Nepal-Snakebite-50-Seeds-/361069751961?hash=item54116f2e99:g:FbAAAOxyHIlTYW2q
p100
aVhttp://www.ebay.com/itm/JACK-to-JACK-CABLE-guitar-Instrument-lead-TS-electric-bass-keyboard-1-4-mono-/121450433758?var=&hash=item1c47028cde:m:mw6BkK3rkVhLCHtzDSaE-dg
p101
aVhttp://www.ebay.com/itm/Vegetable-Pepper-Chilli-Nepal-Snakebite-100-Seeds-Bulk-/331331489647?hash=item4d24e54f6f:g:q1gAAOxyYANTYB6c
p102
aVhttp://www.ebay.com/itm/3-V-Fly-Size-12-Ultimate-Rio-Grande-Diamond-White-Snake-Bite-SeaTrout-Flies-/121427019486?hash=item1c459d46de:g:v38AAMXQlUNRJkXe
p103
aVhttp://www.ebay.com/itm/Motorhead-Snake-Bite-Love-NEW-CD-/390895320645?epid=3966281&hash=item5b032d3e45:g:AkYAAOSwEK9T06bB
p104
aVhttp://www.ebay.com/itm/Various-Snakebite-City-9-CD-/301243698837?epid=30624854&hash=item4623860e95:g:i~YAAOSweW5Veo6q
p105
aVhttp://www.ebay.com/itm/Snake-Bite-Rattlesnakes-DVD-2005-/291190942371?epid=44824106&hash=item43cc552aa3:g:3TQAAOSw241YkQWy
p106
aVhttp://www.ebay.com/itm/Doctor-Who-Snake-Bite-11th-Doctor-Audio-Original-by-Handcock-Scott-/181326797293?epid=129217002&hash=item2a37eb59ed:g:P4MAAOSwyZ5UmGrU
p107
aVhttp://www.ebay.com/itm/PROFESSIONAL-FEMALE-XLR-to-1-4-JACK-CABLE-mic-microphone-lead-OFC-patch-mono-/301032304044?var=&epid=1458462236&hash=item4616ec6dac:m:m7yLW-gInZDK8xaf-XvOTRQ
p108
aVhttp://www.ebay.com/itm/WARHAMMER-EPIC-40K-ORK-BOYZ-AND-BIKES-/151024752493?var=&hash=item2329c6d76d:m:mfNLPm06E4HEgd7IjGQl8pg
p109
aVhttp://www.ebay.com/itm/SNAKEBITE-Gone-In-A-Flash-CD-Teddyboy-Rock-n-Roll-Wild-Bob-Burgos-Rockabilly-/190770401824?epid=30611747&hash=item2c6acd5220:m:mZbxxR2bRIqHa7RV-Uei4cw
p110
aVhttp://www.ebay.com/itm/PRO-STERILE-1-2mm-Blade-Needle-Body-Piercing-Kit-Choose-Piercing-Jewellery-/330837650057?var=&hash=item4d0775ea89:m:mrcrkcK_aaykXcTvv1zVzLA
p111
aVhttp://www.ebay.com/itm/STERILE-BASIC-1-2mm-Blade-Needle-Body-Piercing-Kit-Choose-Piercing-Jewellery-/370702218288?var=&hash=item564f92f430:m:mLwOl4nt_6cET7Fgho_6dPg
p112
aVhttp://www.ebay.com/itm/ONE-INDUSTRIES-KIDS-YOUTH-T-SHIRT-SNAKE-BITE-TEE-JET-BLACK-boys-motocross-mx-/300814689960?var=&hash=item4609f3e6a8:m:mAPLTVdFG8ziG21DFewBjpg
p113
aVhttp://www.ebay.com/itm/XLR-FEMALE-to-1-4-JACK-CABLE-transparent-sleeve-audio-lead-microphone-mic-3-pin-/290761317072?var=&epid=1857085891&hash=item43b2b99ad0:m:mFVgJswgMKpnOM5mgXGXnFA
p114
aVhttp://www.ebay.com/itm/STERILE-BASIC-Blade-Needle-Body-Piercing-Kit-Choose-Piercing-Jewellery-UK-/370631407331?var=&hash=item564b5a76e3:m:ml2WqIpv_xgiWdKjXmCdX-A
p115
aVhttp://www.ebay.com/itm/PRO-STERILE-CANNULA-Needle-Piercing-Kit-Choose-Piercing-Jewellery-uk-Seller-/320946217642?var=&hash=item4ab9e2a2aa:m:m80i0bm-yQd6NSV8aTbOB_w
p116
aVhttp://www.ebay.com/itm/PRO-STERILE-Blade-Needle-Piercing-Kit-Choose-Piercing-Jewellery-uk-Seller-/370630646053?var=&hash=item564b4ed925:m:m2VPxQBxlDaVCrV2pxY9ndQ
p117
aVhttp://www.ebay.com/itm/KRYSTON-BRAID-HOOK-LENGTH-SNAKE-MANTIS-MERLIN-JACKAL-SILKWORM-NOVA-QUICKSILVER-/140644949332?var=&hash=item20bf179d54:m:mBYaVNH9fS4GxSMD17ejXUg
p118
aVhttp://www.ebay.com/itm/Brand-New-Kryston-Snake-Bite-or-Snake-Bite-Gold-/290550469673?var=&hash=item43a6285429:m:m7Eu24rY4GL_H2MZF6UP_PQ
p119
aVhttp://www.ebay.com/itm/SNAKEBITE-DOUBLE-LIP-PIERCING-KIT-DVD-CLAMPS-TITANIUM-/230516674456?hash=item35abdd4f98:g:ZQYAAOSw1DtXGg1M
p120
aVhttp://www.ebay.com/itm/3-V-Fly-Size-12-Ultimate-Rio-Grande-Diamond-Olive-Snake-Bite-Sea-Trout-Flies-/121567988897?hash=item1c4e044ca1:g:MTkAAOxyyF5RJkbX
p121
aVhttp://www.ebay.com/itm/Various-Snakebite-City-9-2000-Limited-Edition-CD-/381133868123?hash=item58bd594c5b:g:u94AAOSwCypWplBP
p122
aVhttp://www.ebay.com/itm/2-X-Total-Carp-Snake-Bite-Margin-Rig-Size-6-Barbless-To-15lb-Kyrston-Free-P-P-/321592089987?hash=item4ae061dd83:g:fBUAAOSwAL9UbbtK
p123
aVhttp://www.ebay.com/itm/Snake-Bite-The-Ultimate-Guide-To-Snakes-DVD-Region-2-/400805096872?hash=item5d51d86da8:g:p78AAOSw5dNWpk6y
p124
aVhttp://www.ebay.com/itm/3-Vainers-Ultimate-Rio-Grande-Diamond-White-Snake-Bite-SeaTrout-Flies-Size-12-/400793843907?hash=item5d512cb8c3:g:v38AAMXQlUNRJkXe
p125
aVhttp://www.ebay.com/itm/Vegetable-Pepper-Chilli-Nepal-Snakebite-50-Seeds-/361069751961?hash=item54116f2e99:g:FbAAAOxyHIlTYW2q
p126
aVhttp://www.ebay.com/itm/JACK-to-JACK-CABLE-guitar-Instrument-lead-TS-electric-bass-keyboard-1-4-mono-/121450433758?var=&hash=item1c47028cde:m:mw6BkK3rkVhLCHtzDSaE-dg
p127
aVhttp://www.ebay.com/itm/Vegetable-Pepper-Chilli-Nepal-Snakebite-100-Seeds-Bulk-/331331489647?hash=item4d24e54f6f:g:q1gAAOxyYANTYB6c
p128
aVhttp://www.ebay.com/itm/3-V-Fly-Size-12-Ultimate-Rio-Grande-Diamond-White-Snake-Bite-SeaTrout-Flies-/121427019486?hash=item1c459d46de:g:v38AAMXQlUNRJkXe
p129
aVhttp://www.ebay.com/itm/Motorhead-Snake-Bite-Love-NEW-CD-/390895320645?epid=3966281&hash=item5b032d3e45:g:AkYAAOSwEK9T06bB
p130
aVhttp://www.ebay.com/itm/Various-Snakebite-City-9-CD-/301243698837?epid=30624854&hash=item4623860e95:g:i~YAAOSweW5Veo6q
p131
aVhttp://www.ebay.com/itm/Snake-Bite-Rattlesnakes-DVD-2005-/291190942371?epid=44824106&hash=item43cc552aa3:g:3TQAAOSw241YkQWy
p132
aVhttp://www.ebay.com/itm/Doctor-Who-Snake-Bite-11th-Doctor-Audio-Original-by-Handcock-Scott-/181326797293?epid=129217002&hash=item2a37eb59ed:g:P4MAAOSwyZ5UmGrU
p133
aVhttp://www.ebay.com/itm/PROFESSIONAL-FEMALE-XLR-to-1-4-JACK-CABLE-mic-microphone-lead-OFC-patch-mono-/301032304044?var=&epid=1458462236&hash=item4616ec6dac:m:m7yLW-gInZDK8xaf-XvOTRQ
p134
aVhttp://www.ebay.com/itm/WARHAMMER-EPIC-40K-ORK-BOYZ-AND-BIKES-/151024752493?var=&hash=item2329c6d76d:m:mfNLPm06E4HEgd7IjGQl8pg
p135
aVhttp://www.ebay.com/itm/SNAKEBITE-Gone-In-A-Flash-CD-Teddyboy-Rock-n-Roll-Wild-Bob-Burgos-Rockabilly-/190770401824?epid=30611747&hash=item2c6acd5220:m:mZbxxR2bRIqHa7RV-Uei4cw
p136
aVhttp://www.ebay.com/itm/PRO-STERILE-1-2mm-Blade-Needle-Body-Piercing-Kit-Choose-Piercing-Jewellery-/330837650057?var=&hash=item4d0775ea89:m:mrcrkcK_aaykXcTvv1zVzLA
p137
aVhttp://www.ebay.com/itm/STERILE-BASIC-1-2mm-Blade-Needle-Body-Piercing-Kit-Choose-Piercing-Jewellery-/370702218288?var=&hash=item564f92f430:m:mLwOl4nt_6cET7Fgho_6dPg
p138
aVhttp://www.ebay.com/itm/ONE-INDUSTRIES-KIDS-YOUTH-T-SHIRT-SNAKE-BITE-TEE-JET-BLACK-boys-motocross-mx-/300814689960?var=&hash=item4609f3e6a8:m:mAPLTVdFG8ziG21DFewBjpg
p139
aVhttp://www.ebay.com/itm/XLR-FEMALE-to-1-4-JACK-CABLE-transparent-sleeve-audio-lead-microphone-mic-3-pin-/290761317072?var=&epid=1857085891&hash=item43b2b99ad0:m:mFVgJswgMKpnOM5mgXGXnFA
p140
aVhttp://www.ebay.com/itm/STERILE-BASIC-Blade-Needle-Body-Piercing-Kit-Choose-Piercing-Jewellery-UK-/370631407331?var=&hash=item564b5a76e3:m:ml2WqIpv_xgiWdKjXmCdX-A
p141
aVhttp://www.ebay.com/itm/PRO-STERILE-CANNULA-Needle-Piercing-Kit-Choose-Piercing-Jewellery-uk-Seller-/320946217642?var=&hash=item4ab9e2a2aa:m:m80i0bm-yQd6NSV8aTbOB_w
p142
aVhttp://www.ebay.com/itm/PRO-STERILE-Blade-Needle-Piercing-Kit-Choose-Piercing-Jewellery-uk-Seller-/370630646053?var=&hash=item564b4ed925:m:m2VPxQBxlDaVCrV2pxY9ndQ
p143
aVhttp://www.ebay.com/itm/KRYSTON-BRAID-HOOK-LENGTH-SNAKE-MANTIS-MERLIN-JACKAL-SILKWORM-NOVA-QUICKSILVER-/140644949332?var=&hash=item20bf179d54:m:mBYaVNH9fS4GxSMD17ejXUg
p144
aVhttp://www.ebay.com/itm/Brand-New-Kryston-Snake-Bite-or-Snake-Bite-Gold-/290550469673?var=&hash=item43a6285429:m:m7Eu24rY4GL_H2MZF6UP_PQ
p145
aVhttp://www.ebay.com/itm/3-V-Fly-Size-12-Ultimate-Rio-Grande-Diamond-Olive-Snake-Bite-Sea-Trout-Flies-/121567988897?hash=item1c4e044ca1:g:MTkAAOxyyF5RJkbX
p146
aVhttp://www.ebay.com/itm/Various-Snakebite-City-9-2000-Limited-Edition-CD-/381133868123?hash=item58bd594c5b:g:u94AAOSwCypWplBP
p147
aVhttp://www.ebay.com/itm/2-X-Total-Carp-Snake-Bite-Margin-Rig-Size-6-Barbless-To-15lb-Kyrston-Free-P-P-/321592089987?hash=item4ae061dd83:g:fBUAAOSwAL9UbbtK
p148
aVhttp://www.ebay.com/itm/Snake-Bite-The-Ultimate-Guide-To-Snakes-DVD-Region-2-/400805096872?hash=item5d51d86da8:g:p78AAOSw5dNWpk6y
p149
aVhttp://www.ebay.com/itm/3-Vainers-Ultimate-Rio-Grande-Diamond-White-Snake-Bite-SeaTrout-Flies-Size-12-/400793843907?hash=item5d512cb8c3:g:v38AAMXQlUNRJkXe
p150
aVhttp://www.ebay.com/itm/Vegetable-Pepper-Chilli-Nepal-Snakebite-50-Seeds-/361069751961?hash=item54116f2e99:g:FbAAAOxyHIlTYW2q
p151
aVhttp://www.ebay.com/itm/JACK-to-JACK-CABLE-guitar-Instrument-lead-TS-electric-bass-keyboard-1-4-mono-/121450433758?var=&hash=item1c47028cde:m:mw6BkK3rkVhLCHtzDSaE-dg
p152
aVhttp://www.ebay.com/itm/Vegetable-Pepper-Chilli-Nepal-Snakebite-100-Seeds-Bulk-/331331489647?hash=item4d24e54f6f:g:q1gAAOxyYANTYB6c
p153
aVhttp://www.ebay.com/itm/3-V-Fly-Size-12-Ultimate-Rio-Grande-Diamond-White-Snake-Bite-SeaTrout-Flies-/121427019486?hash=item1c459d46de:g:v38AAMXQlUNRJkXe
p154
aVhttp://www.ebay.com/itm/Motorhead-Snake-Bite-Love-NEW-CD-/390895320645?epid=3966281&hash=item5b032d3e45:g:AkYAAOSwEK9T06bB
p155
aVhttp://www.ebay.com/itm/Various-Snakebite-City-9-CD-/301243698837?epid=30624854&hash=item4623860e95:g:i~YAAOSweW5Veo6q
p156
aVhttp://www.ebay.com/itm/Snake-Bite-Rattlesnakes-DVD-2005-/291190942371?epid=44824106&hash=item43cc552aa3:g:3TQAAOSw241YkQWy
p157
aVhttp://www.ebay.com/itm/PROFESSIONAL-FEMALE-XLR-to-1-4-JACK-CABLE-mic-microphone-lead-OFC-patch-mono-/301032304044?var=&epid=1458462236&hash=item4616ec6dac:m:m7yLW-gInZDK8xaf-XvOTRQ
p158
aVhttp://www.ebay.com/itm/WARHAMMER-EPIC-40K-ORK-BOYZ-AND-BIKES-/151024752493?var=&hash=item2329c6d76d:m:mfNLPm06E4HEgd7IjGQl8pg
p159
aVhttp://www.ebay.com/itm/SNAKEBITE-Gone-In-A-Flash-CD-Teddyboy-Rock-n-Roll-Wild-Bob-Burgos-Rockabilly-/190770401824?epid=30611747&hash=item2c6acd5220:m:mZbxxR2bRIqHa7RV-Uei4cw
p160
aVhttp://www.ebay.com/itm/PRO-STERILE-1-2mm-Blade-Needle-Body-Piercing-Kit-Choose-Piercing-Jewellery-/330837650057?var=&hash=item4d0775ea89:m:mrcrkcK_aaykXcTvv1zVzLA
p161
aVhttp://www.ebay.com/itm/STERILE-BASIC-1-2mm-Blade-Needle-Body-Piercing-Kit-Choose-Piercing-Jewellery-/370702218288?var=&hash=item564f92f430:m:mLwOl4nt_6cET7Fgho_6dPg
p162
aVhttp://www.ebay.com/itm/ONE-INDUSTRIES-KIDS-YOUTH-T-SHIRT-SNAKE-BITE-TEE-JET-BLACK-boys-motocross-mx-/300814689960?var=&hash=item4609f3e6a8:m:mAPLTVdFG8ziG21DFewBjpg
p163
aVhttp://www.ebay.com/itm/XLR-FEMALE-to-1-4-JACK-CABLE-transparent-sleeve-audio-lead-microphone-mic-3-pin-/290761317072?var=&epid=1857085891&hash=item43b2b99ad0:m:mFVgJswgMKpnOM5mgXGXnFA
p164
aVhttp://www.ebay.com/itm/STERILE-BASIC-Blade-Needle-Body-Piercing-Kit-Choose-Piercing-Jewellery-UK-/370631407331?var=&hash=item564b5a76e3:m:ml2WqIpv_xgiWdKjXmCdX-A
p165
aVhttp://www.ebay.com/itm/PRO-STERILE-CANNULA-Needle-Piercing-Kit-Choose-Piercing-Jewellery-uk-Seller-/320946217642?var=&hash=item4ab9e2a2aa:m:m80i0bm-yQd6NSV8aTbOB_w
p166
aVhttp://www.ebay.com/itm/PRO-STERILE-Blade-Needle-Piercing-Kit-Choose-Piercing-Jewellery-uk-Seller-/370630646053?var=&hash=item564b4ed925:m:m2VPxQBxlDaVCrV2pxY9ndQ
p167
aVhttp://www.ebay.com/itm/Brand-New-Kryston-Snake-Bite-or-Snake-Bite-Gold-/290550469673?var=&hash=item43a6285429:m:m7Eu24rY4GL_H2MZF6UP_PQ
p168
aVhttp://www.ebay.com/itm/SNAKEBITE-DOUBLE-LIP-PIERCING-KIT-DVD-CLAMPS-TITANIUM-/230516674456?hash=item35abdd4f98:g:ZQYAAOSw1DtXGg1M
p169
aVhttp://www.ebay.com/itm/3-V-Fly-Size-12-Ultimate-Rio-Grande-Diamond-Olive-Snake-Bite-Sea-Trout-Flies-/121567988897?hash=item1c4e044ca1:g:MTkAAOxyyF5RJkbX
p170
aVhttp://www.ebay.com/itm/Various-Snakebite-City-9-2000-Limited-Edition-CD-/381133868123?hash=item58bd594c5b:g:u94AAOSwCypWplBP
p171
aVhttp://www.ebay.com/itm/2-X-Total-Carp-Snake-Bite-Margin-Rig-Size-6-Barbless-To-15lb-Kyrston-Free-P-P-/321592089987?hash=item4ae061dd83:g:fBUAAOSwAL9UbbtK
p172
aVhttp://www.ebay.com/itm/Snake-Bite-The-Ultimate-Guide-To-Snakes-DVD-Region-2-/400805096872?hash=item5d51d86da8:g:p78AAOSw5dNWpk6y
p173
aVhttp://www.ebay.com/itm/3-Vainers-Ultimate-Rio-Grande-Diamond-White-Snake-Bite-SeaTrout-Flies-Size-12-/400793843907?hash=item5d512cb8c3:g:v38AAMXQlUNRJkXe
p174
aVhttp://www.ebay.com/itm/Vegetable-Pepper-Chilli-Nepal-Snakebite-50-Seeds-/361069751961?hash=item54116f2e99:g:FbAAAOxyHIlTYW2q
p175
aVhttp://www.ebay.com/itm/JACK-to-JACK-CABLE-guitar-Instrument-lead-TS-electric-bass-keyboard-1-4-mono-/121450433758?var=&hash=item1c47028cde:m:mw6BkK3rkVhLCHtzDSaE-dg
p176
aVhttp://www.ebay.com/itm/Vegetable-Pepper-Chilli-Nepal-Snakebite-100-Seeds-Bulk-/331331489647?hash=item4d24e54f6f:g:q1gAAOxyYANTYB6c
p177
aVhttp://www.ebay.com/itm/3-V-Fly-Size-12-Ultimate-Rio-Grande-Diamond-White-Snake-Bite-SeaTrout-Flies-/121427019486?hash=item1c459d46de:g:v38AAMXQlUNRJkXe
p178
aVhttp://www.ebay.com/itm/Motorhead-Snake-Bite-Love-NEW-CD-/390895320645?epid=3966281&hash=item5b032d3e45:g:AkYAAOSwEK9T06bB
p179
aVhttp://www.ebay.com/itm/Various-Snakebite-City-9-CD-/301243698837?epid=30624854&hash=item4623860e95:g:i~YAAOSweW5Veo6q
p180
aVhttp://www.ebay.com/itm/Snake-Bite-Rattlesnakes-DVD-2005-/291190942371?epid=44824106&hash=item43cc552aa3:g:3TQAAOSw241YkQWy
p181
aVhttp://www.ebay.com/itm/PROFESSIONAL-FEMALE-XLR-to-1-4-JACK-CABLE-mic-microphone-lead-OFC-patch-mono-/301032304044?var=&epid=1458462236&hash=item4616ec6dac:m:m7yLW-gInZDK8xaf-XvOTRQ
p182
aVhttp://www.ebay.com/itm/WARHAMMER-EPIC-40K-ORK-BOYZ-AND-BIKES-/151024752493?var=&hash=item2329c6d76d:m:mfNLPm06E4HEgd7IjGQl8pg
p183
aVhttp://www.ebay.com/itm/SNAKEBITE-Gone-In-A-Flash-CD-Teddyboy-Rock-n-Roll-Wild-Bob-Burgos-Rockabilly-/190770401824?epid=30611747&hash=item2c6acd5220:m:mZbxxR2bRIqHa7RV-Uei4cw
p184
aVhttp://www.ebay.com/itm/PRO-STERILE-1-2mm-Blade-Needle-Body-Piercing-Kit-Choose-Piercing-Jewellery-/330837650057?var=&hash=item4d0775ea89:m:mrcrkcK_aaykXcTvv1zVzLA
p185
aVhttp://www.ebay.com/itm/STERILE-BASIC-1-2mm-Blade-Needle-Body-Piercing-Kit-Choose-Piercing-Jewellery-/370702218288?var=&hash=item564f92f430:m:mLwOl4nt_6cET7Fgho_6dPg
p186
aVhttp://www.ebay.com/itm/ONE-INDUSTRIES-KIDS-YOUTH-T-SHIRT-SNAKE-BITE-TEE-JET-BLACK-boys-motocross-mx-/300814689960?var=&hash=item4609f3e6a8:m:mAPLTVdFG8ziG21DFewBjpg
p187
aVhttp://www.ebay.com/itm/XLR-FEMALE-to-1-4-JACK-CABLE-transparent-sleeve-audio-lead-microphone-mic-3-pin-/290761317072?var=&epid=1857085891&hash=item43b2b99ad0:m:mFVgJswgMKpnOM5mgXGXnFA
p188
aVhttp://www.ebay.com/itm/STERILE-BASIC-Blade-Needle-Body-Piercing-Kit-Choose-Piercing-Jewellery-UK-/370631407331?var=&hash=item564b5a76e3:m:ml2WqIpv_xgiWdKjXmCdX-A
p189
aVhttp://www.ebay.com/itm/PRO-STERILE-CANNULA-Needle-Piercing-Kit-Choose-Piercing-Jewellery-uk-Seller-/320946217642?var=&hash=item4ab9e2a2aa:m:m80i0bm-yQd6NSV8aTbOB_w
p190
aVhttp://www.ebay.com/itm/PRO-STERILE-Blade-Needle-Piercing-Kit-Choose-Piercing-Jewellery-uk-Seller-/370630646053?var=&hash=item564b4ed925:m:m2VPxQBxlDaVCrV2pxY9ndQ
p191
aVhttp://www.ebay.com/itm/Brand-New-Kryston-Snake-Bite-or-Snake-Bite-Gold-/290550469673?var=&hash=item43a6285429:m:m7Eu24rY4GL_H2MZF6UP_PQ
p192
aVhttp://www.ebay.com/itm/SNAKEBITE-DOUBLE-LIP-PIERCING-KIT-DVD-CLAMPS-TITANIUM-/230516674456?hash=item35abdd4f98:g:ZQYAAOSw1DtXGg1M
p193
aVhttp://www.ebay.com/itm/3-V-Fly-Size-12-Ultimate-Rio-Grande-Diamond-Olive-Snake-Bite-Sea-Trout-Flies-/121567988897?hash=item1c4e044ca1:g:MTkAAOxyyF5RJkbX
p194
aVhttp://www.ebay.com/itm/Various-Snakebite-City-9-2000-Limited-Edition-CD-/381133868123?hash=item58bd594c5b:g:u94AAOSwCypWplBP
p195
aVhttp://www.ebay.com/itm/2-X-Total-Carp-Snake-Bite-Margin-Rig-Size-6-Barbless-To-15lb-Kyrston-Free-P-P-/321592089987?hash=item4ae061dd83:g:fBUAAOSwAL9UbbtK
p196
aVhttp://www.ebay.com/itm/Snake-Bite-The-Ultimate-Guide-To-Snakes-DVD-Region-2-/400805096872?hash=item5d51d86da8:g:p78AAOSw5dNWpk6y
p197
aVhttp://www.ebay.com/itm/3-Vainers-Ultimate-Rio-Grande-Diamond-White-Snake-Bite-SeaTrout-Flies-Size-12-/400793843907?hash=item5d512cb8c3:g:v38AAMXQlUNRJkXe
p198
aVhttp://www.ebay.com/itm/Vegetable-Pepper-Chilli-Nepal-Snakebite-50-Seeds-/361069751961?hash=item54116f2e99:g:FbAAAOxyHIlTYW2q
p199
aVhttp://www.ebay.com/itm/JACK-to-JACK-CABLE-guitar-Instrument-lead-TS-electric-bass-keyboard-1-4-mono-/121450433758?var=&hash=item1c47028cde:m:mw6BkK3rkVhLCHtzDSaE-dg
p200
aVhttp://www.ebay.com/itm/Vegetable-Pepper-Chilli-Nepal-Snakebite-100-Seeds-Bulk-/331331489647?hash=item4d24e54f6f:g:q1gAAOxyYANTYB6c
p201
aVhttp://www.ebay.com/itm/3-V-Fly-Size-12-Ultimate-Rio-Grande-Diamond-White-Snake-Bite-SeaTrout-Flies-/121427019486?hash=item1c459d46de:g:v38AAMXQlUNRJkXe
p202
aVhttp://www.ebay.com/itm/Motorhead-Snake-Bite-Love-NEW-CD-/390895320645?epid=3966281&hash=item5b032d3e45:g:AkYAAOSwEK9T06bB
p203
aVhttp://www.ebay.com/itm/Various-Snakebite-City-9-CD-/301243698837?epid=30624854&hash=item4623860e95:g:i~YAAOSweW5Veo6q
p204
aVhttp://www.ebay.com/itm/Snake-Bite-Rattlesnakes-DVD-2005-/291190942371?epid=44824106&hash=item43cc552aa3:g:3TQAAOSw241YkQWy
p205
aVhttp://www.ebay.com/itm/Doctor-Who-Snake-Bite-11th-Doctor-Audio-Original-by-Handcock-Scott-/181326797293?epid=129217002&hash=item2a37eb59ed:g:P4MAAOSwyZ5UmGrU
p206
aVhttp://www.ebay.com/itm/PROFESSIONAL-FEMALE-XLR-to-1-4-JACK-CABLE-mic-microphone-lead-OFC-patch-mono-/301032304044?var=&epid=1458462236&hash=item4616ec6dac:m:m7yLW-gInZDK8xaf-XvOTRQ
p207
aVhttp://www.ebay.com/itm/WARHAMMER-EPIC-40K-ORK-BOYZ-AND-BIKES-/151024752493?var=&hash=item2329c6d76d:m:mfNLPm06E4HEgd7IjGQl8pg
p208
aVhttp://www.ebay.com/itm/SNAKEBITE-Gone-In-A-Flash-CD-Teddyboy-Rock-n-Roll-Wild-Bob-Burgos-Rockabilly-/190770401824?epid=30611747&hash=item2c6acd5220:m:mZbxxR2bRIqHa7RV-Uei4cw
p209
aVhttp://www.ebay.com/itm/PRO-STERILE-1-2mm-Blade-Needle-Body-Piercing-Kit-Choose-Piercing-Jewellery-/330837650057?var=&hash=item4d0775ea89:m:mrcrkcK_aaykXcTvv1zVzLA
p210
aVhttp://www.ebay.com/itm/STERILE-BASIC-1-2mm-Blade-Needle-Body-Piercing-Kit-Choose-Piercing-Jewellery-/370702218288?var=&hash=item564f92f430:m:mLwOl4nt_6cET7Fgho_6dPg
p211
aVhttp://www.ebay.com/itm/ONE-INDUSTRIES-KIDS-YOUTH-T-SHIRT-SNAKE-BITE-TEE-JET-BLACK-boys-motocross-mx-/300814689960?var=&hash=item4609f3e6a8:m:mAPLTVdFG8ziG21DFewBjpg
p212
aVhttp://www.ebay.com/itm/XLR-FEMALE-to-1-4-JACK-CABLE-transparent-sleeve-audio-lead-microphone-mic-3-pin-/290761317072?var=&epid=1857085891&hash=item43b2b99ad0:m:mFVgJswgMKpnOM5mgXGXnFA
p213
aVhttp://www.ebay.com/itm/STERILE-BASIC-Blade-Needle-Body-Piercing-Kit-Choose-Piercing-Jewellery-UK-/370631407331?var=&hash=item564b5a76e3:m:ml2WqIpv_xgiWdKjXmCdX-A
p214
aVhttp://www.ebay.com/itm/PRO-STERILE-CANNULA-Needle-Piercing-Kit-Choose-Piercing-Jewellery-uk-Seller-/320946217642?var=&hash=item4ab9e2a2aa:m:m80i0bm-yQd6NSV8aTbOB_w
p215
aVhttp://www.ebay.com/itm/PRO-STERILE-Blade-Needle-Piercing-Kit-Choose-Piercing-Jewellery-uk-Seller-/370630646053?var=&hash=item564b4ed925:m:m2VPxQBxlDaVCrV2pxY9ndQ
p216
aVhttp://www.ebay.com/itm/KRYSTON-BRAID-HOOK-LENGTH-SNAKE-MANTIS-MERLIN-JACKAL-SILKWORM-NOVA-QUICKSILVER-/140644949332?var=&hash=item20bf179d54:m:mBYaVNH9fS4GxSMD17ejXUg
p217
aVhttp://www.ebay.com/itm/Brand-New-Kryston-Snake-Bite-or-Snake-Bite-Gold-/290550469673?var=&hash=item43a6285429:m:m7Eu24rY4GL_H2MZF6UP_PQ
p218
aVhttp://www.ebay.com/itm/3-V-Fly-Size-12-Ultimate-Rio-Grande-Diamond-Olive-Snake-Bite-Sea-Trout-Flies-/121567988897?hash=item1c4e044ca1:g:MTkAAOxyyF5RJkbX
p219
aVhttp://www.ebay.com/itm/Various-Snakebite-City-9-2000-Limited-Edition-CD-/381133868123?hash=item58bd594c5b:g:u94AAOSwCypWplBP
p220
aVhttp://www.ebay.com/itm/2-X-Total-Carp-Snake-Bite-Margin-Rig-Size-6-Barbless-To-15lb-Kyrston-Free-P-P-/321592089987?hash=item4ae061dd83:g:fBUAAOSwAL9UbbtK
p221
aVhttp://www.ebay.com/itm/Snake-Bite-The-Ultimate-Guide-To-Snakes-DVD-Region-2-/400805096872?hash=item5d51d86da8:g:p78AAOSw5dNWpk6y
p222
aVhttp://www.ebay.com/itm/3-Vainers-Ultimate-Rio-Grande-Diamond-White-Snake-Bite-SeaTrout-Flies-Size-12-/400793843907?hash=item5d512cb8c3:g:v38AAMXQlUNRJkXe
p223
aVhttp://www.ebay.com/itm/Vegetable-Pepper-Chilli-Nepal-Snakebite-50-Seeds-/361069751961?hash=item54116f2e99:g:FbAAAOxyHIlTYW2q
p224
aVhttp://www.ebay.com/itm/JACK-to-JACK-CABLE-guitar-Instrument-lead-TS-electric-bass-keyboard-1-4-mono-/121450433758?var=&hash=item1c47028cde:m:mw6BkK3rkVhLCHtzDSaE-dg
p225
aVhttp://www.ebay.com/itm/Vegetable-Pepper-Chilli-Nepal-Snakebite-100-Seeds-Bulk-/331331489647?hash=item4d24e54f6f:g:q1gAAOxyYANTYB6c
p226
aVhttp://www.ebay.com/itm/3-V-Fly-Size-12-Ultimate-Rio-Grande-Diamond-White-Snake-Bite-SeaTrout-Flies-/121427019486?hash=item1c459d46de:g:v38AAMXQlUNRJkXe
p227
aVhttp://www.ebay.com/itm/Motorhead-Snake-Bite-Love-NEW-CD-/390895320645?epid=3966281&hash=item5b032d3e45:g:AkYAAOSwEK9T06bB
p228
aVhttp://www.ebay.com/itm/Various-Snakebite-City-9-CD-/301243698837?epid=30624854&hash=item4623860e95:g:i~YAAOSweW5Veo6q
p229
aVhttp://www.ebay.com/itm/Snake-Bite-Rattlesnakes-DVD-2005-/291190942371?epid=44824106&hash=item43cc552aa3:g:3TQAAOSw241YkQWy
p230
aVhttp://www.ebay.com/itm/Doctor-Who-Snake-Bite-11th-Doctor-Audio-Original-by-Handcock-Scott-/181326797293?epid=129217002&hash=item2a37eb59ed:g:P4MAAOSwyZ5UmGrU
p231
aVhttp://www.ebay.com/itm/PROFESSIONAL-FEMALE-XLR-to-1-4-JACK-CABLE-mic-microphone-lead-OFC-patch-mono-/301032304044?var=&epid=1458462236&hash=item4616ec6dac:m:m7yLW-gInZDK8xaf-XvOTRQ
p232
aVhttp://www.ebay.com/itm/WARHAMMER-EPIC-40K-ORK-BOYZ-AND-BIKES-/151024752493?var=&hash=item2329c6d76d:m:mfNLPm06E4HEgd7IjGQl8pg
p233
aVhttp://www.ebay.com/itm/SNAKEBITE-Gone-In-A-Flash-CD-Teddyboy-Rock-n-Roll-Wild-Bob-Burgos-Rockabilly-/190770401824?epid=30611747&hash=item2c6acd5220:m:mZbxxR2bRIqHa7RV-Uei4cw
p234
aVhttp://www.ebay.com/itm/PRO-STERILE-1-2mm-Blade-Needle-Body-Piercing-Kit-Choose-Piercing-Jewellery-/330837650057?var=&hash=item4d0775ea89:m:mrcrkcK_aaykXcTvv1zVzLA
p235
aVhttp://www.ebay.com/itm/STERILE-BASIC-1-2mm-Blade-Needle-Body-Piercing-Kit-Choose-Piercing-Jewellery-/370702218288?var=&hash=item564f92f430:m:mLwOl4nt_6cET7Fgho_6dPg
p236
aVhttp://www.ebay.com/itm/ONE-INDUSTRIES-KIDS-YOUTH-T-SHIRT-SNAKE-BITE-TEE-JET-BLACK-boys-motocross-mx-/300814689960?var=&hash=item4609f3e6a8:m:mAPLTVdFG8ziG21DFewBjpg
p237
aVhttp://www.ebay.com/itm/XLR-FEMALE-to-1-4-JACK-CABLE-transparent-sleeve-audio-lead-microphone-mic-3-pin-/290761317072?var=&epid=1857085891&hash=item43b2b99ad0:m:mFVgJswgMKpnOM5mgXGXnFA
p238
aVhttp://www.ebay.com/itm/STERILE-BASIC-Blade-Needle-Body-Piercing-Kit-Choose-Piercing-Jewellery-UK-/370631407331?var=&hash=item564b5a76e3:m:ml2WqIpv_xgiWdKjXmCdX-A
p239
aVhttp://www.ebay.com/itm/PRO-STERILE-CANNULA-Needle-Piercing-Kit-Choose-Piercing-Jewellery-uk-Seller-/320946217642?var=&hash=item4ab9e2a2aa:m:m80i0bm-yQd6NSV8aTbOB_w
p240
aVhttp://www.ebay.com/itm/PRO-STERILE-Blade-Needle-Piercing-Kit-Choose-Piercing-Jewellery-uk-Seller-/370630646053?var=&hash=item564b4ed925:m:m2VPxQBxlDaVCrV2pxY9ndQ
p241
aVhttp://www.ebay.com/itm/KRYSTON-BRAID-HOOK-LENGTH-SNAKE-MANTIS-MERLIN-JACKAL-SILKWORM-NOVA-QUICKSILVER-/140644949332?var=&hash=item20bf179d54:m:mBYaVNH9fS4GxSMD17ejXUg
p242
aVhttp://www.ebay.com/itm/Brand-New-Kryston-Snake-Bite-or-Snake-Bite-Gold-/290550469673?var=&hash=item43a6285429:m:m7Eu24rY4GL_H2MZF6UP_PQ
p243
aVhttp://www.ebay.com/itm/3-V-Fly-Size-12-Ultimate-Rio-Grande-Diamond-Olive-Snake-Bite-Sea-Trout-Flies-/121567988897?hash=item1c4e044ca1:g:MTkAAOxyyF5RJkbX
p244
aVhttp://www.ebay.com/itm/Various-Snakebite-City-9-2000-Limited-Edition-CD-/381133868123?hash=item58bd594c5b:g:u94AAOSwCypWplBP
p245
aVhttp://www.ebay.com/itm/2-X-Total-Carp-Snake-Bite-Margin-Rig-Size-6-Barbless-To-15lb-Kyrston-Free-P-P-/321592089987?hash=item4ae061dd83:g:fBUAAOSwAL9UbbtK
p246
aVhttp://www.ebay.com/itm/Snake-Bite-The-Ultimate-Guide-To-Snakes-DVD-Region-2-/400805096872?hash=item5d51d86da8:g:p78AAOSw5dNWpk6y
p247
aVhttp://www.ebay.com/itm/3-Vainers-Ultimate-Rio-Grande-Diamond-White-Snake-Bite-SeaTrout-Flies-Size-12-/400793843907?hash=item5d512cb8c3:g:v38AAMXQlUNRJkXe
p248
aVhttp://www.ebay.com/itm/Vegetable-Pepper-Chilli-Nepal-Snakebite-50-Seeds-/361069751961?hash=item54116f2e99:g:FbAAAOxyHIlTYW2q
p249
aVhttp://www.ebay.com/itm/JACK-to-JACK-CABLE-guitar-Instrument-lead-TS-electric-bass-keyboard-1-4-mono-/121450433758?var=&hash=item1c47028cde:m:mw6BkK3rkVhLCHtzDSaE-dg
p250
aVhttp://www.ebay.com/itm/Vegetable-Pepper-Chilli-Nepal-Snakebite-100-Seeds-Bulk-/331331489647?hash=item4d24e54f6f:g:q1gAAOxyYANTYB6c
p251
aVhttp://www.ebay.com/itm/3-V-Fly-Size-12-Ultimate-Rio-Grande-Diamond-White-Snake-Bite-SeaTrout-Flies-/121427019486?hash=item1c459d46de:g:v38AAMXQlUNRJkXe
p252
aVhttp://www.ebay.com/itm/Motorhead-Snake-Bite-Love-NEW-CD-/390895320645?epid=3966281&hash=item5b032d3e45:g:AkYAAOSwEK9T06bB
p253
aVhttp://www.ebay.com/itm/Various-Snakebite-City-9-CD-/301243698837?epid=30624854&hash=item4623860e95:g:i~YAAOSweW5Veo6q
p254
aVhttp://www.ebay.com/itm/Snake-Bite-Rattlesnakes-DVD-2005-/291190942371?epid=44824106&hash=item43cc552aa3:g:3TQAAOSw241YkQWy
p255
aVhttp://www.ebay.com/itm/PROFESSIONAL-FEMALE-XLR-to-1-4-JACK-CABLE-mic-microphone-lead-OFC-patch-mono-/301032304044?var=&epid=1458462236&hash=item4616ec6dac:m:m7yLW-gInZDK8xaf-XvOTRQ
p256
aVhttp://www.ebay.com/itm/WARHAMMER-EPIC-40K-ORK-BOYZ-AND-BIKES-/151024752493?var=&hash=item2329c6d76d:m:mfNLPm06E4HEgd7IjGQl8pg
p257
aVhttp://www.ebay.com/itm/SNAKEBITE-Gone-In-A-Flash-CD-Teddyboy-Rock-n-Roll-Wild-Bob-Burgos-Rockabilly-/190770401824?epid=30611747&hash=item2c6acd5220:m:mZbxxR2bRIqHa7RV-Uei4cw
p258
aVhttp://www.ebay.com/itm/PRO-STERILE-1-2mm-Blade-Needle-Body-Piercing-Kit-Choose-Piercing-Jewellery-/330837650057?var=&hash=item4d0775ea89:m:mrcrkcK_aaykXcTvv1zVzLA
p259
aVhttp://www.ebay.com/itm/STERILE-BASIC-1-2mm-Blade-Needle-Body-Piercing-Kit-Choose-Piercing-Jewellery-/370702218288?var=&hash=item564f92f430:m:mLwOl4nt_6cET7Fgho_6dPg
p260
aVhttp://www.ebay.com/itm/ONE-INDUSTRIES-KIDS-YOUTH-T-SHIRT-SNAKE-BITE-TEE-JET-BLACK-boys-motocross-mx-/300814689960?var=&hash=item4609f3e6a8:m:mAPLTVdFG8ziG21DFewBjpg
p261
aVhttp://www.ebay.com/itm/XLR-FEMALE-to-1-4-JACK-CABLE-transparent-sleeve-audio-lead-microphone-mic-3-pin-/290761317072?var=&epid=1857085891&hash=item43b2b99ad0:m:mFVgJswgMKpnOM5mgXGXnFA
p262
aVhttp://www.ebay.com/itm/STERILE-BASIC-Blade-Needle-Body-Piercing-Kit-Choose-Piercing-Jewellery-UK-/370631407331?var=&hash=item564b5a76e3:m:ml2WqIpv_xgiWdKjXmCdX-A
p263
aVhttp://www.ebay.com/itm/PRO-STERILE-CANNULA-Needle-Piercing-Kit-Choose-Piercing-Jewellery-uk-Seller-/320946217642?var=&hash=item4ab9e2a2aa:m:m80i0bm-yQd6NSV8aTbOB_w
p264
aVhttp://www.ebay.com/itm/PRO-STERILE-Blade-Needle-Piercing-Kit-Choose-Piercing-Jewellery-uk-Seller-/370630646053?var=&hash=item564b4ed925:m:m2VPxQBxlDaVCrV2pxY9ndQ
p265
aVhttp://www.ebay.com/itm/Brand-New-Kryston-Snake-Bite-or-Snake-Bite-Gold-/290550469673?var=&hash=item43a6285429:m:m7Eu24rY4GL_H2MZF6UP_PQ
p266
aVhttp://www.ebay.com/itm/SNAKEBITE-DOUBLE-LIP-PIERCING-KIT-DVD-CLAMPS-TITANIUM-/230516674456?hash=item35abdd4f98:g:ZQYAAOSw1DtXGg1M
p267
aVhttp://www.ebay.com/itm/3-V-Fly-Size-12-Ultimate-Rio-Grande-Diamond-Olive-Snake-Bite-Sea-Trout-Flies-/121567988897?hash=item1c4e044ca1:g:MTkAAOxyyF5RJkbX
p268
aVhttp://www.ebay.com/itm/Various-Snakebite-City-9-2000-Limited-Edition-CD-/381133868123?hash=item58bd594c5b:g:u94AAOSwCypWplBP
p269
aVhttp://www.ebay.com/itm/2-X-Total-Carp-Snake-Bite-Margin-Rig-Size-6-Barbless-To-15lb-Kyrston-Free-P-P-/321592089987?hash=item4ae061dd83:g:fBUAAOSwAL9UbbtK
p270
aVhttp://www.ebay.com/itm/Snake-Bite-The-Ultimate-Guide-To-Snakes-DVD-Region-2-/400805096872?hash=item5d51d86da8:g:p78AAOSw5dNWpk6y
p271
aVhttp://www.ebay.com/itm/3-Vainers-Ultimate-Rio-Grande-Diamond-White-Snake-Bite-SeaTrout-Flies-Size-12-/400793843907?hash=item5d512cb8c3:g:v38AAMXQlUNRJkXe
p272
aVhttp://www.ebay.com/itm/Vegetable-Pepper-Chilli-Nepal-Snakebite-50-Seeds-/361069751961?hash=item54116f2e99:g:FbAAAOxyHIlTYW2q
p273
aVhttp://www.ebay.com/itm/JACK-to-JACK-CABLE-guitar-Instrument-lead-TS-electric-bass-keyboard-1-4-mono-/121450433758?var=&hash=item1c47028cde:m:mw6BkK3rkVhLCHtzDSaE-dg
p274
aVhttp://www.ebay.com/itm/Vegetable-Pepper-Chilli-Nepal-Snakebite-100-Seeds-Bulk-/331331489647?hash=item4d24e54f6f:g:q1gAAOxyYANTYB6c
p275
aVhttp://www.ebay.com/itm/3-V-Fly-Size-12-Ultimate-Rio-Grande-Diamond-White-Snake-Bite-SeaTrout-Flies-/121427019486?hash=item1c459d46de:g:v38AAMXQlUNRJkXe
p276
aVhttp://www.ebay.com/itm/Motorhead-Snake-Bite-Love-NEW-CD-/390895320645?epid=3966281&hash=item5b032d3e45:g:AkYAAOSwEK9T06bB
p277
aVhttp://www.ebay.com/itm/Various-Snakebite-City-9-CD-/301243698837?epid=30624854&hash=item4623860e95:g:i~YAAOSweW5Veo6q
p278
aVhttp://www.ebay.com/itm/Snake-Bite-Rattlesnakes-DVD-2005-/291190942371?epid=44824106&hash=item43cc552aa3:g:3TQAAOSw241YkQWy
p279
aVhttp://www.ebay.com/itm/PROFESSIONAL-FEMALE-XLR-to-1-4-JACK-CABLE-mic-microphone-lead-OFC-patch-mono-/301032304044?var=&epid=1458462236&hash=item4616ec6dac:m:m7yLW-gInZDK8xaf-XvOTRQ
p280
aVhttp://www.ebay.com/itm/WARHAMMER-EPIC-40K-ORK-BOYZ-AND-BIKES-/151024752493?var=&hash=item2329c6d76d:m:mfNLPm06E4HEgd7IjGQl8pg
p281
aVhttp://www.ebay.com/itm/SNAKEBITE-Gone-In-A-Flash-CD-Teddyboy-Rock-n-Roll-Wild-Bob-Burgos-Rockabilly-/190770401824?epid=30611747&hash=item2c6acd5220:m:mZbxxR2bRIqHa7RV-Uei4cw
p282
aVhttp://www.ebay.com/itm/PRO-STERILE-1-2mm-Blade-Needle-Body-Piercing-Kit-Choose-Piercing-Jewellery-/330837650057?var=&hash=item4d0775ea89:m:mrcrkcK_aaykXcTvv1zVzLA
p283
aVhttp://www.ebay.com/itm/STERILE-BASIC-1-2mm-Blade-Needle-Body-Piercing-Kit-Choose-Piercing-Jewellery-/370702218288?var=&hash=item564f92f430:m:mLwOl4nt_6cET7Fgho_6dPg
p284
aVhttp://www.ebay.com/itm/ONE-INDUSTRIES-KIDS-YOUTH-T-SHIRT-SNAKE-BITE-TEE-JET-BLACK-boys-motocross-mx-/300814689960?var=&hash=item4609f3e6a8:m:mAPLTVdFG8ziG21DFewBjpg
p285
aVhttp://www.ebay.com/itm/XLR-FEMALE-to-1-4-JACK-CABLE-transparent-sleeve-audio-lead-microphone-mic-3-pin-/290761317072?var=&epid=1857085891&hash=item43b2b99ad0:m:mFVgJswgMKpnOM5mgXGXnFA
p286
aVhttp://www.ebay.com/itm/STERILE-BASIC-Blade-Needle-Body-Piercing-Kit-Choose-Piercing-Jewellery-UK-/370631407331?var=&hash=item564b5a76e3:m:ml2WqIpv_xgiWdKjXmCdX-A
p287
aVhttp://www.ebay.com/itm/PRO-STERILE-CANNULA-Needle-Piercing-Kit-Choose-Piercing-Jewellery-uk-Seller-/320946217642?var=&hash=item4ab9e2a2aa:m:m80i0bm-yQd6NSV8aTbOB_w
p288
aVhttp://www.ebay.com/itm/PRO-STERILE-Blade-Needle-Piercing-Kit-Choose-Piercing-Jewellery-uk-Seller-/370630646053?var=&hash=item564b4ed925:m:m2VPxQBxlDaVCrV2pxY9ndQ
p289
aVhttp://www.ebay.com/itm/Brand-New-Kryston-Snake-Bite-or-Snake-Bite-Gold-/290550469673?var=&hash=item43a6285429:m:m7Eu24rY4GL_H2MZF6UP_PQ
p290
aVhttp://www.ebay.com/itm/SNAKEBITE-DOUBLE-LIP-PIERCING-KIT-DVD-CLAMPS-TITANIUM-/230516674456?hash=item35abdd4f98:g:ZQYAAOSw1DtXGg1M
p291
aVhttp://www.ebay.com/itm/3-V-Fly-Size-12-Ultimate-Rio-Grande-Diamond-Olive-Snake-Bite-Sea-Trout-Flies-/121567988897?hash=item1c4e044ca1:g:MTkAAOxyyF5RJkbX
p292
aVhttp://www.ebay.com/itm/Various-Snakebite-City-9-2000-Limited-Edition-CD-/381133868123?hash=item58bd594c5b:g:u94AAOSwCypWplBP
p293
aVhttp://www.ebay.com/itm/2-X-Total-Carp-Snake-Bite-Margin-Rig-Size-6-Barbless-To-15lb-Kyrston-Free-P-P-/321592089987?hash=item4ae061dd83:g:fBUAAOSwAL9UbbtK
p294
aVhttp://www.ebay.com/itm/Snake-Bite-The-Ultimate-Guide-To-Snakes-DVD-Region-2-/400805096872?hash=item5d51d86da8:g:p78AAOSw5dNWpk6y
p295
aVhttp://www.ebay.com/itm/3-Vainers-Ultimate-Rio-Grande-Diamond-White-Snake-Bite-SeaTrout-Flies-Size-12-/400793843907?hash=item5d512cb8c3:g:v38AAMXQlUNRJkXe
p296
aVhttp://www.ebay.com/itm/Vegetable-Pepper-Chilli-Nepal-Snakebite-50-Seeds-/361069751961?hash=item54116f2e99:g:FbAAAOxyHIlTYW2q
p297
aVhttp://www.ebay.com/itm/JACK-to-JACK-CABLE-guitar-Instrument-lead-TS-electric-bass-keyboard-1-4-mono-/121450433758?var=&hash=item1c47028cde:m:mw6BkK3rkVhLCHtzDSaE-dg
p298
aVhttp://www.ebay.com/itm/Vegetable-Pepper-Chilli-Nepal-Snakebite-100-Seeds-Bulk-/331331489647?hash=item4d24e54f6f:g:q1gAAOxyYANTYB6c
p299
aVhttp://www.ebay.com/itm/3-V-Fly-Size-12-Ultimate-Rio-Grande-Diamond-White-Snake-Bite-SeaTrout-Flies-/121427019486?hash=item1c459d46de:g:v38AAMXQlUNRJkXe
p300
aVhttp://www.ebay.com/itm/Motorhead-Snake-Bite-Love-NEW-CD-/390895320645?epid=3966281&hash=item5b032d3e45:g:AkYAAOSwEK9T06bB
p301
aVhttp://www.ebay.com/itm/Various-Snakebite-City-9-CD-/301243698837?epid=30624854&hash=item4623860e95:g:i~YAAOSweW5Veo6q
p302
aVhttp://www.ebay.com/itm/Snake-Bite-Rattlesnakes-DVD-2005-/291190942371?epid=44824106&hash=item43cc552aa3:g:3TQAAOSw241YkQWy
p303
aVhttp://www.ebay.com/itm/PROFESSIONAL-FEMALE-XLR-to-1-4-JACK-CABLE-mic-microphone-lead-OFC-patch-mono-/301032304044?var=&epid=1458462236&hash=item4616ec6dac:m:m7yLW-gInZDK8xaf-XvOTRQ
p304
aVhttp://www.ebay.com/itm/WARHAMMER-EPIC-40K-ORK-BOYZ-AND-BIKES-/151024752493?var=&hash=item2329c6d76d:m:mfNLPm06E4HEgd7IjGQl8pg
p305
aVhttp://www.ebay.com/itm/SNAKEBITE-Gone-In-A-Flash-CD-Teddyboy-Rock-n-Roll-Wild-Bob-Burgos-Rockabilly-/190770401824?epid=30611747&hash=item2c6acd5220:m:mZbxxR2bRIqHa7RV-Uei4cw
p306
aVhttp://www.ebay.com/itm/PRO-STERILE-1-2mm-Blade-Needle-Body-Piercing-Kit-Choose-Piercing-Jewellery-/330837650057?var=&hash=item4d0775ea89:m:mrcrkcK_aaykXcTvv1zVzLA
p307
aVhttp://www.ebay.com/itm/STERILE-BASIC-1-2mm-Blade-Needle-Body-Piercing-Kit-Choose-Piercing-Jewellery-/370702218288?var=&hash=item564f92f430:m:mLwOl4nt_6cET7Fgho_6dPg
p308
aVhttp://www.ebay.com/itm/ONE-INDUSTRIES-KIDS-YOUTH-T-SHIRT-SNAKE-BITE-TEE-JET-BLACK-boys-motocross-mx-/300814689960?var=&hash=item4609f3e6a8:m:mAPLTVdFG8ziG21DFewBjpg
p309
aVhttp://www.ebay.com/itm/XLR-FEMALE-to-1-4-JACK-CABLE-transparent-sleeve-audio-lead-microphone-mic-3-pin-/290761317072?var=&epid=1857085891&hash=item43b2b99ad0:m:mFVgJswgMKpnOM5mgXGXnFA
p310
aVhttp://www.ebay.com/itm/STERILE-BASIC-Blade-Needle-Body-Piercing-Kit-Choose-Piercing-Jewellery-UK-/370631407331?var=&hash=item564b5a76e3:m:ml2WqIpv_xgiWdKjXmCdX-A
p311
aVhttp://www.ebay.com/itm/PRO-STERILE-CANNULA-Needle-Piercing-Kit-Choose-Piercing-Jewellery-uk-Seller-/320946217642?var=&hash=item4ab9e2a2aa:m:m80i0bm-yQd6NSV8aTbOB_w
p312
aVhttp://www.ebay.com/itm/PRO-STERILE-Blade-Needle-Piercing-Kit-Choose-Piercing-Jewellery-uk-Seller-/370630646053?var=&hash=item564b4ed925:m:m2VPxQBxlDaVCrV2pxY9ndQ
p313
aVhttp://www.ebay.com/itm/Brand-New-Kryston-Snake-Bite-or-Snake-Bite-Gold-/290550469673?var=&hash=item43a6285429:m:m7Eu24rY4GL_H2MZF6UP_PQ
p314
aVhttp://www.ebay.com/itm/SNAKEBITE-DOUBLE-LIP-PIERCING-KIT-DVD-CLAMPS-TITANIUM-/230516674456?hash=item35abdd4f98:g:ZQYAAOSw1DtXGg1M
p315
aVhttp://www.ebay.com/itm/3-V-Fly-Size-12-Ultimate-Rio-Grande-Diamond-Olive-Snake-Bite-Sea-Trout-Flies-/121567988897?hash=item1c4e044ca1:g:MTkAAOxyyF5RJkbX
p316
aVhttp://www.ebay.com/itm/Various-Snakebite-City-9-2000-Limited-Edition-CD-/381133868123?hash=item58bd594c5b:g:u94AAOSwCypWplBP
p317
aVhttp://www.ebay.com/itm/2-X-Total-Carp-Snake-Bite-Margin-Rig-Size-6-Barbless-To-15lb-Kyrston-Free-P-P-/321592089987?hash=item4ae061dd83:g:fBUAAOSwAL9UbbtK
p318
aVhttp://www.ebay.com/itm/Snake-Bite-The-Ultimate-Guide-To-Snakes-DVD-Region-2-/400805096872?hash=item5d51d86da8:g:p78AAOSw5dNWpk6y
p319
aVhttp://www.ebay.com/itm/3-Vainers-Ultimate-Rio-Grande-Diamond-White-Snake-Bite-SeaTrout-Flies-Size-12-/400793843907?hash=item5d512cb8c3:g:v38AAMXQlUNRJkXe
p320
aVhttp://www.ebay.com/itm/Vegetable-Pepper-Chilli-Nepal-Snakebite-50-Seeds-/361069751961?hash=item54116f2e99:g:FbAAAOxyHIlTYW2q
p321
aVhttp://www.ebay.com/itm/JACK-to-JACK-CABLE-guitar-Instrument-lead-TS-electric-bass-keyboard-1-4-mono-/121450433758?var=&hash=item1c47028cde:m:mw6BkK3rkVhLCHtzDSaE-dg
p322
aVhttp://www.ebay.com/itm/Vegetable-Pepper-Chilli-Nepal-Snakebite-100-Seeds-Bulk-/331331489647?hash=item4d24e54f6f:g:q1gAAOxyYANTYB6c
p323
aVhttp://www.ebay.com/itm/3-V-Fly-Size-12-Ultimate-Rio-Grande-Diamond-White-Snake-Bite-SeaTrout-Flies-/121427019486?hash=item1c459d46de:g:v38AAMXQlUNRJkXe
p324
aVhttp://www.ebay.com/itm/Motorhead-Snake-Bite-Love-NEW-CD-/390895320645?epid=3966281&hash=item5b032d3e45:g:AkYAAOSwEK9T06bB
p325
aVhttp://www.ebay.com/itm/Various-Snakebite-City-9-CD-/301243698837?epid=30624854&hash=item4623860e95:g:i~YAAOSweW5Veo6q
p326
aVhttp://www.ebay.com/itm/Snake-Bite-Rattlesnakes-DVD-2005-/291190942371?epid=44824106&hash=item43cc552aa3:g:3TQAAOSw241YkQWy
p327
aVhttp://www.ebay.com/itm/Doctor-Who-Snake-Bite-11th-Doctor-Audio-Original-by-Handcock-Scott-/181326797293?epid=129217002&hash=item2a37eb59ed:g:P4MAAOSwyZ5UmGrU
p328
aVhttp://www.ebay.com/itm/PROFESSIONAL-FEMALE-XLR-to-1-4-JACK-CABLE-mic-microphone-lead-OFC-patch-mono-/301032304044?var=&epid=1458462236&hash=item4616ec6dac:m:m7yLW-gInZDK8xaf-XvOTRQ
p329
aVhttp://www.ebay.com/itm/WARHAMMER-EPIC-40K-ORK-BOYZ-AND-BIKES-/151024752493?var=&hash=item2329c6d76d:m:mfNLPm06E4HEgd7IjGQl8pg
p330
aVhttp://www.ebay.com/itm/SNAKEBITE-Gone-In-A-Flash-CD-Teddyboy-Rock-n-Roll-Wild-Bob-Burgos-Rockabilly-/190770401824?epid=30611747&hash=item2c6acd5220:m:mZbxxR2bRIqHa7RV-Uei4cw
p331
aVhttp://www.ebay.com/itm/PRO-STERILE-1-2mm-Blade-Needle-Body-Piercing-Kit-Choose-Piercing-Jewellery-/330837650057?var=&hash=item4d0775ea89:m:mrcrkcK_aaykXcTvv1zVzLA
p332
aVhttp://www.ebay.com/itm/STERILE-BASIC-1-2mm-Blade-Needle-Body-Piercing-Kit-Choose-Piercing-Jewellery-/370702218288?var=&hash=item564f92f430:m:mLwOl4nt_6cET7Fgho_6dPg
p333
aVhttp://www.ebay.com/itm/ONE-INDUSTRIES-KIDS-YOUTH-T-SHIRT-SNAKE-BITE-TEE-JET-BLACK-boys-motocross-mx-/300814689960?var=&hash=item4609f3e6a8:m:mAPLTVdFG8ziG21DFewBjpg
p334
aVhttp://www.ebay.com/itm/XLR-FEMALE-to-1-4-JACK-CABLE-transparent-sleeve-audio-lead-microphone-mic-3-pin-/290761317072?var=&epid=1857085891&hash=item43b2b99ad0:m:mFVgJswgMKpnOM5mgXGXnFA
p335
aVhttp://www.ebay.com/itm/STERILE-BASIC-Blade-Needle-Body-Piercing-Kit-Choose-Piercing-Jewellery-UK-/370631407331?var=&hash=item564b5a76e3:m:ml2WqIpv_xgiWdKjXmCdX-A
p336
aVhttp://www.ebay.com/itm/PRO-STERILE-CANNULA-Needle-Piercing-Kit-Choose-Piercing-Jewellery-uk-Seller-/320946217642?var=&hash=item4ab9e2a2aa:m:m80i0bm-yQd6NSV8aTbOB_w
p337
aVhttp://www.ebay.com/itm/PRO-STERILE-Blade-Needle-Piercing-Kit-Choose-Piercing-Jewellery-uk-Seller-/370630646053?var=&hash=item564b4ed925:m:m2VPxQBxlDaVCrV2pxY9ndQ
p338
aVhttp://www.ebay.com/itm/Brand-New-Kryston-Snake-Bite-or-Snake-Bite-Gold-/290550469673?var=&hash=item43a6285429:m:m7Eu24rY4GL_H2MZF6UP_PQ
p339
aVhttp://www.ebay.com/itm/SNAKEBITE-DOUBLE-LIP-PIERCING-KIT-DVD-CLAMPS-TITANIUM-/230516674456?hash=item35abdd4f98:g:ZQYAAOSw1DtXGg1M
p340
a.