(lp1
Vhttp://www.ebay.com/itm/NIKE-AIR-MAX-TAILWIND-7-TRAINERS-BLACK-VOLT-HOT-LAVA-683632-010-UK-7-5-10-5-/252796057530?var=&hash=item3adbd1b7ba:m:mWTw8qzGoHVZCqe6t-oTvoQ
p2
aVhttp://www.ebay.com/itm/Tailwind-Nutrition-Trial-Pack-7-Flavours-/262923343155?hash=item3d3773d533:g:jRkAAOSwjKFZQW~t
p3
aVhttp://www.ebay.com/itm/Nike-Air-Max-Tailwind-7-mens-trainers-sneaker-683632-010-uk-9-eu-44-us-10-NEW-/332089077781?epid=1148532257&hash=item4d520d3015:g:N~UAAOSw3xJXoLPl
p4
aVhttp://www.ebay.com/itm/nike-mens-air-max-tailwind-6-running-trainers-621225-010-sneakers-shoes-/301960096866?var=&epid=1170292292&hash=item464e396c62:m:mdWP2NWFVSg-nzyuVWNfXsw
p5
aVhttp://www.ebay.com/itm/Tailwind-Nutrition-30-Serving-Pack-7-Flavours-/262923560414?var=&hash=item3d377725de:m:mtrZiDCQMwlREiVWLQCZUIg
p6
aVhttp://www.ebay.com/itm/Tailwind-Nutrition-Trial-Pack-BUZZ-Caffeinated-Flavours-Only-/262923346783?hash=item3d3773e35f:g:T8oAAOSwpONZQW~u
p7
aVhttp://www.ebay.com/itm/Tailwind-Nutrition-Trial-Pack-NON-CAFFEINATED-4-STICK-PACK-/262923355782?hash=item3d37740686:g:8ooAAOSwq~tZQW~t
p8
aVhttp://www.ebay.com/itm/Tailwind-Nutrition-7-Stickpack-Trial-Pack-/222555273914?epid=13003809535&hash=item33d153faba:g:kg8AAOSwrfVZS~PR
p9
aVhttp://www.ebay.com/itm/Nike-Dry-Tailwind-Dri-Fit-Running-Gym-top-Short-Sleeve-Size-Medium-Brand-New-/222396267691?hash=item33c7d9bcab:g:tbMAAOSw5cNYkl-m
p10
aVhttp://www.ebay.com/itm/Nike-Mens-Dri-Fit-Cool-TailWind-TEE-Short-Sleeve-T-Shirt-644343-/302024440623?var=&hash=item46520f3b2f:m:mWNwp4izF0ZfqB_GyyzqbkQ
p11
aVhttp://www.ebay.com/itm/NIKE-TAILWIND-SWIFT-E-EV0948-Sunglasses-006-Matte-Black-Bright-Crimson-MAXSPEED-/112366316150?epid=606816396&hash=item1a298dea76:g:QgkAAOSww3tY6978
p12
aVhttp://www.ebay.com/itm/NEW-24v-HANDLEBAR-CONTROL-SWITCH-for-SCHWINN-TAILWIND-ELECTRIC-BIKE-/371856269170?hash=item56945c5f72:g:gJ0AAOSw2xRYk4yC
p13
aVhttp://www.ebay.com/itm/Nike-Dri-Fit-Cool-Tailwind-T-Shirt-Size-Uk-Large-724809-/172755154846?hash=item283902779e:g:~nwAAOSwjRpZVVXt
p14
aVhttp://www.ebay.com/itm/New-Nike-Womens-Tailwind-USA-Dri-FIT-Running-Short-Sleeve-V-Neck-Top-Size-XS-/291803836143?epid=1245166122&hash=item43f0dd2eef:g:ZZwAAOSw3YNXcEdI
p15
aVhttp://www.ebay.com/itm/Dare2b-Mens-Tailwind-Cape-Windshell-Lightweight-Cycling-Bike-Running-Outdoor-Top-/182336803231?var=&hash=item2a741ed19f:m:m6b4k0mrjVxIhA_rBkfqmEw
p16
aVhttp://www.ebay.com/itm/Large-Crystal-Tail-Wind-Spinner-Outdoor-Hanging-Tail-Garden-45cm-Long-/222551567622?hash=item33d11b6d06:g:sq0AAOSwHHFY-9Ht
p17
aVhttp://www.ebay.com/itm/Nike-Dri-FIT-Cool-Tailwind-Stripe-Mens-Running-Short-Sleeve-Top-T-shirt-/291942746484?var=&hash=item43f924c974:m:myLHS6pf2EQy3SJtqLHibtA
p18
aVhttp://www.ebay.com/itm/YU-GI-OH-BLACKWING-BRISOTE-THE-TAILWIND-LC5D-EN127-1st-EDITION-/191393220477?var=&hash=item2c8fecc77d:m:mJcZOU3gXvSq5_FztJmp6cQ
p19
aVhttp://www.ebay.com/itm/TRANSFORMERS-GENERATION-1-G1-DECEPTICON-FIGURE-AIR-STRIKE-PATROL-TAILWIND-/311239930244?hash=item4877587184:g:FOoAAOxyBC1R~7o3
p20
aVhttp://www.ebay.com/itm/3-X-BLACKWING-BRISOTE-THE-TAILWIND-STOR-EN008-1st-ED-/200577483385?epid=1932222274&hash=item2eb3598279:m:m25kn4ZUEzIRNLgg95Yj28g
p21
aVhttp://www.ebay.com/itm/YU-GI-OH-BLACKWING-BRISOTE-THE-TAILWIND-STOR-EN008-/190859680339?var=&hash=item2c701f9a53:m:m164dpL0B4ot8v3PyDpYMPA
p22
aVhttp://www.ebay.com/itm/Yugioh-Cards-Blackwing-Deck-Building-Playsets-Choose-Your-Own-/301129531786?var=&hash=item461cb8018a:m:mie_XQbFfUsgsk6tvXRyhYw
p23
aVhttp://www.ebay.com/itm/Gear-Mech-Derailleur-Hanger-Scott-Monterey-Royale-Symmetry-Tailwind-Transition-/121867202387?var=&epid=1954453724&hash=item1c5fd9ef53:m:m4bPkQoOpRBFO22UUTJzX9A
p24
aVhttp://www.ebay.com/itm/Nike-Dri-FIT-Cool-Tailwind-Crew-Mens-Running-Shirt-Yellow-Volt-Size-L-/111889754443?hash=item1a0d26294b:g:Hn8AAOSwGotWq9Xh
p25
aVhttp://www.ebay.com/itm/Nike-Dri-Fit-Touch-Tailwind-Striped-Mens-Running-Top-Blue-/371610092261?var=&epid=1871582550&hash=item5685b002e5:m:myfbIYitLbLVLQ_3AZEi04g
p26
aVhttp://www.ebay.com/itm/Nike-Tailwind-Loose-Ladies-Running-Vest-Tank-Top-White-/361543128822?var=&hash=item542da656f6:m:mvOcBW68dvDkYJrT3gP7pZw
p27
aVhttp://www.ebay.com/itm/Rivers-West-Tailwind-Pak-Jak-in-Olive-Drab-Green-Fishing-Waterproof-Windproof-/191907575464?var=&epid=1476043054&hash=item2cae9536a8:m:mh6oDLVLcxVDpJQOjOnlw0A
p28
a.