(lp1
Vhttp://www.ebay.com/itm/The-Awful-German-Language-by-Mark-Twain-9781522732044-Paperback-2015-/331794535674?epid=227425133&hash=item4d407ed4fa:g:zEEAAOSwP~tW2deX
p2
aVhttp://www.ebay.com/itm/Mark-Twain-Bookmark-America-Adventures-of-Huckleberry-Finn-Tom-Sawyer-/331901033926?hash=item4d46d7ddc6:g:gGgAAOSwYqxXi0Ou
p3
a.