(lp1
Vhttp://www.ebay.com/itm/Football-Club-Stationary-Pack-Pencil-Case-Calculator-Merchandise-Gift-Ideas-/172333676406?var=&epid=1724016581&hash=item281fe33776:m:mK0IgZldOeglIKjgpmg3HsQ
p2
aVhttp://www.ebay.com/itm/Rainbows-Unicorns-Stationary-Back-To-School-Bumper-Pack-Notes-Pens-Pencils-/162580571831?var=&epid=23004762961&hash=item25da8ea6b7:m:m_L-utJ_j-qhFQjeu2362lg
p3
aVhttp://www.ebay.com/itm/Cute-pretty-stationary-6-item-floral-pen-set-with-mechanical-pecil-and-refills-/272754249023?hash=item3f816b8d3f:g:sOMAAOSwyQtVlsyn
p4
aVhttp://www.ebay.com/itm/10-x-PAPER-MATE-1-0mm-BALLPOINT-PENS-BLUE-BLACK-WRITE-SCHOOL-OFFICE-STATIONARY-/131992018927?var=&hash=item1ebb565fef:m:mPxY7j4Gh-5DyXufA80mltA
p5
aVhttp://www.ebay.com/itm/NEW-Bic-Kids-Colouring-Activity-Stationary-Set-80-Pieces-Pencils-Crayons-Pens-/352012114012?epid=1289861955&hash=item51f58e985c:g:4F4AAOSwAO9ZUYhd
p6
aVhttp://www.ebay.com/itm/Harry-Potter-Gryffindor-Deluxe-Stationary-Set-Harry-Potter-Stationery-Insigh-/351989275617?epid=213175343&hash=item51f4321be1:g:O8EAAOSwwpdW6hPc
p7
aVhttp://www.ebay.com/itm/Mini-LCD-Counter-Pedal-Exerciser-Bike-Fitness-Exercise-Cycle-Leg-Arm-Stationary-/382085589119?epid=884255211&hash=item58f613687f:g:Y0sAAOSwY3BZJVd5
p8
aVhttp://www.ebay.com/itm/16-Piece-Me-Stationary-Minion-Super-Stationary-Set-Kids-School-Set-/132143240968?hash=item1ec459d708:g:yQYAAOSwTM5Y3T0Y
p9
aVhttp://www.ebay.com/itm/Pack-of-10-Blank-Note-Cards-Notelet-Greeting-Cards-Social-Stationary-Packs-/332097015718?hash=item4d52864fa6:g:kdYAAOSw9GhYZi-p
p10
aVhttp://www.ebay.com/itm/20pcs-Office-School-Gel-Ink-Black-Stationary-Pens-0-5mm-Refills-Syringe-/272525066470?epid=579784332&hash=item3f73c280e6:g:g9QAAOSwjDZYffYr
p11
aVhttp://www.ebay.com/itm/Flamingo-7pc-School-Stationary-Set-Pencil-Pens-Rubber-Sharpener-and-Notepad-/253043937922?epid=849645405&hash=item3aea981282:g:-NkAAOSwZ4dZEaVn
p12
aVhttp://www.ebay.com/itm/Filofax-Mini-barley-pen-Filofax-Stationary-100-GENUINE-FREE-Delivery-/291420381047?epid=1604299495&hash=item43da021f77:g:fsUAAOSwB-1Y718V
p13
aVhttp://www.ebay.com/itm/Star-Wars-official-20-Piece-Filled-Pencil-Case-2-Layer-Stationary-Holder-Vader-/201944474055?epid=1637329671&hash=item2f04d421c7:g:7ZwAAOSw~FJZMWn-
p14
aVhttp://www.ebay.com/itm/OFFICIAL-EMOJI-PENS-ERASERS-NOTEBOOK-PENCIL-CASE-STATIONARY-SCHOOL-PARTY-BAGS-/381887171558?var=&hash=item58ea3fcbe6:m:mUuybNqTeWk3hDxnBRuCtHA
p15
aVhttp://www.ebay.com/itm/Children-Gift-Stationary-Ballpoint-Gel-Creative-10Pc-Sparkling-Color-Ink-Pen-1mm-/122355601105?epid=512906710&hash=item1c7cf64ed1:g:gg8AAOSw32lYoruL
p16
aVhttp://www.ebay.com/itm/8x-Scented-Glitter-Gel-Pens-Kids-Rollerball-Stocking-Filler-School-Stationary-/351729867058?epid=1034400857&hash=item51e4bbd932:g:EIAAAOSw5cRZJuf0
p17
aVhttp://www.ebay.com/itm/OFFICIAL-EMOJI-PENS-ERASERS-NOTEBOOK-PENCIL-CASE-STATIONARY-SCHOOL-PARTY-BAGS-/381887170462?var=&hash=item58ea3fc79e:m:mF0RhC4jC5wyBRkoTRTObQw
p18
aVhttp://www.ebay.com/itm/Children-Kids-24-Quality-Funky-Pencils-with-Funky-Erasers-Animal-Stationary-Set-/172765350352?hash=item28399e09d0:g:suUAAOSwOgdYzRUX
p19
aVhttp://www.ebay.com/itm/Personalised-Custom-Stationary-Photo-Pen-Logo-Picture-Black-/262704848814?hash=item3d2a6ddfae:g:y38AAOSwnbZYHM3X
p20
aVhttp://www.ebay.com/itm/13-PIECE-SCHOOL-STATIONARY-SET-PENS-RULER-HB-PENCIL-COMPASS-SQUARE-MATH-GIFT-/192069800474?hash=item2cb840921a:g:X~sAAOSw241YbQAO
p21
aVhttp://www.ebay.com/itm/STAEDTLER-Stationary-Pens-Colouring-Pencils-Felt-Tips-Metallic-Markers-/332141138968?var=&hash=item4d55279418:m:mzmzT77do-78uARYra8MOxg
p22
aVhttp://www.ebay.com/itm/STAR-WARS-REBELS-16-Piece-Stationary-Set-Officially-Licensed-/152552543785?epid=1280530255&hash=item2384d71629:g:TiEAAOSwi8VZRRUm
p23
aVhttp://www.ebay.com/itm/Paw-Patrol-Carry-Along-Art-Case-Kids-School-Stationary-Pencils-Set-Colours-/351784093429?epid=1441268745&hash=item51e7f746f5:g:QA0AAOSwLnBX5SKE
p24
aVhttp://www.ebay.com/itm/BRAND-NEW-BEAD-BIRO-BALLPOINT-PEN-BLUE-INK-SCHOOL-STATIONARY-/222089054274?hash=item33b58a0842:g:41sAAOSwVghXEpZe
p25
aVhttp://www.ebay.com/itm/14-PIECE-SCHOOL-STATIONARY-SET-PENS-RULER-HB-PENCIL-CALCULATOR-/201120524721?epid=1104302716&hash=item2ed3b7a9b1:g:2HkAAOSw7NNT70zv
p26
aVhttp://www.ebay.com/itm/Star-Wars-Official-R2-D2-Sound-Effect-Pencil-Case-School-Stationary-Pen-Holder-/201946814265?epid=1539757009&hash=item2f04f7d739:g:L-UAAOSwBt5ZNSt5
p27
aVhttp://www.ebay.com/itm/Marvel-Comics-Pencil-Stationary-Set-Notepad-Pencil-Ruler-Eraser-Sharpener-/253018121306?epid=878608077&hash=item3ae90e245a:g:91IAAOSwvflZVOIN
p28
aVhttp://www.ebay.com/itm/22-x-Assorted-Colouring-Pencils-School-Childrens-Stationary-Drawing-/151837867569?epid=901257869&hash=item235a3dfe31:g:fWsAAOSwR29ZCGo7
p29
aVhttp://www.ebay.com/itm/Maths-Stationary-Set-Case-School-Stationery-Ruler-Protractor-Compass-School-UK-/262498178153?var=&hash=item3d1e1c5469:m:mSEaAsC0tinQz3hilN88l_Q
p30
aVhttp://www.ebay.com/itm/Harry-Potter-Gryffindor-Deluxe-Stationary-Set-by-Insight-Editions-9781608876143-/232241912721?epid=213175343&hash=item3612b25b91:g:QcsAAOSw4CFYpTo9
p31
aVhttp://www.ebay.com/itm/My-Little-Pony-20-Piece-Stationary-Pack-Party-Loot-Bag-Fillers-BY-AMSCAN-/222488058581?epid=1038126450&hash=item33cd525ad5:g:zuEAAOSwE0JY~3XI
p32
aVhttp://www.ebay.com/itm/Wooden-Carved-Wood-Tropical-Flamingo-Pen-Parrots-Biro-Stationary-Home-Gift-/182497959587?var=&hash=item2a7db9dea3:m:mCldZwYL4xhDs8nnGxYcKxA
p33
aVhttp://www.ebay.com/itm/15-PIECE-SCHOOL-STATIONARY-SET-PENS-RULER-HB-PENCIL-STICKY-NOTES-IDEAL-GIFT-UK-/182561042325?hash=item2a817c6f95:g:dI4AAOSwX61ZC~3S
p34
aVhttp://www.ebay.com/itm/TIGER-STUDY-REVISION-SET-CARDS-STATIONARY-PENS-STICKY-NOTES-STUDENTS-KIDS-/201815693494?epid=872205309&hash=item2efd2718b6:g:ouwAAOSwB-1Yn37V
p35
aVhttp://www.ebay.com/itm/SECRET-LIFE-OF-PETS-5-PIECE-STATIONARY-SET-Pen-Ruler-Pencil-Eraser-Sharpner-/131999435300?epid=2035658420&hash=item1ebbc78a24:g:QogAAOSwx2dYJKyp
p36
aVhttp://www.ebay.com/itm/Colour-Stationery-7Pc-Math-School-Set-Stationary-Maths-In-Plastic-Carry-Box-Case-/191886470788?var=&hash=item2cad532e84:m:m7d8h2ORx8wttRTCIetd7Qg
p37
aVhttp://www.ebay.com/itm/7Pcs-Mickey-Mouse-Note-Pad-Stationary-Set-Back-To-School-Pencil-Kit-Minnie-Gift-/272409318704?epid=1583544364&hash=item3f6cdc5530:g:tH8AAOSwLF1X~Mkx
p38
aVhttp://www.ebay.com/itm/Filofax-A5-Portable-hole-punch-Filofax-Stationary-Refills-100-GENUINE-/301574041236?epid=1205349463&hash=item463736ae94:g:ZKMAAOSwAANY713c
p39
aVhttp://www.ebay.com/itm/Children-Gift-Stationary-Ballpoint-Gel-Creative-10Pc-Sparkling-Color-Ink-Pen-1mm-/182575202802?epid=512906710&hash=item2a825481f2:g:ICQAAOSw1WJZGZNM
p40
aVhttp://www.ebay.com/itm/5-Pc-SPIDERMAN-STATIONARY-SET-GIFT-FOR-BOYS-PARTY-BAG-FILLER-STATIONERY-/201830210301?hash=item2efe049afd:g:GAsAAOSw4CFYrsvb
p41
aVhttp://www.ebay.com/itm/Official-Hello-Kitty-Stationary-Set-Pencil-Ruler-Erasers-Sharpener-School-New-/391459672775?hash=item5b24d092c7:g:JqYAAOSwVcFXOvcn
p42
aVhttp://www.ebay.com/itm/VILLIERS-ID-PLATE-MK10-MK12-STATIONARY-ENGINE-INSTRUCTION-PLATE-4-POP-RIVETS-/302379171754?hash=item466733ffaa:g:oMQAAOSw0vBUa3NA
p43
aVhttp://www.ebay.com/itm/Marvel-Avengers-Stationary-Assorted-/292112502544?var=&epid=1344855445&hash=item4403430f10:m:mN0yVaZrStehcRxr44IvJyg
p44
aVhttp://www.ebay.com/itm/Brand-New-EMOJI-STATIONARY-SET-SMILY-FACE-GIFT-FOR-BOYS-GIRLS-STATIONERY-/182580025245?hash=item2a829e179d:g:2FYAAOSwr~lYnlPN
p45
aVhttp://www.ebay.com/itm/Star-Wars-Official-Back-To-School-Bumper-Pack-Stationary-Set-Pencil-Case-Pens-/192208348955?epid=1341983503&hash=item2cc082a71b:g:JKwAAOSwsXFZNU5S
p46
aVhttp://www.ebay.com/itm/NEW-fun-retro-SIX-COLOUR-PEN-stationary-novelty-great-gift-/221689851074?hash=item339dbeacc2:g:fmAAAOSwEeFU3d7z
p47
aVhttp://www.ebay.com/itm/15-PIECE-STATIONARY-SET-BACK-TO-SCHOOL-PROTECTOR-PENS-RULLER-HB-PENCIL-/132102284258?hash=item1ec1e8e3e2:g:v1YAAOSw4CFYqvDT
p48
aVhttp://www.ebay.com/itm/Filofax-Personal-Portable-hole-punch-Filofax-Stationary-Refills-FREE-P-P-/291415925423?epid=1104955568&hash=item43d9be22af:g:OisAAOSw~CFY710~
p49
aVhttp://www.ebay.com/itm/3x-FLAT-EARTH-GLEASONS-NEW-STND-WORLD-MAP-SQUARE-STATIONARY-EARTH-AZIMUTH-/142343811368?hash=item21245a3128:g:qM8AAOSwuLZY604j
p50
aVhttp://www.ebay.com/itm/Officially-Licensed-DESPICABLE-ME-MINION-5-piece-Stationary-Set-/132143223783?epid=717447629&hash=item1ec45993e7:g:Of0AAOSw2gxY3TlR
p51
aVhttp://www.ebay.com/itm/Monster-High-Creativity-Art-Set-Stationary-Set-Birthday-Girls-Gift-/262337920922?hash=item3d148eff9a:g:E5YAAOSwmmxW6UvK
p52
aVhttp://www.ebay.com/itm/10-PIECES-SCHOOL-STATIONERY-SETS-STATIONARY-PENCILS-RULER-ERASER-SHARPENER-LIDS-/262500617371?var=&hash=item3d1e418c9b:m:m5OSKGJ8BpdpdKZoN1ckyKw
p53
aVhttp://www.ebay.com/itm/Skylanders-Giants-Stationary-Set-Large-Carry-Case-Includes-Pecil-Case-Rubber-New-/122020621893?hash=item1c68feee45:g:FuEAAOSwvg9XZuAd
p54
aVhttp://www.ebay.com/itm/A4-New-Hardback-Stylish-Cute-Fun-Design-Lined-Notebook-Stationary-Discount-/152401374910?var=&hash=item237bd46ebe:m:mNMNOmAfti2tAHzutL-UeWA
p55
aVhttp://www.ebay.com/itm/4-16-32-Kids-Fun-Bright-Emoji-Faces-Stackable-Pencil-Crayons-School-Stationary-/201751657503?var=&hash=item2ef955fc1f:m:m3u1-DbAvtNHcPre1tzsqPQ
p56
aVhttp://www.ebay.com/itm/Super-Cute-Cat-Ballpoint-Pen-Kawaii-Writing-Stationary-School-Office-Black-White-/322449257219?var=&hash=item4b13793303:m:mMrFcdai5S-eKE-wEQGtOkA
p57
aVhttp://www.ebay.com/itm/Rosie-Premium-Clip-Pad-Stationary-Set-with-Pen-Notepaper-Stickers-by-Gorjuss-/162521716890?epid=894730377&hash=item25d70c989a:g:H78AAOSwKytZHt9M
p58
aVhttp://www.ebay.com/itm/WOLSELEY-STATIONARY-ENGINE-PETROL-TAP-WD104-1-8-GAS-THREAD-TO-TANK-1-4-GAS-OUT-/302371423488?hash=item4666bdc500:g:fiIAAOSwSlBYuq8N
p59
aVhttp://www.ebay.com/itm/Periea-Drawer-Organiser-Pack-of-3-for-Desk-Stationary-Beth-/232159987998?var=&hash=item360dd0491e:m:mH-UHO7ufqJt2PcWfj4D5-g
p60
aVhttp://www.ebay.com/itm/70x-STAEDTLER-NORIS-HB-PENCILS-SCHOOL-ART-DRAWING-ART-JOINER-STUDENT-STATIONARY-/191731722857?epid=1717661778&hash=item2ca419ea69:g:~FUAAOSwMTZWSMOz
p61
aVhttp://www.ebay.com/itm/SECRET-LIFE-OF-PETS-5-PIECE-STATIONARY-SET-Pen-Ruler-Pencil-Eraser-Sharpner-/131999435300?epid=2035658420&hash=item1ebbc78a24:g:QogAAOSwx2dYJKyp
p62
aVhttp://www.ebay.com/itm/Minion-Stationary-Set-10-Piece-Original-Disney-Product-/162210014605?epid=1484932523&hash=item25c478658d:g:19cAAOSwNRdX4TlU
p63
aVhttp://www.ebay.com/itm/Personalized-Unicorn-Pencil-Stationary-Set-Case-/222587240389?hash=item33d33bbfc5:g:F5UAAOSw8vdZb~h0
p64
aVhttp://www.ebay.com/itm/Paw-Patrol-Stationary-Set-including-Note-Pad-Pencil-Ruler-Eraser-Shapener-/131877255653?hash=item1eb47f39e5:g:ELQAAOSw7XZXhzmV
p65
aVhttp://www.ebay.com/itm/Disney-Frozen-One-Direction-School-Stationary-16pc-Set-with-Flat-Pencil-Case-/311426141359?var=&hash=item488271ccaf:m:mrb1Tme7tq7y508m9IdzBXw
p66
aVhttp://www.ebay.com/itm/15Pc-SCHOOL-STATIONARY-SET-PENS-RULER-HB-PENCIL-tipex-notes-rubber-refillQuality-/182248532515?epid=882231032&hash=item2a6edbea23:g:7O8AAOSwLEtYk81Z
p67
aVhttp://www.ebay.com/itm/LUCAS-RS1-MAGNETO-POINTS-COVER-LISTER-D-STATIONARY-ENGINE-/302381331829?hash=item466754f575:g:ZeYAAOSwd4tTswyM
p68
aVhttp://www.ebay.com/itm/8x-Scented-Glitter-Gel-Pens-Kids-School-Stationary-Keychain-Stocking-Filler-/181668055680?epid=1188638137&hash=item2a4c428a80:g:o-0AAOSwEeFU4NVc
p69
aVhttp://www.ebay.com/itm/MINION-DESPICABLE-ME-3-Stationery-Party-Bag-Fillers-Party-Stationary-/332286236083?var=&hash=item4d5dcd95b3:m:m-vKiMMPrZa23Bnp2Aqjrtg
p70
aVhttp://www.ebay.com/itm/WILESCO-D2-STATIONARY-STEAM-ENGINE-/311866435372?epid=1205618054&hash=item489cb0272c:g:ig0AAOSwjDZYd73V
p71
aVhttp://www.ebay.com/itm/Disney-Frozen-5-Piece-Stationary-Set-Pen-Pencil-Ruler-Eraser-Sharpener-/172165808108?hash=item2815e1bfec:g:seYAAOSwhDdXDWRb
p72
aVhttp://www.ebay.com/itm/LUCAS-RS1-MAGNETO-POINTS-COVER-LISTER-D-STATIONARY-ENGINE-/302381331829?hash=item466754f575:g:ZeYAAOSwd4tTswyM
p73
aVhttp://www.ebay.com/itm/Monster-High-Creativity-Art-Set-Stationary-Set-Birthday-Girls-Gift-/262337920922?hash=item3d148eff9a:g:E5YAAOSwmmxW6UvK
p74
aVhttp://www.ebay.com/itm/Me-To-You-Tatty-Teddy-Stationary-Set-300379-/371768713298?epid=525350016&hash=item568f246052:g:~RIAAOSwA3dYCdhT
p75
aVhttp://www.ebay.com/itm/Keep-Calm-And-Carry-On-Personalised-Custom-Stationary-Photo-Pen-l-Black-/272498096174?var=&hash=item3f7226f82e:m:mp4n7Z3fu39sVBcAqX6pYVQ
p76
aVhttp://www.ebay.com/itm/12Pc-Neon-PENCIL-ERASER-RUBBER-SET-School-Student-Office-Stationary-/332028109985?hash=item4d4e6ae4a1:g:XdQAAOSwA3dYJGv6
p77
aVhttp://www.ebay.com/itm/Amanco-Stationary-Engine-Repair-Instruction-Manual-/352055689719?hash=item51f82781f7:m:mHF6U3BrclEjyJwi9QWoFrw
p78
aVhttp://www.ebay.com/itm/Tallon-7-Piece-Stationary-Set-Ruler-Pens-Pencel-Sharpner-and-Eraser-School-Set-/151854141385?epid=1207741946&hash=item235b364fc9:g:JYQAAOSwwbdWJV2M
p79
aVhttp://www.ebay.com/itm/NEW-BELKIN-SECURE-ZIPPED-PENCIL-CASE-STATIONARY-HOLDER-PEN-BOX-STORAGE-POUCH-/371681408179?hash=item5689f034b3:g:8YMAAOSwpdpVbxx4
p80
aVhttp://www.ebay.com/itm/Officially-Licensed-DESPICABLE-ME-MINION-5-piece-Stationary-Set-/162520204921?epid=717447629&hash=item25d6f58679:g:ziAAAOSwIQdZHU1B
p81
aVhttp://www.ebay.com/itm/Wrendale-Designs-Stationary-Country-Set-lots-of-animals-pencil-box-/400770559596?hash=item5d4fc96e6c:g:tPEAAOSw0fhXijq9
p82
aVhttp://www.ebay.com/itm/Official-Liverpool-FC-Fade-Stationary-Student-Set-Carry-Case-Back-to-School-/201961105635?epid=1879572976&hash=item2f05d1e8e3:g:tsMAAOSwAO9ZSqOl
p83
aVhttp://www.ebay.com/itm/BATMAN-STATIONARY-SET-NEW-DESIGN-IDEAL-FOR-SCHOOL-PARTY-FAVOURS-GIFT-BAG-FILLER-/262370757136?hash=item3d16840a10:g:f5cAAOSw4s9Xkja9
p84
aVhttp://www.ebay.com/itm/Character-pen-Ballpoint-Pen-Toy-Pan-Birthday-present-Gift-Stationary-pen-/331472353064?var=&hash=item4d2d4ab728:m:maCTcp3jg7qaIO8j1o9rIgw
p85
aVhttp://www.ebay.com/itm/3x-FLAT-EARTH-GLEASONS-NEW-STND-WORLD-MAP-SQUARE-STATIONARY-EARTH-AZIMUTH-/142189635778?hash=item211b29a8c2:g:axYAAOSwrhBZDxaL
p86
aVhttp://www.ebay.com/itm/18MM-X-3-4-REACH-SPARK-PLUG-EQ-TO-LODGE-CB3-CHAMPION-7COML-STATIONARY-ENGINE-/302381331388?hash=item466754f3bc:g:y4EAAOxycmBS7maQ
p87
aVhttp://www.ebay.com/itm/Hello-Kitty-Kids-Stationary-Set-Pencil-Eraser-Sharpener-Ballpoint-Sticker-Pink-/322007906114?epid=1050467859&hash=item4af92ab742:g:Q5gAAOSwDuJWv8zb
p88
aVhttp://www.ebay.com/itm/Wooden-Post-Letter-Rack-Desk-Bureau-Stationary-Organiser-Storage-Vintage-Style-/112452929882?epid=28003814649&hash=item1a2eb7895a:g:uekAAOSwceNZTBYs
p89
aVhttp://www.ebay.com/itm/Stationary-Set-Stylish-Sleek-Soft-Touch-Black-White-New-Free-Delivery-/182393251128?epid=1437199359&hash=item2a777c2538:g:Y4IAAOSwDwlZc0Ms
p90
aVhttp://www.ebay.com/itm/Attack-on-Titan-Regiment-Patches-/152137264953?var=&hash=item236c166f39:m:mYs45FGWIljQVgUZF9ty9lQ
p91
aVhttp://www.ebay.com/itm/SHOPKINS-GIRLS-BARREL-PENCIL-CASE-Pink-Purple-School-Stationary-Kid-Zipper-Round-/272717835036?var=&hash=item3f7f3feb1c:m:mQrRJe79Uz4mo4bJteuq0JQ
p92
aVhttp://www.ebay.com/itm/Barbie-10pcs-Pink-Pencil-Stationary-Set-Children-Girls-School-Party-Gift-Disney-/221958286793?epid=1050467859&hash=item33adbeadc9:g:CfcAAOSwDrNZSnRu
p93
aVhttp://www.ebay.com/itm/8-PACK-SCENTED-GLITTER-GEL-PENS-ASSORTED-COLOURS-FINE-POINT-STATIONARY-SCHOOL-/132185472109?epid=1669419147&hash=item1ec6de3c6d:g:8uYAAOSwcB5ZEGEU
p94
aVhttp://www.ebay.com/itm/Disney-Cars-Stationary-Scribble-Set-Rubber-Eraser-Pencil-Notebook-Pad-Kit-/390649706516?hash=item5af4897814:g:z3MAAOxy9nhSLJUE
p95
aVhttp://www.ebay.com/itm/72-X-Pencil-Sharpeners-Sharpener-Classroom-Stationary-Different-Shapes-Wholesale-/131961202989?hash=item1eb980292d:g:A~UAAOSwLF1X9TZ~
p96
aVhttp://www.ebay.com/itm/12-COLOURING-PENCILS-PACK-Art-Crafts-Back2School-Kids-Stationary-/142290998169?hash=item2121345399:g:NvkAAOSwCU1YsFby
p97
aVhttp://www.ebay.com/itm/Kids-Back-To-School-Cute-Geek-Kitten-Cat-Puppy-Dog-Stationary-Accessories-Set-/201800739861?var=&hash=item2efc42ec15:m:m--TmkUqnkkoa6TiCZrNW9Q
p98
aVhttp://www.ebay.com/itm/Vintage-Lister-stationary-engine-display-board-Rally-sign-Show-board-/253054610105?hash=item3aeb3aeab9:g:69QAAOSwgmJXyHir
p99
aVhttp://www.ebay.com/itm/Diamond-Minecart-Dan-TDM-PERSONALISED-Pencil-Case-Tin-School-Kids-Stationary-Fun-/132200857118?var=&hash=item1ec7c8fe1e:m:mMp2rhvrzdY3BpA9egrGT4Q
p100
aVhttp://www.ebay.com/itm/Vintage-spark-plug-advert-Stationary-engine-Classic-car-Retro-Mancave-/252838155390?hash=item3ade54147e:g:oCoAAOSw9IpXyHKj
p101
aVhttp://www.ebay.com/itm/15PC-SCHOOL-COLLEGE-OFFICE-STATIONARY-SET-PENS-RULER-PENCILS-RUBBER-CALCULATOR-/172531382500?epid=2103857462&hash=item282babf8e4:g:SjwAAOSw3v5YovS~
p102
aVhttp://www.ebay.com/itm/14-MULTI-COLOURED-PEN-SET-STATIONARY-HOME-OFFICE-SCHOOL-GIFT-CHILDREN-NEW-/112406699213?hash=item1a2bf61ccd:g:0b4AAOSwax5YxFXg
p103
aVhttp://www.ebay.com/itm/Children-Kids-24-Quality-Funky-Pencils-with-Funky-Erasers-Animal-Stationary-Set-/291576718550?hash=item43e353a4d6:m:mle5r04v-HDYtjlPIfX_BRQ
p104
aVhttp://www.ebay.com/itm/SCHOOL-HOME-OFFICE-REVISION-STATIONARY-SET-UK-/171407489260?hash=item27e8aeb8ec:g:Qb4AAOSwbqpT2~ru
p105
aVhttp://www.ebay.com/itm/Black-POLICE-Stationary-Set-Inc-Clipboard-Pens-PNB-bands-Equipment-Officer-/182437001185?epid=1460228863&hash=item2a7a17b7e1:g:P6MAAOSwT5tWI7jr
p106
aVhttp://www.ebay.com/itm/Lister-CS-Diesel-Stationary-Engine-Whitworth-BSW-Steel-Nuts-Many-Applications-/111972332991?hash=item1a121235bf:g:A8EAAOSwiYFXE~Hu
p107
aVhttp://www.ebay.com/itm/Rubber-Date-Stamp-Black-Ink-Pad-Office-Home-School-Stationary-Supplies-/252910553995?epid=1304305494&hash=item3ae2a4cb8b:g:bf8AAOSw7GRZBpjX
p108
aVhttp://www.ebay.com/itm/POKEMON-THEMED-A5-NOTEBOOK-HARDBACK-PERFECT-FOR-SCHOOL-KIDS-STATIONARY-/201983525736?hash=item2f07280368:g:3i4AAOSw5bFZY-~x
p109
aVhttp://www.ebay.com/itm/COMIC-SUPERHERO-AVENGERS-MARVEL-DC-Pencil-Case-Tin-School-Kids-Stationary-Fun-/132218932239?var=&hash=item1ec8dccc0f:m:mQVfr7tZXs40PcegOlVH4Ww
p110
aVhttp://www.ebay.com/itm/Official-TROLLS-4-PIECE-ERASER-SET-Rubbers-Kids-Stationary-Dreamworks-Film-/132151827009?hash=item1ec4dcda41:g:2GsAAOSwcUBYUaNu
p111
aVhttp://www.ebay.com/itm/TIGER-STUDY-REVISION-SET-CARDS-STATIONARY-PENS-STICKY-NOTES-STUDENTS-KIDS-/201349452635?epid=1656814853&hash=item2ee15cd35b:g:D9YAAOSwBahVU36s
p112
aVhttp://www.ebay.com/itm/POKEMON-SCHOOL-BACKPACK-STATIONARY-SET-Ring-Binder-Notebook-Pencil-Case-Pen-Bag-/371883335140?hash=item5695f95de4:g:A~4AAOSwTuJYu~fM
p113
aVhttp://www.ebay.com/itm/Jungle-Safari-Pencils-Childrens-Stationary-Gifts-Toys-Choose-Pack-Size-/151305709876?var=&hash=item233a85e934:m:mTwWsPNF2aBlQl2l2EOsAFQ
p114
aVhttp://www.ebay.com/itm/Pack-of-10-Blank-Note-Cards-Notelet-Greeting-Cards-Social-Stationary-Packs-/331824143440?hash=item4d42429c50:g:M4IAAOSwgApXBQrd
p115
aVhttp://www.ebay.com/itm/Marvel-Spider-Man-Art-Set-Case-40-Piece-Colouring-Painting-Activity-Stationary-/122445733614?epid=767808771&hash=item1c82559eee:g:AvQAAOSwTM5Y76r-
p116
aVhttp://www.ebay.com/itm/Personalised-Colour-Pencil-Set-Case-Girls-Boys-Back-To-School-Stationary-Kids-/272342141421?var=&hash=item3f68db49ed:m:mSsRnpXzi_f1S-N12rl-VNQ
p117
aVhttp://www.ebay.com/itm/Children-Kids-6-Quality-Pencils-with-Funky-Erasers-Animal-Stationary-Set-/261628094315?epid=933031966&hash=item3cea3fe76b:g:TAEAAOSwvihY8rxF
p118
aVhttp://www.ebay.com/itm/12-Piece-Writing-Stationary-Set-Most-bits-there-for-School-Office-ect-/122573211248?hash=item1c89eec670:g:47QAAOSwQiRUm6N6
p119
aVhttp://www.ebay.com/itm/Sponge-Bob-6-In-1-Multi-Coloured-Pen-New-To-Ebay-Kids-Stationary-Great-Gift-/132114139512?hash=item1ec29dc978:g:ek4AAOSwLF1X9Qtw
p120
aVhttp://www.ebay.com/itm/Unsharpened-HB-writing-stationary-school-office-college-pencils-QTY-12-to-120-/291162723840?var=&epid=1564710482&hash=item43caa69600:m:mQjgVPcLrtcIdUHZs9vo6Tg
p121
aVhttp://www.ebay.com/itm/CRASH-BANDICOOT-Gaming-Inspired-Fun-Pencil-Case-Tin-School-Kids-Stationary-Fun-/132259924436?var=&hash=item1ecb4e49d4:m:mQTmotpSt5xOpk3UaHu1C8w
p122
aVhttp://www.ebay.com/itm/Looney-Tunes-5-Piece-Stationary-Set-Pencil-Case-Pen-Pencil-Rubber-Bugs-Bunny-/371539061088?hash=item5681742960:g:XasAAOSwCypWo2dZ
p123
aVhttp://www.ebay.com/itm/Marvel-Comics-5-Piece-Stationary-Set-Notepad-Pencil-Ruler-Eraser-Sharpener-/262985505669?epid=878608077&hash=item3d3b285b85:g:eHoAAOSwaEhZGK8v
p124
aVhttp://www.ebay.com/itm/Florist-Shop-Order-Pads-21cm-x-15cm-x-200-Pages-Stationary-Tools-Floristry-ML-/401358778916?var=&hash=item5d72d8f224:m:m9RoeldVz_H4GRVzHtLAegg
p125
aVhttp://www.ebay.com/itm/Black-POLICE-Stationary-Set-Inc-Clipboard-Pens-PNB-bands-Equipment-Officer-/182437001185?epid=1460228863&hash=item2a7a17b7e1:g:P6MAAOSwT5tWI7jr
p126
aVhttp://www.ebay.com/itm/Children-Kids-24-Quality-Funky-Pencils-with-Funky-Erasers-Animal-Stationary-Set-/291576718550?hash=item43e353a4d6:m:mle5r04v-HDYtjlPIfX_BRQ
p127
aVhttp://www.ebay.com/itm/SECRET-LIFE-OF-PETS-Set-of-12-Erasers-Rubbers-Back-to-School-Kids-Stationary-/131965785635?hash=item1eb9c61623:g:nl0AAOSw-CpX-2~V
p128
aVhttp://www.ebay.com/itm/satin-flower-pearl-bows-20pcs-wedding-stationary-scrapbook-embellishment-trim-/251532848841?var=&hash=item3a9086aec9:m:mKtdPGq6iCreq8BMae3vP7g
p129
aVhttp://www.ebay.com/itm/Vintage-Bamfords-stationary-engine-display-board-Rally-sign-Show-board-/263033422270?hash=item3d3e0381be:g:P2sAAOSwxg5XyHsd
p130
aVhttp://www.ebay.com/itm/Staedtler-Noris-120-2-BK5D-HB-Lead-Pencils-Office-School-Home-Office-Stationary-/351650125269?epid=1425409364&hash=item51dffb15d5:g:Dj8AAOSwKtVWuhos
p131
aVhttp://www.ebay.com/itm/Scented-Ice-Cream-Erasers-Box-Of-6-RUBBER-ERASERS-SCHOOL-STATIONARY-/272749612150?hash=item3f8124cc76:g:ypwAAOSw6ShZXOGw
p132
aVhttp://www.ebay.com/itm/My-Little-Pony-Secrets-Notebook-Pencil-Set-5-Piece-Stationary-Set-Bundle-/272529971789?hash=item3f740d5a4d:g:bY4AAOSwol5YxBmR
p133
aVhttp://www.ebay.com/itm/Filofax-Pocket-Portable-hole-punch-Filofax-Stationary-Refills-100-GENUINE-/291415924214?epid=1805528295&hash=item43d9be1df6:g:uFsAAOSw4CFY71xw
p134
aVhttp://www.ebay.com/itm/Spliff-Joint-Shaped-Pen-Joke-Cannabis-Stationary-Weed-Hemp-Novelty-NEW-/262889400107?epid=621838645&hash=item3d356de72b:g:NjcAAOSw7GRZHwl1
p135
aVhttp://www.ebay.com/itm/50-X-Pencil-Sharpeners-Sharpener-Classroom-Stationary-Car-Design-Wholesale-/131959862504?hash=item1eb96bb4e8:g:DnQAAOSwTA9X864t
p136
aVhttp://www.ebay.com/itm/Filofax-Personal-Finances-Filofax-Stationary-Refills-100-GENUINE-/301574038963?epid=1723213143&hash=item463736a5b3:g:DQcAAOSw3utY710N
p137
aVhttp://www.ebay.com/itm/Star-Wars-Ep7-Official-Desktop-Stormtrooper-Stationary-Tin-Desk-Pen-Holder-/201946825678?hash=item2f04f803ce:g:9gwAAOSwX9FZNTCr
p138
aVhttp://www.ebay.com/itm/Personalised-Wedding-Stationary-Mint-Rose-Gold-Foil-Free-Postage-/322478339379?var=&hash=item4b1534f533:m:mFXPg5uxOhI0HO-5tpUJ-Kw
p139
aVhttp://www.ebay.com/itm/SCHOOL-HOME-OFFICE-REVISION-STATIONARY-SET-UK-/171407489260?hash=item27e8aeb8ec:g:Qb4AAOSwbqpT2~ru
p140
aVhttp://www.ebay.com/itm/Disney-Frozen-Olaf-Anna-Elsa-School-Stationary-17pc-Set-with-Flat-Pencil-Case-/152340106713?var=&hash=item23782d8dd9:m:m6_tWMHl-z3oFbwd1K1ucDw
p141
a.