(lp1
Vhttp://www.ebay.com/itm/No-Surrender-My-Thirty-Year-War-by-Hiroo-Onoda-9781557506634-Paperback-1999-/232271530478?epid=87203998&hash=item36147649ee:g:bzAAAOSwB-1YyOsH
p2
aVhttp://www.ebay.com/itm/NEW-ERA-39THIRTY-CURVED-PEAK-NEW-YORK-NY-YANKEES-STRETCH-FIT-BASEBALL-CAPS-S-XL-/331736127040?var=&hash=item4d3d039640:m:muo7M-GAqLRTFGIINmckWcQ
p3
aVhttp://www.ebay.com/itm/New-Era-Team-Essential-Stretch-39Thirty-Curve-Cap-Anaheim-Mighty-Ducks-/371860578133?var=&epid=549845385&hash=item56949e1f55:m:mHaGrm4UheLDXC54pHtn6IQ
p4
aVhttp://www.ebay.com/itm/THIRTY-SECONDS-TO-MARS-THIS-IS-WAR-CD-ALBUM-2009-sealed-/122401799941?epid=1508093124&hash=item1c7fb73f05:g:p6EAAOSw2gxYy--S
p5
aVhttp://www.ebay.com/itm/NEW-ERA-39THIRTY-FITTED-CAP-NBA-TEAM-STRETCH-FIT-4-teams-/201805246744?var=&hash=item2efc87b118:m:mBGGH9JeiIGhns1uM3_o13g
p6
aVhttp://www.ebay.com/itm/NEW-ERA-FLAG-39THIRTY-FITTED-CAP-BASIC-NEW-ERA-plain-cap-/201429601106?var=&epid=1941436897&hash=item2ee623cb52:m:m5_3H0_uct2UiY8IagkdJhA
p7
aVhttp://www.ebay.com/itm/NEW-ERA-GIFT-BOX-IN-BLACK-FITS-9FIFTY-59FIFTY-9FORTY-39THIRTY-BASEBALL-CAPS-/292034961406?epid=1308844425&hash=item43fea3dffe:g:uw0AAOSw4CFYrJ~C
p8
aVhttp://www.ebay.com/itm/NEW-ERA-Los-Angeles-Dodgers-Cap-Classic-39Thirty-Navy-BNWT-/252460052212?var=&epid=1512712456&hash=item3ac7caaef4:m:mz4J0FjdjZ9xJWhiteATVbg
p9
aVhttp://www.ebay.com/itm/THIMBLE-DISPLAY-GIFT-BOXES-PACK-OF-THIRTY-30-/222452721870?hash=item33cb3728ce:g:DpcAAOSwXYtY2AtT
p10
aVhttp://www.ebay.com/itm/NEW-ERA-39Thirty-Fitted-Baseball-Cap-NEW-YORK-YANKEES-FREE-POSTAGE-/191620358955?var=&epid=1327922438&hash=item2c9d76a32b:m:mqQ2-xm1RgVZLnq3nLtQn2A
p11
aVhttp://www.ebay.com/itm/NEW-ERA-39Thirty-Fitted-Baseball-Cap-NEW-YORK-YANKEES-FREE-POSTAGE-/191620358955?var=&epid=1327922438&hash=item2c9d76a32b:m:mqQ2-xm1RgVZLnq3nLtQn2A
p12
aVhttp://www.ebay.com/itm/TaylorMade-New-Era-Tour-39Thirty-Caps-Choice-of-colour-/172645843004?var=&hash=item28327e803c:m:mCwdbIsRNNpkj4yOm7Fj1bw
p13
aVhttp://www.ebay.com/itm/New-Era-39THIRTY-Stretch-Space-Dye-Brooklyn-Nets-Cap-Gray-/172659891234?var=&hash=item283354dc22:m:m116xFxQukF4Zv69X9P9-PA
p14
aVhttp://www.ebay.com/itm/5-x-NUMBER-THIRTY-30-Silver-Plated-Charms-Pendants-Beads-/192035355878?epid=2078864852&hash=item2cb632fce6:g:WmsAAOSwB09YNarC
p15
aVhttp://www.ebay.com/itm/New-Era-Camo-Team-Stretch-39Thirty-Curve-Cap-Oakland-Raiders-/371917563964?var=&epid=746287261&hash=item569803a83c:m:moYthC6JLxf5y8OXaTPRGUQ
p16
aVhttp://www.ebay.com/itm/NEW-ERA-39THIRTY-FITTED-CAP-LEAGUE-ESSENTIAL-LA-DODGERS-BLACK-BLACK-/192182279193?var=&hash=item2cbef4dc19:m:mFFdtgo9pipURAEuYz90tFg
p17
aVhttp://www.ebay.com/itm/NEW-ERA-Los-Angeles-Dodgers-Cap-Classic-39Thirty-Navy-BNWT-/252460062348?var=&hash=item3ac7cad68c:m:mz4J0FjdjZ9xJWhiteATVbg
p18
aVhttp://www.ebay.com/itm/New-Era-39Thirty-Stretch-Rubber-Emblem-New-York-Yankees-Cap-Gray-/182619396179?var=&hash=item2a84f6d853:m:m6XHMIRnDpg_q_y-XN2T-hg
p19
aVhttp://www.ebay.com/itm/Thirty-30-30th-Age-Birthday-Party-Cake-Topper-by-Topperama-/132158014278?var=&epid=756106660&hash=item1ec53b4346:m:mzI7sYIZpAaZMHsDUB1Z60w
p20
aVhttp://www.ebay.com/itm/New-Era-Mens-Gents-Football-Soccer-Everton-New-Era-39-Thirty-Cap-Graphite-/332119808597?var=&hash=item4d53e21a55:m:mZqnyyBhjAAG3rj8zNB-1OQ
p21
aVhttp://www.ebay.com/itm/GAVISCON-INFANT-30-THIRTY-SACHETS-BABY-REFLUX-NAUSEA-EXPIRY-MAY-2019-NEW-BOX-/172782081070?hash=item283a9d542e:g:89MAAOSwY4pZYoyw
p22
aVhttp://www.ebay.com/itm/NEW-ERA-New-Navy-New-York-Yankees-Cap-Classic-39Thirty-Yankees-Cap-BNWT-/262410510430?var=&hash=item3d18e2a05e:m:mvJ_JM4n8VD_WruGnJThLAg
p23
aVhttp://www.ebay.com/itm/New-Era-MLB-League-Essential-39Thirty-Curve-Cap-Boston-RedSox-/371917563972?var=&hash=item569803a844:m:m8LPbwU3v779yWpt9msQJGA
p24
aVhttp://www.ebay.com/itm/Too-Soon-Old-Too-Late-Smart-Thirty-True-Things-You-Need-to-Kno-9780340839362-/231942620711?epid=89388393&hash=item3600db8627:g:rcUAAOSwHJhXNOhF
p25
aVhttp://www.ebay.com/itm/NEW-ERA-NEW-Mens-Black-LA-Dodgers-Essential-39Thirty-Cap-BNWT-/252957127109?var=&epid=626863093&hash=item3ae56b71c5:m:moA9yHqsKpzgyZSmNmoZvzA
p26
aVhttp://www.ebay.com/itm/Taylormade-New-Era-Tour-39-Thirty-Cap-S-M-or-M-L-/232232410818?var=&hash=item3612215ec2:m:mXDC0WpPUUiGn7UaMcmQd-g
p27
aVhttp://www.ebay.com/itm/NEW-ERA-FLAG-39THIRTY-FITTED-CAP-BASIC-PLAIN-BLACK-CAP-/191819451629?var=&epid=1941436897&hash=item2ca9548ced:m:m1HAf7PDevflaNxMdW4evfw
p28
aVhttp://www.ebay.com/itm/YEADONS-REGISTER-OF-L-N-E-R-LOCOMOTIVES-Volume-Thirty-Six-CLASS-F1-F2-G1-G-/122551078887?epid=1128473376&hash=item1c889d0fe7:g:MmoAAOSwTf9ZQ7qy
p29
aVhttp://www.ebay.com/itm/New-Era-Bob-Team-Poly-39Thirty-Kings-Flexi-Baseball-Cap-Black-Black-BNWT-/322396982591?var=&hash=item4b105b8d3f:m:mI4kCLvLZdQBEWsZhV7bmkA
p30
aVhttp://www.ebay.com/itm/Thirty-30th-Birthday-Party-Wedding-Anniversary-Decoration-Acrylic-Cake-Topper-/232299565587?var=&hash=item3616221213:m:mP54QE4NCDjtM3w8fIGDAMw
p31
aVhttp://www.ebay.com/itm/NEW-ERA-39THIRTY-FITTED-CAP-SEASONAL-SCRIPT-PATCH-BLACK-/401344113510?var=&hash=item5d71f92b66:m:mGEtbr9gXdSCemZGPjBeWig
p32
aVhttp://www.ebay.com/itm/The-Thirty-Nine-Steps-DVD-2003-/152355760510?epid=3958967&hash=item23791c697e:m:mLqwgdosKHmwnx2FbLewHYA
p33
aVhttp://www.ebay.com/itm/NEW-ERA-CAPS-39THIRTY-FITTED-CAPS-NEW-YORK-YANKEES-AND-LA-DODGERS-HATS-/172263239990?var=&hash=item281bb07136:m:mjrGJRVVWQHs8D9cc-WNz_w
p34
aVhttp://www.ebay.com/itm/THE-BEATLES-THIRTY-WEEKS-IN-1963-Vinyl-LP-180G-NEW-AND-SEALED-/311758897171?epid=865266004&hash=item4896474013:g:lFsAAOSwA3dYTxzk
p35
aVhttp://www.ebay.com/itm/New-Era-NFL-Carolina-Panthers-2017-NFL-Draft-39Thirty-Cap-/272662697705?var=&epid=812042144&hash=item3f7bf696e9:m:mxX58aG7wGW0Ud9ku9oLN1A
p36
aVhttp://www.ebay.com/itm/2017-TAYLORMADE-MENS-39THIRTY-GOLF-CAP-NEW-ERA-SPORTS-BASEBALL-HAT-M1-PSI-TMAG-/401251213979?var=&hash=item5d6c6fa29b:m:m5NRrp1hDUM_Rdnbj9IcxzQ
p37
aVhttp://www.ebay.com/itm/Thirty-Seconds-To-Mars-A-Beautiful-Lie-NEW-12-VINYL-LP-/391626589218?epid=1283910883&hash=item5b2ec38422:g:xZwAAOSwImRYLrgr
p38
aVhttp://www.ebay.com/itm/30th-Birthday-Card-30-Thirty-Today-For-Her-Women-Best-Friend-Pregnant-Joke-Funny-/162488657796?epid=805246381&hash=item25d5142784:g:R64AAOSwxg9ZbNY4
p39
aVhttp://www.ebay.com/itm/George-Harrison-Thirty-Three-And-1-3-NEW-CD-/390898790627?epid=30057239&hash=item5b036230e3:g:u2EAAOSwDk5T2Mmu
p40
aVhttp://www.ebay.com/itm/PHOENIX-LIVE-THIRTY-DAYS-AGO-CAN-LTD-CD-NEW-/302181687908?epid=44381073&hash=item465b6ea264:g:Qz4AAOSw9GhYZmx2
p41
aVhttp://www.ebay.com/itm/happy-30th-Cake-Topper-thirty-birthday-any-number-/152419009218?hash=item237ce182c2:g:gkwAAOSwNnRYkckB
p42
aVhttp://www.ebay.com/itm/George-Harrison-Thirty-Three-And-1-3-NEW-CD-/390898790627?epid=30057239&hash=item5b036230e3:g:u2EAAOSwDk5T2Mmu
p43
aVhttp://www.ebay.com/itm/New-Era-Baseball-Stretch-Fit-Cap-Hat-39THIRTY-11179872-Basic-Kelly-Green-White-/253059749915?var=&hash=item3aeb89581b:m:mpBYxURKKLDDjoRLW4i0mOg
p44
aVhttp://www.ebay.com/itm/Sterling-Silver-Thirty-30th-Birthday-925-Clip-On-Charm-/191942939410?hash=item2cb0b0d312:g:QFwAAOSwbiFZW3N2
p45
aVhttp://www.ebay.com/itm/NEW-ERA-39THIRTY-FITTED-CAP-LEAGUE-ESSENTIAL-LA-DODGERS-BLACK-WHITE-/201920084100?var=&epid=544638627&hash=item2f035ff884:m:mwsqlLMkqaTCgXWCPT6yXrg
p46
aVhttp://www.ebay.com/itm/Thirty-30th-Birthday-Party-Wedding-Anniversary-Decoration-Acrylic-Cake-Topper-/232299565587?var=&hash=item3616221213:m:mP54QE4NCDjtM3w8fIGDAMw
p47
aVhttp://www.ebay.com/itm/New-Era-Flag-39Thirty-Cap-Grey-/262913568159?var=&hash=item3d36dead9f:m:mbrKXhwLzqk7cujef_uAriQ
p48
aVhttp://www.ebay.com/itm/NEW-ERA-39THIRTY-FITTED-CAP-LEAGUE-BASIC-LA-DODGERS-NAVY-FREE-CAP-BOX-/191896286051?var=&epid=1021786381&hash=item2cade8f363:m:mrsFq86-kVBLrgL3FmfAoqw
p49
aVhttp://www.ebay.com/itm/THIRTY-SECONDS-TO-MARS-SEW-OR-IRON-ON-PATCH-/221835154058?hash=item33a667d28a:g:DM0AAOxyOalTbJ8y
p50
aVhttp://www.ebay.com/itm/NEW-ERA-39THIRTY-FITTED-CAP-MINI-WORDMARK-OAKLAND-RAIDERS-BLACK-/201803920070?var=&hash=item2efc7372c6:m:mo9bLWm1OEPx9NO4CQfvf0A
p51
aVhttp://www.ebay.com/itm/New-Era-39THIRTY-New-York-Yankees-Basic-Stretch-Fit-Baseball-Cap-Black-White-Red-/201899158995?var=&hash=item2f0220add3:m:mXDE30dQMLz9AmcoD1WNc4A
p52
aVhttp://www.ebay.com/itm/Thirty-Favorite-Novenas-by-Anonymous-Paperback-softback-1994-/332272322447?epid=195683931&hash=item4d5cf9478f:g:BukAAOSwyWZZSre1
p53
aVhttp://www.ebay.com/itm/New-Era-and-NFL-Sideline-39Thirty-Curve-Cap-Oakland-Raiders-/371708714682?var=&epid=1378831372&hash=item568b90deba:m:m63mqsRRGTGFOhZR29zkdeA
p54
aVhttp://www.ebay.com/itm/THIRTY6-MYSCSEATW-TOP-FIX-SOFT-CLOSE-TOILET-SEAT-WHITE-NEW-EXPRESS-DELIVERY-/152600509690?hash=item2387b2fcfa:g:Vk0AAOSwhQhY2Twx
p55
aVhttp://www.ebay.com/itm/NEW-ERA-39THIRTY-FITTED-CAP-LEAGUE-ESSENTIAL-LA-DODGERS-BLACK-WHITE-/201920084100?var=&epid=544638627&hash=item2f035ff884:m:mwsqlLMkqaTCgXWCPT6yXrg
p56
aVhttp://www.ebay.com/itm/New-Era-MLB-League-Essential-NY-LA-Grey-White-Navy-39THIRTY-Stretch-Flexi-Fit-/391809456527?var=&hash=item5b39a9d98f:m:mIfU2qwr-la05rvz1HXXKUQ
p57
aVhttp://www.ebay.com/itm/New-Era-39Thirty-Reflective-Digi-Stretch-Curve-Cap-Chicago-Bulls-/371917564127?var=&epid=727248888&hash=item569803a8df:m:mxonVnbaYNdC6qqw51FfmEA
p58
aVhttp://www.ebay.com/itm/NEW-ERA-NEW-Mens-Grey-Flag-39Thirty-Cap-BNWT-/252833918891?var=&epid=1957877988&hash=item3ade136fab:m:mZ3Mg0aN1AmMqXIurea7KHA
p59
aVhttp://www.ebay.com/itm/Sterling-Silver-Thirty-30th-Birthday-925-Clip-On-Charm-/191942939410?hash=item2cb0b0d312:g:QFwAAOSwbiFZW3N2
p60
aVhttp://www.ebay.com/itm/NEW-ERA-39THIRTY-NBA-CHICAGO-BULLS-NHL-KINGS-DUCKS-CURVED-PEAK-BASEBALL-CAPS-/332137454204?var=&hash=item4d54ef5a7c:m:mk2jDWCkfRAPdISEUDqSkvA
p61
aVhttp://www.ebay.com/itm/Pink-flamingo-30th-thirty-glitter-cake-topper-party-Cake-Topper-/152419028010?hash=item237ce1cc2a:g:FxYAAOSwImRYkc0F
p62
aVhttp://www.ebay.com/itm/New-Era-NFL-Sideline-Tech-39Thirty-Patriots-Flexi-Baseball-Cap-Navy-BNWT-/222382057623?var=&hash=item33c700e897:m:mifFXSI0VGZXYxi6Tay-7mQ
p63
aVhttp://www.ebay.com/itm/New-Era-Emblem-Stretch-39Thirty-Curve-Cap-New-York-Yankees-black-/222401964080?var=&hash=item33c830a830:m:mjZyjII_rH7FvHbp7rZQHbQ
p64
aVhttp://www.ebay.com/itm/Mars-1-72-Swedish-Leather-Guns-Thirty-Years-War-72100-/332235374988?epid=804616145&hash=item4d5ac5818c:g:H5YAAOSw42JZJrsB
p65
aVhttp://www.ebay.com/itm/New-Era-Klassische-39Thirty-New-York-Yankees-Cap-Navy-Weis-/262418540037?var=&hash=item3d195d2605:m:m8q1q3i6UdqdbMCnyZDmGlg
p66
aVhttp://www.ebay.com/itm/NEW-ERA-39THIRTY-FITTED-CAP-BLACK-ON-BLACK-BROOKLYN-NETS-/192126368590?var=&epid=2080255492&hash=item2cbb9fbb4e:m:mpa4SDEb5YH-hCW_7Zai36A
p67
aVhttp://www.ebay.com/itm/NEW-ERA-NEW-Mens-Grey-Flag-39Thirty-Cap-BNWT-/252833920050?var=&hash=item3ade137432:m:mbrKXhwLzqk7cujef_uAriQ
p68
aVhttp://www.ebay.com/itm/Seven-MX-New-Era-Black-Sport-Stretch-39Thirty-Curved-Peak-Flexfit-Cap-/272522012234?var=&epid=1175321952&hash=item3f7393e64a:m:mXGkWiP_V8GQcgU5Y5JMS0g
p69
aVhttp://www.ebay.com/itm/New-Mens-New-Era-Black-39thirty-Los-Angeles-Dodgers-Cotton-Spandex-Cap-Baseball-/311871285423?var=&epid=536600099&hash=item489cfa28af:m:mxV3nVtlDKDQH-PkulAXLjA
p70
aVhttp://www.ebay.com/itm/The-Passions-Thirty-Thousand-Feet-Over-Chin-NEW-CD-/351117120878?epid=66956585&hash=item51c036156e:g:zgMAAOSw7VBTwqQr
p71
aVhttp://www.ebay.com/itm/NEW-ERA-New-Black-New-York-Yankees-Cap-Classic-39Thirty-Yankees-Cap-BNWT-/262853943689?var=&epid=1712695646&hash=item3d3350e189:m:mi1Nd8NR63mEx8OCX_f5V0w
p72
aVhttp://www.ebay.com/itm/New-Era-Camo-Team-Stretch-39Thirty-Curve-Cap-Seattle-Seahawks-/371917564161?var=&epid=748315917&hash=item569803a901:m:mqiZD9KCA_wd5qn5vb4RPIA
p73
aVhttp://www.ebay.com/itm/New-Era-39Thirty-Captain-America-Civil-War-Logotallic-Cap-/172323062632?var=&epid=1868667072&hash=item281f414368:m:m2nYgDqSFOVo8uvyBGOij4Q
p74
aVhttp://www.ebay.com/itm/New-Era-MLB-Flawless-Matte-39Thirty-Yankees-Flexi-Baseball-Cap-Navy-BNWT-/322397018472?var=&hash=item4b105c1968:m:mHgnI7IaSiSJBEkOqTObr3Q
p75
aVhttp://www.ebay.com/itm/New-Era-Classic-39Thirty-Los-Angeles-Dodgers-Cap-Navy-White-/252460064503?var=&hash=item3ac7cadef7:m:mu6FoehrbodYObz1DrI_nIQ
p76
aVhttp://www.ebay.com/itm/Good-The-Thirty-Nine-Steps-Penguin-Red-Classics-Buchan-John-Book-/382023940844?epid=91509095&hash=item58f266baec:g:8GoAAOSw4CFYyram
p77
aVhttp://www.ebay.com/itm/NEW-ERA-Yankees-Cap-Grey-39Thirty-Stretch-BNWT-/252696602044?var=&epid=1120010387&hash=item3ad5e425bc:m:mjNXInJ0yq4VM1rMC_SBIEg
p78
aVhttp://www.ebay.com/itm/Brand-New-Gold-Glitter-Thirty-Cake-Topper-/152414219859?hash=item237c986e53:g:-cAAAOSw-3FZJYog
p79
aVhttp://www.ebay.com/itm/New-Era-39Thirty-Caddy-Flatbill-Cap-Manchester-United-Red-/371533716827?var=&epid=1844809338&hash=item5681229d5b:m:m4pG21EjE7_d2dUfUQPDdVA
p80
aVhttp://www.ebay.com/itm/New-Era-39Thirty-Stretch-Rubber-Emblem-New-York-Yankees-Cap-Black-/172729217262?var=&hash=item283776b0ee:m:m8DE6UMjdDqWI3R6AeDD6bQ
p81
aVhttp://www.ebay.com/itm/CHICAGO-WHITE-SOX-New-Era-High-Crown-39THIRTY-Fitted-Hat-Brand-New-With-Tags-/361562836027?var=&hash=item542ed30c3b:m:mAPVkJzJJWAOy3U7mmAtbwQ
p82
aVhttp://www.ebay.com/itm/Thirty-Seconds-To-Mars-Love-Lust-Faith-Dreams-K0426-/262952716838?epid=906383257&hash=item3d39340a26:g:nMAAAOSw4YdYyn~b
p83
a.