(lp1
Vhttp://www.ebay.com/itm/UK-Trans-Lesbian-Tomboy-Strengthen-Flat-Chest-Breast-Binder-Short-Cosplay-Vest-M-/263067604564?epid=531908517&hash=item3d400d1654:g:k14AAOSwcLxYKCTp
p2
aVhttp://www.ebay.com/itm/Shea-Moisture-Jamaican-Black-Castor-Oil-Strengthen-Grow-Restore-Hair-Serum-/222566698421?epid=9004458974&hash=item33d2024db5:g:4XIAAOSwnK9ZWDug
p3
aVhttp://www.ebay.com/itm/Shea-Moisture-Jamaican-Black-Castor-Oil-Strengthen-Grow-Restore-Masque-340g-/222566678265?hash=item33d201fef9:g:qpUAAOSw8GtZWDPY
p4
aVhttp://www.ebay.com/itm/Shea-Moisture-Jamaican-Black-Castor-Oil-Strengthen-Restore-Leave-In-Cond-453g-/222566670744?epid=9004458974&hash=item33d201e198:g:mukAAOSw~XpZWDF3
p5
aVhttp://www.ebay.com/itm/2-x-Angle-Bracket-Heavy-Duty-Reinforced-3-1-2-x-3-1-2-x-2-1-2-fixing-strengthen-/282552371946?hash=item41c96f0aea:g:eNEAAOSwwzhZQ-Ll
p6
aVhttp://www.ebay.com/itm/2-inch-L-SHAPED-CORNER-BRACKETS-Flat-Right-Angle-Brace-Fix-Repair-Strengthen-/282552150974?hash=item41c96babbe:g:0mwAAOSwjRpZQmDQ
p7
aVhttp://www.ebay.com/itm/Famous-Names-IBX-System-Duo-Pack-Strengthen-10-4ml-Repair-7-4ml-4020-/201971941483?epid=1273386485&hash=item2f0677406b:g:K3AAAOSwVJhZV5jM
p8
aVhttp://www.ebay.com/itm/Trans-Lesbian-Tomboy-Strengthen-Flat-Chest-Breast-Binder-Short-Cosplay-Vest-XL-/263065996230?hash=item3d3ff48bc6:g:hJwAAOSwYSlXhfUS
p9
aVhttp://www.ebay.com/itm/Henna-Hair-Powder-450g-3-x150-Shine-Condition-Strengthen-with-9-hair-nutrients-/253020265133?hash=item3ae92edaad:g:yqIAAOSwTf9ZVmFK
p10
aVhttp://www.ebay.com/itm/NEW-Sensodyne-Pronamel-STRONG-BRIGHT-Enamel-Strengthen-Extra-Fresh-Toothpaste-/192231559684?var=&hash=item2cc1e4d204:m:mvhejun_Xx2hC8sxDwNAoag
p11
aVhttp://www.ebay.com/itm/UK-Trans-Lesbian-Tomboy-Strengthen-Flat-Chest-Breast-Binder-Short-Cosplay-Vest-M-/263060864168?epid=531908517&hash=item3d3fa63ca8:g:aSgAAOSw4A5YtS8A
p12
aVhttp://www.ebay.com/itm/Nail-Art-Tips-Extension-Strengthen-UV-Builder-Gel-15ML-Manicure-Design-Elite99-/182634113688?var=&hash=item2a85d76a98:m:mzzZmv8R1Mgpf7CXcoLypRQ
p13
aVhttp://www.ebay.com/itm/37cm-Fitness-Exercise-Training-Balance-Board-Strengthen-Knees-Core-Shoulders-UK-/172733888469?epid=27003351651&hash=item2837bdf7d5:g:q5cAAOSwyltZQzME
p14
aVhttp://www.ebay.com/itm/Shea-Moisture-Jamaican-Black-Castor-Oil-Strengthen-Grow-and-Restore-Conditioner-/172725483594?hash=item28373db84a:g:4WAAAOSw6ShZPTrz
p15
aVhttp://www.ebay.com/itm/REVALID-SHAMPOO-WITH-PROTEINS-FOR-DAILY-HAIR-CARE-STRENGTHEN-250ML-SZAMPON-/272703596748?epid=1966150844&hash=item3f7e66a8cc:g:P-oAAOSw0j9ZOw1W
p16
aVhttp://www.ebay.com/itm/Hair-Boost-Oil-Healthy-Strong-Cacay-Argan-Almond-Jojoba-Serum-Strengthen-Roots-/252972402923?epid=936750159&hash=item3ae65488eb:g:q4QAAOSww9xZMrpY
p17
aVhttp://www.ebay.com/itm/Elite99-Extension-UV-Builder-Gel-Strengthen-French-Tips-Manicure-Decor-Nail-Art-/232356022300?var=&hash=item36197f881c:m:mE1uTC9iAgmzBZqzLFOTeQw
p18
aVhttp://www.ebay.com/itm/1-Gui-Pi-Wan-Strengthen-the-spleen-and-the-heart-Nourish-blood-Calm-the-mind-/132210829239?hash=item1ec86127b7:g:eSQAAOSwaEhZMOwQ
p19
aVhttp://www.ebay.com/itm/6-Gui-Pi-Wan-Strengthen-the-spleen-and-the-heart-Nourish-blood-Calm-the-mind-/132210829240?hash=item1ec86127b8:g:9hcAAOSw42JZMOyg
p20
aVhttp://www.ebay.com/itm/4-Gui-Pi-Wan-Strengthen-the-spleen-and-the-heart-Nourish-blood-Calm-the-mind-/132210825926?hash=item1ec8611ac6:g:qzwAAOSwAPVZMOx-
p21
aVhttp://www.ebay.com/itm/Thigh-Toner-Fitness-Phoenix-Resistance-Exercise-Strengthen-Black-New-/361994764934?epid=1437487766&hash=item544891c286:g:VQIAAOSwjqVZLe1B
p22
aVhttp://www.ebay.com/itm/Trans-Lesbian-Tomboy-Strengthen-Flat-Chest-Breast-Binder-Short-Cosplay-Vest-SNO-/263007599050?var=&hash=item3d3c7979ca:m:m6SgrJIq_sKezyF-b0eqg-w
p23
aVhttp://www.ebay.com/itm/NAF-HOOF-SOLE-Equestrian-Horse-Strengthen-Soft-Cracked-and-Disinfect-Frog-Area-/192197945174?var=&epid=1404298090&hash=item2cbfe3e756:m:miqAdJluOW2Y0KS-WwB8WFQ
p24
aVhttp://www.ebay.com/itm/Strengthen-Hair-System-Thinning-Loss-Scalp-Shampoo-Revitaliser-Treatment-NEW-/112417939480?epid=1172313429&hash=item1a2ca1a018:g:jZIAAOSwX61ZJXrF
p25
aVhttp://www.ebay.com/itm/Shea-Moisture-Jamaican-Black-Castor-Oil-Strengthen-Grow-Restore-Treatment-326ml-/332233732604?epid=1683295771&hash=item4d5aac71fc:g:714AAOSwY3BZJUBR
p26
aVhttp://www.ebay.com/itm/Gem-Crystal-Flower-Essence-Auric-Protection-10ml-Strengthen-your-auric-field-/252954266454?hash=item3ae53fcb56:g:KFcAAOSwcgNZJHu5
p27
aVhttp://www.ebay.com/itm/Shea-Moisture-JB-Castor-Oil-Strengthen-Grow-Restore-Conditioner-384ml-/222520830786?epid=1090169812&hash=item33cf466b42:g:v-EAAOSwZKBZI4JA
p28
aVhttp://www.ebay.com/itm/SHEA-MOISTURE-Strengthen-Grow-Restore-Shampoo-16oz-The-Xpression-Beauty-/122504309134?hash=item1c85d3698e:g:NdMAAOSwlMFZHsot
p29
aVhttp://www.ebay.com/itm/Shri-Gopal-Tail-for-Premature-Ejaculation-Strengthen-Nerves-Muscles-/182581863009?hash=item2a82ba2261:g:qFMAAOSwtGlZHf65
p30
aVhttp://www.ebay.com/itm/Rainbow-Dust-Edible-Tylo-Tylose-Powder-50g-Strengthen-Sugarpaste-Gum-Paste-/322505946660?epid=23002740057&hash=item4b16da3624:g:Gl4AAOSwrhBZDHlK
p31
aVhttp://www.ebay.com/itm/OPI-Original-Nail-Envy-x1-x2-x3-Strengthen-Your-Nail-/192170617087?var=&hash=item2cbe42e8ff:m:myve8-mU-wiv-1GWHvOm1ww
p32
aVhttp://www.ebay.com/itm/Shea-Moisture-Jamaican-Black-Castor-Oil-Strengthen-Grow-Restore-Edge-Treatmen-/361962588922?epid=1783341047&hash=item5446a6cafa:g:yRsAAOSwX61ZLQNE
p33
aVhttp://www.ebay.com/itm/Avon-TRUE-Nail-Experts-5-in1-Treatment-Resists-Stain-Protect-Strengthen-Nail-/262951253385?hash=item3d391db589:g:kPUAAOSwVm5Y~fhH
p34
aVhttp://www.ebay.com/itm/Weight-Lifting-Head-Harness-Nylon-Neck-Sling-Strengthen-Head-Strap-Exercise-/172641508781?hash=item28323c5dad:g:eAkAAOSwHptY~bN2
p35
aVhttp://www.ebay.com/itm/LOreal-Absolut-Repair-Strengthen-Soften-100ml-Shampoo-75ml-Masque-/152521136464?hash=item2382f7d950:g:0UkAAOSw3utY53gQ
p36
aVhttp://www.ebay.com/itm/XXR-Fit-W-L-Gloves-Leather-Gloves-Fitnes-Strengthen-Training-Workout-Gym-Gloves-/142356737338?var=&hash=item21251f6d3a:m:mbFGMJgWSCeinGJ7Tn8sZQw
p37
aVhttp://www.ebay.com/itm/XXR-Tex-Weight-Lifting-Gloves-Leather-Gloves-Fitness-Strengthen-Training-Workout-/172604121443?var=&hash=item283001e163:m:mxb8peBCf_JA3HUMKyi0Izg
p38
aVhttp://www.ebay.com/itm/XXR-BROWN-Weight-Lifting-Gloves-Strengthen-Training-Fitness-Gym-Exercise-Workout-/172604100152?var=&hash=item2830018e38:m:mfIKxNkKSoTLRVCvWzffs1g
p39
aVhttp://www.ebay.com/itm/Olaplex-Hair-Perfector-No-3-100ml-Strengthen-and-Repair-treatment-/262915077984?epid=1940276712&hash=item3d36f5b760:g:RDUAAOSwSlBY29VB
p40
aVhttp://www.ebay.com/itm/R-O-C-S-Teeth-Whitening-PRO-Fresh-Mint-100ml-Strengthen-Tooth-Enamel-and-Gums-/322465943527?hash=item4b1477cfe7:g:tbYAAOSw4CFY2m3I
p41
aVhttp://www.ebay.com/itm/Shea-Moisture-Jamaican-Black-Castor-Oil-Strengthen-Grow-Restore-Treatment-Ma-/192141439779?epid=1683295771&hash=item2cbc85b323:g:c3cAAOSw6SlZdYOY
p42
aVhttp://www.ebay.com/itm/SHEA-MOISTURE-STRENGTHEN-GROW-RESTORE-HAIR-SERUM-2oz-AUTHORIZED-UK-SELLER-/282411173481?hash=item41c1048669:g:3QwAAOSw4A5Y2NNk
p43
aVhttp://www.ebay.com/itm/Escort-MK1-MK2-Body-Strengthen-Welding-Kit-GROUP4-RALLY-/382016621147?epid=733153566&hash=item58f1f70a5b:g:DiAAAOSwTuJYvqdW
p44
aVhttp://www.ebay.com/itm/Clarins-Be-Long-Mascara-3ml-Intense-Black-Lengthen-Strengthen-Lashes-in-4-Wks-/282402545218?hash=item41c080de42:g:kskAAOSwcB5ZMw-l
p45
aVhttp://www.ebay.com/itm/UFE-Egg-Power-Grip-Relieve-stress-and-strengthen-your-hands-/222443710255?var=&epid=1259653568&hash=item33caada72f:m:m9P86MoaZvWTXtkK8ZV0XPg
p46
aVhttp://www.ebay.com/itm/TOPBUXUS-Health-Mix-Strengthen-Healthy-Green-Shiny-Leaves-Protects-From-Blight-/152476628827?hash=item238050b75b:g:zpwAAOSwOgdYzR~C
p47
aVhttp://www.ebay.com/itm/XXR-COMFY-Weight-Lifting-Gloves-Leather-Gloves-Fitness-Strengthen-Training-/172578227498?var=&hash=item282e76c52a:m:m3N_zyn-AgWvl2P-P6qlOLA
p48
aVhttp://www.ebay.com/itm/15-Minute-Fitness-100-Quick-and-Easy-Exercises-Strengthen-and-9780241282885-/302251802648?epid=231346213&hash=item465f9c8018:g:rKYAAOSwax5Yx4sA
p49
aVhttp://www.ebay.com/itm/Bielenda-ANX-Total-Repair-Nail-Conditioner-Strengthen-Liquid-Gold-Diamond-/142310905842?var=&epid=594092931&hash=item21226417f2:m:mJfJ4ao8ZnbYW1CK3HwM-xg
p50
aVhttp://www.ebay.com/itm/AVON-ADVANCE-TECHNIQUES-SHAMPOO-250ml-CONDITIONER-250ml-Assorted-/322436799490?var=&hash=item4b12bb1c02:m:ml7ePfM2cxwr6rPiEvT3ZaQ
p51
aVhttp://www.ebay.com/itm/John-Frieda-Full-Repair-Strengthen-and-Restore-Conditioner-250ml-/222419847830?epid=1666772583&hash=item33c9418a96:g:ZP4AAOSw~AVYr33I
p52
aVhttp://www.ebay.com/itm/The-7-Day-Herbal-Tea-Lung-Detox-Cleanse-Heal-And-Strengthen-Your-Lungs-With-/222419830912?epid=1717243363&hash=item33c9414880:g:0RsAAOSw3v5Yr3kR
p53
aVhttp://www.ebay.com/itm/Fitness-for-the-Over-50s-Strengthen-Muscles-DVD-2009-Nancy-Marmorat-/302231841549?epid=72581410&hash=item465e6beb0d:g:GvAAAOSwOgdYrP-H
p54
aVhttp://www.ebay.com/itm/Naturtint-Shampoo-or-Colour-Fixing-Protective-Conditioner-dry-hair-strengthen-/152436164938?var=&epid=1005245059&hash=item237de7494a:m:mufbLO9AxeRq3DS6Z4E8S9w
p55
aVhttp://www.ebay.com/itm/John-Frieda-Full-Repair-Strengthen-Restore-Conditioner-250ml-/142276995595?epid=1505430040&hash=item21205eaa0b:g:9owAAOSwTuJYoOul
p56
aVhttp://www.ebay.com/itm/John-Frieda-Full-Repair-Strengthen-Restore-Shampoo-250ml-Shampoo-250-ml-/122354157991?epid=1094891213&hash=item1c7ce049a7:g:05UAAOSwfVpYoOuj
p57
aVhttp://www.ebay.com/itm/180mm-Black-Super-Strengthen-Thin-Diamond-Saw-Blade-For-Tile-Porcelain-Marble-/192098533343?hash=item2cb9f6ffdf:g:J~MAAOSwLEtYmbuq
p58
aVhttp://www.ebay.com/itm/Yoga-for-Climbers-Stretch-Strengthen-and-Climb-Highe-Paperback-NEW-Nicole-T-/361898797246?epid=223178339&hash=item5442d968be:g:BwwAAOSwnHZYmH~j
p59
aVhttp://www.ebay.com/itm/Strengthen-Road-wheels-for-Panther-D-RE35-113-PANZER-ART-1-35-/122342111417?hash=item1c7c2878b9:g:pWEAAOSwe7BW0Lzh
p60
aVhttp://www.ebay.com/itm/Shea-Moisture-Jamaican-Black-Castor-Oil-Strengthen-Grow-and-Restore-Treatment-Ma-/252753418241?epid=1683295771&hash=item3ad9471801:g:rN8AAOSwA3dYlHFg
p61
aVhttp://www.ebay.com/itm/Shea-Moisture-Jamaican-Black-Castor-Oil-Strengthen-Grow-and-Restore-Hair-Serum-5-/252752005115?epid=547960845&hash=item3ad93187fb:g:D7YAAOSwopRYkzqu
p62
aVhttp://www.ebay.com/itm/Shea-Moisture-Jamaican-Black-Castor-Oil-Strengthen-Grow-and-Restore-Conditioner-/252751992503?hash=item3ad93156b7:g:AfUAAOSwnHZYkzfs
p63
aVhttp://www.ebay.com/itm/Shea-Moisture-Jamaican-Black-Castor-Oil-Strengthen-Grow-Restore-Edge-Treatment-/252751980133?epid=1683295771&hash=item3ad9312665:g:F94AAOSwTglYkzS2
p64
aVhttp://www.ebay.com/itm/Phoenix-Thigh-Toner-Fitness-Resistance-Exercise-Thigh-Tone-Strengthen-Leg-Toner-/162378071531?hash=item25ce7cbdeb:g:m8oAAOSw9GhYkIs~
p65
aVhttp://www.ebay.com/itm/Phoenix-Thigh-Toner-Fitness-Resistance-Exercise-Thigh-Tone-Strengthen-Leg-Toner-/162378071531?hash=item25ce7cbdeb:g:m8oAAOSw9GhYkIs~
p66
aVhttp://www.ebay.com/itm/Abdominal-Roller-Knee-Mat-Strengthen-Tone-Body-Muscles-Portable-Lightweight-New-/252740912707?hash=item3ad8884643:g:qTYAAOSw2xRYiWLs
p67
aVhttp://www.ebay.com/itm/2-Packs-ARM-HAMMER-Truly-Radiant-Whitening-Enamel-Strengthen-Toothpaste-/192085346157?epid=1237222268&hash=item2cb92dc76d:g:ACcAAOSwNdBZc-SU
p68
aVhttp://www.ebay.com/itm/Tigi-Bed-Head-Brunette-Goddess-Strengthen-Shine-Conditioner-Travel-Size-60ml-/122322915243?epid=1608839894&hash=item1c7b038fab:g:cIUAAOSw-0xYhTxp
p69
aVhttp://www.ebay.com/itm/The-Daniel-Fast-Feed-Your-Soul-Strengthen-Your-Spirit-and-Ren-9781414334134-/252729953491?epid=89047050&hash=item3ad7e10cd3:g:3DkAAOSw241Yf38F
p70
aVhttp://www.ebay.com/itm/Shea-Moisture-Jamaican-Black-Castor-Oil-Strengthen-Grow-and-Restore-Shampoo-482-/222378260424?hash=item33c6c6f7c8:g:nJsAAOSwjDZYes4N
p71
aVhttp://www.ebay.com/itm/Shea-Moisture-Jamaican-Black-Castor-Oil-Strengthen-Grow-and-Restore-Conditioner-/222378259287?hash=item33c6c6f357:g:9hgAAOSw9GhYes1r
p72
aVhttp://www.ebay.com/itm/Chair-Yoga-Sit-Stretch-and-Strengthen-Your-Way-to-a-Happier-9780349416083-/302195451337?epid=231539788&hash=item465c40a5c9:g:hx8AAOSwnHZYeTe3
p73
aVhttp://www.ebay.com/itm/Shea-Moisture-Jamaican-Black-Castor-Oil-Strengthen-Grow-and-Restore-Leave-In-Con-/272514244941?epid=902311093&hash=item3f731d614d:g:a5cAAOSwnHZYcefO
p74
aVhttp://www.ebay.com/itm/Soulmate-Path-Find-the-Love-You-Want-and-Strengthen-th-Paperback-NEW-Monte-Fa-/391652844679?epid=92495232&hash=item5b30542487:g:uusAAOSwo4pYUmNN
p75
aVhttp://www.ebay.com/itm/Color-Random-Dog-Puppy-Pet-Chew-Toy-Knots-Cotton-Rope-Strengthen-Teeth-Ball-/192051923637?var=&hash=item2cb72fcab5:m:mHeRiR38fWaZ48ou4crbSgw
p76
aVhttp://www.ebay.com/itm/Joanna-Turnip-Ampoules-To-Strengthen-Thin-Greasy-Hair-4pcs-/272475246366?epid=1730009730&hash=item3f70ca4f1e:g:WeAAAOSwA3dYSBVN
p77
aVhttp://www.ebay.com/itm/YOGA-Strengthen-Your-Body-And-Refresh-Your-Mind-BOOK-CD-BELT-Box-Set-/152331572750?epid=209506242&hash=item2377ab560e:g:wUsAAOSwj85YODZC
p78
aVhttp://www.ebay.com/itm/SALLY-HANSEN-HARD-AS-NAILS-STRENGTHEN-GROW-Z2106-NATURAL-TINT-BRAND-NEW-/401227368868?epid=1205178114&hash=item5d6b03c9a4:g:UIMAAOSwImRYLcu4
p79
aVhttp://www.ebay.com/itm/HASK-ARGAN-MACADAMIA-Keratin-Coconut-OIL-Shine-Treatment-Strengthen-/252639378182?var=&hash=item3ad27afb06:m:mFHPzMmQBu0zSTVafM0C84A
p80
aVhttp://www.ebay.com/itm/Shea-Moisture-Jamaican-Black-Castor-Oil-Strengthen-Grow-Restore-Edge-Treatment-/152320103374?hash=item2376fc53ce:g:q3UAAOSwux5YLEUt
p81
aVhttp://www.ebay.com/itm/OPHORIA-KEGAL-BALLS-PINK-VAGINAL-PELVIC-MUSCLES-TIGHTEN-STRENGTHEN-/152320053709?hash=item2376fb91cd:g:3e4AAOSwgZ1Xv~hE
p82
aVhttp://www.ebay.com/itm/TopRank-Claw-Hand-Gripper-Black-GYM-Strength-Training-Strengthen-/262713510071?hash=item3d2af208b7:g:APMAAOSwpkFY6O8a
p83
aVhttp://www.ebay.com/itm/Shea-Moisture-Jamaican-Black-Castor-Oil-Genuine-/232137903509?var=&epid=1139891305&hash=item360c7f4d95:m:mcPslIeUe_BcscIIs-LZY1w
p84
aVhttp://www.ebay.com/itm/Bumper-Bundle-Companion-Workbook-75-Quizzes-and-Exercises-to-Strengthen-Your-Mo-/201701794629?epid=1830240797&hash=item2ef65d2345:g:Q7oAAOSwHMJYE0lj
p85
aVhttp://www.ebay.com/itm/Loon-UV-Knot-Sense-Strengthen-your-Newly-Tied-Knots-/361788833587?epid=1705536617&hash=item543c4b7f33:g:CYAAAOSwHMJYK1Z4
p86
aVhttp://www.ebay.com/itm/Pet-Dog-Chew-Toy-Puppy-Dog-Small-Knots-Large-Cotton-Rope-Strengthen-Teeth-Ball-/232120666674?var=&hash=item360b784a32:m:mfz8TwGbyveIBtSyglalP_A
p87
aVhttp://www.ebay.com/itm/Shea-Moisture-Jamaican-Black-Castor-Oil-Strengthen-Leave-In-Conditioner-16oz-/282221118404?epid=1139219082&hash=item41b5b083c4:g:VdYAAOSw9mFWG93x
p88
aVhttp://www.ebay.com/itm/Shea-Moisture-Strengthen-Grow-and-Restore-Styling-Lotion-8oz-/252586796480?hash=item3acf58a5c0:g:rJEAAOSw5ZBWG-RP
p89
aVhttp://www.ebay.com/itm/Shea-Moisture-Strengthen-Grow-Restorative-Hair-Serum-2-fl-oz-59-ml-/282220919277?epid=1139891305&hash=item41b5ad79ed:g:jMEAAOSwo0JWG96f
p90
aVhttp://www.ebay.com/itm/Berman-Center-Berman-Juno-Kegel-Exerciser-Strengthen-Pelvic-Floor-/282220013586?hash=item41b59fa812:g:LFwAAOSwLF1YAQs6
p91
aVhttp://www.ebay.com/itm/PANZER-ART-1-35-RE35-165-Strengthen-Mantlet-with-Cast-Mark-for-Tiger-I-/122181638618?hash=item1c7297d9da:g:h8oAAOSwZd1Vbw2h
p92
aVhttp://www.ebay.com/itm/1-Unit-Chinese-Medicinal-Weight-Loss-Green-Tea-Health-Beautify-Strengthen-Gift-/252574244894?epid=1456399312&hash=item3ace99201e:g:OBkAAOSwRLZUHeqT
p93
aVhttp://www.ebay.com/itm/Brewers-Yeast-Tablets-Dog-Vitamins-Support-Metabolism-Strengthen-Nerves-125g-/172367035319?hash=item2821e03bb7:g:Nv0AAOSwOyJX93yK
p94
aVhttp://www.ebay.com/itm/UK-Trans-Lesbian-Tomboy-Strengthen-Flat-Chest-Breast-Binder-Short-Cosplay-Vest-/371755755681?var=&hash=item568e5ea8a1:m:m6SgrJIq_sKezyF-b0eqg-w
p95
aVhttp://www.ebay.com/itm/The-Zen-of-Fundraising-89-Timeless-Ideas-to-Strengthen-and-Deve-9780787983147-/252573133550?epid=89680109&hash=item3ace882aee:g:M1EAAOSwpLNX9uMr
p96
aVhttp://www.ebay.com/itm/KISS-MAXIMUM-NAIL-STRENGTHENER-STRENGTHEN-GROW-58424-15ml-/401192976984?epid=1470324436&hash=item5d68f70258:g:g5IAAOSwOyJX4qt6
p97
aVhttp://www.ebay.com/itm/Strengthen-Yourself-in-the-Lord-How-to-R-Johnson-Bill-Paperback-softback-/391568439224?epid=91395491&hash=item5b2b4c37b8:g:Hq0AAOSweARZddkZ
p98
aVhttp://www.ebay.com/itm/Drawer-Repair-Kit-Sagging-Broken-Collapsed-Fix-Mend-Reinforce-Strengthen-STRONG-/142116346922?var=&hash=item2116cb5c2a:m:m_dQSOBocP4YIhnGpb2CE9Q
p99
aVhttp://www.ebay.com/itm/JAMAICAN-BLACK-CASTOR-OIL-STRENGTHEN-GROW-RESTORE-HAIR-SERUM-by-Shea-moisture-/252532803441?epid=1139891305&hash=item3acc20c771:g:i1AAAOSwzJ5XXB2r
p100
aVhttp://www.ebay.com/itm/NEW-PRETTY-RIDGE-FILLING-BASE-COAT-NAIL-TREATMENT-ARGAN-OIL-STRENGTHEN-NAILS-/172332277874?var=&hash=item281fcde072:m:mDFcNrU8Ntg9iiHfGDivYcA
p101
aVhttp://www.ebay.com/itm/3x-John-Frieda-Full-Repair-Strengthen-Restore-Conditioner-250ml-NEW-/252525407202?hash=item3acbafebe2:g:kEkAAOSwa-dWjzGn
p102
aVhttp://www.ebay.com/itm/Red-6-Bass-Drum-Os-Strengthen-Your-Bass-Drum-Skin-AOR6-/361711143257?hash=item5437aa0959:g:jwsAAOSwgmJXyDbR
p103
aVhttp://www.ebay.com/itm/Red-4-Bass-Drum-Os-Strengthen-Your-Bass-Drum-Skin-AOR4-/142104620686?hash=item2116186e8e:g:MgIAAOSwgmJXyDuJ
p104
aVhttp://www.ebay.com/itm/Purple-4-Bass-Drum-Os-Strengthen-Your-Bass-Drum-Skin-AOP4-/142104610603?hash=item211618472b:g:XEQAAOSwgmJXyDV4
p105
aVhttp://www.ebay.com/itm/White-4-Bass-Drum-Os-Strengthen-Your-Bass-Drum-Skin-AOW4-/142104587140?hash=item211617eb84:g:deIAAOSw8oFXyC0X
p106
aVhttp://www.ebay.com/itm/White-6-Bass-Drum-Os-Strengthen-Your-Bass-Drum-Skin-AOW6-/401180836727?hash=item5d683dc377:g:7g4AAOSwOdpXyE04
p107
aVhttp://www.ebay.com/itm/Green-6-Bass-Drum-Os-Strengthen-Your-Bass-Drum-Skin-AOG6-/361711076685?hash=item5437a9054d:g:5JEAAOSw8oFXyCl1
p108
aVhttp://www.ebay.com/itm/Green-4-Bass-Drum-Os-Strengthen-Your-Bass-Drum-Skin-AOG4-/142104565473?hash=item21161796e1:g:7e0AAOSw7U5Y8khf
p109
aVhttp://www.ebay.com/itm/Chrome-6-Bass-Drum-Os-Strengthen-Your-Bass-Drum-Skin-AOC6-/142104563255?hash=item2116178e37:g:VyoAAOSwOdpXyCYg
p110
aVhttp://www.ebay.com/itm/Chrome-4-Bass-Drum-Os-Strengthen-Your-Bass-Drum-Skin-AOC4-/142104559761?hash=item2116178091:g:P4sAAOSw8oFXyCUe
p111
aVhttp://www.ebay.com/itm/Brass-Effect-4-Bass-Drum-Os-Strengthen-Your-Bass-Drum-Skin-AOBR4-/142104520714?hash=item211616e80a:g:3EoAAOSwFdtXyBv8
p112
aVhttp://www.ebay.com/itm/Black-5-Bass-Drum-Os-Strengthen-Your-Bass-Drum-Skin-AOK5-/142104511921?hash=item211616c5b1:g:nCAAAOSw8oFXyBnm
p113
aVhttp://www.ebay.com/itm/Black-4-Bass-Drum-Os-Strengthen-Your-Bass-Drum-Skin-AOK4-/401180800829?hash=item5d683d373d:g:fToAAOSwgmJXyBlo
p114
aVhttp://www.ebay.com/itm/Nausea-Vomiting-Strengthen-Stomach-Liver-JAWARISH-ANARAIN-Hamdard-/182262685395?epid=676800061&hash=item2a6fb3ded3:g:1agAAOSwhQhY4Nou
p115
aVhttp://www.ebay.com/itm/Shea-Moisture-Jamaican-Black-Castor-Oil-Strengthen-Grow-and-Restore-Edge-Treatme-/232058471476?epid=1479463467&hash=item3607c34434:g:eEUAAOSwZVlXvYUm
p116
aVhttp://www.ebay.com/itm/TAI-CHI-FOR-BACK-PAIN-Relieve-Back-Pain-NEW-Relieve-Pain-Strengthen-Muscles-/222228258489?epid=30863439&hash=item33bdd61eb9:m:mIkvhEuIXxmFEUZpuTlRs6A
p117
aVhttp://www.ebay.com/itm/NEW-PRETTY-RIDGE-FILLING-BASE-COAT-NAIL-TREATMENT-ARGAN-OIL-STRENGTHEN-NAILS-/322228883409?var=&hash=item4b06568fd1:m:mDFcNrU8Ntg9iiHfGDivYcA
p118
aVhttp://www.ebay.com/itm/NEW-PRETTY-ARGAN-OIL-STRENGTHEN-DRY-BRITTLE-NAILS-TREATMENT-COLOUR-TOPCOAT-/262579010874?epid=1740304840&hash=item3d22edbd3a:g:VIwAAOSwMtxXscwZ
p119
aVhttp://www.ebay.com/itm/Majun-Shabab-Awar-Herbal-Strengthen-Brain-Nervous-System-Vigour-Vitality-/182242926538?hash=item2a6e865fca:g:0D4AAOSwol5Y1Tdv
p120
aVhttp://www.ebay.com/itm/4-x-NEW-LARGE-EB-CASE-CORNERS-SCREWS-Strengthen-Finish-Box-Chest-Wood-28mm-/112085719313?hash=item1a18d45911:g:0x0AAOSwBLlVLZsH
p121
aVhttp://www.ebay.com/itm/12-x-NEW-LARGE-EB-CASE-CORNERS-SCREWS-Strengthen-Finish-Box-Chest-Wood-28mm-/122076227685?hash=item1c6c4f6865:g:0nMAAOSwBLlVLZr9
p122
aVhttp://www.ebay.com/itm/Air-Expander-Backyard-Vaginal-Strengthen-Extender-Enlarger-Stretcher-Plug-/232038784650?hash=item360696de8a:g:tBAAAOSwaB5Xo8Wb
p123
aVhttp://www.ebay.com/itm/7-Weeks-to-100-Push-ups-Strengthen-and-Sculpt-Your-A-Steve-Speirs-Paperback-/142074646845?epid=88944392&hash=item21144f113d:g:SvMAAOSw-29ZQXDN
p124
aVhttp://www.ebay.com/itm/Creightons-Keratin-PRO-Smooth-and-Strengthen-Shampoo-Conditioner-/262557742230?epid=1237935796&hash=item3d21a93496:g:WOMAAOSwhOdXn27R
p125
aVhttp://www.ebay.com/itm/Beaphar-Anti-Itch-Shampoo-For-Dogs-Cats-200ml-MSM-Helps-Strengthen-Hair-/272295240963?hash=item3f660fa503:g:RAAAAOSwMpZUp~o8
p126
aVhttp://www.ebay.com/itm/Plagron-Diamond-Shield-Plant-Protector-Bacteria-Fungi-Botrytus-Strengthen-Crops-/112042341911?epid=1922810543&hash=item1a163e7617:g:A~UAAOSwgY9Xc9cT
p127
aVhttp://www.ebay.com/itm/SALLY-HANSEN-DAILY-NAIL-TREATMENTS-NAIL-FILES-STRENGTHEN-GROW-CHOOSE-TYPE-/401140533317?var=&hash=item5d65d6c845:m:mSWy24WJHsQftkc4quR3rMQ
p128
aVhttp://www.ebay.com/itm/Cabinet-Gyro-Wrist-Arm-Muscle-Force-Power-Strengthen-Massage-Ball-Yellow-UK-2-SK-/191900941448?hash=item2cae2ffc88:g:KrEAAOSwjVVVieJB
p129
aVhttp://www.ebay.com/itm/XXR-Tech-Pro-W-Gloves-Leather-Gloves-Fitness-Strengthen-Training-Gym-Gloves-/172243743184?var=&hash=item281a86f1d0:m:mxF1XfyrzwYf01fAIr3FmnQ
p130
aVhttp://www.ebay.com/itm/XXR-Max-W-L-Gloves-Leather-Gloves-Fitness-Strengthen-Training-Workout-Gym-Gloves-/172243737097?var=&hash=item281a86da09:m:mlYb-WgRN8OTrAizrxDoRWw
p131
aVhttp://www.ebay.com/itm/20-CM-COTTON-ROPE-DOG-PUPPY-TUG-TOY-HELPS-CLEAN-STRENGTHEN-TEETH-364501-/152128903474?hash=item236b96d932:g:Ka4AAOSwMNxXX~Zs
p132
aVhttp://www.ebay.com/itm/The-Mozart-Effect-Vol-1-Strengthen-The-Mind-/381659245655?epid=181935185&hash=item58dca9ec57:g:md0AAOSwMNxXUs0Y
p133
aVhttp://www.ebay.com/itm/XXR-BROWN-Weight-Lifting-Gloves-Strengthen-Training-Fitness-Gym-Exercise-Workout-/182157925364?var=&epid=1773641077&hash=item2a69755bf4:m:mHV6MHzQQKBzkJqRKMzBSMw
p134
aVhttp://www.ebay.com/itm/wii-DAISY-FUENTES-PILATES-Tone-Strengthen-And-Transform-Your-Body-Nintendo-PAL-/162091946226?epid=1404331667&hash=item25bd6ed0f2:g:kCEAAOSwu-BWQLbo
p135
aVhttp://www.ebay.com/itm/XXR-LITE-Weight-Lifting-Gloves-Strengthen-Training-Gloves-Fitness-Gym-Exercise-/172228868850?var=&hash=item2819a3faf2:m:mLTbam1Qz3vr0clAQaaDlEg
p136
aVhttp://www.ebay.com/itm/XXR-Basic-Neoprene-Weight-Lifting-Belt-Fitness-Strengthen-Training-Workout-Power-/182157881256?var=&epid=1172701117&hash=item2a6974afa8:m:mwT6e6F6Cx5lrylG_tJMU9A
p137
aVhttp://www.ebay.com/itm/XXR-Elite-Pro-Gel-Weight-Lifting-Gloves-Leather-Gloves-Fitness-Strengthen-/182157879494?var=&hash=item2a6974a8c6:m:mAI8fXBQktc10lzAXP1699Q
p138
aVhttp://www.ebay.com/itm/XXR-Pro-Neoprene-Weight-Lifting-Belt-Fitness-Strengthen-Training-Workout-Power-/182157875405?var=&epid=1773640982&hash=item2a697498cd:m:m9dqXI8zONUGF9apKyyxOOA
p139
aVhttp://www.ebay.com/itm/XXR-Tech-Pro-Weight-Lifting-Gloves-Leather-Gloves-Fitness-Strengthen-Training-/172228845531?var=&hash=item2819a39fdb:m:mxF1XfyrzwYf01fAIr3FmnQ
p140
aVhttp://www.ebay.com/itm/Weight-Lifting-Gloves-Perforated-Leather-Workout-Gym-Fitness-Strengthen-Training-/351747614160?var=&hash=item51e5caa5d0:m:mVQwZikkivQun-3WttNNOBQ
p141
aVhttp://www.ebay.com/itm/Bosch-Replacement-230mm-Strengthen-Durablade-Blades-for-ART-23-18-LI-Grass-Trime-/201591231716?epid=1871343839&hash=item2eefc614e4:g:iPoAAOSwneRXRYsM
p142
aVhttp://www.ebay.com/itm/Avon-Advance-Techniques-Strengthen-and-Protect-Conditioner-250-ml-/272249986040?epid=1071459781&hash=item3f635d1bf8:g:~9oAAOSwq5pXQEjU
p143
aVhttp://www.ebay.com/itm/RICH-KERATIN-LIQUID-HAIR-SERUM-STRENGTHEN-REVITALIZE-RESTORE-REPLENISH-PROTECT-/262434937768?epid=1869327700&hash=item3d1a575ba8:g:u3gAAOSwN81XNc73
p144
aVhttp://www.ebay.com/itm/DAISY-FUENTES-PILATES-NINTENDO-Wii-TONE-STRENGTHEN-AND-TRANSFORM-YOUR-BODY-FIT-/131810663007?hash=item1eb0871a5f:g:vT0AAOSwfZhXMwCD
p145
aVhttp://www.ebay.com/itm/ARGANATURAL-ORGANIC-ARGAN-HAIR-Smoothing-Keratin-Serum-120ML-Strengthen-Soften-/291759673034?hash=item43ee3b4eca:g:jD0AAOSwiYFXDkoF
p146
aVhttp://www.ebay.com/itm/Strengthen-Yourself-in-the-Lord-How-to-Release-the-Hidden-Power-0768424275-/152081200825?epid=91395491&hash=item2368bef6b9:g:dzYAAOSwRH5XLKO5
p147
aVhttp://www.ebay.com/itm/Sri-Shri-Hanuman-Yantra-Copper-Yantram-Protect-You-and-Strengthen-Your-Will-/282023913570?epid=878549529&hash=item41a9ef6862:g:JpsAAOSwLa9UV9r2
p148
aVhttp://www.ebay.com/itm/Growth-Technology-Liquid-Oxygen-Nutrient-Hydroponics-Additive-Strengthen-Root-/252361070702?var=&hash=item3ac1e4586e:m:mC6CjTSN8sH2OwIpnp9IrgQ
p149
aVhttp://www.ebay.com/itm/Growth-Technology-Liquid-Silicon-Nutrient-Hydroponics-Additive-Strengthen-Plant-/262388711061?var=&hash=item3d1795fe95:m:mVOqCBth5JFwH3oLtO0d74A
p150
aVhttp://www.ebay.com/itm/The-Little-Book-of-Big-Brain-Games-517-Ways-to-Stretch-Strengthen-and-Grow-Yo-/172161040633?epid=178106798&hash=item28159900f9:g:GfQAAOSw0QFXB7KL
p151
aVhttp://www.ebay.com/itm/DR-Miracle-Strengthen-Temple-Nape-Gro-Balm-120ml-/121948366202?epid=646034435&hash=item1c64b0657a:g:z2YAAOSwyjBW3X3u
p152
aVhttp://www.ebay.com/itm/Digestive-Wellness-Strengthen-the-Immune-System-and-Pr-Paperback-NEW-Lipski-/391420066886?epid=194181948&hash=item5b22743c46:g:1ucAAOSwJQdW-~4X
p153
aVhttp://www.ebay.com/itm/The-Zen-of-Fundraising-89-Timeless-Ideas-to-Strengthen-Paperback-NEW-Burnett-/391412256606?epid=89680109&hash=item5b21fd0f5e:g:vyUAAOSwyjBW8UcI
p154
aVhttp://www.ebay.com/itm/FIDracing-Strengthen-Throttle-Servo-Mount-FID002S-Upgrade-for-Losi-5ive-KM-X2-/222060844004?epid=916891429&hash=item33b3db93e4:g:~IQAAOSwuxFY3Px-
p155
aVhttp://www.ebay.com/itm/FIDracing-Strengthen-Throttle-Servo-Mount-FID002S-Upgrade-for-Losi-5ive-KM-X2-/322047466918?epid=917122117&hash=item4afb865da6:g:pEcAAOSw4CFY3PkV
p156
aVhttp://www.ebay.com/itm/XXR-Fit-W-L-Gloves-Leather-Gloves-Fitnes-Strengthen-Training-Workout-Gym-Gloves-/172137166162?var=&hash=item28142cb552:m:m-pZfMz9wfZuEgwyc_l-eOw
p157
aVhttp://www.ebay.com/itm/XXR-Pro-Neoprene-Weight-Lifting-Belt-Fitness-Strengthen-Training-Workout-Power-/172134816207?var=&hash=item281408d9cf:m:my0BbymrWys7S_x7KUFp0Nw
p158
aVhttp://www.ebay.com/itm/XXR-Max-Weight-Lifting-Gloves-Leather-Gloves-Fitness-Strengthen-Training-gloves-/141930341115?var=&hash=item210bb522fb:m:mlYb-WgRN8OTrAizrxDoRWw
p159
aVhttp://www.ebay.com/itm/Culpitt-Edible-Tylo-Tylose-Powder-To-Strengthen-Sugarpaste-Gum-Paste-85g-/141928012802?hash=item210b919c02:g:GAcAAOSwpIdW6-6n
p160
aVhttp://www.ebay.com/itm/Culpitt-Edible-Tylo-Tylose-Powder-To-Strengthen-Sugarpaste-Gum-Paste-85g-/141928001980?epid=1123177020&hash=item210b9171bc:g:VikAAOSwxp9W5H5c
p161
aVhttp://www.ebay.com/itm/XXR-Pro-Neoprene-Weight-Lifting-Belt-Fitness-Strengthen-Training-Workout-Power-L-/141927677114?var=&hash=item210b8c7cba:m:m9dqXI8zONUGF9apKyyxOOA
p162
aVhttp://www.ebay.com/itm/Biotene-Dry-Mouth-Toothpaste-100ml-with-fluoride-to-strengthen-teeth-/141924096732?epid=1016396259&hash=item210b55dadc:g:XOcAAOSwoudW3wkr
p163
aVhttp://www.ebay.com/itm/Femintimate-Pelvix-Muscle-Trainer-Strengthen-Pelvic-Floor-kit-Tracked-Postage-/172112362252?hash=item2812b23b0c:g:H7IAAOSwKtVWzOGV
p164
aVhttp://www.ebay.com/itm/GOLD-LABEL-HOOF-HARDENER-CREAM-horse-cracked-brittle-hooves-strengthen-450G-/272128112174?var=&epid=1223184116&hash=item3f5c19762e:m:m0U_aAY96PVqrqHSs26BucQ
p165
aVhttp://www.ebay.com/itm/The-Pilates-Deck-by-Shirley-J-Archer-Cards-50-Exercises-to-Strengthen-Muscles-/321996775619?epid=86637550&hash=item4af880e0c3:g:QnQAAOSwGotWsL0u
p166
aVhttp://www.ebay.com/itm/Naturtint-3-in-1-Structuring-Spray-30ml-Rebuild-Repair-Strengthen-Protect-/231833378265?epid=1428680318&hash=item35fa589dd9:g:vMMAAOSwzhVWsKrJ
p167
aVhttp://www.ebay.com/itm/ZIAJA-AVOCADO-OIL-HAND-CREAM-STRENGTHEN-THE-NAILS-SMOOTHING-100ml-00481-/121882241417?epid=1253198616&hash=item1c60bf6989:g:~BwAAOSw3v5YpxJc
p168
aVhttp://www.ebay.com/itm/Clynol-Speciality-Strengthen-Vitalising-Shampoo-300ml-/351641752335?epid=1456202310&hash=item51df7b530f:g:mZ0AAOSwzhVWq3nx
p169
aVhttp://www.ebay.com/itm/1-Inch-Frost-Metal-Hole-Flare-Tool-Panel-Flaring-Strengthen-Steel-Aluminium-/141881543406?epid=1850400580&hash=item2108cc8aee:g:G-cAAOSwAYtWLklZ
p170
aVhttp://www.ebay.com/itm/manicare-Nail-Hardener-To-Strengthen-And-Lengthen-Nails-11ml-/172052630580?hash=item280f22cc34:g:cHwAAOSwrklVCVKd
p171
aVhttp://www.ebay.com/itm/Phoenix-Fitness-RY915-Pair-of-Hand-Grips-To-Strengthen-Arms-And-Wrists-New-/131674370225?epid=1237483319&hash=item1ea86770b1:g:tIsAAOSwf-VWbDAx
p172
aVhttp://www.ebay.com/itm/NON-FLOURIDE-Biorepair-the-toothpaste-mineralize-repairs-tooth-enamel-cracks-/151912194059?var=&hash=item235eac200b:m:mMv6kOLbjbA9POdQ5pfR9JQ
p173
aVhttp://www.ebay.com/itm/SheaMoisture-Strengthen-Grow-Restore-Jamaican-Black-Castor-Oil-Range-/252162491804?var=&epid=1139219082&hash=item3ab60e459c:m:mDWxKmYncLV0BI8iSrlqxzA
p174
aVhttp://www.ebay.com/itm/FORTALECIMIENTO-POTENTE-JAMAIQUINO-NEGRO-ACEITE-DE-RICINO-JBCO-/111809645782?var=&hash=item1a085fccd6:m:mudl_hOnZaMVhTLtgG7xK3Q
p175
aVhttp://www.ebay.com/itm/STARKUNG-POTENZ-JAMAIKA-SCHWARZES-RIZINUSOL-JBCO-Haarverlangerung-Braid-Webarten-/111809645788?var=&hash=item1a085fccdc:m:mudl_hOnZaMVhTLtgG7xK3Q
p176
aVhttp://www.ebay.com/itm/RENFORCEMENT-PUISSANT-HUILE-DE-RICIN-NOIRE-JAMAICAINE-JBCO-Extensions-De-Cheveux-/111809645789?var=&hash=item1a085fccdd:m:mudl_hOnZaMVhTLtgG7xK3Q
p177
aVhttp://www.ebay.com/itm/Pilfood-Hair-Nutrients-Pill-Help-Growth-Treatment-Aid-Loss-Bald-Strengthen-Root-/281839913890?epid=1105399385&hash=item419ef7cba2:g:kyQAAOSw9mFWLq6Q
p178
aVhttp://www.ebay.com/itm/Rainbow-Dust-Edible-Tylo-Tylose-Powder-To-Strengthen-Sugarpaste-Gum-Paste-80g-/401013349353?epid=1340529853&hash=item5d5e421be9:g:vl4AAOSwOgdYwX~Z
p179
aVhttp://www.ebay.com/itm/Rainbow-Dust-Edible-Tylo-Tylose-Powder-To-Strengthen-Sugarpaste-Gum-Paste-50g-/401013349263?epid=1841065866&hash=item5d5e421b8f:g:CAUAAOSwol5YwX~R
p180
aVhttp://www.ebay.com/itm/Rainbow-Dust-Edible-Tylo-Tylose-Powder-To-Strengthen-Sugarpaste-Gum-Paste-120g-/121791986920?epid=1040568031&hash=item1c5b5e3ce8:g:Z34AAOSw4CFYwX9Q
p181
aVhttp://www.ebay.com/itm/XXR-LITE-W-L-Gloves-Strengthen-Training-Gloves-Fitness-Gym-Exercise-Workout-/171973095613?var=&hash=item280a6530bd:m:mLTbam1Qz3vr0clAQaaDlEg
p182
aVhttp://www.ebay.com/itm/Trudie-Stylers-Strengthen-and-Restore-Yoga-DVD-NEW-/351550876894?epid=115931616&hash=item51da10acde:g:U2QAAOSweW5U7hh-
p183
aVhttp://www.ebay.com/itm/2-X-ADVANCE-TECHNIQUES-STRENGTHEN-PROTECT-CONDITIONER-250-MLS-/361398075502?hash=item542501006e:g:AQ4AAOSw9r1WCWo9
p184
aVhttp://www.ebay.com/itm/Phoenix-Fitness-RY921-Thigh-Toner-Resistance-Exercise-Tone-Strengthen-Black-New-/401002534984?epid=1437487766&hash=item5d5d9d1848:g:L~YAAOSw9r1WCUYN
p185
aVhttp://www.ebay.com/itm/Dr-Miracles-Strengthen-Temple-Nape-Gro-Balm-113G-/252101171377?epid=1404164610&hash=item3ab26698b1:g:sAcAAOSwFnFWAoJd
p186
aVhttp://www.ebay.com/itm/CIRCULATION-AND-IMMUNE-SYSTEM-BOOSTER-Organic-Pure-Peppermint-Essential-Oil-/252094867385?var=&hash=item3ab20667b9:m:mVpGZgEaqpNXvsqn1ydRV1g
p187
aVhttp://www.ebay.com/itm/Rainbow-Dust-Edible-Tylo-Tylose-Powder-To-Strengthen-Sugarpaste-Gum-Paste-120g-/141762477156?hash=item2101b3bc64:g:90gAAOSw4A5YwX9e
p188
aVhttp://www.ebay.com/itm/Rainbow-Dust-Edible-Tylo-Tylose-Powder-To-Strengthen-Sugarpaste-Gum-Paste-50g-/121747928408?hash=item1c58bdf558:g:tEIAAOSwOgdYwX-T
p189
aVhttp://www.ebay.com/itm/Rainbow-Dust-Edible-Tylo-Tylose-Powder-To-Strengthen-Sugarpaste-Gum-Paste-50g-/121747924374?hash=item1c58bde596:g:1MMAAOSw32lYwX-g
p190
aVhttp://www.ebay.com/itm/Rainbow-Dust-Edible-Tylo-Tylose-Powder-To-Strengthen-Sugarpaste-Gum-Paste-80g-/141762471871?hash=item2101b3a7bf:g:ZIIAAOSw2gxYwX-r
p191
aVhttp://www.ebay.com/itm/Rainbow-Dust-Edible-Tylo-Tylose-Powder-To-Strengthen-Sugarpaste-Gum-Paste-80g-/400988313219?hash=item5d5cc41683:g:YdQAAOSw32lYwX0-
p192
aVhttp://www.ebay.com/itm/Rainbow-Dust-Edible-Tylo-Tylose-Powder-To-Strengthen-Sugarpaste-Gum-Paste-120g-/141762469729?hash=item2101b39f61:g:9J0AAOSwTM5YwYES
p193
aVhttp://www.ebay.com/itm/INSOMNIA-STRESS-RELIEF-STRENGTHEN-IMMUNE-SYSTEM-Organic-Lavender-Essential-Oil-/351494322003?var=&hash=item51d6b1b753:m:mJQQd00fisxL8DqrzojL77w
p194
aVhttp://www.ebay.com/itm/Strengthen-Tone-Exercise-Torsion-Twister-Disc-Weight-Loss-Fitness-waist-toning-/121689528400?epid=1188543284&hash=item1c5542d850:g:-e0AAOSwQYZWztEh
p195
aVhttp://www.ebay.com/itm/TOPPIK-FiberHold-Spray-118ml-strengthen-the-bond-between-hair-fibres-and-hair-/111698932781?epid=1604153469&hash=item1a01c6742d:g:ZWEAAOxy0NtTD0B8
p196
aVhttp://www.ebay.com/itm/TOPPIK-Thickening-Shampoo-for-Fine-or-Thinning-Hair-strengthen-and-repair-hair-/121682042357?epid=1011949316&hash=item1c54d09df5:g:o-UAAOSwLVZVg8xo
p197
aVhttp://www.ebay.com/itm/Pet-Puppy-Dogs-Knots-Strengthen-Teeth-Rope-Cottons-Chews-Toy-Ball-Play-For-Fun-/251987174242?hash=item3aab9b2362:g:3oQAAOSw~OdVdKr0
p198
aVhttp://www.ebay.com/itm/Skin-Hair-And-Nails-Supplement-Strengthen-Capsules-Bamboo-Silica-75-HSIB-Ltd-/181766000667?epid=1788835535&hash=item2a5219101b:g:fhAAAOSwWKtUtBjE
p199
aVhttp://www.ebay.com/itm/Shea-Moisture-Jamaican-Black-Castor-Oil-Shampoo-Conditioner-Masque-Lotion-Serum-/271887917555?var=&epid=1939320507&hash=item3f4dc861f3:m:m976IrPjwK9dU8uuvq9Kw_w
p200
aVhttp://www.ebay.com/itm/Keratex-Hoof-Gel-Strengthen-Hooves-Prevent-Water-Damage-EPC0007-First-Aid-500ml-/201354197806?epid=1405535279&hash=item2ee1a53b2e:g:RccAAOxyg6BRybA-
p201
aVhttp://www.ebay.com/itm/Rainbow-Dust-Edible-Tylo-Tylose-Powder-To-Strengthen-Sugarpaste-Gum-Paste-80g-/141671075815?epid=1905441745&hash=item20fc410fe7:g:UQwAAOSwfVpYwX~A
p202
aVhttp://www.ebay.com/itm/Rainbow-Dust-Edible-Tylo-Tylose-Powder-To-Strengthen-Sugarpaste-Gum-Paste-120g-/400922770150?epid=1442055925&hash=item5d58dbfae6:g:EWIAAOSwuxFYwYFC
p203
aVhttp://www.ebay.com/itm/Rainbow-Dust-Edible-Tylo-Tylose-Powder-To-Strengthen-Sugarpaste-Gum-Paste-50g-/400922770071?epid=1612704828&hash=item5d58dbfa97:g:LcYAAOSwXYtYwX-3
p204
aVhttp://www.ebay.com/itm/8-x-NEW-LARGE-EB-SCREWS-CASE-CORNERS-Strengthen-Finish-Box-Chest-Wood-28mm-/121610937478?hash=item1c5093a486:g:FTkAAOSwpDdVHALD
p205
aVhttp://www.ebay.com/itm/8-x-NEW-LARGE-SILVER-CASE-CORNERS-SCREWS-Strengthen-Finish-Box-Chest-Wood-28mm-/121610937512?hash=item1c5093a4a8:g:gloAAOSwBahVHALS
p206
aVhttp://www.ebay.com/itm/DABUR-JASMINE-CHAMELI-HAIR-OIL-50ml-or-100ml-Nourish-and-Strengthen-hair-/151630240671?var=&hash=item234ddddb9f:m:mNyeqEPzh5Rd8rUAgZug3mw
p207
aVhttp://www.ebay.com/itm/DABUR-ALMOND-HAIR-OIL-50ml-Strengthen-Hair-Roots-Growth-Scalp-Remedy-/151630234683?var=&hash=item234dddc43b:m:m-OMFrxWfKUIIz-i2nVFCGQ
p208
aVhttp://www.ebay.com/itm/Various-Artists-The-Mozart-Effect-Vol-1-Strengthen-The-Mind-CD-/201291609257?hash=item2eddea34a9:g:P6wAAOSwqYBWoP6n
p209
aVhttp://www.ebay.com/itm/Pipe-Tube-Inserts-for-push-Compression-in-fittings-to-strengthen-the-wall-/121559539564?var=&hash=item1c4d835f6c:m:m2stgf2SB0OSVLkhAx2VOhQ
p210
aVhttp://www.ebay.com/itm/Backyard-Vagina-Strengthen-Extender-Enlarger-Stretcher-Impotence-Erection-Aid-/331461057106?hash=item4d2c9e5a52:g:CqIAAOSwubRXHdeF
p211
aVhttp://www.ebay.com/itm/Weight-Lifting-PINK-Women-s-Straps-SENSEI-J-Padded-Hand-Strengthen-/281571343556?epid=1088608670&hash=item418ef5bcc4:g:9csAAOSwk5FUwhvt
p212
aVhttp://www.ebay.com/itm/QIANBAIJIA-Collagen-Anti-Wrinkle-Serum-Strengthen-Cells-Regeneration-Lotion-/151512013427?hash=item2346d1da73:g:DT0AAOSwkNZUiuU2
p213
aVhttp://www.ebay.com/itm/Weight-Lifting-Gloves-Perforated-Leather-Fitness-Strengthen-Training-Workout-Gym-/111538539127?var=&epid=795794706&hash=item19f8370a77:m:mnEDMtjQPIk9sZGUKGCle1w
p214
aVhttp://www.ebay.com/itm/Weight-Lifting-Gloves-Perforated-Leather-Fitness-Strengthen-Training-Workout-Gym-/121505218631?epid=735757944&hash=item1c4a468047:g:txMAAOSw4shX5i4O
p215
aVhttp://www.ebay.com/itm/Weight-Lifting-Gloves-Strengthen-Training-Gloves-Fitness-Gym-Exercise-Workout-/121505204666?hash=item1c4a4649ba:g:HY8AAOSwt7pXNXv1
p216
aVhttp://www.ebay.com/itm/Power-Hand-Bar-Straps-Weight-Lifting-Straps-Cotton-Wrist-Wraps-Strengthen-Hand-/231376624458?hash=item35df1f1b4a:g:lM0AAOSwYshUaevG
p217
aVhttp://www.ebay.com/itm/IRON-Tablets-Boost-Energy-Production-Strengthen-the-Immune-system-/121474735187?var=&hash=item1c48755c53:m:mRJLv7wglqvIHN1VMCotVjw
p218
aVhttp://www.ebay.com/itm/Strengthen-Tone-Exercise-Torsion-Twister-Disc-Weight-Loss-Fitness-waist-toning-/310961466681?epid=1188543284&hash=item4866bf6d39:g:xt4AAOxyZzlTd5Sh
p219
aVhttp://www.ebay.com/itm/Steel-Leaf-Spring-Holders-Helpers-BLACK-STRENGTHEN-Suspension-setup-TF2-G2-/131202668993?epid=1628472415&hash=item1e8c49d9c1:g:an0AAOSwtZJY8zka
p220
aVhttp://www.ebay.com/itm/Act-with-Love-Stop-Struggling-Reconcile-Differences-and-Strengthen-Your-Relat-/310918129691?epid=95518425&hash=item48642a281b:m:mWKlVTCEtvgl5DVeX5QUIsw
p221
aVhttp://www.ebay.com/itm/Sri-Shri-Hanuman-Yantra-Copper-Yantram-Protect-You-and-Strengthen-Your-Will-/221397664980?epid=878549529&hash=item338c5444d4:g:Nt8AAOxyTMdTKht6
p222
aVhttp://www.ebay.com/itm/Digestive-Wellness-Strengthen-the-Immune-System-and-Prevent-Disease-Through-Heal-/310875677331?epid=194181948&hash=item4861a26293:g:IpYAAOSw2XFUmFWK
p223
aVhttp://www.ebay.com/itm/Fidelity-How-Mindfulness-Can-Strengthen-and-Nurture-Ou-Hardcover-NEW-Thich-Nh-/360839858047?epid=109314358&hash=item5403bb477f:g:6xcAAOSwPhdVAFB9
p224
aVhttp://www.ebay.com/itm/Act-with-Love-Stop-Struggling-Reconcile-Differences-and-Strengthen-Your-Relat-/131036494560?epid=89078405&hash=item1e82623ae0:g:hVgAAOxyM89Sc9la
p225
aVhttp://www.ebay.com/itm/Gro-aut-SERIOUS-HAIR-REGIME-Grow-Hair-Fast-Protect-Strengthen-Repair-Damage-/271259756954?var=&hash=item3f2857699a:m:mRnQeb6r_u5oYDVShgiNRtA
p226
aVhttp://www.ebay.com/itm/Gro-aut-TOTAL-HAIR-CARE-REGIME-Serious-Growth-Protect-Strengthen-Repair-Damage-/281152799615?var=&epid=1064549853&hash=item417603437f:m:m24DwC8ZxHJ9jFLTg5q60Sw
p227
aVhttp://www.ebay.com/itm/Gro-aut-Sulphate-Free-Fast-Hair-Growth-Kit-Strengthen-Protect-Less-Breakage-/281152781598?var=&epid=1869527529&hash=item417602fd1e:m:mGqLeNsnJzHm6SMsHvVGy1A
p228
aVhttp://www.ebay.com/itm/Gro-aut-JOJOBA-Shampoo-Fast-Hair-Growth-Stop-Hair-Loss-Strengthen-and-Protect-/281152761141?var=&epid=1247604484&hash=item417602ad35:m:m0oLhmtCbnugtJ09yb_bDnw
p229
aVhttp://www.ebay.com/itm/Gro-aut-BHRINGRO-Hair-Growth-Oil-Reduce-Breakage-Strengthen-Repair-Protect-Grow-/281152738437?var=&hash=item4176025485:m:mwV0s-HrqeXuexsNo3wmR4Q
p230
aVhttp://www.ebay.com/itm/Medicine-Ball-Workouts-Strengthen-Major-and-Supporting-Muscle-Groups-for-Increa-/130968018642?epid=139753197&hash=item1e7e4d5ed2:g:d8cAAMXQxU9SC2MN
p231
aVhttp://www.ebay.com/itm/Bronnley-Original-Hydrating-Hair-And-Body-Wash-200Ml-Strengthen-Moisturise-New-/231024447046?epid=509889910&hash=item35ca214e46:g:OMwAAOxy3yNTfghr
p232
aVhttp://www.ebay.com/itm/Regular-Strength-Gum-Disease-Remedy-Stop-Receeding-Gums-Strengthen-Teeth-Enamel-/111111308572?var=&epid=1117737872&hash=item19dec0051c:m:mHHjajzBX7L1W4QKBZaAZaA
p233
aVhttp://www.ebay.com/itm/Sofn-Free-Oil-Moisturiser-With-Kerative-Strengthen-Condition-Repair-/321087000238?hash=item4ac246ceae:g:UGEAAOxy69JTF5ES
p234
aVhttp://www.ebay.com/itm/Sri-Shri-Hanuman-Yantra-Copper-Yantram-Protect-You-and-Strengthen-Your-Will-/321067596256?epid=878549529&hash=item4ac11eb9e0:g:MnwAAOxyUfFTkwla
p235
aVhttp://www.ebay.com/itm/STRENGTHENING-POTENT-JAMAICAN-BLACK-CASTOR-OIL-JBCO-Hair-Extensions-Braid-Weaves-/111004897782?var=&hash=item19d86851f6:m:mudl_hOnZaMVhTLtgG7xK3Q
p236
aVhttp://www.ebay.com/itm/Digestive-Wellness-Strengthen-the-Immune-System-and-Pr-Paperback-NEW-Lipski-/350694694578?epid=178076618&hash=item51a7085eb2:g:udcAAOSw~OVWu6wY
p237
aVhttp://www.ebay.com/itm/Sensodyne-NovaMin-Repair-Protect-Whitening-Strengthen-Restoring-Toothpaste-/190731764142?epid=1005642401&hash=item2c687fc1ae:g:oiMAAOSwjVVVvqzy
p238
aVhttp://www.ebay.com/itm/BRASS-SILVER-NICKEL-CHEST-TOOL-TRUNK-BOX-CORNERS-TOGGLE-CATCHES-SUITCASE-HANDLES-/221095224936?var=&hash=item337a4d6668:m:mdX50whIj40diu0_PHKeb0Q
p239
aVhttp://www.ebay.com/itm/Extra-Strength-1-Gum-Disease-Remedy-Stop-Receeding-Gums-Strengthen-Teeth-Enamel-/120952682881?var=&epid=1511933195&hash=item1c29577981:m:mHHjajzBX7L1W4QKBZaAZaA
p240
aVhttp://www.ebay.com/itm/POTENT-STRENGTH-CASTOR-OIL-FOR-HAIR-LOSS-ALAPECIA-HAIR-GROWTH-HAIR-EXTENSIONS-/110889573686?var=&epid=1365294354&hash=item19d1889d36:m:mhXF-k7fFqaPpjeklSc6_JQ
p241
aVhttp://www.ebay.com/itm/STRENGTHEN-POTENT-JAMAICAN-BLACK-CASTOR-OIL-for-Hair-Extensions-Braids-Weaves-/120923343535?hash=item1c2797caaf:g:nFgAAOSwWTRW1t1K
p242
aVhttp://www.ebay.com/itm/NEW-ARM-HAMMER-Truly-Radiant-Whitening-Enamel-Strengthen-Deep-Clean-Toothpaste-/190589725898?epid=1237222268&hash=item2c60086cca:g:NyoAAOSwS35Zc9wM
p243
aVhttp://www.ebay.com/itm/1L-NAF-5-STAR-PROFEET-LIQUID-HOOVES-HELP-STRENGTHEN-HORSE-PONY-HOOVES-EQUINE-/140620112620?hash=item20bd9ca2ec:g:kM4AAOSw-jhUJVKT
p244
aVhttp://www.ebay.com/itm/The-Little-Book-of-Big-Brain-Games-517-Ways-to-Stretch-Strengthen-and-Grow-You-/330623483986?epid=178106798&hash=item4cfab20052:m:mCTOwC1RMLBLanInVHv7z2w
p245
aVhttp://www.ebay.com/itm/Strengthen-Tone-Exercise-Torsion-Twister-Disc-Weight-Loss-Fitness-waist-toning-/310961466681?epid=1188543284&hash=item4866bf6d39:g:xt4AAOxyZzlTd5Sh
p246
aVhttp://www.ebay.com/itm/Steel-Leaf-Spring-Holders-Helpers-BLACK-STRENGTHEN-Suspension-setup-TF2-G2-/131202668993?epid=1628472415&hash=item1e8c49d9c1:g:an0AAOSwtZJY8zka
p247
aVhttp://www.ebay.com/itm/Act-with-Love-Stop-Struggling-Reconcile-Differences-and-Strengthen-Your-Relat-/310918129691?epid=95518425&hash=item48642a281b:m:mWKlVTCEtvgl5DVeX5QUIsw
p248
aVhttp://www.ebay.com/itm/Sri-Shri-Hanuman-Yantra-Copper-Yantram-Protect-You-and-Strengthen-Your-Will-/221397664980?epid=878549529&hash=item338c5444d4:g:Nt8AAOxyTMdTKht6
p249
aVhttp://www.ebay.com/itm/Digestive-Wellness-Strengthen-the-Immune-System-and-Prevent-Disease-Through-Heal-/310875677331?epid=194181948&hash=item4861a26293:g:IpYAAOSw2XFUmFWK
p250
aVhttp://www.ebay.com/itm/Fidelity-How-Mindfulness-Can-Strengthen-and-Nurture-Ou-Hardcover-NEW-Thich-Nh-/360839858047?epid=109314358&hash=item5403bb477f:g:6xcAAOSwPhdVAFB9
p251
aVhttp://www.ebay.com/itm/Act-with-Love-Stop-Struggling-Reconcile-Differences-and-Strengthen-Your-Relat-/131036494560?epid=89078405&hash=item1e82623ae0:g:hVgAAOxyM89Sc9la
p252
aVhttp://www.ebay.com/itm/Gro-aut-SERIOUS-HAIR-REGIME-Grow-Hair-Fast-Protect-Strengthen-Repair-Damage-/271259756954?var=&hash=item3f2857699a:m:mRnQeb6r_u5oYDVShgiNRtA
p253
aVhttp://www.ebay.com/itm/Gro-aut-TOTAL-HAIR-CARE-REGIME-Serious-Growth-Protect-Strengthen-Repair-Damage-/281152799615?var=&epid=1064549853&hash=item417603437f:m:m24DwC8ZxHJ9jFLTg5q60Sw
p254
aVhttp://www.ebay.com/itm/Gro-aut-Sulphate-Free-Fast-Hair-Growth-Kit-Strengthen-Protect-Less-Breakage-/281152781598?var=&epid=1869527529&hash=item417602fd1e:m:mGqLeNsnJzHm6SMsHvVGy1A
p255
aVhttp://www.ebay.com/itm/Gro-aut-JOJOBA-Shampoo-Fast-Hair-Growth-Stop-Hair-Loss-Strengthen-and-Protect-/281152761141?var=&epid=1247604484&hash=item417602ad35:m:m0oLhmtCbnugtJ09yb_bDnw
p256
aVhttp://www.ebay.com/itm/Gro-aut-BHRINGRO-Hair-Growth-Oil-Reduce-Breakage-Strengthen-Repair-Protect-Grow-/281152738437?var=&hash=item4176025485:m:mwV0s-HrqeXuexsNo3wmR4Q
p257
aVhttp://www.ebay.com/itm/Medicine-Ball-Workouts-Strengthen-Major-and-Supporting-Muscle-Groups-for-Increa-/130968018642?epid=139753197&hash=item1e7e4d5ed2:g:d8cAAMXQxU9SC2MN
p258
aVhttp://www.ebay.com/itm/Bronnley-Original-Hydrating-Hair-And-Body-Wash-200Ml-Strengthen-Moisturise-New-/231024447046?epid=509889910&hash=item35ca214e46:g:OMwAAOxy3yNTfghr
p259
aVhttp://www.ebay.com/itm/Regular-Strength-Gum-Disease-Remedy-Stop-Receeding-Gums-Strengthen-Teeth-Enamel-/111111308572?var=&epid=1117737872&hash=item19dec0051c:m:mHHjajzBX7L1W4QKBZaAZaA
p260
aVhttp://www.ebay.com/itm/Sofn-Free-Oil-Moisturiser-With-Kerative-Strengthen-Condition-Repair-/321087000238?hash=item4ac246ceae:g:UGEAAOxy69JTF5ES
p261
aVhttp://www.ebay.com/itm/Sri-Shri-Hanuman-Yantra-Copper-Yantram-Protect-You-and-Strengthen-Your-Will-/321067596256?epid=878549529&hash=item4ac11eb9e0:g:MnwAAOxyUfFTkwla
p262
aVhttp://www.ebay.com/itm/STRENGTHENING-POTENT-JAMAICAN-BLACK-CASTOR-OIL-JBCO-Hair-Extensions-Braid-Weaves-/111004897782?var=&hash=item19d86851f6:m:mudl_hOnZaMVhTLtgG7xK3Q
p263
aVhttp://www.ebay.com/itm/Digestive-Wellness-Strengthen-the-Immune-System-and-Pr-Paperback-NEW-Lipski-/350694694578?epid=178076618&hash=item51a7085eb2:g:udcAAOSw~OVWu6wY
p264
aVhttp://www.ebay.com/itm/Sensodyne-NovaMin-Repair-Protect-Whitening-Strengthen-Restoring-Toothpaste-/190731764142?epid=1005642401&hash=item2c687fc1ae:g:oiMAAOSwjVVVvqzy
p265
aVhttp://www.ebay.com/itm/BRASS-SILVER-NICKEL-CHEST-TOOL-TRUNK-BOX-CORNERS-TOGGLE-CATCHES-SUITCASE-HANDLES-/221095224936?var=&hash=item337a4d6668:m:mdX50whIj40diu0_PHKeb0Q
p266
aVhttp://www.ebay.com/itm/Extra-Strength-1-Gum-Disease-Remedy-Stop-Receeding-Gums-Strengthen-Teeth-Enamel-/120952682881?var=&epid=1511933195&hash=item1c29577981:m:mHHjajzBX7L1W4QKBZaAZaA
p267
aVhttp://www.ebay.com/itm/POTENT-STRENGTH-CASTOR-OIL-FOR-HAIR-LOSS-ALAPECIA-HAIR-GROWTH-HAIR-EXTENSIONS-/110889573686?var=&epid=1365294354&hash=item19d1889d36:m:mhXF-k7fFqaPpjeklSc6_JQ
p268
aVhttp://www.ebay.com/itm/STRENGTHEN-POTENT-JAMAICAN-BLACK-CASTOR-OIL-for-Hair-Extensions-Braids-Weaves-/120923343535?hash=item1c2797caaf:g:nFgAAOSwWTRW1t1K
p269
aVhttp://www.ebay.com/itm/NEW-ARM-HAMMER-Truly-Radiant-Whitening-Enamel-Strengthen-Deep-Clean-Toothpaste-/190589725898?epid=1237222268&hash=item2c60086cca:g:NyoAAOSwS35Zc9wM
p270
aVhttp://www.ebay.com/itm/1L-NAF-5-STAR-PROFEET-LIQUID-HOOVES-HELP-STRENGTHEN-HORSE-PONY-HOOVES-EQUINE-/140620112620?hash=item20bd9ca2ec:g:kM4AAOSw-jhUJVKT
p271
aVhttp://www.ebay.com/itm/The-Little-Book-of-Big-Brain-Games-517-Ways-to-Stretch-Strengthen-and-Grow-You-/330623483986?epid=178106798&hash=item4cfab20052:m:mCTOwC1RMLBLanInVHv7z2w
p272
aVhttp://www.ebay.com/itm/Strengthen-Tone-Exercise-Torsion-Twister-Disc-Weight-Loss-Fitness-waist-toning-/310961466681?epid=1188543284&hash=item4866bf6d39:g:xt4AAOxyZzlTd5Sh
p273
aVhttp://www.ebay.com/itm/Steel-Leaf-Spring-Holders-Helpers-BLACK-STRENGTHEN-Suspension-setup-TF2-G2-/131202668993?epid=1628472415&hash=item1e8c49d9c1:g:an0AAOSwtZJY8zka
p274
aVhttp://www.ebay.com/itm/Act-with-Love-Stop-Struggling-Reconcile-Differences-and-Strengthen-Your-Relat-/310918129691?epid=95518425&hash=item48642a281b:m:mWKlVTCEtvgl5DVeX5QUIsw
p275
aVhttp://www.ebay.com/itm/Sri-Shri-Hanuman-Yantra-Copper-Yantram-Protect-You-and-Strengthen-Your-Will-/221397664980?epid=878549529&hash=item338c5444d4:g:Nt8AAOxyTMdTKht6
p276
aVhttp://www.ebay.com/itm/Digestive-Wellness-Strengthen-the-Immune-System-and-Prevent-Disease-Through-Heal-/310875677331?epid=194181948&hash=item4861a26293:g:IpYAAOSw2XFUmFWK
p277
aVhttp://www.ebay.com/itm/Fidelity-How-Mindfulness-Can-Strengthen-and-Nurture-Ou-Hardcover-NEW-Thich-Nh-/360839858047?epid=109314358&hash=item5403bb477f:g:6xcAAOSwPhdVAFB9
p278
aVhttp://www.ebay.com/itm/Act-with-Love-Stop-Struggling-Reconcile-Differences-and-Strengthen-Your-Relat-/131036494560?epid=89078405&hash=item1e82623ae0:g:hVgAAOxyM89Sc9la
p279
aVhttp://www.ebay.com/itm/Gro-aut-SERIOUS-HAIR-REGIME-Grow-Hair-Fast-Protect-Strengthen-Repair-Damage-/271259756954?var=&hash=item3f2857699a:m:mRnQeb6r_u5oYDVShgiNRtA
p280
aVhttp://www.ebay.com/itm/Gro-aut-TOTAL-HAIR-CARE-REGIME-Serious-Growth-Protect-Strengthen-Repair-Damage-/281152799615?var=&epid=1064549853&hash=item417603437f:m:m24DwC8ZxHJ9jFLTg5q60Sw
p281
aVhttp://www.ebay.com/itm/Gro-aut-Sulphate-Free-Fast-Hair-Growth-Kit-Strengthen-Protect-Less-Breakage-/281152781598?var=&epid=1869527529&hash=item417602fd1e:m:mGqLeNsnJzHm6SMsHvVGy1A
p282
aVhttp://www.ebay.com/itm/Gro-aut-JOJOBA-Shampoo-Fast-Hair-Growth-Stop-Hair-Loss-Strengthen-and-Protect-/281152761141?var=&epid=1247604484&hash=item417602ad35:m:m0oLhmtCbnugtJ09yb_bDnw
p283
aVhttp://www.ebay.com/itm/Gro-aut-BHRINGRO-Hair-Growth-Oil-Reduce-Breakage-Strengthen-Repair-Protect-Grow-/281152738437?var=&hash=item4176025485:m:mwV0s-HrqeXuexsNo3wmR4Q
p284
aVhttp://www.ebay.com/itm/Medicine-Ball-Workouts-Strengthen-Major-and-Supporting-Muscle-Groups-for-Increa-/130968018642?epid=139753197&hash=item1e7e4d5ed2:g:d8cAAMXQxU9SC2MN
p285
aVhttp://www.ebay.com/itm/Bronnley-Original-Hydrating-Hair-And-Body-Wash-200Ml-Strengthen-Moisturise-New-/231024447046?epid=509889910&hash=item35ca214e46:g:OMwAAOxy3yNTfghr
p286
aVhttp://www.ebay.com/itm/Regular-Strength-Gum-Disease-Remedy-Stop-Receeding-Gums-Strengthen-Teeth-Enamel-/111111308572?var=&epid=1117737872&hash=item19dec0051c:m:mHHjajzBX7L1W4QKBZaAZaA
p287
aVhttp://www.ebay.com/itm/Sofn-Free-Oil-Moisturiser-With-Kerative-Strengthen-Condition-Repair-/321087000238?hash=item4ac246ceae:g:UGEAAOxy69JTF5ES
p288
aVhttp://www.ebay.com/itm/Sri-Shri-Hanuman-Yantra-Copper-Yantram-Protect-You-and-Strengthen-Your-Will-/321067596256?epid=878549529&hash=item4ac11eb9e0:g:MnwAAOxyUfFTkwla
p289
aVhttp://www.ebay.com/itm/STRENGTHENING-POTENT-JAMAICAN-BLACK-CASTOR-OIL-JBCO-Hair-Extensions-Braid-Weaves-/111004897782?var=&hash=item19d86851f6:m:mudl_hOnZaMVhTLtgG7xK3Q
p290
aVhttp://www.ebay.com/itm/Digestive-Wellness-Strengthen-the-Immune-System-and-Pr-Paperback-NEW-Lipski-/350694694578?epid=178076618&hash=item51a7085eb2:g:udcAAOSw~OVWu6wY
p291
aVhttp://www.ebay.com/itm/Sensodyne-NovaMin-Repair-Protect-Whitening-Strengthen-Restoring-Toothpaste-/190731764142?epid=1005642401&hash=item2c687fc1ae:g:oiMAAOSwjVVVvqzy
p292
aVhttp://www.ebay.com/itm/BRASS-SILVER-NICKEL-CHEST-TOOL-TRUNK-BOX-CORNERS-TOGGLE-CATCHES-SUITCASE-HANDLES-/221095224936?var=&hash=item337a4d6668:m:mdX50whIj40diu0_PHKeb0Q
p293
aVhttp://www.ebay.com/itm/Extra-Strength-1-Gum-Disease-Remedy-Stop-Receeding-Gums-Strengthen-Teeth-Enamel-/120952682881?var=&epid=1511933195&hash=item1c29577981:m:mHHjajzBX7L1W4QKBZaAZaA
p294
aVhttp://www.ebay.com/itm/POTENT-STRENGTH-CASTOR-OIL-FOR-HAIR-LOSS-ALAPECIA-HAIR-GROWTH-HAIR-EXTENSIONS-/110889573686?var=&epid=1365294354&hash=item19d1889d36:m:mhXF-k7fFqaPpjeklSc6_JQ
p295
aVhttp://www.ebay.com/itm/STRENGTHEN-POTENT-JAMAICAN-BLACK-CASTOR-OIL-for-Hair-Extensions-Braids-Weaves-/120923343535?hash=item1c2797caaf:g:nFgAAOSwWTRW1t1K
p296
aVhttp://www.ebay.com/itm/NEW-ARM-HAMMER-Truly-Radiant-Whitening-Enamel-Strengthen-Deep-Clean-Toothpaste-/190589725898?epid=1237222268&hash=item2c60086cca:g:NyoAAOSwS35Zc9wM
p297
aVhttp://www.ebay.com/itm/1L-NAF-5-STAR-PROFEET-LIQUID-HOOVES-HELP-STRENGTHEN-HORSE-PONY-HOOVES-EQUINE-/140620112620?hash=item20bd9ca2ec:g:kM4AAOSw-jhUJVKT
p298
aVhttp://www.ebay.com/itm/The-Little-Book-of-Big-Brain-Games-517-Ways-to-Stretch-Strengthen-and-Grow-You-/330623483986?epid=178106798&hash=item4cfab20052:m:mCTOwC1RMLBLanInVHv7z2w
p299
aVhttp://www.ebay.com/itm/Strengthen-Tone-Exercise-Torsion-Twister-Disc-Weight-Loss-Fitness-waist-toning-/310961466681?epid=1188543284&hash=item4866bf6d39:g:xt4AAOxyZzlTd5Sh
p300
aVhttp://www.ebay.com/itm/Steel-Leaf-Spring-Holders-Helpers-BLACK-STRENGTHEN-Suspension-setup-TF2-G2-/131202668993?epid=1628472415&hash=item1e8c49d9c1:g:an0AAOSwtZJY8zka
p301
aVhttp://www.ebay.com/itm/Act-with-Love-Stop-Struggling-Reconcile-Differences-and-Strengthen-Your-Relat-/310918129691?epid=95518425&hash=item48642a281b:m:mWKlVTCEtvgl5DVeX5QUIsw
p302
aVhttp://www.ebay.com/itm/Sri-Shri-Hanuman-Yantra-Copper-Yantram-Protect-You-and-Strengthen-Your-Will-/221397664980?epid=878549529&hash=item338c5444d4:g:Nt8AAOxyTMdTKht6
p303
aVhttp://www.ebay.com/itm/Digestive-Wellness-Strengthen-the-Immune-System-and-Prevent-Disease-Through-Heal-/310875677331?epid=194181948&hash=item4861a26293:g:IpYAAOSw2XFUmFWK
p304
aVhttp://www.ebay.com/itm/Fidelity-How-Mindfulness-Can-Strengthen-and-Nurture-Ou-Hardcover-NEW-Thich-Nh-/360839858047?epid=109314358&hash=item5403bb477f:g:6xcAAOSwPhdVAFB9
p305
aVhttp://www.ebay.com/itm/Act-with-Love-Stop-Struggling-Reconcile-Differences-and-Strengthen-Your-Relat-/131036494560?epid=89078405&hash=item1e82623ae0:g:hVgAAOxyM89Sc9la
p306
aVhttp://www.ebay.com/itm/Gro-aut-SERIOUS-HAIR-REGIME-Grow-Hair-Fast-Protect-Strengthen-Repair-Damage-/271259756954?var=&hash=item3f2857699a:m:mRnQeb6r_u5oYDVShgiNRtA
p307
aVhttp://www.ebay.com/itm/Gro-aut-TOTAL-HAIR-CARE-REGIME-Serious-Growth-Protect-Strengthen-Repair-Damage-/281152799615?var=&epid=1064549853&hash=item417603437f:m:m24DwC8ZxHJ9jFLTg5q60Sw
p308
aVhttp://www.ebay.com/itm/Gro-aut-Sulphate-Free-Fast-Hair-Growth-Kit-Strengthen-Protect-Less-Breakage-/281152781598?var=&epid=1869527529&hash=item417602fd1e:m:mGqLeNsnJzHm6SMsHvVGy1A
p309
aVhttp://www.ebay.com/itm/Gro-aut-JOJOBA-Shampoo-Fast-Hair-Growth-Stop-Hair-Loss-Strengthen-and-Protect-/281152761141?var=&epid=1247604484&hash=item417602ad35:m:m0oLhmtCbnugtJ09yb_bDnw
p310
aVhttp://www.ebay.com/itm/Gro-aut-BHRINGRO-Hair-Growth-Oil-Reduce-Breakage-Strengthen-Repair-Protect-Grow-/281152738437?var=&hash=item4176025485:m:mwV0s-HrqeXuexsNo3wmR4Q
p311
aVhttp://www.ebay.com/itm/Medicine-Ball-Workouts-Strengthen-Major-and-Supporting-Muscle-Groups-for-Increa-/130968018642?epid=139753197&hash=item1e7e4d5ed2:g:d8cAAMXQxU9SC2MN
p312
aVhttp://www.ebay.com/itm/Bronnley-Original-Hydrating-Hair-And-Body-Wash-200Ml-Strengthen-Moisturise-New-/231024447046?epid=509889910&hash=item35ca214e46:g:OMwAAOxy3yNTfghr
p313
aVhttp://www.ebay.com/itm/Regular-Strength-Gum-Disease-Remedy-Stop-Receeding-Gums-Strengthen-Teeth-Enamel-/111111308572?var=&epid=1117737872&hash=item19dec0051c:m:mHHjajzBX7L1W4QKBZaAZaA
p314
aVhttp://www.ebay.com/itm/Sofn-Free-Oil-Moisturiser-With-Kerative-Strengthen-Condition-Repair-/321087000238?hash=item4ac246ceae:g:UGEAAOxy69JTF5ES
p315
aVhttp://www.ebay.com/itm/Sri-Shri-Hanuman-Yantra-Copper-Yantram-Protect-You-and-Strengthen-Your-Will-/321067596256?epid=878549529&hash=item4ac11eb9e0:g:MnwAAOxyUfFTkwla
p316
aVhttp://www.ebay.com/itm/STRENGTHENING-POTENT-JAMAICAN-BLACK-CASTOR-OIL-JBCO-Hair-Extensions-Braid-Weaves-/111004897782?var=&hash=item19d86851f6:m:mudl_hOnZaMVhTLtgG7xK3Q
p317
aVhttp://www.ebay.com/itm/Digestive-Wellness-Strengthen-the-Immune-System-and-Pr-Paperback-NEW-Lipski-/350694694578?epid=178076618&hash=item51a7085eb2:g:udcAAOSw~OVWu6wY
p318
aVhttp://www.ebay.com/itm/Sensodyne-NovaMin-Repair-Protect-Whitening-Strengthen-Restoring-Toothpaste-/190731764142?epid=1005642401&hash=item2c687fc1ae:g:oiMAAOSwjVVVvqzy
p319
aVhttp://www.ebay.com/itm/BRASS-SILVER-NICKEL-CHEST-TOOL-TRUNK-BOX-CORNERS-TOGGLE-CATCHES-SUITCASE-HANDLES-/221095224936?var=&hash=item337a4d6668:m:mdX50whIj40diu0_PHKeb0Q
p320
aVhttp://www.ebay.com/itm/Extra-Strength-1-Gum-Disease-Remedy-Stop-Receeding-Gums-Strengthen-Teeth-Enamel-/120952682881?var=&epid=1511933195&hash=item1c29577981:m:mHHjajzBX7L1W4QKBZaAZaA
p321
aVhttp://www.ebay.com/itm/POTENT-STRENGTH-CASTOR-OIL-FOR-HAIR-LOSS-ALAPECIA-HAIR-GROWTH-HAIR-EXTENSIONS-/110889573686?var=&epid=1365294354&hash=item19d1889d36:m:mhXF-k7fFqaPpjeklSc6_JQ
p322
aVhttp://www.ebay.com/itm/STRENGTHEN-POTENT-JAMAICAN-BLACK-CASTOR-OIL-for-Hair-Extensions-Braids-Weaves-/120923343535?hash=item1c2797caaf:g:nFgAAOSwWTRW1t1K
p323
aVhttp://www.ebay.com/itm/NEW-ARM-HAMMER-Truly-Radiant-Whitening-Enamel-Strengthen-Deep-Clean-Toothpaste-/190589725898?epid=1237222268&hash=item2c60086cca:g:NyoAAOSwS35Zc9wM
p324
aVhttp://www.ebay.com/itm/1L-NAF-5-STAR-PROFEET-LIQUID-HOOVES-HELP-STRENGTHEN-HORSE-PONY-HOOVES-EQUINE-/140620112620?hash=item20bd9ca2ec:g:kM4AAOSw-jhUJVKT
p325
aVhttp://www.ebay.com/itm/The-Little-Book-of-Big-Brain-Games-517-Ways-to-Stretch-Strengthen-and-Grow-You-/330623483986?epid=178106798&hash=item4cfab20052:m:mCTOwC1RMLBLanInVHv7z2w
p326
aVhttp://www.ebay.com/itm/Strengthen-Tone-Exercise-Torsion-Twister-Disc-Weight-Loss-Fitness-waist-toning-/310961466681?epid=1188543284&hash=item4866bf6d39:g:xt4AAOxyZzlTd5Sh
p327
aVhttp://www.ebay.com/itm/Steel-Leaf-Spring-Holders-Helpers-BLACK-STRENGTHEN-Suspension-setup-TF2-G2-/131202668993?epid=1628472415&hash=item1e8c49d9c1:g:an0AAOSwtZJY8zka
p328
aVhttp://www.ebay.com/itm/Act-with-Love-Stop-Struggling-Reconcile-Differences-and-Strengthen-Your-Relat-/310918129691?epid=95518425&hash=item48642a281b:m:mWKlVTCEtvgl5DVeX5QUIsw
p329
aVhttp://www.ebay.com/itm/Sri-Shri-Hanuman-Yantra-Copper-Yantram-Protect-You-and-Strengthen-Your-Will-/221397664980?epid=878549529&hash=item338c5444d4:g:Nt8AAOxyTMdTKht6
p330
aVhttp://www.ebay.com/itm/Digestive-Wellness-Strengthen-the-Immune-System-and-Prevent-Disease-Through-Heal-/310875677331?epid=194181948&hash=item4861a26293:g:IpYAAOSw2XFUmFWK
p331
aVhttp://www.ebay.com/itm/Fidelity-How-Mindfulness-Can-Strengthen-and-Nurture-Ou-Hardcover-NEW-Thich-Nh-/360839858047?epid=109314358&hash=item5403bb477f:g:6xcAAOSwPhdVAFB9
p332
aVhttp://www.ebay.com/itm/Act-with-Love-Stop-Struggling-Reconcile-Differences-and-Strengthen-Your-Relat-/131036494560?epid=89078405&hash=item1e82623ae0:g:hVgAAOxyM89Sc9la
p333
aVhttp://www.ebay.com/itm/Gro-aut-SERIOUS-HAIR-REGIME-Grow-Hair-Fast-Protect-Strengthen-Repair-Damage-/271259756954?var=&hash=item3f2857699a:m:mRnQeb6r_u5oYDVShgiNRtA
p334
aVhttp://www.ebay.com/itm/Gro-aut-TOTAL-HAIR-CARE-REGIME-Serious-Growth-Protect-Strengthen-Repair-Damage-/281152799615?var=&epid=1064549853&hash=item417603437f:m:m24DwC8ZxHJ9jFLTg5q60Sw
p335
aVhttp://www.ebay.com/itm/Gro-aut-Sulphate-Free-Fast-Hair-Growth-Kit-Strengthen-Protect-Less-Breakage-/281152781598?var=&epid=1869527529&hash=item417602fd1e:m:mGqLeNsnJzHm6SMsHvVGy1A
p336
aVhttp://www.ebay.com/itm/Gro-aut-JOJOBA-Shampoo-Fast-Hair-Growth-Stop-Hair-Loss-Strengthen-and-Protect-/281152761141?var=&epid=1247604484&hash=item417602ad35:m:m0oLhmtCbnugtJ09yb_bDnw
p337
aVhttp://www.ebay.com/itm/Gro-aut-BHRINGRO-Hair-Growth-Oil-Reduce-Breakage-Strengthen-Repair-Protect-Grow-/281152738437?var=&hash=item4176025485:m:mwV0s-HrqeXuexsNo3wmR4Q
p338
aVhttp://www.ebay.com/itm/Medicine-Ball-Workouts-Strengthen-Major-and-Supporting-Muscle-Groups-for-Increa-/130968018642?epid=139753197&hash=item1e7e4d5ed2:g:d8cAAMXQxU9SC2MN
p339
aVhttp://www.ebay.com/itm/Bronnley-Original-Hydrating-Hair-And-Body-Wash-200Ml-Strengthen-Moisturise-New-/231024447046?epid=509889910&hash=item35ca214e46:g:OMwAAOxy3yNTfghr
p340
aVhttp://www.ebay.com/itm/Regular-Strength-Gum-Disease-Remedy-Stop-Receeding-Gums-Strengthen-Teeth-Enamel-/111111308572?var=&epid=1117737872&hash=item19dec0051c:m:mHHjajzBX7L1W4QKBZaAZaA
p341
aVhttp://www.ebay.com/itm/Sofn-Free-Oil-Moisturiser-With-Kerative-Strengthen-Condition-Repair-/321087000238?hash=item4ac246ceae:g:UGEAAOxy69JTF5ES
p342
aVhttp://www.ebay.com/itm/Sri-Shri-Hanuman-Yantra-Copper-Yantram-Protect-You-and-Strengthen-Your-Will-/321067596256?epid=878549529&hash=item4ac11eb9e0:g:MnwAAOxyUfFTkwla
p343
aVhttp://www.ebay.com/itm/STRENGTHENING-POTENT-JAMAICAN-BLACK-CASTOR-OIL-JBCO-Hair-Extensions-Braid-Weaves-/111004897782?var=&hash=item19d86851f6:m:mudl_hOnZaMVhTLtgG7xK3Q
p344
aVhttp://www.ebay.com/itm/Digestive-Wellness-Strengthen-the-Immune-System-and-Pr-Paperback-NEW-Lipski-/350694694578?epid=178076618&hash=item51a7085eb2:g:udcAAOSw~OVWu6wY
p345
aVhttp://www.ebay.com/itm/Sensodyne-NovaMin-Repair-Protect-Whitening-Strengthen-Restoring-Toothpaste-/190731764142?epid=1005642401&hash=item2c687fc1ae:g:oiMAAOSwjVVVvqzy
p346
aVhttp://www.ebay.com/itm/BRASS-SILVER-NICKEL-CHEST-TOOL-TRUNK-BOX-CORNERS-TOGGLE-CATCHES-SUITCASE-HANDLES-/221095224936?var=&hash=item337a4d6668:m:mdX50whIj40diu0_PHKeb0Q
p347
aVhttp://www.ebay.com/itm/Extra-Strength-1-Gum-Disease-Remedy-Stop-Receeding-Gums-Strengthen-Teeth-Enamel-/120952682881?var=&epid=1511933195&hash=item1c29577981:m:mHHjajzBX7L1W4QKBZaAZaA
p348
aVhttp://www.ebay.com/itm/POTENT-STRENGTH-CASTOR-OIL-FOR-HAIR-LOSS-ALAPECIA-HAIR-GROWTH-HAIR-EXTENSIONS-/110889573686?var=&epid=1365294354&hash=item19d1889d36:m:mhXF-k7fFqaPpjeklSc6_JQ
p349
aVhttp://www.ebay.com/itm/STRENGTHEN-POTENT-JAMAICAN-BLACK-CASTOR-OIL-for-Hair-Extensions-Braids-Weaves-/120923343535?hash=item1c2797caaf:g:nFgAAOSwWTRW1t1K
p350
aVhttp://www.ebay.com/itm/NEW-ARM-HAMMER-Truly-Radiant-Whitening-Enamel-Strengthen-Deep-Clean-Toothpaste-/190589725898?epid=1237222268&hash=item2c60086cca:g:NyoAAOSwS35Zc9wM
p351
aVhttp://www.ebay.com/itm/1L-NAF-5-STAR-PROFEET-LIQUID-HOOVES-HELP-STRENGTHEN-HORSE-PONY-HOOVES-EQUINE-/140620112620?hash=item20bd9ca2ec:g:kM4AAOSw-jhUJVKT
p352
aVhttp://www.ebay.com/itm/The-Little-Book-of-Big-Brain-Games-517-Ways-to-Stretch-Strengthen-and-Grow-You-/330623483986?epid=178106798&hash=item4cfab20052:m:mCTOwC1RMLBLanInVHv7z2w
p353
aVhttp://www.ebay.com/itm/Strengthen-Tone-Exercise-Torsion-Twister-Disc-Weight-Loss-Fitness-waist-toning-/310961466681?epid=1188543284&hash=item4866bf6d39:g:xt4AAOxyZzlTd5Sh
p354
aVhttp://www.ebay.com/itm/Steel-Leaf-Spring-Holders-Helpers-BLACK-STRENGTHEN-Suspension-setup-TF2-G2-/131202668993?epid=1628472415&hash=item1e8c49d9c1:g:an0AAOSwtZJY8zka
p355
aVhttp://www.ebay.com/itm/Act-with-Love-Stop-Struggling-Reconcile-Differences-and-Strengthen-Your-Relat-/310918129691?epid=95518425&hash=item48642a281b:m:mWKlVTCEtvgl5DVeX5QUIsw
p356
aVhttp://www.ebay.com/itm/Sri-Shri-Hanuman-Yantra-Copper-Yantram-Protect-You-and-Strengthen-Your-Will-/221397664980?epid=878549529&hash=item338c5444d4:g:Nt8AAOxyTMdTKht6
p357
aVhttp://www.ebay.com/itm/Digestive-Wellness-Strengthen-the-Immune-System-and-Prevent-Disease-Through-Heal-/310875677331?epid=194181948&hash=item4861a26293:g:IpYAAOSw2XFUmFWK
p358
aVhttp://www.ebay.com/itm/Fidelity-How-Mindfulness-Can-Strengthen-and-Nurture-Ou-Hardcover-NEW-Thich-Nh-/360839858047?epid=109314358&hash=item5403bb477f:g:6xcAAOSwPhdVAFB9
p359
aVhttp://www.ebay.com/itm/Act-with-Love-Stop-Struggling-Reconcile-Differences-and-Strengthen-Your-Relat-/131036494560?epid=89078405&hash=item1e82623ae0:g:hVgAAOxyM89Sc9la
p360
aVhttp://www.ebay.com/itm/Gro-aut-SERIOUS-HAIR-REGIME-Grow-Hair-Fast-Protect-Strengthen-Repair-Damage-/271259756954?var=&hash=item3f2857699a:m:mRnQeb6r_u5oYDVShgiNRtA
p361
aVhttp://www.ebay.com/itm/Gro-aut-TOTAL-HAIR-CARE-REGIME-Serious-Growth-Protect-Strengthen-Repair-Damage-/281152799615?var=&epid=1064549853&hash=item417603437f:m:m24DwC8ZxHJ9jFLTg5q60Sw
p362
aVhttp://www.ebay.com/itm/Gro-aut-Sulphate-Free-Fast-Hair-Growth-Kit-Strengthen-Protect-Less-Breakage-/281152781598?var=&epid=1869527529&hash=item417602fd1e:m:mGqLeNsnJzHm6SMsHvVGy1A
p363
aVhttp://www.ebay.com/itm/Gro-aut-JOJOBA-Shampoo-Fast-Hair-Growth-Stop-Hair-Loss-Strengthen-and-Protect-/281152761141?var=&epid=1247604484&hash=item417602ad35:m:m0oLhmtCbnugtJ09yb_bDnw
p364
aVhttp://www.ebay.com/itm/Gro-aut-BHRINGRO-Hair-Growth-Oil-Reduce-Breakage-Strengthen-Repair-Protect-Grow-/281152738437?var=&hash=item4176025485:m:mwV0s-HrqeXuexsNo3wmR4Q
p365
aVhttp://www.ebay.com/itm/Medicine-Ball-Workouts-Strengthen-Major-and-Supporting-Muscle-Groups-for-Increa-/130968018642?epid=139753197&hash=item1e7e4d5ed2:g:d8cAAMXQxU9SC2MN
p366
aVhttp://www.ebay.com/itm/Bronnley-Original-Hydrating-Hair-And-Body-Wash-200Ml-Strengthen-Moisturise-New-/231024447046?epid=509889910&hash=item35ca214e46:g:OMwAAOxy3yNTfghr
p367
aVhttp://www.ebay.com/itm/Regular-Strength-Gum-Disease-Remedy-Stop-Receeding-Gums-Strengthen-Teeth-Enamel-/111111308572?var=&epid=1117737872&hash=item19dec0051c:m:mHHjajzBX7L1W4QKBZaAZaA
p368
aVhttp://www.ebay.com/itm/Sofn-Free-Oil-Moisturiser-With-Kerative-Strengthen-Condition-Repair-/321087000238?hash=item4ac246ceae:g:UGEAAOxy69JTF5ES
p369
aVhttp://www.ebay.com/itm/Sri-Shri-Hanuman-Yantra-Copper-Yantram-Protect-You-and-Strengthen-Your-Will-/321067596256?epid=878549529&hash=item4ac11eb9e0:g:MnwAAOxyUfFTkwla
p370
aVhttp://www.ebay.com/itm/STRENGTHENING-POTENT-JAMAICAN-BLACK-CASTOR-OIL-JBCO-Hair-Extensions-Braid-Weaves-/111004897782?var=&hash=item19d86851f6:m:mudl_hOnZaMVhTLtgG7xK3Q
p371
aVhttp://www.ebay.com/itm/Digestive-Wellness-Strengthen-the-Immune-System-and-Pr-Paperback-NEW-Lipski-/350694694578?epid=178076618&hash=item51a7085eb2:g:udcAAOSw~OVWu6wY
p372
aVhttp://www.ebay.com/itm/Sensodyne-NovaMin-Repair-Protect-Whitening-Strengthen-Restoring-Toothpaste-/190731764142?epid=1005642401&hash=item2c687fc1ae:g:oiMAAOSwjVVVvqzy
p373
aVhttp://www.ebay.com/itm/BRASS-SILVER-NICKEL-CHEST-TOOL-TRUNK-BOX-CORNERS-TOGGLE-CATCHES-SUITCASE-HANDLES-/221095224936?var=&hash=item337a4d6668:m:mdX50whIj40diu0_PHKeb0Q
p374
aVhttp://www.ebay.com/itm/Extra-Strength-1-Gum-Disease-Remedy-Stop-Receeding-Gums-Strengthen-Teeth-Enamel-/120952682881?var=&epid=1511933195&hash=item1c29577981:m:mHHjajzBX7L1W4QKBZaAZaA
p375
aVhttp://www.ebay.com/itm/POTENT-STRENGTH-CASTOR-OIL-FOR-HAIR-LOSS-ALAPECIA-HAIR-GROWTH-HAIR-EXTENSIONS-/110889573686?var=&epid=1365294354&hash=item19d1889d36:m:mhXF-k7fFqaPpjeklSc6_JQ
p376
aVhttp://www.ebay.com/itm/STRENGTHEN-POTENT-JAMAICAN-BLACK-CASTOR-OIL-for-Hair-Extensions-Braids-Weaves-/120923343535?hash=item1c2797caaf:g:nFgAAOSwWTRW1t1K
p377
aVhttp://www.ebay.com/itm/NEW-ARM-HAMMER-Truly-Radiant-Whitening-Enamel-Strengthen-Deep-Clean-Toothpaste-/190589725898?epid=1237222268&hash=item2c60086cca:g:NyoAAOSwS35Zc9wM
p378
aVhttp://www.ebay.com/itm/1L-NAF-5-STAR-PROFEET-LIQUID-HOOVES-HELP-STRENGTHEN-HORSE-PONY-HOOVES-EQUINE-/140620112620?hash=item20bd9ca2ec:g:kM4AAOSw-jhUJVKT
p379
aVhttp://www.ebay.com/itm/The-Little-Book-of-Big-Brain-Games-517-Ways-to-Stretch-Strengthen-and-Grow-You-/330623483986?epid=178106798&hash=item4cfab20052:m:mCTOwC1RMLBLanInVHv7z2w
p380
aVhttp://www.ebay.com/itm/Pet-Puppy-Dogs-Knots-Strengthen-Teeth-Rope-Cottons-Chews-Toy-Ball-Play-For-Fun-/251987174242?hash=item3aab9b2362:g:3oQAAOSw~OdVdKr0
p381
aVhttp://www.ebay.com/itm/Skin-Hair-And-Nails-Supplement-Strengthen-Capsules-Bamboo-Silica-75-HSIB-Ltd-/181766000667?epid=1788835535&hash=item2a5219101b:g:fhAAAOSwWKtUtBjE
p382
aVhttp://www.ebay.com/itm/Shea-Moisture-Jamaican-Black-Castor-Oil-Shampoo-Conditioner-Masque-Lotion-Serum-/271887917555?var=&epid=1939320507&hash=item3f4dc861f3:m:m976IrPjwK9dU8uuvq9Kw_w
p383
aVhttp://www.ebay.com/itm/Keratex-Hoof-Gel-Strengthen-Hooves-Prevent-Water-Damage-EPC0007-First-Aid-500ml-/201354197806?epid=1405535279&hash=item2ee1a53b2e:g:RccAAOxyg6BRybA-
p384
aVhttp://www.ebay.com/itm/Rainbow-Dust-Edible-Tylo-Tylose-Powder-To-Strengthen-Sugarpaste-Gum-Paste-80g-/141671075815?epid=1905441745&hash=item20fc410fe7:g:UQwAAOSwfVpYwX~A
p385
aVhttp://www.ebay.com/itm/Rainbow-Dust-Edible-Tylo-Tylose-Powder-To-Strengthen-Sugarpaste-Gum-Paste-120g-/400922770150?epid=1442055925&hash=item5d58dbfae6:g:EWIAAOSwuxFYwYFC
p386
aVhttp://www.ebay.com/itm/Rainbow-Dust-Edible-Tylo-Tylose-Powder-To-Strengthen-Sugarpaste-Gum-Paste-50g-/400922770071?epid=1612704828&hash=item5d58dbfa97:g:LcYAAOSwXYtYwX-3
p387
aVhttp://www.ebay.com/itm/8-x-NEW-LARGE-EB-SCREWS-CASE-CORNERS-Strengthen-Finish-Box-Chest-Wood-28mm-/121610937478?hash=item1c5093a486:g:FTkAAOSwpDdVHALD
p388
aVhttp://www.ebay.com/itm/8-x-NEW-LARGE-SILVER-CASE-CORNERS-SCREWS-Strengthen-Finish-Box-Chest-Wood-28mm-/121610937512?hash=item1c5093a4a8:g:gloAAOSwBahVHALS
p389
aVhttp://www.ebay.com/itm/DABUR-JASMINE-CHAMELI-HAIR-OIL-50ml-or-100ml-Nourish-and-Strengthen-hair-/151630240671?var=&hash=item234ddddb9f:m:mNyeqEPzh5Rd8rUAgZug3mw
p390
aVhttp://www.ebay.com/itm/DABUR-ALMOND-HAIR-OIL-50ml-Strengthen-Hair-Roots-Growth-Scalp-Remedy-/151630234683?var=&hash=item234dddc43b:m:m-OMFrxWfKUIIz-i2nVFCGQ
p391
aVhttp://www.ebay.com/itm/Various-Artists-The-Mozart-Effect-Vol-1-Strengthen-The-Mind-CD-/201291609257?hash=item2eddea34a9:g:P6wAAOSwqYBWoP6n
p392
aVhttp://www.ebay.com/itm/Pipe-Tube-Inserts-for-push-Compression-in-fittings-to-strengthen-the-wall-/121559539564?var=&hash=item1c4d835f6c:m:m2stgf2SB0OSVLkhAx2VOhQ
p393
aVhttp://www.ebay.com/itm/Backyard-Vagina-Strengthen-Extender-Enlarger-Stretcher-Impotence-Erection-Aid-/331461057106?hash=item4d2c9e5a52:g:CqIAAOSwubRXHdeF
p394
aVhttp://www.ebay.com/itm/Weight-Lifting-PINK-Women-s-Straps-SENSEI-J-Padded-Hand-Strengthen-/281571343556?epid=1088608670&hash=item418ef5bcc4:g:9csAAOSwk5FUwhvt
p395
aVhttp://www.ebay.com/itm/QIANBAIJIA-Collagen-Anti-Wrinkle-Serum-Strengthen-Cells-Regeneration-Lotion-/151512013427?hash=item2346d1da73:g:DT0AAOSwkNZUiuU2
p396
aVhttp://www.ebay.com/itm/Weight-Lifting-Gloves-Perforated-Leather-Fitness-Strengthen-Training-Workout-Gym-/111538539127?var=&epid=795794706&hash=item19f8370a77:m:mnEDMtjQPIk9sZGUKGCle1w
p397
aVhttp://www.ebay.com/itm/Weight-Lifting-Gloves-Perforated-Leather-Fitness-Strengthen-Training-Workout-Gym-/121505218631?epid=735757944&hash=item1c4a468047:g:txMAAOSw4shX5i4O
p398
aVhttp://www.ebay.com/itm/Weight-Lifting-Gloves-Strengthen-Training-Gloves-Fitness-Gym-Exercise-Workout-/121505204666?hash=item1c4a4649ba:g:HY8AAOSwt7pXNXv1
p399
aVhttp://www.ebay.com/itm/Power-Hand-Bar-Straps-Weight-Lifting-Straps-Cotton-Wrist-Wraps-Strengthen-Hand-/231376624458?hash=item35df1f1b4a:g:lM0AAOSwYshUaevG
p400
aVhttp://www.ebay.com/itm/IRON-Tablets-Boost-Energy-Production-Strengthen-the-Immune-system-/121474735187?var=&hash=item1c48755c53:m:mRJLv7wglqvIHN1VMCotVjw
p401
aVhttp://www.ebay.com/itm/Strengthen-Tone-Exercise-Torsion-Twister-Disc-Weight-Loss-Fitness-waist-toning-/310961466681?epid=1188543284&hash=item4866bf6d39:g:xt4AAOxyZzlTd5Sh
p402
aVhttp://www.ebay.com/itm/Steel-Leaf-Spring-Holders-Helpers-BLACK-STRENGTHEN-Suspension-setup-TF2-G2-/131202668993?epid=1628472415&hash=item1e8c49d9c1:g:an0AAOSwtZJY8zka
p403
aVhttp://www.ebay.com/itm/Act-with-Love-Stop-Struggling-Reconcile-Differences-and-Strengthen-Your-Relat-/310918129691?epid=95518425&hash=item48642a281b:m:mWKlVTCEtvgl5DVeX5QUIsw
p404
aVhttp://www.ebay.com/itm/Sri-Shri-Hanuman-Yantra-Copper-Yantram-Protect-You-and-Strengthen-Your-Will-/221397664980?epid=878549529&hash=item338c5444d4:g:Nt8AAOxyTMdTKht6
p405
aVhttp://www.ebay.com/itm/Digestive-Wellness-Strengthen-the-Immune-System-and-Prevent-Disease-Through-Heal-/310875677331?epid=194181948&hash=item4861a26293:g:IpYAAOSw2XFUmFWK
p406
aVhttp://www.ebay.com/itm/Fidelity-How-Mindfulness-Can-Strengthen-and-Nurture-Ou-Hardcover-NEW-Thich-Nh-/360839858047?epid=109314358&hash=item5403bb477f:g:6xcAAOSwPhdVAFB9
p407
aVhttp://www.ebay.com/itm/Act-with-Love-Stop-Struggling-Reconcile-Differences-and-Strengthen-Your-Relat-/131036494560?epid=89078405&hash=item1e82623ae0:g:hVgAAOxyM89Sc9la
p408
aVhttp://www.ebay.com/itm/Gro-aut-SERIOUS-HAIR-REGIME-Grow-Hair-Fast-Protect-Strengthen-Repair-Damage-/271259756954?var=&hash=item3f2857699a:m:mRnQeb6r_u5oYDVShgiNRtA
p409
aVhttp://www.ebay.com/itm/Gro-aut-TOTAL-HAIR-CARE-REGIME-Serious-Growth-Protect-Strengthen-Repair-Damage-/281152799615?var=&epid=1064549853&hash=item417603437f:m:m24DwC8ZxHJ9jFLTg5q60Sw
p410
aVhttp://www.ebay.com/itm/Gro-aut-Sulphate-Free-Fast-Hair-Growth-Kit-Strengthen-Protect-Less-Breakage-/281152781598?var=&epid=1869527529&hash=item417602fd1e:m:mGqLeNsnJzHm6SMsHvVGy1A
p411
aVhttp://www.ebay.com/itm/Gro-aut-JOJOBA-Shampoo-Fast-Hair-Growth-Stop-Hair-Loss-Strengthen-and-Protect-/281152761141?var=&epid=1247604484&hash=item417602ad35:m:m0oLhmtCbnugtJ09yb_bDnw
p412
aVhttp://www.ebay.com/itm/Gro-aut-BHRINGRO-Hair-Growth-Oil-Reduce-Breakage-Strengthen-Repair-Protect-Grow-/281152738437?var=&hash=item4176025485:m:mwV0s-HrqeXuexsNo3wmR4Q
p413
aVhttp://www.ebay.com/itm/Medicine-Ball-Workouts-Strengthen-Major-and-Supporting-Muscle-Groups-for-Increa-/130968018642?epid=139753197&hash=item1e7e4d5ed2:g:d8cAAMXQxU9SC2MN
p414
aVhttp://www.ebay.com/itm/Bronnley-Original-Hydrating-Hair-And-Body-Wash-200Ml-Strengthen-Moisturise-New-/231024447046?epid=509889910&hash=item35ca214e46:g:OMwAAOxy3yNTfghr
p415
aVhttp://www.ebay.com/itm/Regular-Strength-Gum-Disease-Remedy-Stop-Receeding-Gums-Strengthen-Teeth-Enamel-/111111308572?var=&epid=1117737872&hash=item19dec0051c:m:mHHjajzBX7L1W4QKBZaAZaA
p416
aVhttp://www.ebay.com/itm/Sofn-Free-Oil-Moisturiser-With-Kerative-Strengthen-Condition-Repair-/321087000238?hash=item4ac246ceae:g:UGEAAOxy69JTF5ES
p417
aVhttp://www.ebay.com/itm/Sri-Shri-Hanuman-Yantra-Copper-Yantram-Protect-You-and-Strengthen-Your-Will-/321067596256?epid=878549529&hash=item4ac11eb9e0:g:MnwAAOxyUfFTkwla
p418
aVhttp://www.ebay.com/itm/STRENGTHENING-POTENT-JAMAICAN-BLACK-CASTOR-OIL-JBCO-Hair-Extensions-Braid-Weaves-/111004897782?var=&hash=item19d86851f6:m:mudl_hOnZaMVhTLtgG7xK3Q
p419
aVhttp://www.ebay.com/itm/Digestive-Wellness-Strengthen-the-Immune-System-and-Pr-Paperback-NEW-Lipski-/350694694578?epid=178076618&hash=item51a7085eb2:g:udcAAOSw~OVWu6wY
p420
aVhttp://www.ebay.com/itm/Sensodyne-NovaMin-Repair-Protect-Whitening-Strengthen-Restoring-Toothpaste-/190731764142?epid=1005642401&hash=item2c687fc1ae:g:oiMAAOSwjVVVvqzy
p421
aVhttp://www.ebay.com/itm/BRASS-SILVER-NICKEL-CHEST-TOOL-TRUNK-BOX-CORNERS-TOGGLE-CATCHES-SUITCASE-HANDLES-/221095224936?var=&hash=item337a4d6668:m:mdX50whIj40diu0_PHKeb0Q
p422
aVhttp://www.ebay.com/itm/Extra-Strength-1-Gum-Disease-Remedy-Stop-Receeding-Gums-Strengthen-Teeth-Enamel-/120952682881?var=&epid=1511933195&hash=item1c29577981:m:mHHjajzBX7L1W4QKBZaAZaA
p423
aVhttp://www.ebay.com/itm/POTENT-STRENGTH-CASTOR-OIL-FOR-HAIR-LOSS-ALAPECIA-HAIR-GROWTH-HAIR-EXTENSIONS-/110889573686?var=&epid=1365294354&hash=item19d1889d36:m:mhXF-k7fFqaPpjeklSc6_JQ
p424
aVhttp://www.ebay.com/itm/STRENGTHEN-POTENT-JAMAICAN-BLACK-CASTOR-OIL-for-Hair-Extensions-Braids-Weaves-/120923343535?hash=item1c2797caaf:g:nFgAAOSwWTRW1t1K
p425
aVhttp://www.ebay.com/itm/NEW-ARM-HAMMER-Truly-Radiant-Whitening-Enamel-Strengthen-Deep-Clean-Toothpaste-/190589725898?epid=1237222268&hash=item2c60086cca:g:NyoAAOSwS35Zc9wM
p426
aVhttp://www.ebay.com/itm/1L-NAF-5-STAR-PROFEET-LIQUID-HOOVES-HELP-STRENGTHEN-HORSE-PONY-HOOVES-EQUINE-/140620112620?hash=item20bd9ca2ec:g:kM4AAOSw-jhUJVKT
p427
aVhttp://www.ebay.com/itm/The-Little-Book-of-Big-Brain-Games-517-Ways-to-Stretch-Strengthen-and-Grow-You-/330623483986?epid=178106798&hash=item4cfab20052:m:mCTOwC1RMLBLanInVHv7z2w
p428
a.