(lp1
Vhttp://www.ebay.com/itm/Susie-Cooper-Art-Deco-Kestrel-Shape-Tea-Trio-in-Blue-Polka-Dot-Pattern-/382143416433?hash=item58f985c871:g:wX8AAOSwwvZZVAs9
p2
aVhttp://www.ebay.com/itm/1960s-Retro-Vintage-Susie-Cooper-Green-Keystone-White-China-Tea-Cup-Saucer-/162421305904?hash=item25d1107230:g:VuYAAOSwSlBYuAfP
p3
aVhttp://www.ebay.com/itm/1958-CLASSIC-UK-2-EVERLY-BROTHERS-78-WAKE-UP-LITTLE-SUSIE-LONDON-HLA-8498-VG-/122412014209?hash=item1c80531a81:g:YlQAAOSwoudW-~R5
p4
aVhttp://www.ebay.com/itm/VINTAGE-ART-DECO-GRAY-S-POTTERY-DEMI-TASSE-CUP-SAUCER-C-1930-S-SUSIE-COOPER-/162293343410?hash=item25c96fe4b2:g:8UoAAOSw-0xYNhtt
p5
aVhttp://www.ebay.com/itm/VINTAGE-SUSIE-COOPER-FLOWER-AND-DOTS-TRIO-/191970091716?hash=item2cb24f22c4:g:178AAOSwAuZX1~Sl
p6
aVhttp://www.ebay.com/itm/Animal-Susie-Wedge-Ladies-Flip-Flops-in-Pink-/252764379800?var=&epid=538835220&hash=item3ad9ee5a98:m:m2BWgLL5GjfKCGS5MYgXZxQ
p7
aVhttp://www.ebay.com/itm/Kampa-Susie-Camping-Easy-Set-Up-Storage-Cupboard-Larder-/322441623415?epid=1738079218&hash=item4b1304b777:g:Wz4AAOSw4CFYqwal
p8
aVhttp://www.ebay.com/itm/How-to-Draw-Fashion-Figures-in-Simple-Steps-Susie-Hodge-Paperback-Book-978-/361884628647?epid=111996968&hash=item54420136a7:g:8JwAAOSwZVlXiCU4
p9
aVhttp://www.ebay.com/itm/Wedgwood-Susie-Cooper-GLEN-MIST-coffee-cup-and-saucer-/152479177078?hash=item2380779976:g:dhEAAOSwXYtY0ALo
p10
aVhttp://www.ebay.com/itm/Wedgwood-Susie-Cooper-Cornpoppy-THREE-TIER-CAKE-STAND-/371532455584?hash=item56810f5ea0:g:opcAAOSwKtlWl8-y
p11
aVhttp://www.ebay.com/itm/Susie-Arioli-Band-Thats-For-Me-NEW-CD-/351896708724?epid=30596699&hash=item51eeada674:g:HAoAAOSw44BYHEd~
p12
aVhttp://www.ebay.com/itm/Ladies-Clarks-Smart-Sandals-Susie-Deva-/272494435298?var=&epid=1041099507&hash=item3f71ef1be2:m:mG36LBXiR8BuZhMZ4rSG6Bw
p13
a.