(lp1
Vhttp://www.ebay.com/itm/Ni-No-Kuni-Wrath-Of-The-White-Witch-Essentials-PS3-New-Game-/311869869259?epid=1829672458&hash=item489ce48ccb:g:ZtAAAOSwZ4dZFW8x
p2
aVhttp://www.ebay.com/itm/Celtic-Frost-Innocence-and-Wrath-New-2CD-Album-Pre-Order-30th-June-/162547960147?epid=17002749281&hash=item25d89d0953:g:OOUAAOSwAO9ZOwDt
p3
aVhttp://www.ebay.com/itm/Various-Playstation-2-ps2-Games-Multi-Listing-PAL-VERSION-/322498008427?var=&hash=item4b1661156b:m:mpT6TXKMasr96rpFuHhO3xg
p4
aVhttp://www.ebay.com/itm/Aguirre-Wrath-of-God-DVD-NEW-/401220104309?epid=1837140440&hash=item5d6a94f075:g:dQcAAOSwnbZYHPhQ
p5
aVhttp://www.ebay.com/itm/ps2-TENCHU-Fatal-Shadows-Wrath-Of-Heaven-No-Manuals-Playstation-PAL-UK-/371916606566?hash=item5697f50c66:g:vg4AAOxy6-tSAMPI
p6
aVhttp://www.ebay.com/itm/Total-War-ROME-II-Wrath-of-Sparta-Campaign-Pack-DLC-PC-MAC-STEAM-CD-KEY-/322498010524?hash=item4b16611d9c:g:RRMAAOSw2x1XMESq
p7
aVhttp://www.ebay.com/itm/ps2-TENCHU-Fatal-Shadows-Wrath-Of-Heaven-Playstation-PAL-UK-Versions-/141975627347?epid=55907803&hash=item210e682653:g:vg4AAOxy6-tSAMPI
p8
aVhttp://www.ebay.com/itm/World-of-Warcraft-The-Wrath-of-the-Lich-King-Expansion-Pack-Brand-new-sealed-/162558172914?epid=93941595&hash=item25d938def2:m:mly4QEzP-B9ESXZAmAvNAhA
p9
aVhttp://www.ebay.com/itm/ASURAS-WRATH-ASURAS-New-Sealed-PS3-/142450149076?epid=129309516&hash=item212ab0c6d4:g:8wcAAOSwdvpWD3qY
p10
aVhttp://www.ebay.com/itm/PC-COMMAND-and-CONQUER-3-Deluxe-Edition-Tiberium-Wars-Kanes-Wrath-Win-7-8-10-/322474427392?hash=item4b14f94400:g:8vEAAOSwc-tY5NoQ
p11
aVhttp://www.ebay.com/itm/Xbox-ODDWORLD-Munchs-Oddysee-Strangers-Wrath-MINT-DISCS-Microsoft-PAL-/161438564343?hash=item25967cfff7:g:bQwAAOxys4RR-OFd
p12
aVhttp://www.ebay.com/itm/xbox-ODDWORLD-Munchs-Oddysee-Strangers-Wrath-No-Manuals-Microsoft-PAL-/371302355153?hash=item56735850d1:g:bQwAAOxys4RR-OFd
p13
aVhttp://www.ebay.com/itm/Wrath-by-John-Gwynne-Paperback-2017-/253016245115?epid=234291763&hash=item3ae8f1837b:g:E-oAAOSwrfVZWhjP
p14
aVhttp://www.ebay.com/itm/Asuras-Wrath-Xbox-360-UK-PAL-Asuras-FREE-UK-POSTAGE-/302274547899?epid=129251801&hash=item4660f790bb:g:SocAAOSwhQhY5TTC
p15
aVhttp://www.ebay.com/itm/The-Grapes-Of-Wrath-Studio-Classics-DVD-/262104932772?epid=113772437&hash=item3d06abe1a4:g:XxsAAOSwBLlVCZLe
p16
aVhttp://www.ebay.com/itm/Ni-No-Kuni-Wrath-of-the-White-Witch-PS3-Playstation-3-FREE-UK-POSTAGE-/292180902409?epid=129497310&hash=item440756c209:g:W9cAAOSwjRpZXSky
p17
aVhttp://www.ebay.com/itm/Xbox-360-COMMAND-CONQUER-3-Kanes-Wrath-MINT-DISC-Microsoft-PAL-/161226026921?hash=item2589d1efa9:g:ULAAAOxy69JTDxOK
p18
aVhttp://www.ebay.com/itm/Nosferatu-The-Wrath-of-Malachi-PC-Horror-Shooter-NEW-/200716981754?hash=item2ebbaa15fa:g:8WwAAOSwyjBW698v
p19
aVhttp://www.ebay.com/itm/xbox-ODDWORLD-STRANGERS-WRATH-NI-Strangers-Microsoft-PAL-UK-Version-/142311635085?epid=55914677&hash=item21226f388d:g:tNQAAOSwymxVM2Lj
p20
aVhttp://www.ebay.com/itm/Landranger-9-Cape-Wrath-Durness-Scourie-OS-Landranger-Map-by-Ordnance-Sur-/132225055356?epid=226427115&hash=item1ec93a3a7c:g:E0AAAOSwxu5ZETki
p21
aVhttp://www.ebay.com/itm/Avatars-of-War-Chaos-BNIB-Harbinger-of-Wrath-with-Paired-Weapons-AOW94-/311666203057?epid=6003035710&hash=item4890c0d9b1:g:IAUAAOSwtnpXm2eT
p22
aVhttp://www.ebay.com/itm/The-Wrath-and-the-Dawn-by-Renee-Ahdieh-9780147513854-Paperback-2016-/332307517605?epid=233332365&hash=item4d5f1250a5:g:YAgAAOSwD5BZbE2h
p23
aVhttp://www.ebay.com/itm/BLU-RAY-STAR-TREK-THE-WRATH-OF-KHAN-DIRECTORS-CUT-NEW-SEALED-GENUINE-UK-STOCK-/401160444965?epid=1874486683&hash=item5d67069c25:g:Aq4AAOSwdzVXl3lP
p24
aVhttp://www.ebay.com/itm/PS3-Ni-No-Kuni-Wrath-of-the-White-Witch-Essentials-PS3-GAME-NEW-/302352426489?epid=1628491650&hash=item46659be5f9:g:X6sAAOSwrfVZRMQC
p25
aVhttp://www.ebay.com/itm/Harbinger-of-Wrath-with-Paired-Weapons-AOW94-Avatars-of-War-New-in-Box-/322553132622?epid=6003035710&hash=item4b19aa364e:g:JHQAAOSw3h1ZPsT~
p26
aVhttp://www.ebay.com/itm/Destiny-PS4-Weekly-Featured-Heroic-Raid-Challenges-Wrath-of-the-Machine-/142374308544?hash=item21262b8ac0:g:1owAAOSwdI9Y8OSq
p27
aVhttp://www.ebay.com/itm/Xbox-ODDWORLD-STRANGERS-WRATH-Game-MINT-DISC-Strangers-Microsoft-PAL-/161677668556?epid=55914677&hash=item25a4bd70cc:g:tNQAAOSwymxVM2Lj
p28
aVhttp://www.ebay.com/itm/Jeru-the-Damaja-Wrath-of-the-Math-Vinyl-12-Album-NEW-/282377862520?epid=181313021&hash=item41bf083d78:g:yuUAAOSwXYtYtVBa
p29
aVhttp://www.ebay.com/itm/GREEN-LANTERN-WRATH-OF-THE-FIRST-LANTERN-GRAPHIC-NOVEL-New-Paperback-/291668980315?epid=179625284&hash=item43e8d3725b:g:hDEAAOSwUV9WpV-y
p30
aVhttp://www.ebay.com/itm/Wrath-of-the-Titans-2D-3D-Bluray-NEW-/401219915622?epid=112120191&hash=item5d6a920f66:g:Z6wAAOSwMVdYHJfy
p31
aVhttp://www.ebay.com/itm/WRATH-of-the-SPECTRE-COMPLETE-4-ISSUE-SERIES-by-FLEISHER-APARO-1-2-3-DC-1988-/382074897155?hash=item58f5704303:g:4eMAAOSwA3dYalYu
p32
aVhttp://www.ebay.com/itm/Spiral-Direct-NEW-DESIGNS-Skull-Dragon-Reaper-Rock-Metal-Halloween-T-shirt-Top-/231764778140?var=&hash=item35f641dc9c:m:mNZiQzo8FJOVhhOY5dNBhsQ
p33
aVhttp://www.ebay.com/itm/Clash-of-the-Titans-Wrath-of-the-Titans-Double-Pack-Blu-ray-Brand-New-/292096657610?hash=item44025148ca:g:gi8AAOSwjL5ZBteg
p34
aVhttp://www.ebay.com/itm/Ni-No-Kuni-Wrath-Of-The-White-Witch-Sony-Playstation-3-NEW-SEALED-/253009594093?hash=item3ae88c06ed:g:1lUAAOSwCmZZTn1e
p35
aVhttp://www.ebay.com/itm/Jeru-the-Damaja-Wrath-of-the-Math-Vinyl-12-Album-NEW-/282377862520?epid=181313021&hash=item41bf083d78:g:yuUAAOSwXYtYtVBa
p36
aVhttp://www.ebay.com/itm/Arctic-Fox-Semi-Permanent-Hair-Dye-4oz-Choose-Colour-/132198513509?var=&hash=item1ec7a53b65:m:mlHbASkoS_8U4Wb1s8OonfA
p37
aVhttp://www.ebay.com/itm/Star-Trek-2-The-Wrath-Of-Khan-Directors-Cut-Blu-ray-2015-NEW-REGION-2-/112260378088?epid=1874486683&hash=item1a233d6de8:g:FyIAAOSwo4pYb3Tp
p38
aVhttp://www.ebay.com/itm/Spiral-Direct-Skull-Reaper-Rock-Metal-Biker-Dark-Wear-Gun-Goth-T-shirt-Top-Tee-/231511185338?var=&hash=item35e72457ba:m:mkQkjKlKXO6EvKNICTB-9Gw
p39
aVhttp://www.ebay.com/itm/St-Vincent-Grenadines-2010-MNH-Star-Trek-Wrath-Khan-4v-M-S-Spock-Nimoy-Stamps-/272522492137?hash=item3f739b38e9:g:2YIAAOSwpDdVDHIl
p40
aVhttp://www.ebay.com/itm/ps3-NI-NO-KUNI-Wrath-Of-The-White-Witch-RPG-Game-Playstation-PAL-UK-REGION-FREE-/371486689628?epid=1304690026&hash=item567e55095c:g:rtsAAOSwa-dWqiG4
p41
aVhttp://www.ebay.com/itm/Alejandro-Repulles-Edward-Aguirre-Wrath-of-God-Blu-ray-NEW-/302349495354?epid=1628133490&hash=item46656f2c3a:g:NkEAAOSwHLNZQRle
p42
aVhttp://www.ebay.com/itm/Star-Trek-2-The-Wrath-of-Khan-Directors-Cut-50th-Anniversary-Limited-Edit-/272280147072?epid=1175846046&hash=item3f65295480:g:xsMAAOSwM4xXZ-jn
p43
aVhttp://www.ebay.com/itm/Emperor-Wrath-Of-The-Tyrants-T-Shirt-NEW-OFFICIAL-/131143193058?var=&epid=1328330125&hash=item1e88be51e2:m:mVmkvhfWG1jZey-BUH54cDA
p44
aVhttp://www.ebay.com/itm/Warmachine-Hordes-BNIB-Legion-of-Everblight-Warlock-Wrath-Kallus-/390923404725?hash=item5b04d9c5b5:g:XPUAAOSwQItUBbbL
p45
aVhttp://www.ebay.com/itm/D-D-Pathfinder-Miniatures-Wrath-of-Righteous-32-Rift-Drake-/112231831256?hash=item1a2189d6d8:g:XVUAAOSw2xRYSubx
p46
aVhttp://www.ebay.com/itm/Microsoft-Xbox-Original-Games-Game-Cheap-Collection-Choose-Yourself-/152467219667?var=&hash=item237fc124d3:m:mqXYIZui43AjTzmogxqPNvA
p47
aVhttp://www.ebay.com/itm/D-D-Pathfinder-Miniatures-Wrath-of-Righteous-50-Khorramzadeh-Demon-Lord-/122262501664?hash=item1c7769b920:g:PZMAAOSw5cNYSu6o
p48
aVhttp://www.ebay.com/itm/Jeru-the-Damaja-Wrath-of-the-Math-Vinyl-12-Album-NEU-/282377853591?epid=1106229886&hash=item41bf081a97:g:GTEAAOSw4A5YtU3m
p49
aVhttp://www.ebay.com/itm/Star-Trek-2-The-Wrath-of-Khan-Directors-Cut-Blu-ray-/282073785981?epid=1874486683&hash=item41ace8667d:g:0ycAAOSwOVpXZ-jh
p50
aVhttp://www.ebay.com/itm/Avatars-of-War-BNIB-Wasteland-Warriors-Great-Weapons-Lady-of-Wrath-AOWPL13-PR-/391506971008?hash=item5b27a24980:g:nDsAAOSwAPlXh411
p51
aVhttp://www.ebay.com/itm/Malifaux-The-Ten-Thunders-BNIB-An-Onis-Wrath-Asami-WYR20723-/311793673742?hash=item489859e60e:g:xPEAAOSw2xRYkwt4
p52
aVhttp://www.ebay.com/itm/Bushido-BNIB-Taka-Wrath-Cult-of-Yurei-/390915740729?hash=item5b0464d439:g:3n0AAOSwq7JT9LzF
p53
aVhttp://www.ebay.com/itm/Wrath-of-the-Titans-3D-Blu-Ray-Digital-Copy-New-Blu-ray-/311799764573?epid=112120191&hash=item4898b6d65d:g:POQAAOSwCQZZA4n7
p54
aVhttp://www.ebay.com/itm/Destiny-PS4-3-x-Weekly-Featured-Heroic-Raid-Challenges-Wrath-of-the-Machine-/142374310179?hash=item21262b9123:g:1owAAOSwdI9Y8OSq
p55
aVhttp://www.ebay.com/itm/Asuras-Wrath-GAME-NEW-/302358074213?epid=129309516&hash=item4665f21365:g:dU0AAOSwFqNZS7Jj
p56
aVhttp://www.ebay.com/itm/Nosferatu-The-Wrath-of-Malachi-PC-STEAM-CD-KEY-Fast-Delivery-/321905371935?hash=item4af30e2b1f:g:mUgAAOSw5ZBWMQ14
p57
aVhttp://www.ebay.com/itm/STAR-TREK-II-THE-WRATH-OF-KHAN-1982-2-Classic-Directors-Cut-2-Disc-UK-DVD-/221986995845?epid=3950146&hash=item33af74be85:g:KH4AAOSwJkJWjCwP
p58
aVhttp://www.ebay.com/itm/Peter-Berling-Del-Negro-Aguirre-Wrath-of-God-DVD-NEW-/351931973646?epid=1637396905&hash=item51f0c7c00e:g:4jQAAOSwA3dYT9ZX
p59
aVhttp://www.ebay.com/itm/Star-Trek-2-The-Wrath-of-Khan-Blu-ray-/291548999873?epid=72541481&hash=item43e1acb0c1:g:eF8AAOSwjVVVnpBh
p60
aVhttp://www.ebay.com/itm/D-D-Pathfinder-Miniatures-Wrath-of-Righteous-20-Tarry-Fiend-/112107429049?hash=item1a1a1f9cb9:g:wCkAAOSw0UdXvXJY
p61
a.