(lp1
Vhttp://www.ebay.com/itm/Wesley-Morgan-Bailee-Madison-Petes-Christmas-DVD-NEW-/351932125485?epid=1033331647&hash=item51f0ca112d:g:GWUAAOSwJ7RYUAtB
p2
aVhttp://www.ebay.com/itm/SUGAR-HILL-DVD-HE-WANTED-POWER-NOW-HE-JUST-WANTS-OUT-WESLEY-SNIPES-/401192222121?epid=113773420&hash=item5d68eb7da9:m:mjtfi6asGu7IZj6vxVDpIXw
p3
aVhttp://www.ebay.com/itm/JOHN-WESLEY-Centenary-of-his-Death-Antique-Print-1891-/181489139946?hash=item2a419880ea:g:L90AAOSwGvhT44R~
p4
aVhttp://www.ebay.com/itm/PASSENGER-57-Wesley-Snipes-Blu-Ray-Sealed-Region-B-/162546298624?epid=1442910636&hash=item25d883af00:g:choAAOSwo4pYmh-x
p5
aVhttp://www.ebay.com/itm/The-Mermaids-Scream-Wesley-Peterson-by-Kate-Ellis-/182438754775?epid=233546540&hash=item2a7a3279d7:g:hjAAAOSwo4pYjxHC
p6
aVhttp://www.ebay.com/itm/John-Wesley-Under-The-Red-And-White-Sky-CD-PORCUPINE-TREE-FISH-CLOSING-OF-PALE-/142216178301?epid=59437785&hash=item211cbeaa7d:g:4jcAAOSwI-BWLx46
p7
aVhttp://www.ebay.com/itm/WESLEY-Fred-THE-JBS-Blow-Your-Head-Vinyl-7-/182650524962?hash=item2a86d1d522:g:f5gAAOSwd~RZXT2G
p8
aVhttp://www.ebay.com/itm/Firetrap-Mens-Wesley-BT-Casual-Lace-Up-Shoes-Footwear-/391202130291?var=&epid=1941792346&hash=item5b1576c973:m:mV7RQzYESqiTO1drBMZ2F5w
p9
aVhttp://www.ebay.com/itm/Panini-ROAD-TO-WORLD-CUP-2018-LIMITED-EDITION-Adrenalyn-XL-Football-Cards-/132175177237?var=&hash=item1ec6412615:m:mbRseTdiu1Htnu9_sy_Y9vw
p10
aVhttp://www.ebay.com/itm/Blade-Trinity-Blu-ray-2012-Wesley-Snipes-Brand-New-Sealed-/201715835333?epid=115997718&hash=item2ef73361c5:g:DZkAAOSwXyVYJijm
p11
a.