(lp1
Vhttp://www.ebay.com/itm/London-Grammar-If-You-Wait-CD-NEW-SEALED-Digipack-Hey-Now-/401312280326?epid=1426408047&hash=item5d70136f06:g:1BgAAOSw3ZRY-lbi
p2
aVhttp://www.ebay.com/itm/MUMFORD-AND-SONS-NEW-SEALED-CD-BABEL-I-WILL-WAIT-2012-/370986130917?epid=129524717&hash=item56607f1de5:g:~2kAAOSwv0tU8dI4
p3
aVhttp://www.ebay.com/itm/London-Grammar-If-You-Wait-CD-NEW-/401219865364?epid=1426408047&hash=item5d6a914b14:g:BJgAAOSwKOJYHHwW
p4
aVhttp://www.ebay.com/itm/DEREK-RYAN-HAPPY-MAN-CD-No-Need-To-Wait-Immediate-Dispatch-from-UK-/372017656131?epid=1789372417&hash=item569dfaf143:g:5m0AAOSwn7JYCJ80
p5
aVhttp://www.ebay.com/itm/The-York-Waits-Playford-Plus-2007-CD-NEW-SEALED-SPEEDYPOST-/232254950357?epid=66118639&hash=item3613794bd5:g:hEkAAOSw7NNUGikQ
p6
aVhttp://www.ebay.com/itm/London-Grammar-If-You-Wait-Vinyl-12-Album-NEW-/352079023814?epid=1211745129&hash=item51f98b8ec6:g:rf0AAOSw-K9ZNOZX
p7
aVhttp://www.ebay.com/itm/LEGEN-wait-for-it-DARY-How-I-Met-Your-Mother-HIMYM-Barney-Stinson-T-Shirt-/271211102562?var=&hash=item3f25710162:m:muKEbC8iYk2LHPpiKZS06hg
p8
aVhttp://www.ebay.com/itm/Meat-Loaf-Heaven-Can-Wait-The-Best-of-2003-CD-NEW-SEALED-SPEEDYPOST-/331436371977?epid=4007367&hash=item4d2b25b009:m:mT6PqIPT5hDkA1G98s45nWQ
p9
aVhttp://www.ebay.com/itm/WAIT-UNTIL-DARK-1967-Audrey-Hepburn-Blu-Ray-Sealed-Region-free-/162332295099?hash=item25cbc23fbb:g:-1UAAOSw5cNYXk7n
p10
aVhttp://www.ebay.com/itm/London-Grammar-If-You-Wait-CD-NEU-/352004405246?hash=item51f518f7fe:g:FM0AAOSw32lYxq7y
p11
aVhttp://www.ebay.com/itm/Tom-Waits-Bad-As-Me-DELUXE-NEW-2-x-CD-/311069020307?epid=1337453365&hash=item486d289093:g:YpYAAOSw-jhT~w5k
p12
aVhttp://www.ebay.com/itm/Grotesque-In-the-Embrace-of-Evil-NEWCD2015-AT-THE-GATES-LIERS-IN-WAIT-ARCKANUM-/361892436698?epid=4030824&hash=item5442785ada:g:uG8AAOSwA3dYlMdP
p13
aVhttp://www.ebay.com/itm/The-York-Waits-Playford-Plus-2007-CD-NEW-SEALED-SPEEDYPOST-/232254950357?epid=66118639&hash=item3613794bd5:g:hEkAAOSw7NNUGikQ
p14
aVhttp://www.ebay.com/itm/Can-t-Hardly-Wait-10-Year-Reunion-Edition-Blu-Ray-2008-Region-Free-/152594739674?epid=1029961441&hash=item23875af1da:g:~vMAAOSwHLNZSp2u
p15
aVhttp://www.ebay.com/itm/Wait-Until-Dark-DVD-VERY-GOOD-CONDITION-REGION-2-FREE-1ST-CLASS-UK-POST-/122545662397?epid=50835524&hash=item1c884a69bd:m:mE3T8rs2JXHkQT8M5YgCddg
p16
aVhttp://www.ebay.com/itm/London-Grammar-If-You-Wait-CD-NEW-/282393817767?epid=1210959715&hash=item41bffbb2a7:g:YfsAAOSwxEpYxq~o
p17
aVhttp://www.ebay.com/itm/The-House-Of-Puzzles-250-BIG-PIECE-JIGSAW-PUZZLE-Wait-For-Us-Big-Pieces-/162419923864?epid=1841160956&hash=item25d0fb5b98:g:GlYAAOSwe-FU2hTB
p18
aVhttp://www.ebay.com/itm/London-Grammar-If-You-Wait-Sealed-Double-Vinyl-LP-Hey-Now-Strong-/112461710534?epid=1223043537&hash=item1a2f3d84c6:g:o4gAAOSwd~RZXYIL
p19
aVhttp://www.ebay.com/itm/What-We-Do-In-The-Shadows-Blu-ray-5055002559747-Jemaine-Clement-Taika-Wait-/391775483121?epid=1837621277&hash=item5b37a374f1:g:aWQAAOSwRgJXjhDg
p20
aVhttp://www.ebay.com/itm/Jennifer-Love-Hewitt-Jerry-OConnell-CANT-HARDLY-WAIT-1998-Teen-Drama-UK-DVD-/221598258040?epid=49228124&hash=item3398491378:g:308AAOSwosFUXPNP
p21
aVhttp://www.ebay.com/itm/London-Grammar-If-You-Wait-NEW-MINT-Numbered-Ltd-edition-7-inch-vinyl-single-/371967993513?hash=item569b0526a9:g:0CoAAOSwcF9UVLy5
p22
aVhttp://www.ebay.com/itm/8x10-BARBER-Print-SUSPENCE-Victorian-Girl-Pray-Jack-Russell-Terrier-Dog-Cat-Wait-/382078299154?hash=item58f5a42c12:g:rJEAAOSwEgVWSjb2
p23
aVhttp://www.ebay.com/itm/HEAVEN-CAN-WAIT-STUDIO-CLASSIC-DVD-FILM-/262817536499?epid=168109291&hash=item3d312559f3:g:Hy0AAOSwa81XRsMO
p24
aVhttp://www.ebay.com/itm/Shooter-Jennings-Dont-Wait-Up-For-George-NEW-CD-EP-/311075468796?epid=1528913806&hash=item486d8af5fc:g:40gAAOSwfcVUBYOv
p25
aVhttp://www.ebay.com/itm/Mandy-Smith-I-Just-Cant-Wait-CD-Single-Stock-Aitken-Waterman-Box-Set-PWL-/391728052411?hash=item5b34cfb8bb:g:DQIAAOSwoydWk0U2
p26
aVhttp://www.ebay.com/itm/Funny-t-shirt-humour-tee-rude-tops-gifts-ladies-slogan-shirts-Wait-come-back-/171920875168?var=&hash=item2807485ea0:m:mFourW1MEnOu4HY7XgA7vEg
p27
aVhttp://www.ebay.com/itm/London-Grammar-If-You-Wait-CD-NEW-/352004431475?epid=1426408047&hash=item51f5195e73:g:sHUAAOSwhQhYxrrv
p28
aVhttp://www.ebay.com/itm/London-Grammar-If-You-Wait-Vinyl-LP-NEW-/401238662289?epid=1223043537&hash=item5d6bb01c91:g:bQMAAOSwcUBYRvMw
p29
aVhttp://www.ebay.com/itm/Locksport-People-Wait-Before-Ordering-I-Will-Post-When-Stocks-Are-Available-/282414401586?hash=item41c135c832:g:1MkAAOSwE0JY-oq7
p30
aVhttp://www.ebay.com/itm/Moby-Wait-For-Me-CD-NEU-/302182257536?hash=item465b775380:g:ZXMAAOSwopRYZyYo
p31
aVhttp://www.ebay.com/itm/TOM-WAITS-ORPHANS-CD-NEW-BOX-SET-/231569683314?epid=1905016812&hash=item35eaa0f372:g:0WgAAOSwl8NVXlbY
p32
aVhttp://www.ebay.com/itm/Please-Wait-To-Be-Offended-Offensive-Novelty-Mug-Birthday-Office-Party-Gift-/282109718064?hash=item41af0cae30:g:o2AAAOSwSv1XkoYd
p33
aVhttp://www.ebay.com/itm/J-Script-Dont-Wait-Up-EP-/152588186642?hash=item2386f6f412:g:E-8AAOSwz71ZQ90~
p34
aVhttp://www.ebay.com/itm/London-Grammar-If-You-Wait-Vinyl-12-Album-NEU-/302340505643?hash=item4664e6002b:g:HxoAAOSwlMFZNPal
p35
aVhttp://www.ebay.com/itm/Hurry-Up-and-Wait-by-Maira-Kalman-9780870709593-Hardback-2015-/331888272874?epid=212768375&hash=item4d461525ea:g:jREAAOSwGIRXakmQ
p36
aVhttp://www.ebay.com/itm/Snowbabies-Department-56-Bait-Wait-Figurine-New-Boxed-4046560-/401258922000?epid=1141849907&hash=item5d6ce54010:g:oM4AAOSwsTxXkkT4
p37
aVhttp://www.ebay.com/itm/Tom-Waits-Raindogs-NEW-CD-/311010208084?epid=3950361&hash=item4869a72954:g:DmkAAOSw7I5TwU4R
p38
aVhttp://www.ebay.com/itm/Disney-Junior-the-Lion-Guard-Cant-Wait-to-be-Queen-Parragon-Paperback-Book-/361848227029?epid=221271603&hash=item543fd5c4d5:g:zuEAAOSwH3NXngQn
p39
aVhttp://www.ebay.com/itm/London-Grammar-If-You-Wait-Vinyl-12-Album-NEW-/282510180689?epid=1223043537&hash=item41c6eb4151:g:Q7IAAOSwjL5ZNO8p
p40
aVhttp://www.ebay.com/itm/London-Grammar-If-You-Wait-CD-Exclusive-Amazon-Edition-Signed-Poster-/321603302375?hash=item4ae10cf3e7:g:6AEAAOSwkNZUe6Ch
p41
aVhttp://www.ebay.com/itm/Installing-Muscles-Please-Wait-Weight-Training-Mens-T-Shirt-/181831736356?var=&hash=item2a56041c24:m:m2jXAlJfFPvzIpoV9wuBoqw
p42
aVhttp://www.ebay.com/itm/Jonathan-Kelly-Twice-Around-the-Houses-Wait-Till-They-Change-the-Backdrop-CD-NEW-/302204970390?epid=1208140998&hash=item465cd1e596:g:v1QAAOSwZQRYh4yA
p43
aVhttp://www.ebay.com/itm/Tom-Waits-Swordfishtrombones-CD-NEW-/302255593005?epid=178475497&hash=item465fd6562d:g:H6QAAOSwzgBYzDDr
p44
aVhttp://www.ebay.com/itm/WAIT-A-MINUTE-GEMS-FROM-THE-STAX-SATELLITE-VAULTS-ON-VINYL-LP-/182670032389?epid=1378438399&hash=item2a87fb7e05:g:S64AAOSw-FZXj1we
p45
aVhttp://www.ebay.com/itm/Tom-Waits-Beautiful-Maladies-CD-NEW-/282354524149?epid=181590597&hash=item41bda41ff5:g:rZoAAOSwqM1Ym1bk
p46
aVhttp://www.ebay.com/itm/The-Graveltones-Dont-Wait-Down-NEW-CD-/311009185079?epid=175470565&hash=item4869978d37:g:NK4AAOSwFAZTv87U
p47
aVhttp://www.ebay.com/itm/Tom-Waits-Closing-Time-T-shirt-Mens-/351590338157?var=&hash=item51dc6ace6d:m:mjVfuz8BPz9DPvLv8deFekg
p48
aVhttp://www.ebay.com/itm/Disney-Traditions-Cant-Wait-To-Be-King-Simba-Figurine-Ornament-10cm-4032861-/152399989018?hash=item237bbf491a:g:7kgAAOSwDNdVp9o8
p49
aVhttp://www.ebay.com/itm/Tom-Waits-Swordfishtrombones-CD-NEW-/401219977552?epid=3955216&hash=item5d6a930150:g:4N8AAOSw5cNYHLnO
p50
aVhttp://www.ebay.com/itm/Tom-Waits-Orphans-NEW-3CD-/390889656727?epid=59436305&hash=item5b02d6d197:g:~rcAAOSwKPNTynNm
p51
aVhttp://www.ebay.com/itm/Just-Wait-Till-I-Evolve-T-Shirt-Magikarp-Until-Evolution-Funny-Joke-Mens-Top-/391522547651?var=&hash=item5b288ff7c3:m:myyJmlAmu3UHQW_XyaIvo3w
p52
aVhttp://www.ebay.com/itm/New-British-Officer-Wait-Sash-Marron-Color-Army-Officer-Ceremonial-Waist-Sash-/201546287953?hash=item2eed184b51:g:oSMAAOSwyjBW8a7v
p53
aVhttp://www.ebay.com/itm/Lying-in-Wait-Dutch-Import-DVD-NEW-/351939792098?hash=item51f13f0ce2:g:8w0AAOSwImRYXD-~
p54
aVhttp://www.ebay.com/itm/THINKING-PLEASE-WAIT-Mens-T-Shirt-S-3XL-Black-Funny-Printed-Joke-Top-/121608164578?var=&hash=item1c506954e2:m:mWMGGgchLSToLLz1GulCK7w
p55
aVhttp://www.ebay.com/itm/180-x-60mm-NO-ENTRY-PLEASE-KNOCK-AND-WAIT-THANK-YOU-STICKER-/131895691887?epid=1289204516&hash=item1eb5988a6f:g:gPIAAOSwH3NXnx35
p56
aVhttp://www.ebay.com/itm/TOM-WAITS-NIGHTHAWKS-ON-THE-RADIO-New-Sealed-CD-Live-Radio-Broadcast-/271988384665?epid=203526659&hash=item3f53c56399:g:XhAAAOSwHjNV-ePE
p57
aVhttp://www.ebay.com/itm/WARNING-ALERT-DOG-COLLAR-LEAD-HARNESS-COAT-AWARD-WINNING-PET-PRODUCT-WHY-WAIT-/181943926090?var=&hash=item2a5cb3fd4a:m:m1jtEhtgO8p3eazEFDvM93A
p58
aVhttp://www.ebay.com/itm/Tom-Waits-Piano-Sketch-Jazz-Blues-Music-T-Shirt-Nighthawks-Closing-Time-New-428-/232188920375?var=&hash=item360f89c237:m:mzvyg0CY-6h_RT06LMVO2LQ
p59
aVhttp://www.ebay.com/itm/New-British-Officer-Wait-Sash-Marron-Color-Army-Officer-Ceremonial-Waist-Sash-/232191746595?hash=item360fb4e223:g:6MMAAOSwopRYZ826
p60
aVhttp://www.ebay.com/itm/TOM-WAITS-ALICE-NEW-SEALED-Digipack-CD-045778663224-/271988371922?epid=1404930809&hash=item3f53c531d2:g:GBYAAOSwKIpV-eAL
p61
aVhttp://www.ebay.com/itm/THE-BATMAN-MOVIE-starring-Adam-Wait-Burt-Ward-DVD-/132178976351?hash=item1ec67b1e5f:g:WR4AAOSwhvFZCRB4
p62
aVhttp://www.ebay.com/itm/Tom-Waits-Beautiful-Maladies-THE-ISLAND-YEARS-CD-NEW-/401219917021?epid=3974139&hash=item5d6a9214dd:g:94QAAOSwcUBYHJgZ
p63
aVhttp://www.ebay.com/itm/Tom-Waits-Blood-Money-CD-NEW-/282302440718?epid=1407877785&hash=item41ba89650e:g:t-oAAOSwImRYXrrg
p64
aVhttp://www.ebay.com/itm/Tom-Waits-Mule-Variations-CD-NEW-/351940108198?epid=1605716542&hash=item51f143dfa6:g:a08AAOSwnHZYXNYz
p65
aVhttp://www.ebay.com/itm/Wait-Until-You-See-Her-Personalised-Bridesmaid-Page-Boy-Vintage-Wedding-Sign-/381164573739?hash=item58bf2dd42b:g:QN8AAOSw32lYuy6l
p66
a.