(lp1
Vhttp://www.ebay.com/itm/Dog-Days-An-Animal-Chronicle-by-Patrice-Nganang-9780813925356-Paperback-2006-/331992704049?epid=90212450&hash=item4d4c4ea431:g:gcAAAOSwTA9X9wou
p2
aVhttp://www.ebay.com/itm/60-capsules-de-Pure-africaine-Mango-plus-grande-force-Irvingia-gabonensis-/231189017649?hash=item35d3f07431:g:eSUAAOSw9N1ViSHv
p3
aVhttp://www.ebay.com/itm/Dog-Days-An-Animal-Chronicle-by-Patrice-Nganang-9780813925356-Paperback-2006-/331992704049?epid=90212450&hash=item4d4c4ea431:g:gcAAAOSwTA9X9wou
p4
aVhttp://www.ebay.com/itm/60-capsules-de-Pure-africaine-Mango-plus-grande-force-Irvingia-gabonensis-/231189017649?hash=item35d3f07431:g:eSUAAOSw9N1ViSHv
p5
aVhttp://www.ebay.com/itm/Dog-Days-An-Animal-Chronicle-by-Patrice-Nganang-9780813925356-Paperback-2006-/331992704049?epid=90212450&hash=item4d4c4ea431:g:gcAAAOSwTA9X9wou
p6
aVhttp://www.ebay.com/itm/60-capsules-de-Pure-africaine-Mango-plus-grande-force-Irvingia-gabonensis-/231189017649?hash=item35d3f07431:g:eSUAAOSw9N1ViSHv
p7
a.