(lp1
Vhttp://www.ebay.com/itm/New-Design-Straps-Ruched-Long-Chiffon-bridesmaid-Evening-party-Dress-/200908503167?var=&epid=1256616234&hash=item2ec714787f:m:mTv6jWSOpTrF6iozK6FXJpA
p2
aVhttp://www.ebay.com/itm/ZARA-NEW-SS17-SKY-BLUE-FLORAL-EMBROIDERED-SHORT-DRESS-SIZE-M-L-REF-6895-069-/122471526511?var=&hash=item1c83df306f:m:mt5m51Bc7jcdsZE-DVvaPuA
p3
aVhttp://www.ebay.com/itm/ZARA-Sky-Blue-Jumpsuit-Dress-With-Ruffled-Sleeves-SIZE-XS-S-M-L-/222557871429?var=&hash=item33d17b9d45:m:muU7M70-dNxW_IvzN5SQv_w
p4
aVhttp://www.ebay.com/itm/Roman-Originals-Ladies-Online-Exclusive-Lace-Cotton-Midi-Dress-Sky-Blue-/332232310565?var=&epid=906336057&hash=item4d5a96bf25:m:mjEzWIsTgVpn1_LRqN4ECcw
p5
aVhttp://www.ebay.com/itm/UK-Womens-Maxi-Boho-Floral-Summer-Beach-Long-Skirt-Evening-Cocktail-Party-Dress-/222478205023?var=&hash=item33ccbc005f:m:mOFuVtn0iAbCzCEI1NhM3Yg
p6
aVhttp://www.ebay.com/itm/Womens-Classic-Poloshirt-Ladies-Plain-Short-Sleeve-Top-T-Shirt-Polo-T-shirt-Lot-/222543807617?var=&hash=item33d0a50481:m:mDj9H4zK68ChjneONc0HHWA
p7
aVhttp://www.ebay.com/itm/Sky-Blue-Floral-Bardot-Frill-Summer-Occasion-Wedding-Bodycon-Wiggle-Midi-Dress-/292173460345?var=&hash=item4406e53379:m:m_rTm9OXF_RVz162-R5EtUw
p8
aVhttp://www.ebay.com/itm/New-Ladies-LAGENLOOK-Quirky-BOHO-Jersey-COTTON-Sleeveless-COCOON-Tunic-Dress-/122071969883?var=&hash=item1c6c0e705b:m:mztic6AaPHHAgQJ_W8_3POA
p9
aVhttp://www.ebay.com/itm/Angel-fashions-V-Neck-Embroidery-Lace-Flower-Straps-Mermaid-Wedding-Dress-310-/391712907628?var=&hash=item5b33e8a16c:m:m7K09uAZmwH2qdGh3uxhaHw
p10
aVhttp://www.ebay.com/itm/KISS-THE-SKY-IN-THE-TRANCE-70s-Style-Midi-Dress-Sizes-L-12-/232210853242?var=&hash=item3610d86d7a:m:m_wYLPhumGBqnMcyEWJGZiA
p11
aVhttp://www.ebay.com/itm/Ladies-Boho-Floral-Sleeveless-Sundress-Womens-Summer-Beach-Evening-Party-Dresses-/152609818127?var=&hash=item238841060f:m:mwPjAU9EApaTl3JNqhu9wpQ
p12
aVhttp://www.ebay.com/itm/HELL-BUNNY-BEE-BEE-POLKA-DOT-spotted-MINI-jersey-DRESS-BLACK-SKY-BLUE-/301901702646?var=&hash=item464abe65f6:m:m_qQg5SAA5Jke3qw-ROJ2iw
p13
aVhttp://www.ebay.com/itm/Phase-Eight-Womens-Jumper-Top-Sky-Blue-Double-Layer-UK8-NEW-RRP-45-00-/122482142688?hash=item1c84812de0:g:wzQAAOSwHHFY9km1
p14
aVhttp://www.ebay.com/itm/Womens-Lace-Crochet-Chiffon-Long-Sleeve-Top-Shirt-Blouse-T-shirt-Plus-Size-8-28-/263064292259?var=&hash=item3d3fda8ba3:m:mcjntCGZz1VEWzJerItus3Q
p15
aVhttp://www.ebay.com/itm/Sky-Blue-Contrast-Lace-Crochet-Fishtail-Midi-Dress-New-With-Tags-Size-10-12-/122587261043?hash=item1c8ac52873:g:1YAAAOSwjKFZV~uU
p16
aVhttp://www.ebay.com/itm/Sky-Blue-Vintage-Floral-Print-50s-Rockabilly-Prom-Bridesmaid-Swing-Dress-8-26-/111730063547?var=&hash=item1a03a178bb:m:m0L9M5K1_fDfeBi1D4fQDmA
p17
aVhttp://www.ebay.com/itm/Uneek-Ladies-Polo-Shirt-Sizes-8-22-Womens-Casual-Tee-Classic-Fit-UC106-/141728957258?var=&epid=1255910995&hash=item20ffb4434a:m:mnMtKQjIUtgVipLQRt7uSeg
p18
aVhttp://www.ebay.com/itm/Elegant-Chiffon-one-shoulder-flower-bridesmaid-evening-wedding-party-dress-UK-/200942730087?var=&epid=1356996934&hash=item2ec91ebb67:m:mjPVS4qB3AKfFSYqif56ZOg
p19
aVhttp://www.ebay.com/itm/Phase-Eight-Womens-Jumper-Top-Sky-Blue-Double-Layer-UK14-NEW-RRP-45-00-/122482141550?hash=item1c8481296e:g:wzQAAOSwHHFY9km1
p20
aVhttp://www.ebay.com/itm/Cia-Maritima-8-10-12-14-16-Long-Beach-cover-up-dress-sun-Sky-blue-Turquoise-BNWT-/252727117036?var=&hash=item3ad7b5c4ec:m:mpVQfdCCbM4hMErgTXNA7zw
p21
aVhttp://www.ebay.com/itm/Hearts-Roses-London-Sky-Blue-Floral-Print-50s-Rockabilly-Prom-Swing-Dress-8-26-/172558328042?var=&hash=item282d4720ea:m:mGo2-sQe73Anzb8wImTAE0Q
p22
aVhttp://www.ebay.com/itm/ZARA-Sky-Blue-Top-With-Off-The-Shoulder-Neckline-NEW-XS-S-M-L-XL-Ref-2432-302-/322577272677?var=&hash=item4b1b1a8f65:m:mM8pFpLWQTNLxGIZt4g5PtA
p23
aVhttp://www.ebay.com/itm/ZARA-NEW-SKY-BLUE-ORIENTAL-FLORAL-PRINT-MIDI-DRESS-SIZE-S-/263085849530?hash=item3d41237bba:g:7YMAAOSwTA9X8YDJ
p24
aVhttp://www.ebay.com/itm/New-Ladies-Italian-Legenlook-Sleeveless-Crochet-Lined-Layering-Tunic-Top-Dress-/332265257162?var=&hash=item4d5c8d78ca:m:m_tRgrEeAipCjv4or4B-RPA
p25
aVhttp://www.ebay.com/itm/New-Ladies-V-Neck-Long-Sleeve-Zip-up-Womens-Pullover-Blouse-Casual-Tops-/162440669163?var=&hash=item25d237e7eb:m:m7Latf7SN2jRS6u3fXjF0cw
p26
aVhttp://www.ebay.com/itm/New-Italian-Lagenlook-Quirky-Boho-Jersey-Soft-Cotton-Stretch-Pocket-Tunic-Dress-/192111296381?var=&hash=item2cbab9bf7d:m:mc2lY0WhRmcgSUutcBVt6Mg
p27
aVhttp://www.ebay.com/itm/New-Womens-Cotton-Striped-Nautical-Sun-Beach-Holiday-Dress-with-Rope-Belt-/332123777881?var=&epid=559537228&hash=item4d541eab59:m:mfpaVCw96mJWqI9xo5u5BYg
p28
aVhttp://www.ebay.com/itm/Womens-Boho-Floral-Sleeveless-Sundress-Ladies-Summer-Beach-Evening-Party-Dress-/302359813873?var=&hash=item46660c9ef1:m:mNsr_ZQlp7veMx4XtdPGw8Q
p29
aVhttp://www.ebay.com/itm/Womens-Holiday-Mini-Playsuit-Ladies-Boho-Blouse-Summer-Casual-Beach-Shirt-Dress-/263037113105?var=&hash=item3d3e3bd311:m:mhqH_e3CBZsIE2tmnbUezfA
p30
aVhttp://www.ebay.com/itm/Phase-Eight-Womens-Jumper-Top-Sky-Blue-Double-Layer-UK12-NEW-RRP-45-00-/122482132715?hash=item1c848106eb:g:wzQAAOSwHHFY9km1
p31
aVhttp://www.ebay.com/itm/Ladies-Fine-Ribbed-Knitted-Strappy-Back-Sleeveless-Bodysuit-Leotard-Stretch-/142061353406?var=&hash=item21138439be:m:mQ14LZ96PPsZWpcPSb5av5A
p32
aVhttp://www.ebay.com/itm/UK-Fashion-Womens-Off-Shoulder-Loose-Casual-Irregular-Shirt-Long-Tops-Blouse-Tee-/332221396955?var=&hash=item4d59f037db:m:m8O-Rg0marpliIyzDN2n5-w
p33
aVhttp://www.ebay.com/itm/NEW-Lagenlook-Floaty-SKY-BLUE-Frill-Tunic-Dress-Top-Fits-Sizes-16-18-20-22-/152631194736?hash=item2389873470:g:A8sAAOSw8TBZcJRV
p34
aVhttp://www.ebay.com/itm/New-Womens-Ladies-Italian-Lagenlook-Cotton-Floral-Print-Balloon-Tunic-Top-Dress-/192218344115?var=&hash=item2cc11b2ab3:m:m-n_3ZDq5jRBvAl95zse23Q
p35
aVhttp://www.ebay.com/itm/2016-Sky-Replica-Black-Blue-White-Cycling-Jersey-NWT-Size-Large-40-Chest-/292182156481?hash=item440769e4c1:g:YoEAAOSw3gJZHKnF
p36
aVhttp://www.ebay.com/itm/LAGENLOOK-100-LINEN-ITALIAN-SUMMER-DRESS-2-FRONT-POCKETS-12-COLOURS-SIZE-12-16-/141981661852?var=&hash=item210ec43a9c:m:mecXdvchEL8QDehvqyTBsFA
p37
aVhttp://www.ebay.com/itm/Womens-Ladies-Batwing-Splash-Lagenlook-Fine-Knitted-Baggy-Tunic-Hi-Lo-Hem-Top-/152455683856?var=&hash=item237f111f10:m:mfVb002r8vVmCru7Iitjt5g
p38
aVhttp://www.ebay.com/itm/Plus-size-Women-Boho-Floral-Sleeveless-Sundress-Summer-Beach-Evening-Party-Dress-/152598170930?var=&hash=item23878f4d32:m:mwAfbDcGnLzJG-WsSgy7cpw
p39
aVhttp://www.ebay.com/itm/Ladies-Womens-Chiffon-Long-Sleeve-Blouse-V-Neck-T-Shirt-Wrap-Front-Work-Top-WrkL-/302034956306?var=&hash=item4652afb012:m:mnB8XDlPI-OqylK7TFmmeMQ
p40
aVhttp://www.ebay.com/itm/Hearts-Roses-Sky-Blue-Black-Polka-Dot-50s-Rockabilly-Prom-Cut-Out-Swing-Dress-/182545558235?var=&hash=item2a80902adb:m:md57of353RUGdB17_7l0q5Q
p41
aVhttp://www.ebay.com/itm/New-Womens-Superdry-Boxy-Text-T-Shirt-Sky-Grey-Marl-/401350147787?var=&hash=item5d72553ecb:m:msAWUSKdHWNFKmlNLXqcJEg
p42
aVhttp://www.ebay.com/itm/Mens-Womens-Deluxe-Polo-Shirt-Short-Sleeve-Work-Strong-Tough-Casual-Top-Lot-/142399085134?var=&epid=856925450&hash=item2127a59a4e:m:mz7ZbaFUVUpHLO-C6SS3GcQ
p43
aVhttp://www.ebay.com/itm/Womens-Boho-Floral-Sleeveless-Sundress-Ladies-Summer-Beach-Evening-Party-Dress-/192224858246?var=&hash=item2cc17e9086:m:mHkLY7A6P6Rjmyi15h6aiIQ
p44
aVhttp://www.ebay.com/itm/One-Shoulder-Chiffon-Evening-Bridesmaid-Dress-Purple-UK-size-8-20-/180768750921?var=&epid=1956389228&hash=item2a16a83d49:m:mmLUqOfRKmyy3J-HWawqdag
p45
aVhttp://www.ebay.com/itm/New-Ladies-Layered-Lagenlook-Italian-Crochet-Lace-Panels-3-Piece-Tunic-Top-/112378993650?var=&hash=item1a2a4f5bf2:m:mQYBzWH_Lwv4iMoleZuUOXg
p46
aVhttp://www.ebay.com/itm/Ladies-Girls-Smart-Short-Sleeve-Work-Shirt-Blouse-Fitted-Office-School-Formal-/400965381664?var=&epid=1156602223&hash=item5d5b662e20:m:mqZXxbqavyDTYRLjRPdg2nA
p47
aVhttp://www.ebay.com/itm/New-Womens-Two-Piece-Top-and-Bodycon-Skirt-Dress-Set-Back-Lace-Up-Top8-10-12-14-/182475574719?var=&hash=item2a7c644dbf:m:mRTAIjjVyy6sFHnwHpp74gg
p48
aVhttp://www.ebay.com/itm/UK-Summer-Womens-Boho-Sleeveless-Evening-Party-Beach-Midi-Dress-Floral-Sundress-/282557074036?var=&hash=item41c9b6ca74:m:mFsob5JCDkWKzmt3hGj-feA
p49
aVhttp://www.ebay.com/itm/Bnwt-Sandwich-Blurred-Check-Jersey-Dress-In-Dark-Sky-Size-Medium-B50-/361669341878?hash=item54352c32b6:g:I1gAAOSwnQhXnkWd
p50
aVhttp://www.ebay.com/itm/Cute-Short-Strapless-Prom-Dress-Bridesmaid-Dress-Party-Evening-Formal-size-6-20-/282534869833?var=&hash=item41c863fb49:m:mu9DVi5SbAkb3qzNOpDpcCg
p51
aVhttp://www.ebay.com/itm/Ladies-Unique-Funky-Sky-Hot-Air-Balloons-Print-Long-Vest-Tank-Top-Dress-/251462506195?var=&epid=2070509636&hash=item3a8c5556d3:m:mQCvUUxRIApuZ8xPJPBRFNg
p52
aVhttp://www.ebay.com/itm/Mens-Womens-Classic-POLO-SHIRT-Blank-Plain-Short-Sleeve-Casual-Wholesale-/142380729995?var=&epid=1355856347&hash=item21268d868b:m:mwaWE546Xktb2qdl0Bgx_Qw
p53
aVhttp://www.ebay.com/itm/UK-Womens-Boho-Floral-Sleeveless-Sundress-Summer-Beach-Evening-Party-Dress-6-16-/352095292220?var=&hash=item51fa83cb3c:m:mxl6RrAqF5teFaaNUGg0uwQ
p54
aVhttp://www.ebay.com/itm/PRETTY-KITTY-50s-VINTAGE-SKY-BLUE-SHIRT-TOP-ROCKABILLY-SWING-COCKTAIL-TEA-DRESS-/111686550448?var=&hash=item1a010983b0:m:mYuj5LG-8DJqUisHnOc37Xg
p55
aVhttp://www.ebay.com/itm/New-Ladies-Womens-V-Neck-Long-Sleeve-Hoodie-Zip-up-Pullover-Blouse-Tops-/322468828884?var=&hash=item4b14a3d6d4:m:m7Latf7SN2jRS6u3fXjF0cw
p56
aVhttp://www.ebay.com/itm/ZARA-Sold-Out-Sky-Blue-Embroidered-Off-The-Shoulder-Bloggers-TOP-7521-060-XS-S-/361363533786?var=&epid=16005793605&hash=item5422f1efda:m:m3FjMfe20sHuMhTiLN4IMfA
p57
aVhttp://www.ebay.com/itm/Phase-Eight-Womens-Jumper-Top-Sky-Blue-Double-Layer-UK18-NEW-RRP-45-00-/122520156375?hash=item1c86c538d7:g:wzQAAOSwHHFY9km1
p58
aVhttp://www.ebay.com/itm/Rapha-Team-Sky-Special-Edition-Club-Jersey-Short-Sleeve-Black-Size-Medium-BNWT-/322588009090?var=&hash=item4b1bbe6282:m:m3HZcCwRoYLsdj0xxB5mziw
p59
aVhttp://www.ebay.com/itm/NEW-LADIES-CHRISTMAS-DIGITAL-MULTI-SANTA-PRINT-LONG-SLEEVE-SWING-DRESS-XMAS-/122177092656?var=&hash=item1c72527c30:m:m3iF8oUIUs6u5KTcde8T24A
p60
aVhttp://www.ebay.com/itm/SARAH-P-LADIES-VINTAGE-PRINTS-50S-ROCKABILLY-RETRO-PARTY-DRESS-SIZE-8-22-NEW-/172005200392?var=&hash=item280c4f1208:m:mKvn2Khm981UkD1wJ-dOrWw
p61
aVhttp://www.ebay.com/itm/Rapha-Sky-Mens-Short-Sleeve-Wiggins-Fan-SS-Jersey-Top-Various-Sizes-/142361401757?var=&hash=item212566999d:m:mAgB6vncdIq3t5OqbeLPl0A
p62
aVhttp://www.ebay.com/itm/New-Ladies-Sleeveless-Blouse-Italian-Summer-Embroided-Tunic-Top-Plus-Size-/262412235830?var=&hash=item3d18fcf436:m:mOR1XGOURNDzgOlb6hHfFHQ
p63
aVhttp://www.ebay.com/itm/TOPSHOP-SATIN-SHAWL-COLAR-TAILORED-BLAZER-DRESS-SZS-4-6-8-10-12-14-16-/231981203679?var=&hash=item36032840df:m:mImzmqu9TIp_Y0YXK3jNYBg
p64
aVhttp://www.ebay.com/itm/New-Look-Womens-Ladies-Casual-Denim-Button-Up-Shirt-/262851241405?var=&hash=item3d3327a5bd:m:mxXtEELh7LWUoe-yw98MRcw
p65
aVhttp://www.ebay.com/itm/Ladies-Dales-Collection-Cotton-Strappy-V-Neck-2-in-1-Vest-Cami-Top-12-20-Blue-/272273149504?var=&epid=1560394136&hash=item3f64be8e40:m:myYl51lgk71X6pLDGRzY-Vw
p66
aVhttp://www.ebay.com/itm/New-Ladies-Womens-Bralet-Crop-Strappy-Cami-Kylie-Jenner-Camisole-Summer-Vest-Top-/252850246710?var=&hash=item3adf0c9436:m:mAcRXWE5q1vCzNf3Thl9csQ
p67
aVhttp://www.ebay.com/itm/Ex-Miss-Selfridge-Sky-Blue-Belted-Textured-Skater-Party-Mini-Dress-Size-6-8-10-/192186666058?var=&epid=1572856278&hash=item2cbf37cc4a:m:mDszvg77q4kUS1mZldbu3cA
p68
aVhttp://www.ebay.com/itm/Ladies-Classic-Poloshirt-Plain-Short-Sleeve-Top-Summer-T-Shirt-Polo-shirt-Lot-/192186408920?var=&hash=item2cbf33dfd8:m:m4KKCPJC2dGenbuX-Q8b0ew
p69
aVhttp://www.ebay.com/itm/New-African-free-size-loose-hippy-boho-kimono-sleeve-bat-wings-tribal-Kaftan-/111686027483?var=&hash=item1a010188db:m:mjRl6i4OdJWIssrd8nYqlkQ
p70
aVhttp://www.ebay.com/itm/New-Woman-Italian-Lagenlook-Quirky-Lace-Back-Summer-Sleeveless-Floral-Vest-Top-/262550656019?var=&hash=item3d213d1413:m:mFxivL-XzLCbgtY9MbtSnCA
p71
aVhttp://www.ebay.com/itm/New-Woman-Italian-Lagenlook-Quirky-Lace-Back-Summer-Sleeveless-Floral-Vest-Top-/262550656019?var=&hash=item3d213d1413:m:mFxivL-XzLCbgtY9MbtSnCA
p72
aVhttp://www.ebay.com/itm/Rapha-Team-Sky-Special-Edition-Club-Jersey-Short-Sleeve-Black-Size-Medium-BNWT-/322588009090?var=&hash=item4b1bbe6282:m:m3HZcCwRoYLsdj0xxB5mziw
p73
aVhttp://www.ebay.com/itm/New-African-free-size-loose-hippy-boho-kimono-sleeve-bat-wings-tribal-Kaftan-/111686027483?var=&hash=item1a010188db:m:mjRl6i4OdJWIssrd8nYqlkQ
p74
aVhttp://www.ebay.com/itm/New-Womens-Celebrity-Ladies-Partywear-Cami-Bodycon-Midi-Dress-Plus-Size-16-22-/282080223472?var=&hash=item41ad4aa0f0:m:mB1qvjxFYBaSu_0eTYrzIMg
p75
aVhttp://www.ebay.com/itm/New-Look-Womens-Ladies-Casual-Denim-Button-Up-Shirt-/262851241405?var=&hash=item3d3327a5bd:m:mxXtEELh7LWUoe-yw98MRcw
p76
aVhttp://www.ebay.com/itm/Brutus-4401-116-Sky-Blue-Gingham-Greatfit-Shirt-Sizes-M-5XL-/252789486686?var=&hash=item3adb6d745e:m:maSOsTu7lHrsgd8qKo3uTOQ
p77
aVhttp://www.ebay.com/itm/Rapha-Team-Sky-Long-Sleeve-Black-Replica-Jersey-Various-Sizes-BNWT-/142361421717?var=&hash=item212566e795:m:mDuK9LQEydYcLBMvN7I2ryg
p78
aVhttp://www.ebay.com/itm/50s-VINTAGE-SKY-BLUE-PINK-FLORAL-COCKTAIL-ROCKABILLY-SWING-COCKTAIL-DRESS-XS-XL-/111907792663?var=&hash=item1a0e396717:m:msjh3pDdADGMbOqoYZYq_JQ
p79
aVhttp://www.ebay.com/itm/New-Long-Chiffon-Wedding-Formal-Evening-Party-Bridesmaid-Ball-Gown-Prom-Dress-/121934092012?var=&hash=item1c63d696ec:m:mnsZ8qh0zFQ8NGNMj68uQXA
p80
a.