(lp1
Vhttp://www.ebay.com/itm/SCHLEICH-SURAH-WITH-BIRD-STANDING-TOYS-BRAND-NEW-FREE-DELIVERY-/172616465701?epid=1825020462&hash=item2830be3d25:g:OnIAAOSwTM5Y6Hxp
p2
aVhttp://www.ebay.com/itm/Quran-Sheets-Printed-with-Edible-Ink-for-Islamic-Ruqyah-Spiritual-Healing-/262926599339?var=&hash=item3d37a584ab:m:mVe-OiQPDNA396OsmJ3dmYg
p3
aVhttp://www.ebay.com/itm/Wallet-Card-Ayat-Dua-Surah-Credit-Cards-Mixed-Pack-Ayah-Istikhara-Travel-/201879853836?var=&hash=item2f00fa1b0c:m:m4kQ5bR7FDX8V_uuqJ98D5Q
p4
aVhttp://www.ebay.com/itm/Beautiful-5-Panel-Islamic-Calligraphy-Wall-Art-Canvas-Surah-Fatihah-Tasbih-/182503734200?var=&hash=item2a7e11fbb8:m:mhvZS4n6dp6itGQ5ZRay6fQ
p5
aVhttp://www.ebay.com/itm/CANDLEHOLDERS-ISLAMIC-CALLIGRAPHY-BISMILLAH-SURAH-DECOR-/252816678427?hash=item3add0c5e1b:g:mGEAAOSwWxNYyxSM
p6
aVhttp://www.ebay.com/itm/25-X-Surah-Yaseen-Yasin-with-English-Translation-Medium-Color-PB-116-/152470784459?hash=item237ff789cb:g:sYkAAOSw5cNYGxxJ
p7
aVhttp://www.ebay.com/itm/Surah-Yaseen-Yasin-Arabic-Only-Text-Paperback-Large-Color-Size-117-/162429527035?hash=item25d18de3fb:g:JqkAAOSwTuJYxnVg
p8
aVhttp://www.ebay.com/itm/MUSLIM-LEARNING-TOY-ISLAM-ELECTRONIC-DUAA-DUA-SURAH-/252806726635?hash=item3adc7483eb:g:LJ8AAOSwSlBYwcL2
p9
aVhttp://www.ebay.com/itm/The-Whole-Of-Surah-Baqarah-A5-Size-Surah-Of-Quran-Protection-Jinn-Jadu-Nazar-/361920608274?hash=item5444263812:g:atkAAOSwdGFYu9E4
p10
aVhttp://www.ebay.com/itm/Car-Mirror-Hanging-Ornament-Display-Arabic-1Kalimah-Surah-al-Fatiah-Islamic-Gift-/252798406362?hash=item3adbf58eda:g:TVEAAOSwB-1Yu2G0
p11
aVhttp://www.ebay.com/itm/Car-Mirror-Hanging-Ornament-Display-Arabic-Surah-Yasin-Ayatul-kursi-Islamic-Gift-/262881379615?hash=item3d34f3851f:g:NbcAAOSwax5Yu15-
p12
aVhttp://www.ebay.com/itm/New-Fancy-Beautiful-Car-Mirror-Double-Sided-Hanging-Ornament-Display-Islamic-UK-/252798338830?var=&hash=item3adbf4870e:m:m4UNQKUPHMQu1UHldYrq5fw
p13
aVhttp://www.ebay.com/itm/Children-Arabic-Islamic-Educational-Iphone-Toy-Dua-and-Guide-Surah-/122355172767?epid=938872144&hash=item1c7cefc59f:g:WNEAAOSwdGFYoh90
p14
aVhttp://www.ebay.com/itm/Schleich-70514-Surah-In-Festive-Clothes-Standing-Bayala-Plastic-Figure-/381954769122?epid=1742058035&hash=item58ee4740e2:g:uAcAAOSw3ydVpnBB
p15
aVhttp://www.ebay.com/itm/Surah-Baqarah-V152-So-Remember-Islamic-wall-Stickers-Calligraphy-Swarovski-/152426837028?var=&hash=item237d58f424:m:mWaLQ0MKEksqFebFV0HNPSQ
p16
aVhttp://www.ebay.com/itm/Surah-Al-Rad-Islamic-wall-art-Sticker-Decals-Calligraphy-Swarovski-Crystal-/152416724529?var=&hash=item237cbea631:m:m0GXWWQv-9nFj139lb0T3fw
p17
aVhttp://www.ebay.com/itm/Surah-Fatiha-Islamic-wall-stickers-Home-Decor-Islamic-Calligraphy-Decals-/322407663729?hash=item4b10fe8871:g:ey0AAOSw2xRYj4cv
p18
aVhttp://www.ebay.com/itm/Surah-Yaseen-Ka-Wird-e-Khas-9-Lines-Ya-Sin-Urdu-18-x-12-cm-Small-Paperback-/112285342555?epid=854534753&hash=item1a24ba5b5b:g:oRUAAOSwrhBZAdiz
p19
aVhttp://www.ebay.com/itm/Surah-Rahman-Verse-13-Islamic-wall-art-Stickers-Decals-Calligraphy-/322400391873?epid=864225880&hash=item4b108f92c1:g:uCUAAOSwopRYhnqG
p20
aVhttp://www.ebay.com/itm/Surah-Fatiha-Islamic-wall-art-Stickers-Decals-Calligraphy-Swarovski-Crystals-/152407872083?var=&hash=item237c379253:m:mPskuWRl7Twz6esUTvksBNA
p21
aVhttp://www.ebay.com/itm/Surah-Alaq-Arabic-Art-Canvas-Iqra-Bismi-Rabbika-Alladhi-Khalaq-Gift-/172489195239?hash=item2829283ee7:g:l5cAAOSwNnRYfQz5
p22
aVhttp://www.ebay.com/itm/Surah-Yasin-Yaseen-with-Urdu-Translation-Large-Color-109-/162358101907?epid=2135929068&hash=item25cd4c0793:g:lZEAAOSw2xRYek-M
p23
aVhttp://www.ebay.com/itm/apfel-koran-toy-lernen-bildung-kinder-muslimische-islam-surah-dua-eid-spiel-neu-/262795918266?hash=item3d2fdb7bba:g:6fAAAOSwA3dYSamy
p24
aVhttp://www.ebay.com/itm/Surah-Yaseen-Yasin-X-10-Large-10-Medium-with-English-Translation-Color-PB-/152364435183?hash=item2379a0c6ef:g:LWoAAOSwa~BYWlWU
p25
aVhttp://www.ebay.com/itm/apple-quran-toy-learn-education-childs-kids-muslim-islam-surah-dua-eid-play-new-/262754346792?epid=943645124&hash=item3d2d612728:g:6fAAAOSwA3dYSamy
p26
aVhttp://www.ebay.com/itm/apple-quran-toy-learn-education-childs-kids-muslim-islam-surah-dua-/201742571745?epid=522056469&hash=item2ef8cb58e1:g:Yh0AAOSwImRYSGq0
p27
aVhttp://www.ebay.com/itm/Arabic-Islamic-Phone-Childrens-Educational-Quran-Surah-Teach-For-Kids-Girls-Boys-/332053545677?epid=1964313542&hash=item4d4fef02cd:g:jFMAAOSw2xRYRUSA
p28
aVhttp://www.ebay.com/itm/Children-Arabic-Islamic-Educational-Iphone-Toy-Dua-and-Guide-Surah-/222334958919?hash=item33c4323d47:g:87oAAOSwj85YQ8mU
p29
aVhttp://www.ebay.com/itm/Baba-Salam-1-Laptop-KIds-Duas-Prayer-Surah-Alphabet-with-Arabic-Screen-/162305383665?epid=2091783387&hash=item25ca279cf1:g:ct8AAOSwa~BYQYHe
p30
aVhttp://www.ebay.com/itm/Large-Islamic-Canvas-Art-C-11-Surah-Yasin-Islam-Canvas-Art-GIFTS-/201733705105?hash=item2ef8440d91:g:bQEAAOSwa~BYPuEg
p31
aVhttp://www.ebay.com/itm/The-Quran-Project-English-Translation-of-the-Holy-Quran-With-Surah-24x17x5cm-/192040622320?epid=89342443&hash=item2cb68358f0:g:~b4AAOSw9OFZIajm
p32
aVhttp://www.ebay.com/itm/4-QULS-Surah-Engraved-On-A-BRACELET-/112217213121?epid=518184759&hash=item1a20aac8c1:g:MooAAOSwEzxYObAH
p33
aVhttp://www.ebay.com/itm/Pocket-Size-Surah-Yaseen-And-Ayat-Ul-Kursi-With-Translation-Transliteration-/361837273031?epid=515119496&hash=item543f2e9fc7:g:GOgAAOSwj85YNsNp
p34
aVhttp://www.ebay.com/itm/Arabic-Islamic-Phone-Childrens-Educational-Quran-Surah-Teach-For-Kids-Boys-Girls-/262730695920?hash=item3d2bf844f0:g:ijUAAOSwiONYNORH
p35
aVhttp://www.ebay.com/itm/Childrens-Islamic-Toy-Laptop-iPhone-iPad-iPray-Salah-Pad-Arabic-Surahs-Duas-/192034368340?var=&hash=item2cb623eb54:m:m-kotMbSwYAjvPY9o_woEHw
p36
aVhttp://www.ebay.com/itm/Surah-Yaseen-Ka-Khas-Wird-Ya-Sin-Urdu-9-Lines-18-x-12-cm-/262729009533?epid=854534753&hash=item3d2bde897d:g:mNEAAOSwB-1Y7-Ve
p37
aVhttp://www.ebay.com/itm/The-Quran-in-Plain-English-Surahs-78-114-and-Surah-Al-Fatihah-9780860372332-/252639767829?epid=87795385&hash=item3ad280ed15:g:K8MAAOSw44BYLVUI
p38
aVhttp://www.ebay.com/itm/Islamic-wall-Stickers-Hasbunallahu-Surah-Imran-Decals-Calligraphy-Crystals-/152312233829?var=&hash=item2376843f65:m:mHQ05OBGBJqTRJYs8jX21mw
p39
aVhttp://www.ebay.com/itm/Sheikh-Abdul-Rahman-as-Sudais-Surah-Kahf-Sajdah-Dukhan-CD-KSD1-/152311702408?var=&hash=item23767c2388:m:myxzXTOZuQz9zTJZSkOO42w
p40
aVhttp://www.ebay.com/itm/Sheikh-Mishari-bin-Rashid-al-Efasy-Surah-Kahf-Sajdah-Dukhan-CD-KSD3-/152311699037?var=&hash=item23767c165d:m:mkdWTINTSZ7zswivJawWqww
p41
aVhttp://www.ebay.com/itm/Sheikh-Abu-Bakr-ash-Shatri-Surah-Kahf-Sajdah-Dukhan-CD-KSD4-/152311623513?var=&hash=item23767aef59:m:mUh1-F0hAaCEO0hHQK3ov4Q
p42
aVhttp://www.ebay.com/itm/Sheikh-Saad-al-Ghamdi-Surah-Kahf-Sajdah-Dukhan-CD-KSD5-/152311622102?var=&hash=item23767ae9d6:m:m3wokMW6p6OMC7gmVuqbviA
p43
aVhttp://www.ebay.com/itm/Sheikh-ash-Shuraim-Surah-Yasin-Rahman-Waqiah-Mulk-English-Translation-FSD2-/162273744542?var=&hash=item25c844d69e:m:mpytj3Ao5whGUPagCRfRC8A
p44
aVhttp://www.ebay.com/itm/Sheikh-Sudais-Shuraim-Surah-Yasin-Rahman-Waqiah-Mulk-Eng-Translation-FSDE1-/162273742724?var=&hash=item25c844cf84:m:m4PR2yP6KF2jN6JqUM88xbQ
p45
aVhttp://www.ebay.com/itm/Sheikh-Mahir-al-Muayqali-Surah-Yasin-Rahman-Waqiah-Mulk-CD-FSD8-/152310454535?var=&hash=item2376691907:m:mc8YMLMsHwHTDQ3ka0id-Fw
p46
aVhttp://www.ebay.com/itm/Surah-Yaseen-Yasin-with-English-Translation-Large-Size-Color-PB-113-/162267727744?hash=item25c7e90780:g:sYkAAOSw5cNYGxxJ
p47
aVhttp://www.ebay.com/itm/Surah-Yaseen-Yasin-with-English-Translation-Medium-Color-PB-116-/152304371170?hash=item23760c45e2:g:sYkAAOSw5cNYGxxJ
p48
aVhttp://www.ebay.com/itm/Surah-Al-Fatihah-Al-Baqarah-2-Audio-CDs-Sheikh-Sudais-Shuraim-SFB1-/162266423674?hash=item25c7d5217a:g:z3UAAOSwA3dYGcNs
p49
aVhttp://www.ebay.com/itm/Childrens-Toys-Islamic-Arabic-Learning-Educational-Laptop-Baba-Mash-Quran-/201705608431?var=&hash=item2ef69754ef:m:mBi9xPbKolLQZ-AGMYTr9IQ
p50
aVhttp://www.ebay.com/itm/The-Four-Light-Suarh-Al-Mulk-Surah-As-Sajdah-Surah-AR-Rahman-9781539306023-/332018672464?epid=231245427&hash=item4d4ddae350:g:qfMAAOSwx2dYFrYS
p51
aVhttp://www.ebay.com/itm/Surah-Al-Baqrah-/332012745681?epid=108546358&hash=item4d4d8073d1:g:1yAAAOSwo4pYDjKS
p52
aVhttp://www.ebay.com/itm/Islamic-Art-Large-Picture-Frame-Canvas-Prints-Arabic-Caligraphy-90x60cm-36x24-/201697481165?var=&hash=item2ef61b51cd:m:mG_0CYwjo0PDDSs_-g5XADw
p53
aVhttp://www.ebay.com/itm/Muslim-Mobile-Islamic-iPhone-Toy-in-Arabic-Duas-and-Surahs-ENGLISH-button-text-/201697458235?var=&hash=item2ef61af83b:m:mp286lTOvDAbVYevQOge9ow
p54
aVhttp://www.ebay.com/itm/Wallet-Size-Laminated-Card-Surah-Muzzammil-/361778705282?hash=item543bb0f382:g:K4AAAOSwmLlYB3bp
p55
aVhttp://www.ebay.com/itm/Wallet-Size-Laminated-Card-Surah-Rahman-/361775461885?epid=882723195&hash=item543b7f75fd:g:yVUAAOSwpLNYBbqf
p56
aVhttp://www.ebay.com/itm/Islamic-wall-art-Surah-Rahman-Stickers-Decals-Calligraphy-Swarovski-Crystals-/152258577704?var=&hash=item2373518528:m:mvjd3gtADNWY6-k-K4LOPKw
p57
aVhttp://www.ebay.com/itm/Surah-Rahman-Islamic-wall-art-Stickers-Decals-Calligraphy-Swarovski-Crystals-/152258565232?var=&hash=item2373515470:m:mmVpOATnENPu2cqnUJKN_mQ
p58
aVhttp://www.ebay.com/itm/Surah-Rahman-Islamic-wall-art-Stickers-Decals-Calligraphy-Swarovski-Crystals-/152252971904?var=&hash=item2372fbfb80:m:m3rZZjAe1qUx_f1jj9tMe6A
p59
aVhttp://www.ebay.com/itm/Surat-Yusef-Quran-Urdu-Translation-Bold-Letters-Yusef-Surah-8-Lines-A5-Size-/262625183234?epid=854539752&hash=item3d25ae4602:g:GWUAAOSwB-1Y7~a3
p60
aVhttp://www.ebay.com/itm/Panj-Surah-Shareef-Urdu-Translation-Bold-8-Lines-Surahs-And-Prayers-12x9cm-/262625163315?hash=item3d25adf833:g:WM4AAOSwzaJX2UYY
p61
aVhttp://www.ebay.com/itm/Surah-Yaseen-answer-to-problems-book-in-Urdu-150-Pages-/361713628722?hash=item5437cff632:g:RncAAOSw3ihXTAod
p62
aVhttp://www.ebay.com/itm/16-Surah-Collection-Translated-In-English-With-Transliteration-Marmaduke-/112117190634?hash=item1a1ab48fea:g:0dwAAOSw7VBTw7AX
p63
aVhttp://www.ebay.com/itm/Surah-Yasin-Ka-Wird-E-Mobeen-Ka-Amal-Pray-For-Need-/112105280570?hash=item1a19fed43a:g:zQYAAOSwr7ZW4Dkt
p64
aVhttp://www.ebay.com/itm/Surah-Al-Hadid-And-he-is-with-you-57-4-Islamic-wall-Art-Stickers-Calligraphy-/152207167187?var=&hash=item2370410ed3:m:myrcSI0b929iIqvn4T0DoBQ
p65
aVhttp://www.ebay.com/itm/Islamic-canvas-art-Surah-Al-Ikhlas-Arabic-Surah-canvas-Calligraphy-Gift-/172304083654?hash=item281e1faac6:g:iwkAAOSw65FXrn8z
p66
aVhttp://www.ebay.com/itm/Islamic-canvas-art-Ayat-Al-Kursi-Arabic-Surah-canvas-Calligraphy-wall-art-Gift-/172304033408?hash=item281e1ee680:g:PeAAAOSwpLNX8EHK
p67
aVhttp://www.ebay.com/itm/Surah-Ar-Rum-Love-Mercy-Islamic-wall-Art-Stickers-Calligraphy-Swarovski-cryst-/322223800605?var=&hash=item4b0609011d:m:m0TtTnd6oee3U5NFvdYySGQ
p68
aVhttp://www.ebay.com/itm/Surah-Ar-Rum-Love-Mercy-Islamic-wall-Art-Stickers-Calligraphy-Swarovski-/152201146960?var=&hash=item236fe53250:m:m0TtTnd6oee3U5NFvdYySGQ
p69
aVhttp://www.ebay.com/itm/Surah-Al-Araf-189-Islamic-Wall-Sticker-Family-Quote-Husband-Wife-love-Quran-Art-/172294587203?var=&hash=item281d8ec343:m:mw-hrn5amrE3p_XtRidGEcA
p70
aVhttp://www.ebay.com/itm/The-Quran-With-Surah-Introductions-and-Appendices-Saheeh-Intern-Paperback-/391523877136?epid=89342443&hash=item5b28a44110:g:0rYAAOSwlhZZdJ7l
p71
aVhttp://www.ebay.com/itm/Al-Hisnul-Hasin-Hard-Back-Dua-Book-Surah-Arabic-English-/361661248904?hash=item5434b0b588:g:~nMAAOSwENxXlyXM
p72
aVhttp://www.ebay.com/itm/Islamic-canvas-art-Ayat-Al-Kursi-Arabic-Surah-canvas-Calligraphy-wall-art-Gift-/172271819631?hash=item281c335b6f:g:SJYAAOSwoU9X8D3U
p73
aVhttp://www.ebay.com/itm/Arabic-Art-Canvas-Red-Ayat-Al-Kursi-Islamic-Surah-calligraphy-wall-art-gift-/172270627741?hash=item281c212b9d:g:CxEAAOSwAPlXhA5r
p74
aVhttp://www.ebay.com/itm/Arabic-Art-Canvas-Ayat-Al-Kursi-Islamic-Surah-calligraphy-wall-art-gift-/172270625031?hash=item281c212107:g:aj4AAOSwzLlXhAon
p75
aVhttp://www.ebay.com/itm/NEW-SCHLEICH-2015-RANGE-OF-FANTASY-BAYALA-DRAGON-PLASTIC-FIGURES-FIGURINES-/152156045175?var=&epid=1042231317&hash=item236d34ff77:m:m_xoIs8MYMSWFUuoQdrol2Q
p76
aVhttp://www.ebay.com/itm/NEW-SCHLEICH-2015-RANGE-OF-FANTASY-BAYALA-DRAGON-PLASTIC-FIGURES-FIGURINES-/152156045175?var=&epid=1042231317&hash=item236d34ff77:m:m_xoIs8MYMSWFUuoQdrol2Q
p77
aVhttp://www.ebay.com/itm/The-Quran-With-Surah-Introductions-and-Appendices-Saheeh-Intern-Paperback-/142040037328?epid=89342443&hash=item21123ef7d0:g:tNgAAOSwwzhZXf-Q
p78
aVhttp://www.ebay.com/itm/Surah-al-Baqarah-with-Tajweed-Othmani-Script-Arabic-only-/231987267160?epid=108546358&hash=item360384c658:g:41IAAOxy14VRWEnf
p79
aVhttp://www.ebay.com/itm/Brand-New-Islamic-Engraved-Quran-Verses-Surah-Rehman-Bowl-New-/112029011235?hash=item1a15730d23:g:-84AAOSwM4xXYf8y
p80
aVhttp://www.ebay.com/itm/Brand-New-Islamic-Engraved-Quran-Verses-Surah-Muzamal-Bowl-New-/122017009050?hash=item1c68c7cd9a:g:o8IAAOSw3YNXYf6v
p81
aVhttp://www.ebay.com/itm/Brand-New-Islamic-Engraved-Quran-Verses-Surah-Muzamal-Bowl-/112029009743?hash=item1a1573074f:g:o8IAAOSw3YNXYf6v
p82
aVhttp://www.ebay.com/itm/Islamic-Engraved-Quran-Verses-4-Surah-Kafaroon-Akhlas-Falaq-Naas-Bowl-/122016986379?hash=item1c68c7750b:g:ELMAAOSwstxVIUx9
p83
aVhttp://www.ebay.com/itm/Brand-New-Islamic-Engraved-Quran-Verses-4-Surah-Kafaroon-Akhlas-Falaq-Naas-Bowl-/112028986527?hash=item1a1572ac9f:g:ELMAAOSwstxVIUx9
p84
aVhttp://www.ebay.com/itm/Surah-AL-QADR-Islamic-Wall-Art-Stickers-Muslim-Vinyl-Decal-Arabic-Calligraphy-/172241083413?var=&hash=item281a5e5c15:m:mEY-Akg0Lonjp7OPsE3GvbA
p85
aVhttp://www.ebay.com/itm/ISLAMIC-WALL-STICKERS-Wall-Art-Stickers-Vinyl-Wall-Decal-Surah-Fatiha-N94-/122009972446?var=&hash=item1c685c6ede:m:mXDywczVdjVK30q2wDryqYQ
p86
aVhttp://www.ebay.com/itm/Surah-Fatiha-with-English-Islamic-Wall-Art-Stickers-Vinyl-Calligraphy-Wall-Decal-/172226407053?var=&hash=item28197e6a8d:m:mTTInJJF54WsLmM390cdbHQ
p87
aVhttp://www.ebay.com/itm/Surah-AL-Ikhlas-Islamic-Wall-Decals-Quran-Ayat-Removable-Muslim-Wall-Art-Sticker-/121999919339?var=&hash=item1c67c308eb:m:m1WPD9MOy9Piro-ZpfANZFA
p88
aVhttp://www.ebay.com/itm/Surah-Ikhlas-with-English-Islamic-Wall-Art-Stickers-Vinyl-Calligraphy-Wall-Decal-/182150926735?var=&hash=item2a690a918f:m:mqkJ6lH7sNbhQmoR3pBSRvA
p89
aVhttp://www.ebay.com/itm/Car-Hanging-Mini-Quran-Selected-Surah-Islamic-Gift-Wooden-Muslim-Prayer-/121968494628?var=&hash=item1c65e38824:m:mWU31azb4ieMNUyVuO4QufA
p90
aVhttp://www.ebay.com/itm/Pro-5-5Rot-Surah-Friseur-Friseur-Haarschneiden-Rasierer-Scheren-Salon-Schere-/272204407371?hash=item3f60a5a24b:g:aD4AAOSwc-tY4l4C
p91
aVhttp://www.ebay.com/itm/Pro-5-5Rosso-Surah-Parrucchieri-Barbiere-Capelli-Taglio-Rasoio-Forbici-Salon-/281996458842?hash=item41a84c7b5a:g:aD4AAOSwc-tY4l4C
p92
aVhttp://www.ebay.com/itm/Laminated-Surah-Yasin-Dua-Heart-Of-The-Quran-Wallet-Size-/361513921719?epid=861238860&hash=item542be8acb7:g:-tYAAOSwxvxW7AvW
p93
aVhttp://www.ebay.com/itm/ISLAMIC-CAR-HANGER-ALLAH-MOHAMMAD-KALIMAH-TAYYIBAH-AYAT-KAREEMA-SURAH-FATIHA-/272173543022?epid=857733657&hash=item3f5eceae6e:g:CK4AAOSwyjBW6bbP
p94
aVhttp://www.ebay.com/itm/Pro-5-5Red-Surah-Hairdressing-Barber-Hair-Cutting-Razor-Scissors-Salon-Shears-/272165528549?hash=item3f5e5463e5:g:aD4AAOSwc-tY4l4C
p95
aVhttp://www.ebay.com/itm/Tafsir-Surah-Al-Mulk-/111927565466?epid=89818420&hash=item1a0f671c9a:g:oDAAAOSw~gRVvUpE
p96
aVhttp://www.ebay.com/itm/ISLAMIC-FRIDGE-MAGNETS-Dua-Arabic-Muslim-Kalma-Quran-Ayat-Umrah-Gifts-Books-Eid-/161993922778?var=&hash=item25b79718da:m:m0Pfzz1UBZXKoRqLvS1ng6Q
p97
aVhttp://www.ebay.com/itm/DUA-KEYRINGS-Islamic-Gifts-Muslim-Ayatul-Kursi-4-Qul-Kalma-Surah-Umrah-Quran-/152000399352?var=&hash=item2363ee07f8:m:m8JW1RyZOHgg57DZNEL7scw
p98
aVhttp://www.ebay.com/itm/Surah-Yasin-and-Al-Rahman-Long-Size-/111912498665?epid=88039189&hash=item1a0e8135e9:g:CqIAAOSwPcVVobCR
p99
aVhttp://www.ebay.com/itm/Surah-Rehman-Fabi-Ayyi-Alai-Rabbikuma-Tukazziban-Islamic-Wall-Art-vinyl-Sticker-/172084800455?var=&hash=item28110dabc7:m:m7OgE-lXUrSM67Fv3-lCnJQ
p100
aVhttp://www.ebay.com/itm/Fabi-Ayyi-Alai-Rabbikuma-Tukazziban-Surah-Rehman-Islamic-Wall-Art-Sticker-Decal-/111889006935?var=&hash=item1a0d1ac157:m:mnVYiv9vJmTvtdpyYQg3DeQ
p101
aVhttp://www.ebay.com/itm/Hadha-Min-Fadli-Rabbi-SURAH-Al-Naml-40-Islamic-Wall-Art-Sticker-Muslim-Quote-/172076772031?var=&hash=item2810932abf:m:mh4tzTz_RhFEixgu-w88vXA
p102
aVhttp://www.ebay.com/itm/Surah-RAD-VERSE-28-Islamic-Quote-Wall-Stickers-Islamic-Wall-Decals-Muslim-Art-/172076735761?var=&hash=item2810929d11:m:mfFp0yS9W3uRWtecB9EDBdw
p103
aVhttp://www.ebay.com/itm/Hadha-Min-Fadli-Rabbi-SURAH-Al-Naml-40-Islamic-Wall-Art-Stickers-Quote-Decals-/111884952396?var=&hash=item1a0cdce34c:m:m-1jUJwmJe08TjTTfh3DGXA
p104
aVhttp://www.ebay.com/itm/Islamic-Wall-Art-Stickers-surah-RAD-VERSE-28-Islamic-Quote-Wall-Decal-/121874762662?var=&hash=item1c604d4ba6:m:mjTK8BY4s2ZVIRH1vyKWdaw
p105
aVhttp://www.ebay.com/itm/Gold-Ceramic-8-Plate-4-Surah-Arabic-Display-Islamic-Decoration-Quranic-Art-/272104967569?epid=1763197154&hash=item3f5ab84d91:g:PrwAAOSwFqJWl8Jk
p106
aVhttp://www.ebay.com/itm/Islamic-Personalised-Wedding-Canvas-Nikah-Waleema-Islamic-Art-Canvas-Frame-Card-/141874065389?var=&hash=item21085a6fed:m:m92wESxx_4dik9T64lVPPbg
p107
aVhttp://www.ebay.com/itm/Special-Edition-Entire-Surah-Al-Baqarah-in-1-CD-by-Sheikh-Mashari-Rashad-/161939683830?epid=1153766129&hash=item25b45b79f6:g:2cAAAOSwZG9WjiDr
p108
aVhttp://www.ebay.com/itm/Apple-Children-Islamic-TOY-Learning-Dua-Surah-Quran-Prayer-Nasheed-in-3-colours-/331742497768?epid=692206003&hash=item4d3d64cbe8:g:c9QAAOSwiCRUbTbK
p109
aVhttp://www.ebay.com/itm/Surah-Al-Baqrah-Tajweed-Colour-Code-Chapter-of-the-Quran-by-Dar-Al-Maarifah-/161899042246?epid=108546358&hash=item25b1ef55c6:g:MAQAAOSw7FRWV1Ev
p110
aVhttp://www.ebay.com/itm/Laminated-Surah-Rahmaan-The-Quran-Quranic-Hang-Up-Barakah-/111832214923?hash=item1a09b82d8b:g:29UAAOSw8-tWVE-E
p111
aVhttp://www.ebay.com/itm/Surah-Yasin-with-laminated-plastic-pages-Pack-of-12-Paperback-14-x-21cm-each-/321923298484?hash=item4af41fb4b4:g:Yu4AAOSweuxWS0G1
p112
aVhttp://www.ebay.com/itm/Surah-Yasin-with-Urdu-Translation-Tarjuma-Pack-of-12-Paperback-14-x-21cm-each-/321923286896?hash=item4af41f8770:g:AicAAOSwIwhWSz-P
p113
aVhttp://www.ebay.com/itm/Arabic-Islamic-Phone-Childrens-Educational-Quran-Surah-Teach-For-Kids-Boys-Girls-/281830480045?hash=item419e67d8ad:g:itoAAOSw5VFWIXC2
p114
aVhttp://www.ebay.com/itm/The-Light-Of-The-Quran-Explanation-Surah-Al-Ikhlas-Surah-Al-Kafirun-/151834055421?hash=item235a03d2fd:g:P~0AAOSwdvpWDCHY
p115
aVhttp://www.ebay.com/itm/Schleich-Bayala-Fantasy-World-Surah-in-festive-dress-70514-/301754062952?epid=1843834539&hash=item4641f19868:g:t9IAAOSwFnFWCtQu
p116
aVhttp://www.ebay.com/itm/Arabic-Islamic-Phone-Childrens-Educational-Quran-Surah-Teach-For-Kids-/111781666520?hash=item1a06b4ded8:g:vrMAAOSwQTVWBdj-
p117
aVhttp://www.ebay.com/itm/Schleich-Bayala-Fantasy-Elves-Fairies-Figures-Surah-Standing-70514-/291567329641?epid=1742058035&hash=item43e2c46169:g:VYkAAOSwvU5XM3Lr
p118
aVhttp://www.ebay.com/itm/Childrens-Islamic-Educational-phone-Toy-in-Arabic-Dua-Surah-Guide-FAST-DISPATCH-/121752118873?hash=item1c58fde659:g:yEsAAOSwd0BV62BE
p119
aVhttp://www.ebay.com/itm/Islamic-Wall-Stickers-Inspiring-Quran-Quote-Art-PATIENT-GIVE-REWARD-Surah-ZUMAR-/181855745152?var=&hash=item2a57727480:m:m_eQUJ4tkB-dWzz1QhgOJ7A
p120
aVhttp://www.ebay.com/itm/Patient-Give-Reward-SURAH-ZUMAR-VERSE-10-Islamic-Wall-Art-Sticker-Quran-Quotes-/111755800182?var=&hash=item1a052a2e76:m:mQJGiTR33mG4lv5kpwULZ4w
p121
aVhttp://www.ebay.com/itm/Family-Love-Islamic-Wall-Art-Sticker-SURAH-RUM-VERSE-21-Islamic-Quote-Home-Decal-/121743563444?var=&hash=item1c587b5ab4:m:mBtx3L6zMFQ1RScM4SoBwsA
p122
aVhttp://www.ebay.com/itm/Surah-Rum-Verse-21-Islamic-Family-Quote-Wall-Stickers-Islamic-Wall-Art-Decals-/181840972111?var=&hash=item2a5691094f:m:m3LAYwjB54eBdYITqTuj5PA
p123
aVhttp://www.ebay.com/itm/Part-30-Juz-Amma-with-Surah-al-Fatiha-2-Audio-CDs-by-Mohammad-Farooq-Ar-Raee-/151785078719?hash=item2357187fbf:g:ZToAAOSwT6pV08JL
p124
aVhttp://www.ebay.com/itm/SURAH-AL-RAHMAN-YASIN-English-Translation-QARI-Al-SHEIKH-ABDUL-BASIT-NEW-CD-/400962780293?hash=item5d5b3e7c85:g:jpAAAOSwgQ9Vr9s7
p125
aVhttp://www.ebay.com/itm/PANJ-SURAH-WITH-URDU-AL-SHEIKH-ABDUL-BASIT-ABDUL-SAMAD-NEW-CD-FREE-UK-POST-/361333203545?hash=item5421232259:g:zJUAAOSwPcVVlCT5
p126
aVhttp://www.ebay.com/itm/PANJ-SURAH-WITH-ENGLISH-SURAH-YASEEN-AL-REHMAN-ALSHEIKH-ABDUL-REHMAN-/361333195164?hash=item542123019c:g:ZpAAAOSwHnFVlCKo
p127
aVhttp://www.ebay.com/itm/AL-QURAN-UL-KAREEM-QARI-AL-SHAIK-ABDUL-BASIT-ABDUL-SAMAD-SURAH-CD-/400929255761?hash=item5d593ef151:g:Y~IAAOSwpDdVaeBH
p128
aVhttp://www.ebay.com/itm/Islamic-Wall-Art-Crystals-Vinyl-Calligraphy-Wall-Sticker-Decal-Surah-Rahman-/281676156805?var=&hash=item4195350f85:m:m9jHYtWAXV8BHgNUVpZ075g
p129
aVhttp://www.ebay.com/itm/Islamic-Wall-Art-Crystals-Vinyl-Calligraphy-Wall-Sticker-Surah-Ikhlaas-/281666961172?var=&hash=item4194a8bf14:m:mlVtOskBw6h-QOR60CpbHiA
p130
aVhttp://www.ebay.com/itm/The-Spiritual-Cure-An-Explanation-to-Surah-Al-Fatihah-/151650731853?epid=1506109044&hash=item234f16874d:g:2E4AAOSwqu9VLoE2
p131
aVhttp://www.ebay.com/itm/Islamic-Wall-Art-Crystals-Vinyl-Calligraphy-Wall-Decal-Sticker-Surah-Yaseen-/281663375600?var=&hash=item41947208f0:m:mxUc9u03p9gIza3sgxhiwKg
p132
aVhttp://www.ebay.com/itm/CAR-HANGER-ISLAMIC-LARGE-CRYSTAL-ALLAH-AYATKREEMA-SURAH-FATIHA-KALIMAH-TAYYIBAH-/271697315605?var=&hash=item3f426c0715:m:mnUU0J8XGusG1p6rNLFUJqQ
p133
aVhttp://www.ebay.com/itm/Print-Islamic-Art-Calligraphy-Frame-Stand-Ayat-ul-Kursi-Kalima-4Kul-99-names-/321602080888?var=&hash=item4ae0fa5078:m:mTkUDm6hmB-QQ0R9x4-yceA
p134
aVhttp://www.ebay.com/itm/QARI-SADAQAT-ALI-SURAH-FATEHA-RAHMAN-OTHER-SURAH-WITH-ENGLISH-TRANSLATION-CD-/400775389136?hash=item5d50131fd0:g:i1QAAOSwq7JUGuuv
p135
aVhttp://www.ebay.com/itm/Car-Hanging-Mini-Quran-Selected-Surah-Islamic-Gift-Black-Leather-Muslim-Prayer-/251638141303?epid=1988544312&hash=item3a96cd5177:g:yS0AAOSwdsFUNWR5
p136
aVhttp://www.ebay.com/itm/Laminated-Surah-Yasin-Dua-Heart-Of-The-Quran-Quranic-Hang-Up-Barakah-/111452709787?hash=item19f319639b:g:vLoAAOSwQItUBvjB
p137
aVhttp://www.ebay.com/itm/SHEIKH-MISHRAY-RASHID-ALFASAY-SURAH-AL-BAQARAH-COMPLETE-2-CDS-SET-/400739543131?hash=item5d4df0285b:g:-5UAAOSwEzxYejHM
p138
aVhttp://www.ebay.com/itm/Faizan-e-Surah-Noor-Blessing-of-Surah-Noor-/161278447357?hash=item258cf1cefd:g:sn8AAOxyBjBTT6~y
p139
aVhttp://www.ebay.com/itm/Surah-Nuh-Translated-In-Urdu-/360849700609?hash=item5404517701:g:~6UAAOxycmBS63qB
p140
aVhttp://www.ebay.com/itm/Surah-Kahaf-The-Cave-Translated-In-Urdu-For-Friday-Recotation-/360846568253?hash=item540421ab3d:g:xbMAAOxyOMdS5kJc
p141
aVhttp://www.ebay.com/itm/QARI-AL-SHEIKH-ABDUL-BASIT-ABDUL-SAMAD-TREATMENTS-FROM-SURAH-AL-REHMAN-NEW-CD-/360765225739?hash=item53ff487b0b:g:4hYAAOxyONBSVtaT
p142
aVhttp://www.ebay.com/itm/QARI-AHTASHAAM-MULHAQ-THANVI-PANJ-SURAH-WITH-URDU-NEW-CD-FREE-UK-POST-/400578683260?hash=item5d4459a17c:g:8uQAAOSwa-dWm57Y
p143
aVhttp://www.ebay.com/itm/QARI-WAHID-ZAFAR-QASMI-SURAH-AL-BAQARAH-NEW-3CDs-SET-/400578107418?hash=item5d4450d81a:g:4pcAAOxyhTFSQI3g
p144
aVhttp://www.ebay.com/itm/SURAH-YASEN-REHMAN-QARI-WAHEED-ZARAR-QASMI-NEW-ISLAMIC-CD-FREE-UK-POST-/360744649953?hash=item53fe0e84e1:g:QbkAAOxy0QBSPH-z
p145
aVhttp://www.ebay.com/itm/Prayer-Keyrings-Islamic-Arabic-Dua-Gifts-Muslim-Quran-Hadith-Surah-Ayat-Art-4-/150977293614?var=&hash=item2326f2ad2e:m:m6jGbVoX_4JTi4EtMWrUveg
p146
aVhttp://www.ebay.com/itm/Surah-Al-Fatihah-Surah-Al-Baqarah-the-cow-NEW-on-Islamic-CDs-/110964188846?hash=item19d5fb26ae:m:msqV98ihRzPmW7i63XHlGLQ
p147
aVhttp://www.ebay.com/itm/Surah-Al-Baqarah-The-Cow-1st-Chapter-of-the-Holy-Quran-1-CD-Brand-new-/120950809711?hash=item1c293ae46f:g:0VEAAOxycD9TTqCU
p148
aVhttp://www.ebay.com/itm/Islamic-Personalised-Wedding-Canvas-Nikah-Waleema-Islamic-Art-Canvas-Frame-Card-/141874065389?var=&hash=item21085a6fed:m:m92wESxx_4dik9T64lVPPbg
p149
aVhttp://www.ebay.com/itm/Special-Edition-Entire-Surah-Al-Baqarah-in-1-CD-by-Sheikh-Mashari-Rashad-/161939683830?epid=1153766129&hash=item25b45b79f6:g:2cAAAOSwZG9WjiDr
p150
aVhttp://www.ebay.com/itm/Apple-Children-Islamic-TOY-Learning-Dua-Surah-Quran-Prayer-Nasheed-in-3-colours-/331742497768?epid=692206003&hash=item4d3d64cbe8:g:c9QAAOSwiCRUbTbK
p151
aVhttp://www.ebay.com/itm/Surah-Al-Baqrah-Tajweed-Colour-Code-Chapter-of-the-Quran-by-Dar-Al-Maarifah-/161899042246?epid=108546358&hash=item25b1ef55c6:g:MAQAAOSw7FRWV1Ev
p152
aVhttp://www.ebay.com/itm/Laminated-Surah-Rahmaan-The-Quran-Quranic-Hang-Up-Barakah-/111832214923?hash=item1a09b82d8b:g:29UAAOSw8-tWVE-E
p153
aVhttp://www.ebay.com/itm/Surah-Yasin-with-laminated-plastic-pages-Pack-of-12-Paperback-14-x-21cm-each-/321923298484?hash=item4af41fb4b4:g:Yu4AAOSweuxWS0G1
p154
aVhttp://www.ebay.com/itm/Surah-Yasin-with-Urdu-Translation-Tarjuma-Pack-of-12-Paperback-14-x-21cm-each-/321923286896?hash=item4af41f8770:g:AicAAOSwIwhWSz-P
p155
aVhttp://www.ebay.com/itm/Arabic-Islamic-Phone-Childrens-Educational-Quran-Surah-Teach-For-Kids-Boys-Girls-/281830480045?hash=item419e67d8ad:g:itoAAOSw5VFWIXC2
p156
aVhttp://www.ebay.com/itm/The-Light-Of-The-Quran-Explanation-Surah-Al-Ikhlas-Surah-Al-Kafirun-/151834055421?hash=item235a03d2fd:g:P~0AAOSwdvpWDCHY
p157
aVhttp://www.ebay.com/itm/Schleich-Bayala-Fantasy-World-Surah-in-festive-dress-70514-/301754062952?epid=1843834539&hash=item4641f19868:g:t9IAAOSwFnFWCtQu
p158
aVhttp://www.ebay.com/itm/Arabic-Islamic-Phone-Childrens-Educational-Quran-Surah-Teach-For-Kids-/111781666520?hash=item1a06b4ded8:g:vrMAAOSwQTVWBdj-
p159
aVhttp://www.ebay.com/itm/Schleich-Bayala-Fantasy-Elves-Fairies-Figures-Surah-Standing-70514-/291567329641?epid=1742058035&hash=item43e2c46169:g:VYkAAOSwvU5XM3Lr
p160
aVhttp://www.ebay.com/itm/Childrens-Islamic-Educational-phone-Toy-in-Arabic-Dua-Surah-Guide-FAST-DISPATCH-/121752118873?hash=item1c58fde659:g:yEsAAOSwd0BV62BE
p161
aVhttp://www.ebay.com/itm/Islamic-Wall-Stickers-Inspiring-Quran-Quote-Art-PATIENT-GIVE-REWARD-Surah-ZUMAR-/181855745152?var=&hash=item2a57727480:m:m_eQUJ4tkB-dWzz1QhgOJ7A
p162
aVhttp://www.ebay.com/itm/Patient-Give-Reward-SURAH-ZUMAR-VERSE-10-Islamic-Wall-Art-Sticker-Quran-Quotes-/111755800182?var=&hash=item1a052a2e76:m:mQJGiTR33mG4lv5kpwULZ4w
p163
aVhttp://www.ebay.com/itm/Family-Love-Islamic-Wall-Art-Sticker-SURAH-RUM-VERSE-21-Islamic-Quote-Home-Decal-/121743563444?var=&hash=item1c587b5ab4:m:mBtx3L6zMFQ1RScM4SoBwsA
p164
aVhttp://www.ebay.com/itm/Surah-Rum-Verse-21-Islamic-Family-Quote-Wall-Stickers-Islamic-Wall-Art-Decals-/181840972111?var=&hash=item2a5691094f:m:m3LAYwjB54eBdYITqTuj5PA
p165
aVhttp://www.ebay.com/itm/Part-30-Juz-Amma-with-Surah-al-Fatiha-2-Audio-CDs-by-Mohammad-Farooq-Ar-Raee-/151785078719?hash=item2357187fbf:g:ZToAAOSwT6pV08JL
p166
aVhttp://www.ebay.com/itm/SURAH-AL-RAHMAN-YASIN-English-Translation-QARI-Al-SHEIKH-ABDUL-BASIT-NEW-CD-/400962780293?hash=item5d5b3e7c85:g:jpAAAOSwgQ9Vr9s7
p167
aVhttp://www.ebay.com/itm/PANJ-SURAH-WITH-URDU-AL-SHEIKH-ABDUL-BASIT-ABDUL-SAMAD-NEW-CD-FREE-UK-POST-/361333203545?hash=item5421232259:g:zJUAAOSwPcVVlCT5
p168
aVhttp://www.ebay.com/itm/PANJ-SURAH-WITH-ENGLISH-SURAH-YASEEN-AL-REHMAN-ALSHEIKH-ABDUL-REHMAN-/361333195164?hash=item542123019c:g:ZpAAAOSwHnFVlCKo
p169
aVhttp://www.ebay.com/itm/AL-QURAN-UL-KAREEM-QARI-AL-SHAIK-ABDUL-BASIT-ABDUL-SAMAD-SURAH-CD-/400929255761?hash=item5d593ef151:g:Y~IAAOSwpDdVaeBH
p170
aVhttp://www.ebay.com/itm/Islamic-Wall-Art-Crystals-Vinyl-Calligraphy-Wall-Sticker-Decal-Surah-Rahman-/281676156805?var=&hash=item4195350f85:m:m9jHYtWAXV8BHgNUVpZ075g
p171
aVhttp://www.ebay.com/itm/Islamic-Wall-Art-Crystals-Vinyl-Calligraphy-Wall-Sticker-Surah-Ikhlaas-/281666961172?var=&hash=item4194a8bf14:m:mlVtOskBw6h-QOR60CpbHiA
p172
aVhttp://www.ebay.com/itm/The-Spiritual-Cure-An-Explanation-to-Surah-Al-Fatihah-/151650731853?epid=1506109044&hash=item234f16874d:g:2E4AAOSwqu9VLoE2
p173
aVhttp://www.ebay.com/itm/Islamic-Wall-Art-Crystals-Vinyl-Calligraphy-Wall-Decal-Sticker-Surah-Yaseen-/281663375600?var=&hash=item41947208f0:m:mxUc9u03p9gIza3sgxhiwKg
p174
aVhttp://www.ebay.com/itm/CAR-HANGER-ISLAMIC-LARGE-CRYSTAL-ALLAH-AYATKREEMA-SURAH-FATIHA-KALIMAH-TAYYIBAH-/271697315605?var=&hash=item3f426c0715:m:mnUU0J8XGusG1p6rNLFUJqQ
p175
aVhttp://www.ebay.com/itm/Print-Islamic-Art-Calligraphy-Frame-Stand-Ayat-ul-Kursi-Kalima-4Kul-99-names-/321602080888?var=&hash=item4ae0fa5078:m:mTkUDm6hmB-QQ0R9x4-yceA
p176
aVhttp://www.ebay.com/itm/QARI-SADAQAT-ALI-SURAH-FATEHA-RAHMAN-OTHER-SURAH-WITH-ENGLISH-TRANSLATION-CD-/400775389136?hash=item5d50131fd0:g:i1QAAOSwq7JUGuuv
p177
aVhttp://www.ebay.com/itm/Car-Hanging-Mini-Quran-Selected-Surah-Islamic-Gift-Black-Leather-Muslim-Prayer-/251638141303?epid=1988544312&hash=item3a96cd5177:g:yS0AAOSwdsFUNWR5
p178
aVhttp://www.ebay.com/itm/Laminated-Surah-Yasin-Dua-Heart-Of-The-Quran-Quranic-Hang-Up-Barakah-/111452709787?hash=item19f319639b:g:vLoAAOSwQItUBvjB
p179
aVhttp://www.ebay.com/itm/SHEIKH-MISHRAY-RASHID-ALFASAY-SURAH-AL-BAQARAH-COMPLETE-2-CDS-SET-/400739543131?hash=item5d4df0285b:g:-5UAAOSwEzxYejHM
p180
aVhttp://www.ebay.com/itm/Faizan-e-Surah-Noor-Blessing-of-Surah-Noor-/161278447357?hash=item258cf1cefd:g:sn8AAOxyBjBTT6~y
p181
aVhttp://www.ebay.com/itm/Surah-Nuh-Translated-In-Urdu-/360849700609?hash=item5404517701:g:~6UAAOxycmBS63qB
p182
aVhttp://www.ebay.com/itm/Islamic-Personalised-Wedding-Canvas-Nikah-Waleema-Islamic-Art-Canvas-Frame-Card-/141874065389?var=&hash=item21085a6fed:m:m92wESxx_4dik9T64lVPPbg
p183
aVhttp://www.ebay.com/itm/Special-Edition-Entire-Surah-Al-Baqarah-in-1-CD-by-Sheikh-Mashari-Rashad-/161939683830?epid=1153766129&hash=item25b45b79f6:g:2cAAAOSwZG9WjiDr
p184
aVhttp://www.ebay.com/itm/Apple-Children-Islamic-TOY-Learning-Dua-Surah-Quran-Prayer-Nasheed-in-3-colours-/331742497768?epid=692206003&hash=item4d3d64cbe8:g:c9QAAOSwiCRUbTbK
p185
aVhttp://www.ebay.com/itm/Surah-Al-Baqrah-Tajweed-Colour-Code-Chapter-of-the-Quran-by-Dar-Al-Maarifah-/161899042246?epid=108546358&hash=item25b1ef55c6:g:MAQAAOSw7FRWV1Ev
p186
aVhttp://www.ebay.com/itm/Laminated-Surah-Rahmaan-The-Quran-Quranic-Hang-Up-Barakah-/111832214923?hash=item1a09b82d8b:g:29UAAOSw8-tWVE-E
p187
aVhttp://www.ebay.com/itm/Surah-Yasin-with-laminated-plastic-pages-Pack-of-12-Paperback-14-x-21cm-each-/321923298484?hash=item4af41fb4b4:g:Yu4AAOSweuxWS0G1
p188
aVhttp://www.ebay.com/itm/Surah-Yasin-with-Urdu-Translation-Tarjuma-Pack-of-12-Paperback-14-x-21cm-each-/321923286896?hash=item4af41f8770:g:AicAAOSwIwhWSz-P
p189
aVhttp://www.ebay.com/itm/Arabic-Islamic-Phone-Childrens-Educational-Quran-Surah-Teach-For-Kids-Boys-Girls-/281830480045?hash=item419e67d8ad:g:itoAAOSw5VFWIXC2
p190
aVhttp://www.ebay.com/itm/The-Light-Of-The-Quran-Explanation-Surah-Al-Ikhlas-Surah-Al-Kafirun-/151834055421?hash=item235a03d2fd:g:P~0AAOSwdvpWDCHY
p191
aVhttp://www.ebay.com/itm/Schleich-Bayala-Fantasy-World-Surah-in-festive-dress-70514-/301754062952?epid=1843834539&hash=item4641f19868:g:t9IAAOSwFnFWCtQu
p192
aVhttp://www.ebay.com/itm/Arabic-Islamic-Phone-Childrens-Educational-Quran-Surah-Teach-For-Kids-/111781666520?hash=item1a06b4ded8:g:vrMAAOSwQTVWBdj-
p193
aVhttp://www.ebay.com/itm/Schleich-Bayala-Fantasy-Elves-Fairies-Figures-Surah-Standing-70514-/291567329641?epid=1742058035&hash=item43e2c46169:g:VYkAAOSwvU5XM3Lr
p194
aVhttp://www.ebay.com/itm/Childrens-Islamic-Educational-phone-Toy-in-Arabic-Dua-Surah-Guide-FAST-DISPATCH-/121752118873?hash=item1c58fde659:g:yEsAAOSwd0BV62BE
p195
aVhttp://www.ebay.com/itm/Islamic-Wall-Stickers-Inspiring-Quran-Quote-Art-PATIENT-GIVE-REWARD-Surah-ZUMAR-/181855745152?var=&hash=item2a57727480:m:m_eQUJ4tkB-dWzz1QhgOJ7A
p196
aVhttp://www.ebay.com/itm/Patient-Give-Reward-SURAH-ZUMAR-VERSE-10-Islamic-Wall-Art-Sticker-Quran-Quotes-/111755800182?var=&hash=item1a052a2e76:m:mQJGiTR33mG4lv5kpwULZ4w
p197
aVhttp://www.ebay.com/itm/Family-Love-Islamic-Wall-Art-Sticker-SURAH-RUM-VERSE-21-Islamic-Quote-Home-Decal-/121743563444?var=&hash=item1c587b5ab4:m:mBtx3L6zMFQ1RScM4SoBwsA
p198
aVhttp://www.ebay.com/itm/Surah-Rum-Verse-21-Islamic-Family-Quote-Wall-Stickers-Islamic-Wall-Art-Decals-/181840972111?var=&hash=item2a5691094f:m:m3LAYwjB54eBdYITqTuj5PA
p199
aVhttp://www.ebay.com/itm/Part-30-Juz-Amma-with-Surah-al-Fatiha-2-Audio-CDs-by-Mohammad-Farooq-Ar-Raee-/151785078719?hash=item2357187fbf:g:ZToAAOSwT6pV08JL
p200
aVhttp://www.ebay.com/itm/SURAH-AL-RAHMAN-YASIN-English-Translation-QARI-Al-SHEIKH-ABDUL-BASIT-NEW-CD-/400962780293?hash=item5d5b3e7c85:g:jpAAAOSwgQ9Vr9s7
p201
aVhttp://www.ebay.com/itm/PANJ-SURAH-WITH-URDU-AL-SHEIKH-ABDUL-BASIT-ABDUL-SAMAD-NEW-CD-FREE-UK-POST-/361333203545?hash=item5421232259:g:zJUAAOSwPcVVlCT5
p202
aVhttp://www.ebay.com/itm/PANJ-SURAH-WITH-ENGLISH-SURAH-YASEEN-AL-REHMAN-ALSHEIKH-ABDUL-REHMAN-/361333195164?hash=item542123019c:g:ZpAAAOSwHnFVlCKo
p203
aVhttp://www.ebay.com/itm/AL-QURAN-UL-KAREEM-QARI-AL-SHAIK-ABDUL-BASIT-ABDUL-SAMAD-SURAH-CD-/400929255761?hash=item5d593ef151:g:Y~IAAOSwpDdVaeBH
p204
aVhttp://www.ebay.com/itm/Islamic-Wall-Art-Crystals-Vinyl-Calligraphy-Wall-Sticker-Decal-Surah-Rahman-/281676156805?var=&hash=item4195350f85:m:m9jHYtWAXV8BHgNUVpZ075g
p205
aVhttp://www.ebay.com/itm/Islamic-Wall-Art-Crystals-Vinyl-Calligraphy-Wall-Sticker-Surah-Ikhlaas-/281666961172?var=&hash=item4194a8bf14:m:mlVtOskBw6h-QOR60CpbHiA
p206
aVhttp://www.ebay.com/itm/The-Spiritual-Cure-An-Explanation-to-Surah-Al-Fatihah-/151650731853?epid=1506109044&hash=item234f16874d:g:2E4AAOSwqu9VLoE2
p207
aVhttp://www.ebay.com/itm/Islamic-Wall-Art-Crystals-Vinyl-Calligraphy-Wall-Decal-Sticker-Surah-Yaseen-/281663375600?var=&hash=item41947208f0:m:mxUc9u03p9gIza3sgxhiwKg
p208
aVhttp://www.ebay.com/itm/CAR-HANGER-ISLAMIC-LARGE-CRYSTAL-ALLAH-AYATKREEMA-SURAH-FATIHA-KALIMAH-TAYYIBAH-/271697315605?var=&hash=item3f426c0715:m:mnUU0J8XGusG1p6rNLFUJqQ
p209
aVhttp://www.ebay.com/itm/Print-Islamic-Art-Calligraphy-Frame-Stand-Ayat-ul-Kursi-Kalima-4Kul-99-names-/321602080888?var=&hash=item4ae0fa5078:m:mTkUDm6hmB-QQ0R9x4-yceA
p210
aVhttp://www.ebay.com/itm/QARI-SADAQAT-ALI-SURAH-FATEHA-RAHMAN-OTHER-SURAH-WITH-ENGLISH-TRANSLATION-CD-/400775389136?hash=item5d50131fd0:g:i1QAAOSwq7JUGuuv
p211
aVhttp://www.ebay.com/itm/Car-Hanging-Mini-Quran-Selected-Surah-Islamic-Gift-Black-Leather-Muslim-Prayer-/251638141303?epid=1988544312&hash=item3a96cd5177:g:yS0AAOSwdsFUNWR5
p212
aVhttp://www.ebay.com/itm/Laminated-Surah-Yasin-Dua-Heart-Of-The-Quran-Quranic-Hang-Up-Barakah-/111452709787?hash=item19f319639b:g:vLoAAOSwQItUBvjB
p213
aVhttp://www.ebay.com/itm/SHEIKH-MISHRAY-RASHID-ALFASAY-SURAH-AL-BAQARAH-COMPLETE-2-CDS-SET-/400739543131?hash=item5d4df0285b:g:-5UAAOSwEzxYejHM
p214
aVhttp://www.ebay.com/itm/Faizan-e-Surah-Noor-Blessing-of-Surah-Noor-/161278447357?hash=item258cf1cefd:g:sn8AAOxyBjBTT6~y
p215
aVhttp://www.ebay.com/itm/Surah-Nuh-Translated-In-Urdu-/360849700609?hash=item5404517701:g:~6UAAOxycmBS63qB
p216
aVhttp://www.ebay.com/itm/Gold-Ceramic-8-Plate-4-Surah-Arabic-Display-Islamic-Decoration-Quranic-Art-/272104967569?epid=1763197154&hash=item3f5ab84d91:g:PrwAAOSwFqJWl8Jk
p217
aVhttp://www.ebay.com/itm/Islamic-Personalised-Wedding-Canvas-Nikah-Waleema-Islamic-Art-Canvas-Frame-Card-/141874065389?var=&hash=item21085a6fed:m:m92wESxx_4dik9T64lVPPbg
p218
aVhttp://www.ebay.com/itm/Special-Edition-Entire-Surah-Al-Baqarah-in-1-CD-by-Sheikh-Mashari-Rashad-/161939683830?epid=1153766129&hash=item25b45b79f6:g:2cAAAOSwZG9WjiDr
p219
aVhttp://www.ebay.com/itm/Apple-Children-Islamic-TOY-Learning-Dua-Surah-Quran-Prayer-Nasheed-in-3-colours-/331742497768?epid=692206003&hash=item4d3d64cbe8:g:c9QAAOSwiCRUbTbK
p220
aVhttp://www.ebay.com/itm/Surah-Al-Baqrah-Tajweed-Colour-Code-Chapter-of-the-Quran-by-Dar-Al-Maarifah-/161899042246?epid=108546358&hash=item25b1ef55c6:g:MAQAAOSw7FRWV1Ev
p221
aVhttp://www.ebay.com/itm/Laminated-Surah-Rahmaan-The-Quran-Quranic-Hang-Up-Barakah-/111832214923?hash=item1a09b82d8b:g:29UAAOSw8-tWVE-E
p222
aVhttp://www.ebay.com/itm/Surah-Yasin-with-laminated-plastic-pages-Pack-of-12-Paperback-14-x-21cm-each-/321923298484?hash=item4af41fb4b4:g:Yu4AAOSweuxWS0G1
p223
aVhttp://www.ebay.com/itm/Surah-Yasin-with-Urdu-Translation-Tarjuma-Pack-of-12-Paperback-14-x-21cm-each-/321923286896?hash=item4af41f8770:g:AicAAOSwIwhWSz-P
p224
aVhttp://www.ebay.com/itm/Arabic-Islamic-Phone-Childrens-Educational-Quran-Surah-Teach-For-Kids-Boys-Girls-/281830480045?hash=item419e67d8ad:g:itoAAOSw5VFWIXC2
p225
aVhttp://www.ebay.com/itm/The-Light-Of-The-Quran-Explanation-Surah-Al-Ikhlas-Surah-Al-Kafirun-/151834055421?hash=item235a03d2fd:g:P~0AAOSwdvpWDCHY
p226
aVhttp://www.ebay.com/itm/Schleich-Bayala-Fantasy-World-Surah-in-festive-dress-70514-/301754062952?epid=1843834539&hash=item4641f19868:g:t9IAAOSwFnFWCtQu
p227
aVhttp://www.ebay.com/itm/Arabic-Islamic-Phone-Childrens-Educational-Quran-Surah-Teach-For-Kids-/111781666520?hash=item1a06b4ded8:g:vrMAAOSwQTVWBdj-
p228
aVhttp://www.ebay.com/itm/Schleich-Bayala-Fantasy-Elves-Fairies-Figures-Surah-Standing-70514-/291567329641?epid=1742058035&hash=item43e2c46169:g:VYkAAOSwvU5XM3Lr
p229
aVhttp://www.ebay.com/itm/Childrens-Islamic-Educational-phone-Toy-in-Arabic-Dua-Surah-Guide-FAST-DISPATCH-/121752118873?hash=item1c58fde659:g:yEsAAOSwd0BV62BE
p230
aVhttp://www.ebay.com/itm/Islamic-Wall-Stickers-Inspiring-Quran-Quote-Art-PATIENT-GIVE-REWARD-Surah-ZUMAR-/181855745152?var=&hash=item2a57727480:m:m_eQUJ4tkB-dWzz1QhgOJ7A
p231
aVhttp://www.ebay.com/itm/Patient-Give-Reward-SURAH-ZUMAR-VERSE-10-Islamic-Wall-Art-Sticker-Quran-Quotes-/111755800182?var=&hash=item1a052a2e76:m:mQJGiTR33mG4lv5kpwULZ4w
p232
aVhttp://www.ebay.com/itm/Family-Love-Islamic-Wall-Art-Sticker-SURAH-RUM-VERSE-21-Islamic-Quote-Home-Decal-/121743563444?var=&hash=item1c587b5ab4:m:mBtx3L6zMFQ1RScM4SoBwsA
p233
aVhttp://www.ebay.com/itm/Surah-Rum-Verse-21-Islamic-Family-Quote-Wall-Stickers-Islamic-Wall-Art-Decals-/181840972111?var=&hash=item2a5691094f:m:m3LAYwjB54eBdYITqTuj5PA
p234
aVhttp://www.ebay.com/itm/Part-30-Juz-Amma-with-Surah-al-Fatiha-2-Audio-CDs-by-Mohammad-Farooq-Ar-Raee-/151785078719?hash=item2357187fbf:g:ZToAAOSwT6pV08JL
p235
aVhttp://www.ebay.com/itm/SURAH-AL-RAHMAN-YASIN-English-Translation-QARI-Al-SHEIKH-ABDUL-BASIT-NEW-CD-/400962780293?hash=item5d5b3e7c85:g:jpAAAOSwgQ9Vr9s7
p236
aVhttp://www.ebay.com/itm/PANJ-SURAH-WITH-URDU-AL-SHEIKH-ABDUL-BASIT-ABDUL-SAMAD-NEW-CD-FREE-UK-POST-/361333203545?hash=item5421232259:g:zJUAAOSwPcVVlCT5
p237
aVhttp://www.ebay.com/itm/PANJ-SURAH-WITH-ENGLISH-SURAH-YASEEN-AL-REHMAN-ALSHEIKH-ABDUL-REHMAN-/361333195164?hash=item542123019c:g:ZpAAAOSwHnFVlCKo
p238
aVhttp://www.ebay.com/itm/AL-QURAN-UL-KAREEM-QARI-AL-SHAIK-ABDUL-BASIT-ABDUL-SAMAD-SURAH-CD-/400929255761?hash=item5d593ef151:g:Y~IAAOSwpDdVaeBH
p239
aVhttp://www.ebay.com/itm/Islamic-Wall-Art-Crystals-Vinyl-Calligraphy-Wall-Sticker-Decal-Surah-Rahman-/281676156805?var=&hash=item4195350f85:m:m9jHYtWAXV8BHgNUVpZ075g
p240
aVhttp://www.ebay.com/itm/Islamic-Wall-Art-Crystals-Vinyl-Calligraphy-Wall-Sticker-Surah-Ikhlaas-/281666961172?var=&hash=item4194a8bf14:m:mlVtOskBw6h-QOR60CpbHiA
p241
aVhttp://www.ebay.com/itm/The-Spiritual-Cure-An-Explanation-to-Surah-Al-Fatihah-/151650731853?epid=1506109044&hash=item234f16874d:g:2E4AAOSwqu9VLoE2
p242
aVhttp://www.ebay.com/itm/Islamic-Wall-Art-Crystals-Vinyl-Calligraphy-Wall-Decal-Sticker-Surah-Yaseen-/281663375600?var=&hash=item41947208f0:m:mxUc9u03p9gIza3sgxhiwKg
p243
aVhttp://www.ebay.com/itm/CAR-HANGER-ISLAMIC-LARGE-CRYSTAL-ALLAH-AYATKREEMA-SURAH-FATIHA-KALIMAH-TAYYIBAH-/271697315605?var=&hash=item3f426c0715:m:mnUU0J8XGusG1p6rNLFUJqQ
p244
aVhttp://www.ebay.com/itm/Print-Islamic-Art-Calligraphy-Frame-Stand-Ayat-ul-Kursi-Kalima-4Kul-99-names-/321602080888?var=&hash=item4ae0fa5078:m:mTkUDm6hmB-QQ0R9x4-yceA
p245
aVhttp://www.ebay.com/itm/QARI-SADAQAT-ALI-SURAH-FATEHA-RAHMAN-OTHER-SURAH-WITH-ENGLISH-TRANSLATION-CD-/400775389136?hash=item5d50131fd0:g:i1QAAOSwq7JUGuuv
p246
aVhttp://www.ebay.com/itm/Car-Hanging-Mini-Quran-Selected-Surah-Islamic-Gift-Black-Leather-Muslim-Prayer-/251638141303?epid=1988544312&hash=item3a96cd5177:g:yS0AAOSwdsFUNWR5
p247
aVhttp://www.ebay.com/itm/Laminated-Surah-Yasin-Dua-Heart-Of-The-Quran-Quranic-Hang-Up-Barakah-/111452709787?hash=item19f319639b:g:vLoAAOSwQItUBvjB
p248
aVhttp://www.ebay.com/itm/SHEIKH-MISHRAY-RASHID-ALFASAY-SURAH-AL-BAQARAH-COMPLETE-2-CDS-SET-/400739543131?hash=item5d4df0285b:g:-5UAAOSwEzxYejHM
p249
aVhttp://www.ebay.com/itm/Faizan-e-Surah-Noor-Blessing-of-Surah-Noor-/161278447357?hash=item258cf1cefd:g:sn8AAOxyBjBTT6~y
p250
aVhttp://www.ebay.com/itm/Islamic-Personalised-Wedding-Canvas-Nikah-Waleema-Islamic-Art-Canvas-Frame-Card-/141874065389?var=&hash=item21085a6fed:m:m92wESxx_4dik9T64lVPPbg
p251
aVhttp://www.ebay.com/itm/Special-Edition-Entire-Surah-Al-Baqarah-in-1-CD-by-Sheikh-Mashari-Rashad-/161939683830?epid=1153766129&hash=item25b45b79f6:g:2cAAAOSwZG9WjiDr
p252
aVhttp://www.ebay.com/itm/Apple-Children-Islamic-TOY-Learning-Dua-Surah-Quran-Prayer-Nasheed-in-3-colours-/331742497768?epid=692206003&hash=item4d3d64cbe8:g:c9QAAOSwiCRUbTbK
p253
aVhttp://www.ebay.com/itm/Surah-Al-Baqrah-Tajweed-Colour-Code-Chapter-of-the-Quran-by-Dar-Al-Maarifah-/161899042246?epid=108546358&hash=item25b1ef55c6:g:MAQAAOSw7FRWV1Ev
p254
aVhttp://www.ebay.com/itm/Laminated-Surah-Rahmaan-The-Quran-Quranic-Hang-Up-Barakah-/111832214923?hash=item1a09b82d8b:g:29UAAOSw8-tWVE-E
p255
aVhttp://www.ebay.com/itm/Surah-Yasin-with-laminated-plastic-pages-Pack-of-12-Paperback-14-x-21cm-each-/321923298484?hash=item4af41fb4b4:g:Yu4AAOSweuxWS0G1
p256
aVhttp://www.ebay.com/itm/Surah-Yasin-with-Urdu-Translation-Tarjuma-Pack-of-12-Paperback-14-x-21cm-each-/321923286896?hash=item4af41f8770:g:AicAAOSwIwhWSz-P
p257
aVhttp://www.ebay.com/itm/Arabic-Islamic-Phone-Childrens-Educational-Quran-Surah-Teach-For-Kids-Boys-Girls-/281830480045?hash=item419e67d8ad:g:itoAAOSw5VFWIXC2
p258
aVhttp://www.ebay.com/itm/The-Light-Of-The-Quran-Explanation-Surah-Al-Ikhlas-Surah-Al-Kafirun-/151834055421?hash=item235a03d2fd:g:P~0AAOSwdvpWDCHY
p259
aVhttp://www.ebay.com/itm/Schleich-Bayala-Fantasy-World-Surah-in-festive-dress-70514-/301754062952?epid=1843834539&hash=item4641f19868:g:t9IAAOSwFnFWCtQu
p260
aVhttp://www.ebay.com/itm/Arabic-Islamic-Phone-Childrens-Educational-Quran-Surah-Teach-For-Kids-/111781666520?hash=item1a06b4ded8:g:vrMAAOSwQTVWBdj-
p261
aVhttp://www.ebay.com/itm/Schleich-Bayala-Fantasy-Elves-Fairies-Figures-Surah-Standing-70514-/291567329641?epid=1742058035&hash=item43e2c46169:g:VYkAAOSwvU5XM3Lr
p262
aVhttp://www.ebay.com/itm/Childrens-Islamic-Educational-phone-Toy-in-Arabic-Dua-Surah-Guide-FAST-DISPATCH-/121752118873?hash=item1c58fde659:g:yEsAAOSwd0BV62BE
p263
aVhttp://www.ebay.com/itm/Islamic-Wall-Stickers-Inspiring-Quran-Quote-Art-PATIENT-GIVE-REWARD-Surah-ZUMAR-/181855745152?var=&hash=item2a57727480:m:m_eQUJ4tkB-dWzz1QhgOJ7A
p264
aVhttp://www.ebay.com/itm/Patient-Give-Reward-SURAH-ZUMAR-VERSE-10-Islamic-Wall-Art-Sticker-Quran-Quotes-/111755800182?var=&hash=item1a052a2e76:m:mQJGiTR33mG4lv5kpwULZ4w
p265
aVhttp://www.ebay.com/itm/Family-Love-Islamic-Wall-Art-Sticker-SURAH-RUM-VERSE-21-Islamic-Quote-Home-Decal-/121743563444?var=&hash=item1c587b5ab4:m:mBtx3L6zMFQ1RScM4SoBwsA
p266
aVhttp://www.ebay.com/itm/Surah-Rum-Verse-21-Islamic-Family-Quote-Wall-Stickers-Islamic-Wall-Art-Decals-/181840972111?var=&hash=item2a5691094f:m:m3LAYwjB54eBdYITqTuj5PA
p267
aVhttp://www.ebay.com/itm/Part-30-Juz-Amma-with-Surah-al-Fatiha-2-Audio-CDs-by-Mohammad-Farooq-Ar-Raee-/151785078719?hash=item2357187fbf:g:ZToAAOSwT6pV08JL
p268
aVhttp://www.ebay.com/itm/SURAH-AL-RAHMAN-YASIN-English-Translation-QARI-Al-SHEIKH-ABDUL-BASIT-NEW-CD-/400962780293?hash=item5d5b3e7c85:g:jpAAAOSwgQ9Vr9s7
p269
aVhttp://www.ebay.com/itm/PANJ-SURAH-WITH-URDU-AL-SHEIKH-ABDUL-BASIT-ABDUL-SAMAD-NEW-CD-FREE-UK-POST-/361333203545?hash=item5421232259:g:zJUAAOSwPcVVlCT5
p270
aVhttp://www.ebay.com/itm/PANJ-SURAH-WITH-ENGLISH-SURAH-YASEEN-AL-REHMAN-ALSHEIKH-ABDUL-REHMAN-/361333195164?hash=item542123019c:g:ZpAAAOSwHnFVlCKo
p271
aVhttp://www.ebay.com/itm/AL-QURAN-UL-KAREEM-QARI-AL-SHAIK-ABDUL-BASIT-ABDUL-SAMAD-SURAH-CD-/400929255761?hash=item5d593ef151:g:Y~IAAOSwpDdVaeBH
p272
aVhttp://www.ebay.com/itm/Islamic-Wall-Art-Crystals-Vinyl-Calligraphy-Wall-Sticker-Decal-Surah-Rahman-/281676156805?var=&hash=item4195350f85:m:m9jHYtWAXV8BHgNUVpZ075g
p273
aVhttp://www.ebay.com/itm/Islamic-Wall-Art-Crystals-Vinyl-Calligraphy-Wall-Sticker-Surah-Ikhlaas-/281666961172?var=&hash=item4194a8bf14:m:mlVtOskBw6h-QOR60CpbHiA
p274
aVhttp://www.ebay.com/itm/The-Spiritual-Cure-An-Explanation-to-Surah-Al-Fatihah-/151650731853?epid=1506109044&hash=item234f16874d:g:2E4AAOSwqu9VLoE2
p275
aVhttp://www.ebay.com/itm/Islamic-Wall-Art-Crystals-Vinyl-Calligraphy-Wall-Decal-Sticker-Surah-Yaseen-/281663375600?var=&hash=item41947208f0:m:mxUc9u03p9gIza3sgxhiwKg
p276
aVhttp://www.ebay.com/itm/CAR-HANGER-ISLAMIC-LARGE-CRYSTAL-ALLAH-AYATKREEMA-SURAH-FATIHA-KALIMAH-TAYYIBAH-/271697315605?var=&hash=item3f426c0715:m:mnUU0J8XGusG1p6rNLFUJqQ
p277
aVhttp://www.ebay.com/itm/Print-Islamic-Art-Calligraphy-Frame-Stand-Ayat-ul-Kursi-Kalima-4Kul-99-names-/321602080888?var=&hash=item4ae0fa5078:m:mTkUDm6hmB-QQ0R9x4-yceA
p278
aVhttp://www.ebay.com/itm/QARI-SADAQAT-ALI-SURAH-FATEHA-RAHMAN-OTHER-SURAH-WITH-ENGLISH-TRANSLATION-CD-/400775389136?hash=item5d50131fd0:g:i1QAAOSwq7JUGuuv
p279
aVhttp://www.ebay.com/itm/Car-Hanging-Mini-Quran-Selected-Surah-Islamic-Gift-Black-Leather-Muslim-Prayer-/251638141303?epid=1988544312&hash=item3a96cd5177:g:yS0AAOSwdsFUNWR5
p280
aVhttp://www.ebay.com/itm/Laminated-Surah-Yasin-Dua-Heart-Of-The-Quran-Quranic-Hang-Up-Barakah-/111452709787?hash=item19f319639b:g:vLoAAOSwQItUBvjB
p281
aVhttp://www.ebay.com/itm/SHEIKH-MISHRAY-RASHID-ALFASAY-SURAH-AL-BAQARAH-COMPLETE-2-CDS-SET-/400739543131?hash=item5d4df0285b:g:-5UAAOSwEzxYejHM
p282
aVhttp://www.ebay.com/itm/Faizan-e-Surah-Noor-Blessing-of-Surah-Noor-/161278447357?hash=item258cf1cefd:g:sn8AAOxyBjBTT6~y
p283
aVhttp://www.ebay.com/itm/Surah-Nuh-Translated-In-Urdu-/360849700609?hash=item5404517701:g:~6UAAOxycmBS63qB
p284
aVhttp://www.ebay.com/itm/Islamic-Personalised-Wedding-Canvas-Nikah-Waleema-Islamic-Art-Canvas-Frame-Card-/141874065389?var=&hash=item21085a6fed:m:m92wESxx_4dik9T64lVPPbg
p285
aVhttp://www.ebay.com/itm/Special-Edition-Entire-Surah-Al-Baqarah-in-1-CD-by-Sheikh-Mashari-Rashad-/161939683830?epid=1153766129&hash=item25b45b79f6:g:2cAAAOSwZG9WjiDr
p286
aVhttp://www.ebay.com/itm/Apple-Children-Islamic-TOY-Learning-Dua-Surah-Quran-Prayer-Nasheed-in-3-colours-/331742497768?epid=692206003&hash=item4d3d64cbe8:g:c9QAAOSwiCRUbTbK
p287
aVhttp://www.ebay.com/itm/Surah-Al-Baqrah-Tajweed-Colour-Code-Chapter-of-the-Quran-by-Dar-Al-Maarifah-/161899042246?epid=108546358&hash=item25b1ef55c6:g:MAQAAOSw7FRWV1Ev
p288
aVhttp://www.ebay.com/itm/Laminated-Surah-Rahmaan-The-Quran-Quranic-Hang-Up-Barakah-/111832214923?hash=item1a09b82d8b:g:29UAAOSw8-tWVE-E
p289
aVhttp://www.ebay.com/itm/Surah-Yasin-with-laminated-plastic-pages-Pack-of-12-Paperback-14-x-21cm-each-/321923298484?hash=item4af41fb4b4:g:Yu4AAOSweuxWS0G1
p290
aVhttp://www.ebay.com/itm/Surah-Yasin-with-Urdu-Translation-Tarjuma-Pack-of-12-Paperback-14-x-21cm-each-/321923286896?hash=item4af41f8770:g:AicAAOSwIwhWSz-P
p291
aVhttp://www.ebay.com/itm/Arabic-Islamic-Phone-Childrens-Educational-Quran-Surah-Teach-For-Kids-Boys-Girls-/281830480045?hash=item419e67d8ad:g:itoAAOSw5VFWIXC2
p292
aVhttp://www.ebay.com/itm/The-Light-Of-The-Quran-Explanation-Surah-Al-Ikhlas-Surah-Al-Kafirun-/151834055421?hash=item235a03d2fd:g:P~0AAOSwdvpWDCHY
p293
aVhttp://www.ebay.com/itm/Schleich-Bayala-Fantasy-World-Surah-in-festive-dress-70514-/301754062952?epid=1843834539&hash=item4641f19868:g:t9IAAOSwFnFWCtQu
p294
aVhttp://www.ebay.com/itm/Arabic-Islamic-Phone-Childrens-Educational-Quran-Surah-Teach-For-Kids-/111781666520?hash=item1a06b4ded8:g:vrMAAOSwQTVWBdj-
p295
aVhttp://www.ebay.com/itm/Schleich-Bayala-Fantasy-Elves-Fairies-Figures-Surah-Standing-70514-/291567329641?epid=1742058035&hash=item43e2c46169:g:VYkAAOSwvU5XM3Lr
p296
aVhttp://www.ebay.com/itm/Childrens-Islamic-Educational-phone-Toy-in-Arabic-Dua-Surah-Guide-FAST-DISPATCH-/121752118873?hash=item1c58fde659:g:yEsAAOSwd0BV62BE
p297
aVhttp://www.ebay.com/itm/Islamic-Wall-Stickers-Inspiring-Quran-Quote-Art-PATIENT-GIVE-REWARD-Surah-ZUMAR-/181855745152?var=&hash=item2a57727480:m:m_eQUJ4tkB-dWzz1QhgOJ7A
p298
aVhttp://www.ebay.com/itm/Patient-Give-Reward-SURAH-ZUMAR-VERSE-10-Islamic-Wall-Art-Sticker-Quran-Quotes-/111755800182?var=&hash=item1a052a2e76:m:mQJGiTR33mG4lv5kpwULZ4w
p299
aVhttp://www.ebay.com/itm/Family-Love-Islamic-Wall-Art-Sticker-SURAH-RUM-VERSE-21-Islamic-Quote-Home-Decal-/121743563444?var=&hash=item1c587b5ab4:m:mBtx3L6zMFQ1RScM4SoBwsA
p300
aVhttp://www.ebay.com/itm/Surah-Rum-Verse-21-Islamic-Family-Quote-Wall-Stickers-Islamic-Wall-Art-Decals-/181840972111?var=&hash=item2a5691094f:m:m3LAYwjB54eBdYITqTuj5PA
p301
aVhttp://www.ebay.com/itm/Part-30-Juz-Amma-with-Surah-al-Fatiha-2-Audio-CDs-by-Mohammad-Farooq-Ar-Raee-/151785078719?hash=item2357187fbf:g:ZToAAOSwT6pV08JL
p302
aVhttp://www.ebay.com/itm/SURAH-AL-RAHMAN-YASIN-English-Translation-QARI-Al-SHEIKH-ABDUL-BASIT-NEW-CD-/400962780293?hash=item5d5b3e7c85:g:jpAAAOSwgQ9Vr9s7
p303
aVhttp://www.ebay.com/itm/PANJ-SURAH-WITH-URDU-AL-SHEIKH-ABDUL-BASIT-ABDUL-SAMAD-NEW-CD-FREE-UK-POST-/361333203545?hash=item5421232259:g:zJUAAOSwPcVVlCT5
p304
aVhttp://www.ebay.com/itm/PANJ-SURAH-WITH-ENGLISH-SURAH-YASEEN-AL-REHMAN-ALSHEIKH-ABDUL-REHMAN-/361333195164?hash=item542123019c:g:ZpAAAOSwHnFVlCKo
p305
aVhttp://www.ebay.com/itm/AL-QURAN-UL-KAREEM-QARI-AL-SHAIK-ABDUL-BASIT-ABDUL-SAMAD-SURAH-CD-/400929255761?hash=item5d593ef151:g:Y~IAAOSwpDdVaeBH
p306
aVhttp://www.ebay.com/itm/Islamic-Wall-Art-Crystals-Vinyl-Calligraphy-Wall-Sticker-Decal-Surah-Rahman-/281676156805?var=&hash=item4195350f85:m:m9jHYtWAXV8BHgNUVpZ075g
p307
aVhttp://www.ebay.com/itm/Islamic-Wall-Art-Crystals-Vinyl-Calligraphy-Wall-Sticker-Surah-Ikhlaas-/281666961172?var=&hash=item4194a8bf14:m:mlVtOskBw6h-QOR60CpbHiA
p308
aVhttp://www.ebay.com/itm/The-Spiritual-Cure-An-Explanation-to-Surah-Al-Fatihah-/151650731853?epid=1506109044&hash=item234f16874d:g:2E4AAOSwqu9VLoE2
p309
aVhttp://www.ebay.com/itm/Islamic-Wall-Art-Crystals-Vinyl-Calligraphy-Wall-Decal-Sticker-Surah-Yaseen-/281663375600?var=&hash=item41947208f0:m:mxUc9u03p9gIza3sgxhiwKg
p310
aVhttp://www.ebay.com/itm/CAR-HANGER-ISLAMIC-LARGE-CRYSTAL-ALLAH-AYATKREEMA-SURAH-FATIHA-KALIMAH-TAYYIBAH-/271697315605?var=&hash=item3f426c0715:m:mnUU0J8XGusG1p6rNLFUJqQ
p311
aVhttp://www.ebay.com/itm/Print-Islamic-Art-Calligraphy-Frame-Stand-Ayat-ul-Kursi-Kalima-4Kul-99-names-/321602080888?var=&hash=item4ae0fa5078:m:mTkUDm6hmB-QQ0R9x4-yceA
p312
aVhttp://www.ebay.com/itm/QARI-SADAQAT-ALI-SURAH-FATEHA-RAHMAN-OTHER-SURAH-WITH-ENGLISH-TRANSLATION-CD-/400775389136?hash=item5d50131fd0:g:i1QAAOSwq7JUGuuv
p313
aVhttp://www.ebay.com/itm/Car-Hanging-Mini-Quran-Selected-Surah-Islamic-Gift-Black-Leather-Muslim-Prayer-/251638141303?epid=1988544312&hash=item3a96cd5177:g:yS0AAOSwdsFUNWR5
p314
aVhttp://www.ebay.com/itm/Laminated-Surah-Yasin-Dua-Heart-Of-The-Quran-Quranic-Hang-Up-Barakah-/111452709787?hash=item19f319639b:g:vLoAAOSwQItUBvjB
p315
aVhttp://www.ebay.com/itm/SHEIKH-MISHRAY-RASHID-ALFASAY-SURAH-AL-BAQARAH-COMPLETE-2-CDS-SET-/400739543131?hash=item5d4df0285b:g:-5UAAOSwEzxYejHM
p316
aVhttp://www.ebay.com/itm/Faizan-e-Surah-Noor-Blessing-of-Surah-Noor-/161278447357?hash=item258cf1cefd:g:sn8AAOxyBjBTT6~y
p317
aVhttp://www.ebay.com/itm/Surah-Nuh-Translated-In-Urdu-/360849700609?hash=item5404517701:g:~6UAAOxycmBS63qB
p318
aVhttp://www.ebay.com/itm/Islamic-Personalised-Wedding-Canvas-Nikah-Waleema-Islamic-Art-Canvas-Frame-Card-/141874065389?var=&hash=item21085a6fed:m:m92wESxx_4dik9T64lVPPbg
p319
aVhttp://www.ebay.com/itm/Special-Edition-Entire-Surah-Al-Baqarah-in-1-CD-by-Sheikh-Mashari-Rashad-/161939683830?epid=1153766129&hash=item25b45b79f6:g:2cAAAOSwZG9WjiDr
p320
aVhttp://www.ebay.com/itm/Apple-Children-Islamic-TOY-Learning-Dua-Surah-Quran-Prayer-Nasheed-in-3-colours-/331742497768?epid=692206003&hash=item4d3d64cbe8:g:c9QAAOSwiCRUbTbK
p321
aVhttp://www.ebay.com/itm/Surah-Al-Baqrah-Tajweed-Colour-Code-Chapter-of-the-Quran-by-Dar-Al-Maarifah-/161899042246?epid=108546358&hash=item25b1ef55c6:g:MAQAAOSw7FRWV1Ev
p322
aVhttp://www.ebay.com/itm/Laminated-Surah-Rahmaan-The-Quran-Quranic-Hang-Up-Barakah-/111832214923?hash=item1a09b82d8b:g:29UAAOSw8-tWVE-E
p323
aVhttp://www.ebay.com/itm/Surah-Yasin-with-laminated-plastic-pages-Pack-of-12-Paperback-14-x-21cm-each-/321923298484?hash=item4af41fb4b4:g:Yu4AAOSweuxWS0G1
p324
aVhttp://www.ebay.com/itm/Surah-Yasin-with-Urdu-Translation-Tarjuma-Pack-of-12-Paperback-14-x-21cm-each-/321923286896?hash=item4af41f8770:g:AicAAOSwIwhWSz-P
p325
aVhttp://www.ebay.com/itm/Arabic-Islamic-Phone-Childrens-Educational-Quran-Surah-Teach-For-Kids-Boys-Girls-/281830480045?hash=item419e67d8ad:g:itoAAOSw5VFWIXC2
p326
aVhttp://www.ebay.com/itm/The-Light-Of-The-Quran-Explanation-Surah-Al-Ikhlas-Surah-Al-Kafirun-/151834055421?hash=item235a03d2fd:g:P~0AAOSwdvpWDCHY
p327
aVhttp://www.ebay.com/itm/Schleich-Bayala-Fantasy-World-Surah-in-festive-dress-70514-/301754062952?epid=1843834539&hash=item4641f19868:g:t9IAAOSwFnFWCtQu
p328
aVhttp://www.ebay.com/itm/Arabic-Islamic-Phone-Childrens-Educational-Quran-Surah-Teach-For-Kids-/111781666520?hash=item1a06b4ded8:g:vrMAAOSwQTVWBdj-
p329
aVhttp://www.ebay.com/itm/Schleich-Bayala-Fantasy-Elves-Fairies-Figures-Surah-Standing-70514-/291567329641?epid=1742058035&hash=item43e2c46169:g:VYkAAOSwvU5XM3Lr
p330
aVhttp://www.ebay.com/itm/Childrens-Islamic-Educational-phone-Toy-in-Arabic-Dua-Surah-Guide-FAST-DISPATCH-/121752118873?hash=item1c58fde659:g:yEsAAOSwd0BV62BE
p331
aVhttp://www.ebay.com/itm/Islamic-Wall-Stickers-Inspiring-Quran-Quote-Art-PATIENT-GIVE-REWARD-Surah-ZUMAR-/181855745152?var=&hash=item2a57727480:m:m_eQUJ4tkB-dWzz1QhgOJ7A
p332
aVhttp://www.ebay.com/itm/Patient-Give-Reward-SURAH-ZUMAR-VERSE-10-Islamic-Wall-Art-Sticker-Quran-Quotes-/111755800182?var=&hash=item1a052a2e76:m:mQJGiTR33mG4lv5kpwULZ4w
p333
aVhttp://www.ebay.com/itm/Family-Love-Islamic-Wall-Art-Sticker-SURAH-RUM-VERSE-21-Islamic-Quote-Home-Decal-/121743563444?var=&hash=item1c587b5ab4:m:mBtx3L6zMFQ1RScM4SoBwsA
p334
aVhttp://www.ebay.com/itm/Surah-Rum-Verse-21-Islamic-Family-Quote-Wall-Stickers-Islamic-Wall-Art-Decals-/181840972111?var=&hash=item2a5691094f:m:m3LAYwjB54eBdYITqTuj5PA
p335
aVhttp://www.ebay.com/itm/Part-30-Juz-Amma-with-Surah-al-Fatiha-2-Audio-CDs-by-Mohammad-Farooq-Ar-Raee-/151785078719?hash=item2357187fbf:g:ZToAAOSwT6pV08JL
p336
aVhttp://www.ebay.com/itm/SURAH-AL-RAHMAN-YASIN-English-Translation-QARI-Al-SHEIKH-ABDUL-BASIT-NEW-CD-/400962780293?hash=item5d5b3e7c85:g:jpAAAOSwgQ9Vr9s7
p337
aVhttp://www.ebay.com/itm/PANJ-SURAH-WITH-URDU-AL-SHEIKH-ABDUL-BASIT-ABDUL-SAMAD-NEW-CD-FREE-UK-POST-/361333203545?hash=item5421232259:g:zJUAAOSwPcVVlCT5
p338
aVhttp://www.ebay.com/itm/PANJ-SURAH-WITH-ENGLISH-SURAH-YASEEN-AL-REHMAN-ALSHEIKH-ABDUL-REHMAN-/361333195164?hash=item542123019c:g:ZpAAAOSwHnFVlCKo
p339
aVhttp://www.ebay.com/itm/AL-QURAN-UL-KAREEM-QARI-AL-SHAIK-ABDUL-BASIT-ABDUL-SAMAD-SURAH-CD-/400929255761?hash=item5d593ef151:g:Y~IAAOSwpDdVaeBH
p340
aVhttp://www.ebay.com/itm/Islamic-Wall-Art-Crystals-Vinyl-Calligraphy-Wall-Sticker-Decal-Surah-Rahman-/281676156805?var=&hash=item4195350f85:m:m9jHYtWAXV8BHgNUVpZ075g
p341
aVhttp://www.ebay.com/itm/Islamic-Wall-Art-Crystals-Vinyl-Calligraphy-Wall-Sticker-Surah-Ikhlaas-/281666961172?var=&hash=item4194a8bf14:m:mlVtOskBw6h-QOR60CpbHiA
p342
aVhttp://www.ebay.com/itm/The-Spiritual-Cure-An-Explanation-to-Surah-Al-Fatihah-/151650731853?epid=1506109044&hash=item234f16874d:g:2E4AAOSwqu9VLoE2
p343
aVhttp://www.ebay.com/itm/Islamic-Wall-Art-Crystals-Vinyl-Calligraphy-Wall-Decal-Sticker-Surah-Yaseen-/281663375600?var=&hash=item41947208f0:m:mxUc9u03p9gIza3sgxhiwKg
p344
aVhttp://www.ebay.com/itm/CAR-HANGER-ISLAMIC-LARGE-CRYSTAL-ALLAH-AYATKREEMA-SURAH-FATIHA-KALIMAH-TAYYIBAH-/271697315605?var=&hash=item3f426c0715:m:mnUU0J8XGusG1p6rNLFUJqQ
p345
aVhttp://www.ebay.com/itm/Print-Islamic-Art-Calligraphy-Frame-Stand-Ayat-ul-Kursi-Kalima-4Kul-99-names-/321602080888?var=&hash=item4ae0fa5078:m:mTkUDm6hmB-QQ0R9x4-yceA
p346
aVhttp://www.ebay.com/itm/QARI-SADAQAT-ALI-SURAH-FATEHA-RAHMAN-OTHER-SURAH-WITH-ENGLISH-TRANSLATION-CD-/400775389136?hash=item5d50131fd0:g:i1QAAOSwq7JUGuuv
p347
aVhttp://www.ebay.com/itm/Car-Hanging-Mini-Quran-Selected-Surah-Islamic-Gift-Black-Leather-Muslim-Prayer-/251638141303?epid=1988544312&hash=item3a96cd5177:g:yS0AAOSwdsFUNWR5
p348
aVhttp://www.ebay.com/itm/Laminated-Surah-Yasin-Dua-Heart-Of-The-Quran-Quranic-Hang-Up-Barakah-/111452709787?hash=item19f319639b:g:vLoAAOSwQItUBvjB
p349
aVhttp://www.ebay.com/itm/SHEIKH-MISHRAY-RASHID-ALFASAY-SURAH-AL-BAQARAH-COMPLETE-2-CDS-SET-/400739543131?hash=item5d4df0285b:g:-5UAAOSwEzxYejHM
p350
aVhttp://www.ebay.com/itm/Faizan-e-Surah-Noor-Blessing-of-Surah-Noor-/161278447357?hash=item258cf1cefd:g:sn8AAOxyBjBTT6~y
p351
aVhttp://www.ebay.com/itm/Surah-Nuh-Translated-In-Urdu-/360849700609?hash=item5404517701:g:~6UAAOxycmBS63qB
p352
a.