(lp0
Vhttp://www.ebay.com/itm/Abalone-Paua-Shell-TREE-OF-LIFE-Silver-Pendant-Necklace-Jewellery-by-BellaMira-/162071501493?epid=1966036431&hash=item25bc36dab5:g:~AMAAOSwfVpYwtvO
p1
aVhttp://www.ebay.com/itm/ABALONE-SHELL-Marquise-40x11-Hook-Earrings-in-925-Sterling-Silver-NEW-/252814188044?epid=1556905960&hash=item3adce65e0c:g:0csAAOSwSlBYyVhV
p2
aVhttp://www.ebay.com/itm/BellaMira-Abalone-Paua-Shell-Octopus-Silver-Pendant-Necklace-Jewellery-Gift-Box-/162198021111?epid=706463669&hash=item25c3c163f7:g:QQsAAOSw2gxYwtRy
p3
aVhttp://www.ebay.com/itm/Abalone-Paua-Shell-Silver-Butterfly-Pendant-Chain-Necklace-Jewellery-BellaMira-/162165106299?epid=1766531142&hash=item25c1cb267b:g:nVoAAOSwWxNYws2u
p4
aVhttp://www.ebay.com/itm/Designer-Abalone-Paua-Shell-Hoop-Earrings-in-925-Sterling-Silver-Handmade-/252814215367?hash=item3adce6c8c7:g:uDkAAOSwuxFYtkUz
p5
aVhttp://www.ebay.com/itm/Classic-Abalone-Paua-Shell-Hoop-Earrings-in-925-Sterling-Silver-Handmade-/252814236063?hash=item3adce7199f:g:tiYAAOSw4CFYuQYJ
p6
aVhttp://www.ebay.com/itm/Mother-of-pearl-Abalone-Costume-Jewellery-Earring-925-Silver-Overlay-DA124-/302113586977?hash=item46575f7f21:g:CToAAOSwXeJYCWpy
p7
aVhttp://www.ebay.com/itm/Bali-Abalone-Shell-Oval-27x20-hook-Earrings-in-925-Steling-Silver-/252814215374?hash=item3adce6c8ce:g:a-gAAOSw4A5YtkIk
p8
aVhttp://www.ebay.com/itm/Wunderschon-Naturlich-Eingelegt-Abalone-muschel-Paua-Muschel-Kleeblatt-Ohrringe-/332179303217?hash=item4d576deb31:g:mUIAAOSwXshWrzGv
p9
aVhttp://www.ebay.com/itm/81stgeneration-Abalone-Shell-Natural-Blue-Paua-Mosaic-Resin-Ring-/381977182034?var=&epid=872343458&hash=item58ef9d3f52:m:msSWOsVjjy6_hjNR9Cz9NkQ
p10
aVhttp://www.ebay.com/itm/Designer-Abalone-Paua-Shell-Fancy-Hook-Earrings-in-925-Sterling-Silver-/252814215362?hash=item3adce6c8c2:g:zlUAAOSwTM5Ytkg0
p11
aVhttp://www.ebay.com/itm/UNIQUE-Abalone-Paua-Shell-Pear-Drop-Dangle-Hook-Earrings-in-925-Steling-Silver-/252814188066?hash=item3adce65e22:g:EsgAAOSwOgdYyVjA
p12
aVhttp://www.ebay.com/itm/Handmade-ABALONE-Shell-Gemstone-CROSS-Pendant-in-925-Sterling-Silver-New-/252814236052?hash=item3adce71994:g:dbEAAOSw4A5Yupx5
p13
aVhttp://www.ebay.com/itm/Authentic-Bali-Abalone-Shell-Paua-Hook-Earrings-in-925-Sterling-Silver-/252814188052?hash=item3adce65e14:g:AooAAOSw2gxYyVe2
p14
aVhttp://www.ebay.com/itm/Abalone-Paua-Shell-Pear-Drop-Dangle-Hook-Earrings-in-925-Sterling-Silver-/252814188059?hash=item3adce65e1b:g:o1EAAOSwCU1YyVi1
p15
aVhttp://www.ebay.com/itm/ABALONE-pendant-NECKLACE-EARRINGS-SET-glass-bead-SILVER-PLATED-KC-enamel-paua-/161292071224?hash=item258dc1b138:g:31kAAOxyHIlTYnM-
p16
aVhttp://www.ebay.com/itm/Abalone-Paua-Shell-Inlay-LEAF-Pendant-in-925-Solid-Sterling-Silver-65-mm-/252814236072?hash=item3adce719a8:g:NlsAAOSwax5YuQiZ
p17
aVhttp://www.ebay.com/itm/Handcrafted-Abalone-Shell-Dangle-Earrings-in-925-Sterling-Silver-Bali-Jewellery-/252814272430?hash=item3adce7a7ae:g:~uMAAOSwB-1Ywnd~
p18
aVhttp://www.ebay.com/itm/Authentic-Paua-Abalone-Shell-Dangle-Earrings-in-925-Sterling-Silver-37x14-/252814188049?hash=item3adce65e11:g:5w0AAOSwdGFYyVf9
p19
aVhttp://www.ebay.com/itm/Designer-Bali-Abalone-Paua-Shell-Earrings-in-Solid-925-Sterling-Silver-/252814215360?hash=item3adce6c8c0:g:pVgAAOSwdGFYtk2E
p20
aVhttp://www.ebay.com/itm/Butterfly-Pendant-Necklace-Abalone-Shell-Silver-18-inch-45cm-FREE-Gift-Box-/272732178268?hash=item3f801ac75c:g:tpIAAOSwKytZLXaS
p21
aVhttp://www.ebay.com/itm/ABALONE-SHELL-Butterfly-Pendant-On-Sterling-Silver-Necklace-Inc-Free-P-P-/292084685745?hash=item44019a9bb1:g:HUwAAOSwAO9ZUGDV
p22
aVhttp://www.ebay.com/itm/ABALONE-SHELL-SUNFLOWER-Pendant-On-Sterling-Silver-Necklace-Inc-Free-P-P-/291986083036?hash=item43fbba0cdc:g:A7kAAOSwbtVZUGA2
p23
aVhttp://www.ebay.com/itm/Abalone-Shell-New-Zealand-Paua-Pear-Drop-Dangle-Earrings-in-925-Steling-Silver-/252814188060?hash=item3adce65e1c:g:MX0AAOSwXYtYyVjQ
p24
aVhttp://www.ebay.com/itm/Tree-of-Life-Natural-Abalone-Sterling-Silver-Pendant-147AB-/282463943497?epid=844510866&hash=item41c429bb49:g:eYcAAOSww9xZDfGH
p25
aVhttp://www.ebay.com/itm/Teardrop-Pendant-Necklace-Abalone-Paua-Shell-Silver-18-inch-FREE-Gift-Box-/272649106566?hash=item3f7b273486:g:kXwAAOSwXY5ZU8~k
p26
aVhttp://www.ebay.com/itm/Handmade-ABALONE-Shell-Marquise-Dangle-Earrings-in-925-Steling-Silver-/252814215369?hash=item3adce6c8c9:g:JAgAAOSwx6pYtj5j
p27
aVhttp://www.ebay.com/itm/Abalone-Paua-Shell-Pendants-Sun-Charm-Silver-Necklace-21-inch-Chain-and-Gift-Bag-/171787174147?epid=695434922&hash=item27ff504103:g:z9cAAOSwpDdVUjO0
p28
aVhttp://www.ebay.com/itm/Abalone-paua-shell-earrings-Oblong-Green-purple-Sterling-silver-925-/141379008759?hash=item20ead878f7:g:T~EAAOSwt6ZWWaKv
p29
aVhttp://www.ebay.com/itm/BellaMira-Abalone-Paua-Shell-Zebra-Silver-Pendant-Necklace-Jewellery-Gift-Box-/162197987309?epid=706463669&hash=item25c3c0dfed:g:UB0AAOSwsW9Ywt0I
p30
aVhttp://www.ebay.com/itm/Handcrafted-Abalone-Shell-with-Heart-Dangle-Hook-Earrings-in-925-Sterling-Silver-/252814188067?epid=1556905960&hash=item3adce65e23:g:JywAAOSwWxNYtikM
p31
aVhttp://www.ebay.com/itm/Abalone-Paua-Shell-Silver-Hummingbird-Pendant-Necklace-Jewellery-by-BellaMira-/162076190020?epid=1766531142&hash=item25bc7e6544:g:5WYAAOSwfVpYwtKK
p32
aVhttp://www.ebay.com/itm/Dream-Catcher-Paua-Shell-Pendant-Chain-Necklace-18-TIDE-abalone-Gift-Box-/222493031057?hash=item33cd9e3a91:g:8h4AAOSw-3FZBPny
p33
aVhttp://www.ebay.com/itm/Round-Stud-Earrings-Abalone-Paua-Shell-Silver-Plated-10mm-FREE-Gift-Box-/272671097709?hash=item3f7c76c36d:g:QxwAAOSw0hlZFCwa
p34
aVhttp://www.ebay.com/itm/Designer-Inspired-Abalone-Shell-Dangle-Earrings-in-Solid-925-Sterling-Silver-/252814215370?hash=item3adce6c8ca:g:JHQAAOSwhlZYtkAu
p35
aVhttp://www.ebay.com/itm/d-Paua-Abalone-Shell-Inlay-Earrings-Handcrafted-Bali-925-Silver-Jewellery-/252861117778?hash=item3adfb27552:g:lU8AAOSwx2dYKBSw
p36
aVhttp://www.ebay.com/itm/Abalone-Pearl-Sun-Pendant-Necklace-/251392404083?var=&hash=item3a8827aa73:m:mBrNndtmGVNxIZpQE8w5Stw
p37
aVhttp://www.ebay.com/itm/HANDCRAFTED-Abalone-Paua-Shell-Oval-Dangle-Hook-Earrings-in-925-Steling-Silver-/252814188051?hash=item3adce65e13:g:RAIAAOSwx6pYtZES
p38
aVhttp://www.ebay.com/itm/Resin-Abalone-paua-shell-Necklace-Pendent-All-hand-made-in-Bali-/351751347045?hash=item51e6039b65:g:cJYAAOSwpDdVeVEV
p39
aVhttp://www.ebay.com/itm/Paua-Abalone-Shell-Inlay-Earrings-Handcrafted-Bali-925-Silver-Silver-Jewellery-/252861123137?hash=item3adfb28a41:g:hPAAAOSwXyVYKBQn
p40
aVhttp://www.ebay.com/itm/Abalone-Paua-Shell-Cross-Pendant-Necklace-/252332503593?epid=1463084316&hash=item3ac0307229:g:guYAAOSwdU1W9VQF
p41
aVhttp://www.ebay.com/itm/Abalone-Shell-Costume-Jewellery-Earring-925-Silver-Overlay-DA117-/302113582141?hash=item46575f6c3d:g:u-kAAOSwHMJYCWh0
p42
aVhttp://www.ebay.com/itm/Yellow-Turquoise-Blue-Abalone-Shell-Crystal-Statement-Necklace-/201584363058?hash=item2eef5d4632:g:SNgAAOSw-YBXF~Ux
p43
aVhttp://www.ebay.com/itm/Sterling-Silver-925-Round-Blue-Green-Abalone-Shell-Stud-Earrings-/302329090022?hash=item466437cfe6:g:fmwAAOSw9GhYkgiB
p44
aVhttp://www.ebay.com/itm/Abalone-shell-earrings-Blue-green-Paua-Iridescent-Sterling-silver-/141684820718?hash=item20fd12caee:g:0C4AAOSwZd1VcFDQ
p45
aVhttp://www.ebay.com/itm/BellaMira-Silver-Abalone-Heart-Crystal-Pendant-Necklace-With-Natural-Paua-Shell-/162434951661?epid=685813434&hash=item25d1e0a9ed:g:hgwAAOSwzgBYy-c3
p46
aVhttp://www.ebay.com/itm/Cat-Kitty-Earrings-Abalone-Paua-Shell-Silver-Plated-23mm-Drop-FREE-Gift-Box-/272732253284?epid=1782240634&hash=item3f801bec64:g:f8MAAOSw7GRZCJmv
p47
aVhttp://www.ebay.com/itm/Dragonfly-and-Abalone-Paua-Shell-Long-Necklace-Each-Unique-/121654985658?hash=item1c5333c3ba:g:DHsAAOSwZjJU~uqK
p48
aVhttp://www.ebay.com/itm/GREEN-ABALONE-paua-shell-QUALITY-NECKLACE-black-leather-BIG-PENDANT-gold-tone-/162103845888?hash=item25be246400:g:3YUAAOSw-nZTmumN
p49
aVhttp://www.ebay.com/itm/Abalone-Shell-And-Cats-Eye-Stones-Pendant-Necklace-/322338631468?hash=item4b0ce12f2c:g:ArcAAOSwo4pYNrt9
p50
aVhttp://www.ebay.com/itm/RRP-24-BIG-paua-ABALONE-SHELL-pendant-NECKLACE-black-leather-GOLD-PLATED-boho-/141294610056?hash=item20e5d0a688:g:3PcAAOxy3yNTfMmL
p51
aVhttp://www.ebay.com/itm/BellaMira-Abalone-Paua-Shell-Bracelet-Bangle-Earrings-Jewellery-Gift-Boxed-/162441921178?var=&hash=item25d24b029a:m:mWCUO741K3uYfVASHsxyQZA
p52
aVhttp://www.ebay.com/itm/BellaMira-Abalone-Paua-Shell-Giraffe-Silver-Pendant-Necklace-Jewellery-Gift-Box-/162197997199?epid=706463669&hash=item25c3c1068f:g:uTgAAOSwfVpYwtEP
p53
aVhttp://www.ebay.com/itm/Designer-ABALONE-SHELL-Dangle-Hook-Earrings-in-925-Sterling-Silver-/252814236057?epid=1556905960&hash=item3adce71999:g:b5cAAOSw~AVYuQBW
p54
aVhttp://www.ebay.com/itm/BellaMira-Abalone-Paua-Shell-Tree-of-Life-Silver-Pendant-Necklace-Earrings-Boxed-/162398478704?var=&hash=item25cfb42170:m:mzuwOtLQPM6pG5g6quvREVQ
p55
aVhttp://www.ebay.com/itm/Resin-Abalone-paua-shell-Necklace-Pendent-/252542420744?hash=item3accb38708:g:IEEAAOSwZtJW~Pk3
p56
aVhttp://www.ebay.com/itm/Necklace-Pendant-Silver-Abalone-Shell-Black-Cord-Surf-Boho-Bohemian-Tribal-N1043-/272029609348?epid=1463356959&hash=item3f563a6d84:g:AqAAAOSwl9BWMM89
p57
aVhttp://www.ebay.com/itm/Butterfly-Pendant-Necklace-Abalone-Paua-Shell-Silver-18-inch-45cm-FREE-Gift-Box-/272649102123?hash=item3f7b27232b:g:ONUAAOSw6YtZUPEc
p58
aVhttp://www.ebay.com/itm/Sterling-Silver-925-Tear-Drop-Abalone-Shell-Stud-Earrings-/292153921690?hash=item4405bb109a:g:GxkAAOSwRXRZREdG
p59
aVhttp://www.ebay.com/itm/BellaMira-Lotus-Flower-Abalone-Paua-Shell-Pendant-Necklace-Jewellery-Gift-Box-/162153958665?hash=item25c1210d09:g:C00AAOSwax5YwtP8
p60
aVhttp://www.ebay.com/itm/GOLD-SILVER-POLISHED-fashion-EARRINGS-triangle-AZTEC-paua-GREEN-ABALONE-SHELL-/131227088409?var=&hash=item1e8dbe7619:m:mNj-2ZJC9HfKS4PcYrl1yoA
p61
aVhttp://www.ebay.com/itm/Abalone-And-Coral-Shell-Heart-Pendant-Necklace-/322330418064?hash=item4b0c63db90:g:UE4AAOSwHMJYLKYq
p62
aVhttp://www.ebay.com/itm/Abalone-Fan-Silver-Plated-Lagenlook-Bib-Necklace-Feminine-/121236073343?hash=item1c3a3bab7f:m:mIIqOitg-MUl9WZLJt-sFAA
p63
aVhttp://www.ebay.com/itm/Resin-Abalone-paua-shell-Necklace-Pendent-/351842609199?hash=item51eb74282f:g:vi4AAOSwAvJW~QEE
p64
aVhttp://www.ebay.com/itm/Abalone-Pearl-Flower-and-Butterfly-Pendant-Necklace-/251392401949?var=&hash=item3a8827a21d:m:mX7uNiciul6PG4U1FbeZidw
p65
aVhttp://www.ebay.com/itm/I-LOVE-YOU-TO-THE-MOON-AND-BACK-Abalone-Moon-Necklace-Card-/151419984433?hash=item2341559a31:g:laIAAOSwv1RUZfNE
p66
aVhttp://www.ebay.com/itm/Genuine-Rare-Red-Paua-Abalone-Shell-Adjustable-Ring-Size-M-P-in-Gift-Box-/361688697609?hash=item5436538b09:g:-~kAAOSwSlBYyqCi
p67
aVhttp://www.ebay.com/itm/Genuine-Rare-Blue-Paua-Abalone-Shell-Adjustable-Ring-Size-M-P-in-Gift-Box-/361688699059?hash=item54365390b3:g:TvwAAOSwSlBYyqMB
p68
aVhttp://www.ebay.com/itm/I-LOVE-YOU-TO-THE-MOON-AND-BACK-Abalone-Moon-Necklace-Card-/151419984433?hash=item2341559a31:g:laIAAOSwv1RUZfNE
p69
aVhttp://www.ebay.com/itm/Genuine-Rare-Red-Paua-Abalone-Shell-Adjustable-Ring-Size-M-P-in-Gift-Box-/361688697609?hash=item5436538b09:g:-~kAAOSwSlBYyqCi
p70
aVhttp://www.ebay.com/itm/Abalone-And-Coral-Shell-Tear-Drop-Pendant-Necklace-/322330421451?hash=item4b0c63e8cb:g:c6sAAOSwB09YLKY3
p71
aVhttp://www.ebay.com/itm/Abalone-Shell-Fancy-Trillion-28x23-Dangle-Hook-Earrings-in-925-Sterling-Silver-/252814215352?epid=1556905960&hash=item3adce6c8b8:g:QJgAAOSw32lYtlAO
p72
aVhttp://www.ebay.com/itm/BellaMira-Horse-Equestrian-Abalone-Paua-Shell-Silver-Pendant-Necklace-18-Chain-/162165146191?epid=706463669&hash=item25c1cbc24f:g:Y9EAAOSwnF9Y7Jv~
p73
aVhttp://www.ebay.com/itm/PAUA-SHELL-abalone-NECKLACE-EARRINGS-SET-round-pendant-CLIP-ON-HOOKS-silver-pl-/371331044731?var=&hash=item56750e157b:m:mFeQ_JsZeAvPVJBgah0G_Fw
p74
aVhttp://www.ebay.com/itm/Resin-Abalone-paua-shell-Necklace-Pendent-/351842609209?hash=item51eb742839:g:dlwAAOSwA3dYPZe1
p75
aVhttp://www.ebay.com/itm/Blue-Butterfly-Pendant-Necklace-Abalone-Shell-Silver-18-inch-45cm-FREE-Gift-Box-/272732090311?hash=item3f80196fc7:g:yTkAAOSwcgNZCKT1
p76
a.