(lp1
Vhttp://www.ebay.com/itm/The-Slave-Next-Door-Human-Trafficking-and-Slavery-in-America-Today-by-Kevin-/231849016340?epid=93051380&hash=item35fb473c14:g:AVoAAOSw14xXFQEu
p2
aVhttp://www.ebay.com/itm/Trafficking-Powell-Book-1-by-MR-Bill-Ward-9781507865422-Paperback-2015-/252242943670?epid=212714956&hash=item3abad9deb6:g:ISYAAOSwGotWkAQA
p3
aVhttp://www.ebay.com/itm/Human-Trafficking-DVD-2005-VERY-GOOD-CONDITION-REGION-2-UK-FAST-POST-/272363591617?epid=62877372&hash=item3f6a2297c1:g:MtgAAOSwA4dWLrAO
p4
aVhttp://www.ebay.com/itm/Craig-Fairbrass-FREIGHT-2010-British-Human-Trafficking-Crime-Thriller-UK-DVD-/361916708749?epid=102202026&hash=item5443eab78d:g:KhwAAOSwB-1YtsBT
p5
aVhttp://www.ebay.com/itm/TRAFFICKING-OF-WOMEN-CHHILDREN-COMMONWEALTH-SECRETA-Paperback-New-Book-Free-UK-/222275688619?epid=1706171372&hash=item33c0a9d8ab:g:AV4AAOSwYIxX-eI4
p6
aVhttp://www.ebay.com/itm/Rachel-Weisz-THE-WHISTLEBLOWER-2011-True-Life-Sex-Trafficking-Drama-UK-DVD-/221316273937?epid=102250108&hash=item33877a5711:g:AxoAAOSwnHZYbq3i
p7
aVhttp://www.ebay.com/itm/Slavery-Inc-The-Untold-Story-of-International-Sex-Trafficking-NEW-by-Lydia-Cacho-/252488962681?epid=115928491&hash=item3ac983d279:g:yXkAAOSwt7ZXpDqm
p8
a.