(lp1
Vhttp://www.ebay.com/itm/Personalised-Handmade-70th-Wedding-Anniversary-Card-Platinum-Seventieth-/182544857930?epid=809074383&hash=item2a80857b4a:g:zGIAAOSw5UZY~ywU
p2
aVhttp://www.ebay.com/itm/70th-birthday-mug-a-custom-gift-for-seventieth-birthday-with-personalized-name-/201975725001?hash=item2f06b0fbc9:g:f-0AAOSwB-1YvBGj
p3
aVhttp://www.ebay.com/itm/Happy-Birthday-Flag-70th-celebration-Small-Hand-Waving-decoration-seventieth-/321925848851?hash=item4af4469f13:g:NFwAAOSwkZhWTtri
p4
aVhttp://www.ebay.com/itm/70-YEARS-OLD-ALL-I-GOT-LOUSY-T-SHIRT-Funny-Seventieth-Birthday-Gift-Cotton-Dad-/121865171296?var=&hash=item1c5fbaf160:m:miRy9F1bw5XnsyUjQu-n5Ng
p5
aVhttp://www.ebay.com/itm/70th-birthday-mug-a-custom-gift-for-seventieth-birthday-with-personalized-name-/201975763647?hash=item2f06b192bf:g:8PkAAOSwSlBYvAV8
p6
aVhttp://www.ebay.com/itm/SEVENTY-Gold-Glitter-Cake-Topper-Birthday-Party-70-70th-Seventieth-/252827108568?epid=27003182291&hash=item3addab84d8:g:LM0AAOSw~AVYm79u
p7
aVhttp://www.ebay.com/itm/70th-BIRTHDAY-WORD-ART-UNIQUE-PERSONALISED-GIFT-FOR-SEVENTIETH-BIRTHDAY-70-j-/281454708168?var=&hash=item41880205c8:m:mHv3gFm7ezPtBtueqJe-L_Q
p8
aVhttp://www.ebay.com/itm/70th-birthday-mug-a-custom-gift-for-seventieth-birthday-/201979514098?hash=item2f06eaccf2:g:f64AAOSwol5Yv~rm
p9
aVhttp://www.ebay.com/itm/70th-Birthday-Gift-Family-Fun-Seventieth-Card-Game-For-Adults-and-Party-Gifts-/201314925979?epid=1837490773&hash=item2edf4dfd9b:g:TF8AAOSwv0tVEGvm
p10
aVhttp://www.ebay.com/itm/70th-Happy-Birthday-Table-Small-Flag-and-Base-Seventy-Seventieth-Decoration-/162443243431?epid=1840238875&hash=item25d25f2fa7:g:~gMAAOSwmgJY1RXy
p11
aVhttp://www.ebay.com/itm/70th-BIRTHDAY-CARD-Happy-Seventieth-Birthday-Lovely-Happy-GREETINGS-Card-/262806197687?hash=item3d307855b7:g:SMkAAOSwnHZYeNKA
p12
aVhttp://www.ebay.com/itm/8m-Birthday-Celebration-Party-Partyware-Garland-Holographic-Bunting-Decoration-/201290882175?var=&hash=item2edddf1c7f:m:mvVYs4VflHx8R1kvuDnh__A
p13
aVhttp://www.ebay.com/itm/70-MPH-Road-Sign-Mens-Black-SOCKS-70th-Seventieth-Seventy-Present-Gift-Idea-/161293359292?epid=1288527697&hash=item258dd558bc:g:UxAAAOxy2CZTY9T2
p14
aVhttp://www.ebay.com/itm/Holy-Mackerel-Anniversary-Greeting-Card-70-70th-Seventieth-Years-Platinum-/182319049261?hash=item2a730fea2d:g:vK4AAOSwpLNYBk4A
p15
aVhttp://www.ebay.com/itm/15mm-Happy-Birthday-Ribbon-Celebration-Special-Occasion-Shabby-Chic-Taff-/301010974226?var=&hash=item4615a6f612:m:mI7e5fJ3SVkgYydreX2mroQ
p16
aVhttp://www.ebay.com/itm/IiE-Mens-70th-Birthday-T-Shirt-Est-1947-Vintage-Seventieth-70-years-Gift-/261402130787?var=&hash=item3cdcc7f963:m:mT1hCk7Qhl92jyIVv9Cdqlg
p17
a.