(lp1
Vhttp://www.ebay.com/itm/CARDFIGHT-VANGUARD-CARD-CHAIN-BATTLE-STAR-VADER-TECHNETIUM-G-BT03-084EN-C-/321803488904?var=&hash=item4aecfb8e88:m:mknjS1_5BOU56vAcMvzPJsA
p2
aVhttp://www.ebay.com/itm/Scientific-Printed-Decorative-Mug-Featuring-Element-Symbol-043-Tc-Technetium-/300850376220?epid=1788374308&hash=item460c146e1c:g:yLAAAOxy~iJQ~VVe
p3
aVhttp://www.ebay.com/itm/Cardfight-Vanguard-G-BT03-Link-Joker-common-set-4-of-each-card-/111822802227?hash=item1a09288d33:g:d3IAAOSwIwhWRROI
p4
aVhttp://www.ebay.com/itm/Rhenium-metal-ingot-100g-99-99-PURE-element-Electron-Beam-Melted-/263074941541?hash=item3d407d0a65:g:BjYAAOSwRgJXjj5W
p5
aVhttp://www.ebay.com/itm/Various-Artists-Dubstep-Onslaught-CD-2011-/291779677510?epid=1608127753&hash=item43ef6c8d46:g:B6YAAOSwLEtYkfib
p6
aVhttp://www.ebay.com/itm/110g-Niobium-Metal-Cylinders-99-99-Pure-/263074939306?hash=item3d407d01aa:g:--sAAOSwF1dUS7mG
p7
aVhttp://www.ebay.com/itm/Various-Artists-Dubstep-Monsters-Mixed-By-Bar9-CD-NEW-/401219916143?epid=1622001977&hash=item5d6a92116f:g:7FcAAOSw44BYHJgB
p8
aVhttp://www.ebay.com/itm/Various-Artists-Dubstep-Monsters-Mixed-By-Bar9-CD-2013-/302037374233?epid=1622001977&hash=item4652d49519:g:O50AAOSw44BYkUNP
p9
a.