(lp1
Vhttp://www.ebay.com/itm/EHEIM-SKIM-350-Compact-Surface-Skimmer-Only-5-watts-Aquarium-3536340-/191085652574?epid=1505456763&hash=item2c7d97aa5e:g:PvgAAOxyfpJSWpFN
p2
aVhttp://www.ebay.com/itm/NEW-MARSHALLTOWN-Plastering-PERMAFLEX-Stainless-Steel-Finishing-Trowel-13-18-/371832988656?var=&epid=2111714548&hash=item5692f923f0:m:mfQjAmp5aRL_TOkjMqPeSaA
p3
aVhttp://www.ebay.com/itm/EHEIM-7445848-COMPACT-300-600-1000-PUMPS-SKIM-350-SUCTION-CUPS-AQUARIUM-/191266117177?hash=item2c88595639:m:mT9PxecZQ_sszNEhqGlx0Mg
p4
aVhttp://www.ebay.com/itm/SM041-OCEAN-FREE-AQUARIUM-FISH-TANK-NANOSKIM-PROTEIN-SKIMMER-NANO-SKIM-MARINE-/360922180245?epid=1088560412&hash=item5408a36a95:g:UzQAAOxyeglTYkJ8
p5
aVhttp://www.ebay.com/itm/AQUA-MEDIC-EVO-INTERNAL-PROTEIN-SKIMMER-MARINE-REEF-AQUARIUM-FISH-TANK-SUMP-SKIM-/401018705366?var=&epid=1743673470&hash=item5d5e93d5d6:m:mLi4YJVJjONkT4Yof1oiwng
p6
aVhttp://www.ebay.com/itm/JUWEL-AQUARIUM-SEASKIM-MARINE-PROTEIN-REEF-FISH-TANK-SKIMMER-ECCOFLOW-PUMP-SKIM-/400903780365?epid=1737844611&hash=item5d57ba380d:g:tGEAAOSw5h5ZcJYR
p7
aVhttp://www.ebay.com/itm/EHEIM-3535000-SURFACE-SKIMMER-EXTERNAL-FISH-TANK-FILTER-AQUARIUM-SKIM-STRAINER-/400667790202?epid=1610312685&hash=item5d49a94b7a:g:CI4AAOSwpHlZb0SD
p8
aVhttp://www.ebay.com/itm/EHEIM-SURFACE-SKIMMER-REEF-FISH-TANK-FILTER-AQUARIUM-SKIM-STRAINER-3535000-/232142841068?epid=1610312685&hash=item360ccaa4ec:g:aXEAAOSwcUBYKNqo
p9
aVhttp://www.ebay.com/itm/Ocean-Free-Aquarium-Surfclear-Surface-Skimmer-Fish-Tank-Filter-Marine-Reef-Skim-/361033650466?var=&hash=item540f485122:m:mP5QCbww024OjY1VE_x30ww
p10
aVhttp://www.ebay.com/itm/Plasterers-Skim-Plastering-Plaster-Straight-Featheredge-Bevelled-6-1-2ft-200cm-/281847333651?epid=1272473193&hash=item419f690313:g:ce4AAOSwB4NWwc0d
p11
aVhttp://www.ebay.com/itm/Eheim-Skim-350-Marine-Reef-Aquarium-Skimmer-Fish-Tank-Surface-3536340-/232309040990?epid=1505456763&hash=item3616b2a75e:g:nNsAAOSwcLxYJ6DW
p12
aVhttp://www.ebay.com/itm/Peter-Lynn-Skim-Kitesurf-Trainer-2017-Three-Line-Power-Kite-With-Water-Relaunch-/131913859141?var=&epid=1680921101&hash=item1eb6adc045:m:mT-MT9okM4ryjy4BvITx6dw
p13
aVhttp://www.ebay.com/itm/EHEIM-SKIM-350-Compact-Surface-Skimmer-Only-5-watts-Aquarium-3536340-/112370329802?epid=1505456763&hash=item1a29cb28ca:g:i58AAOSwpP9Y8KVr
p14
aVhttp://www.ebay.com/itm/Foster-Grant-Skim-Pol-Sunglasses-Blue-Unisex-RRP-22-50-/292186556970?epid=1570996347&hash=item4407ad0a2a:g:pzgAAOSwEBxZbTlU
p15
a.