(lp1
Vhttp://www.ebay.com/itm/heat-vacuum-sealer-packer-PTFE-zone-Teflon-tape-15-16-15-per-mtr-/272771158569?hash=item3f826d9229:m:mkr4aIyA0Y0g-6QeJTaP0zw
p2
aVhttp://www.ebay.com/itm/Finish-Line-Teflon-Grease-100g-Tube-/162598822057?var=&epid=1108802920&hash=item25dba520a9:m:mv40orePqp7GORTgzNnuC8w
p3
aVhttp://www.ebay.com/itm/PTFE-Teflon-Pillows-4-Sizes-Eliminate-Indentations-Buy-Full-set-Free-Sheet-/182677062713?var=&hash=item2a8866c439:m:mpwfeG6cgrrRoI4DDio-iDQ
p4
aVhttp://www.ebay.com/itm/PTFE-WATER-Plumbing-Tape-for-Thread-Seal-White-Teflon-Tape-12mm-wide-12m-L-/332310175620?epid=570057135&hash=item4d5f3adf84:g:pBkAAOSwWTRWzHUf
p5
aVhttp://www.ebay.com/itm/2-x-PTFE-WATER-Plumbing-Tape-for-Thread-Seal-White-Teflon-Tape-12mm-wide-12m-L-/332310174920?epid=16003531300&hash=item4d5f3adcc8:g:pBkAAOSwWTRWzHUf
p6
aVhttp://www.ebay.com/itm/PTFE-Tape-GAS-Tape-for-Thread-Seal-White-Teflon-Tape-12mm-wide-5m-Long-/232415900685?hash=item361d11340d:g:rywAAOSwUuFWzHZp
p7
aVhttp://www.ebay.com/itm/2-Pack-PTFE-Tape-Gas-Water-Tape-for-Thread-Seal-White-Teflon-Tape-1-of-each-/232415900662?hash=item361d1133f6:g:80MAAOSwPc9Wzxic
p8
aVhttp://www.ebay.com/itm/2-x-PTFE-Tape-GAS-Tape-for-Thread-Seal-White-Teflon-Tape-12mm-wide-5m-L-/332310174837?epid=556623581&hash=item4d5f3adc75:g:rywAAOSwUuFWzHZp
p9
aVhttp://www.ebay.com/itm/PTFE-WATER-Plumbing-Tape-for-Thread-Seal-White-Teflon-Tape-12mm-wide-12m-L-/332310175620?epid=570057135&hash=item4d5f3adf84:g:pBkAAOSwWTRWzHUf
p10
aVhttp://www.ebay.com/itm/2-x-PTFE-WATER-Plumbing-Tape-for-Thread-Seal-White-Teflon-Tape-12mm-wide-12m-L-/332310174920?epid=16003531300&hash=item4d5f3adcc8:g:pBkAAOSwWTRWzHUf
p11
aVhttp://www.ebay.com/itm/PTFE-Tape-GAS-Tape-for-Thread-Seal-White-Teflon-Tape-12mm-wide-5m-Long-/232415900685?hash=item361d11340d:g:rywAAOSwUuFWzHZp
p12
aVhttp://www.ebay.com/itm/2-Pack-PTFE-Tape-Gas-Water-Tape-for-Thread-Seal-White-Teflon-Tape-1-of-each-/232415900662?hash=item361d1133f6:g:80MAAOSwPc9Wzxic
p13
aVhttp://www.ebay.com/itm/2-x-PTFE-Tape-GAS-Tape-for-Thread-Seal-White-Teflon-Tape-12mm-wide-5m-L-/332310174837?epid=556623581&hash=item4d5f3adc75:g:rywAAOSwUuFWzHZp
p14
aVhttp://www.ebay.com/itm/Teflon-Don-Reggaeton-21-My-Mixtape-Mixfriends-/112486572797?hash=item1a30b8e2fd:g:fBcAAOSwfR1ZblE9
p15
aVhttp://www.ebay.com/itm/heat-vacuum-sealer-packer-PTFE-self-adhesive-Teflon-tape-50-x-0-08mm-per-mtr-/282576581939?hash=item41cae07533:m:miTgijQAx8TL5Jmh2jKUdgA
p16
aVhttp://www.ebay.com/itm/5-X-GREEN-WIDE-GAPE-TEFLON-HOOKS-CARP-HAIR-RIGS-SIZE-8-6-12mm-boilie-screw-/292187205509?var=&hash=item4407b6ef85:m:mP6gvS9r_RPQEHBUs7Tk6tQ
p17
aVhttp://www.ebay.com/itm/5-CARP-HAIR-RIGS-PROFESSIONAL-SERIES-TEFLON-HOOKS-VARIOUS-SIZES-FISHING-/302387319804?var=&hash=item4667b053fc:m:mh9kwKwf7po9qiW_KjGIjVA
p18
aVhttp://www.ebay.com/itm/5-TEFLON-SZ-8-BARBLESS-HOOK-ANTI-EJECT-CARP-HAIR-RIGS-/292187205503?hash=item4407b6ef7f:m:m50VSVL58VGxxlfVvWa0KJg
p19
aVhttp://www.ebay.com/itm/5-X-GREEN-WIDE-GAPE-HOOKS-BOILIE-SPIKE-TEFLON-HOOKS-CARP-HAIR-RIGS-NEW-ON-EBAY-/292187205499?var=&hash=item4407b6ef7b:m:m6jfBAHUWiCWsackwRVnfmQ
p20
aVhttp://www.ebay.com/itm/5-X-BLOWBACK-RIGS-WITH-BOILIE-SPIKE-TEFLON-HOOKS-CARP-HAIR-RIGS-/292187205502?var=&hash=item4407b6ef7e:m:mi4WBdTK7FiuRobgTx85qtA
p21
aVhttp://www.ebay.com/itm/Two-Pack-Girls-White-Polo-Shirts-for-5-6-Yrs-by-F-F-with-Stain-Repellent-Teflon-/172784206010?hash=item283abdc0ba:g:a-cAAOSwa~hZZKx6
p22
aVhttp://www.ebay.com/itm/FAKE-GRUB-MAGGOT-HAIR-RIG-CARP-CHOICE-TEFLON-HOOKS-20LB-BRAID-/122602860364?var=&hash=item1c8bb32f4c:m:mdm8HwnSfriAYCbL7Ye2UxQ
p23
aVhttp://www.ebay.com/itm/BOYS-BLACK-SCHOOL-UNIFORM-BLAZER-37-Chest-TEFLON-NEW-16-99-/122602384363?hash=item1c8babebeb:g:dc4AAOSwWkJY86yb
p24
aVhttp://www.ebay.com/itm/CRYPTO-PEERLESS-C28-POTATO-PEELER-TEFLON-MOTOR-PINION-GEAR-5-8TH-SHAFT-/253048867557?hash=item3aeae34ae5:g:IfMAAOSw-K9ZEZQI
p25
aVhttp://www.ebay.com/itm/New-tesco-f-f-Size-13-14-Boys-Grey-Pleat-Trousers-Teflon-Shiled-Clean-/222583837724?hash=item33d307d41c:g:P-MAAOSwuq9Za7J2
p26
aVhttp://www.ebay.com/itm/TEFLON-COATED-MATT-BLACK-CURVED-SHANK-CARP-FISHING-HOOKS-BARBED-AND-BARBLESS-/263091495837?var=&hash=item3d4179a39d:m:mDH3OXkcail3a35Ory75PBg
p27
aVhttp://www.ebay.com/itm/BNWT-GIRLS-BLACK-2-PACK-SCHOOL-TROUSERS-TEFLON-COATED-TOP-CLASS-AGES-7-15-YEAR-/401366836399?var=&hash=item5d7353e4af:m:mZsP07qmUnFZwpJjyxPqDeQ
p28
aVhttp://www.ebay.com/itm/Alfa-Romeo-Spider-Electric-Roof-Motor-Replacement-Gear-95-06-Alpha-TEFLON-/282573703138?hash=item41cab487e2:g:b64AAOSw-CpX-5wi
p29
aVhttp://www.ebay.com/itm/Alfa-Romeo-Spider-Electric-Roof-Motor-Replacement-Gear-95-06-Alpha-TEFLON-/282573703138?hash=item41cab487e2:g:b64AAOSw-CpX-5wi
p30
aVhttp://www.ebay.com/itm/2-x-UNIVERSAL-Teflon-Oven-Cooker-Liner-Non-Stick-Heavy-Duty-Lining-40-x-50-cm-/263090525375?epid=5003063019&hash=item3d416ad4bf:g:VGcAAOSw-ldZarf6
p31
aVhttp://www.ebay.com/itm/Heat-SeaIer-Impulse-Sealer-8-200MM-Wire-Teflon-Strip-BUY-2-GET-1-FREE-/112482865358?hash=item1a308050ce:g:4A4AAOxySOlR~SEY
p32
aVhttp://www.ebay.com/itm/CLARKS-Inner-Gear-Cable-Teflon-Coated-2275mm-/222582704720?hash=item33d2f68a50:g:NS8AAOSwhvFZL~TW
p33
aVhttp://www.ebay.com/itm/Boys-2-Pack-Pure-Cotton-Polo-Shirts-with-Teflon-Shield-Clean-Age-5-/222582644158?hash=item33d2f59dbe:g:PhYAAOSwSypY~Kd3
p34
aVhttp://www.ebay.com/itm/Boys-2-Pack-Pure-Cotton-Polo-Shirts-with-Teflon-Shield-Clean-Age-8-/222582641405?hash=item33d2f592fd:g:PhYAAOSwSypY~Kd3
p35
aVhttp://www.ebay.com/itm/2-OFF-CLARKS-TEFLON-COATED-PRE-STRETCHED-GEAR-INNER-CABLES-NOS-Part-No-W6021-/192247839267?hash=item2cc2dd3a23:g:wtQAAOSwmgJY8N44
p36
aVhttp://www.ebay.com/itm/Teflon-coated-Pt100-temperature-sensor-/263088071387?hash=item3d414562db:g:cmkAAOSwWdZZaICD
p37
aVhttp://www.ebay.com/itm/HEAT-PRESS-SHEETS-33-X-40-CM-Teflon-Reusable-Mugs-Gifts-PCB-Free-P-P-/263087412105?var=&hash=item3d413b5389:m:mR1CkMq2g0zuxB08PbTpOyg
p38
aVhttp://www.ebay.com/itm/GIRLS-SCHOOL-PLAYSUIT-GREY-7-8-8-9-9-10-10-11-11-12yrs-bnwt-Teflon-coated-/292182200754?hash=item44076a91b2:g:inAAAOSwTY9ZZ9XB
p39
aVhttp://www.ebay.com/itm/HEAT-PRESS-SHEETS-33-X-40-CM-Teflon-Reusable-Sublim-Mugs-Gifts-PCB-Free-P-P-/263086456825?var=&hash=item3d412cbff9:m:mlL76H6zYVR2-tjQh_QZ90Q
p40
aVhttp://www.ebay.com/itm/TEFLON-MATT-BLACK-KWIK-LOK-QUICK-CHANGE-SWIVELS-SIZE-8-FITS-SAFETY-CLIP-/232407351169?var=&hash=item361c8ebf81:m:mh_2_ZJPUORmA2LThVWJwWA
p41
aVhttp://www.ebay.com/itm/heat-vacuum-sealer-packer-PTFE-self-adhesive-Teflon-tape-50-x-0-13mm-15m-roll-/272759408545?hash=item3f81ba47a1:m:miTgijQAx8TL5Jmh2jKUdgA
p42
aVhttp://www.ebay.com/itm/heat-vacuum-sealer-packer-PTFE-non-adhesive-Teflon-tape-40-x-0-13mm-15m-roll-/272759408552?hash=item3f81ba47a8:m:mFI-jUwWT2sP8XzouBSsPkA
p43
aVhttp://www.ebay.com/itm/heat-vacuum-sealer-packer-PTFE-non-adhesive-Teflon-tape-60-x-0-13mm-per-mtr-/272759408555?hash=item3f81ba47ab:m:mFI-jUwWT2sP8XzouBSsPkA
p44
aVhttp://www.ebay.com/itm/heat-vacuum-sealer-packer-PTFE-self-adhesive-Teflon-tape-15-x-0-15mm-15m-roll-/272759408533?hash=item3f81ba4795:m:mP_gAxf93swJwmhAFt06Jhw
p45
aVhttp://www.ebay.com/itm/heat-vacuum-sealer-packer-PTFE-self-adhesive-Teflon-tape-50-x-0-15mm-per-mtr-/282568750445?hash=item41ca68f56d:m:miTgijQAx8TL5Jmh2jKUdgA
p46
aVhttp://www.ebay.com/itm/heat-vacuum-sealer-packer-PTFE-self-adhesive-Teflon-tape-15-x-0-15mm-30m-roll-/282568750434?hash=item41ca68f562:m:mP_gAxf93swJwmhAFt06Jhw
p47
aVhttp://www.ebay.com/itm/Motamec-AN4-AN-4-PTFE-Teflon-Stainless-Steel-Braided-Fuel-Hose-1m-Race-Rally-/232406704173?epid=14005168165&hash=item361c84e02d:g:H28AAOSwEAtZZhk1&vxp=mtr
p48
aVhttp://www.ebay.com/itm/Motamec-AN-JIC-6-AN6-90-Degree-Swivel-Teflon-PTFE-Hose-Fitting-End-Alloy-Fuel-O-/382161898474?hash=item58fa9fcbea:g:vm0AAOSwcx5ZZhj~&vxp=mtr
p49
aVhttp://www.ebay.com/itm/Motamec-AN-JIC-6-AN6-Straight-Teflon-PTFE-Hose-Fitting-End-Alloy-Fuel-Oil-Aeroq-/292180586911?epid=24005163567&hash=item440751f19f:g:ozwAAOSwidlZZhj3&vxp=mtr
p50
aVhttp://www.ebay.com/itm/Motamec-AN-JIC-3-AN3-Straight-Teflon-PTFE-Hose-Fitting-End-Alloy-Fuel-Oil-Aeroq-/232406703343?hash=item361c84dcef:g:N20AAOSwUFtZZhjw&vxp=mtr
p51
aVhttp://www.ebay.com/itm/Grill-Bbq-Mat-Non-Stick-Matt-Reusable-Cooking-Mats-Set-Oven-Liner-Teflon-Miracle-/302380894087?var=&hash=item46674e4787:m:mAzPzwVeSeboC4zNUySi21w
p52
aVhttp://www.ebay.com/itm/UK-BBQ-Grill-Mats-Sheets-Set-of-2-Teflon-Non-Stick-Oven-Liner-Baking-Cooking-Mat-/182663703616?epid=875292441&hash=item2a879aec40:g:mn8AAOSwfJJZZIJV
p53
aVhttp://www.ebay.com/itm/PTFE-Teflon-Tube-2mm-ID-x-4mm-OD-1-Metre-/162587166500?hash=item25daf34724:g:rMIAAOSwpINZZL4p
p54
aVhttp://www.ebay.com/itm/4-x-Teflon-bake-sheets-40-x-50-cm-/263083175408?hash=item3d40faadf0:g:q8YAAOSwhilZZK4H
p55
aVhttp://www.ebay.com/itm/10mm-x-10m-x-10thou-Self-Adhesive-PTFE-Glass-Woven-Tape-Teflon-Sale-Low-Prices-/253038518490?hash=item3aea4560da:g:BjEAAOSwepJXZWrZ
p56
aVhttp://www.ebay.com/itm/SAN-ROSA-MENS-TROUSERS-54in-WAIST-31in-LEG-TEFLON-COATED-FREE-UK-POSTAGE-/332299102618?hash=item4d5e91e99a:g:xUQAAOSw5cNYb6GF
p57
aVhttp://www.ebay.com/itm/4-x-UNIVERSAL-Teflon-Gas-Hob-Silver-Liner-Non-Stick-Lining-Easy-Clean-Protector-/263081090686?hash=item3d40dade7e:g:ALwAAOSwfJJZY0-s
p58
aVhttp://www.ebay.com/itm/TEFLON-MATT-BLACK-KWIK-LOK-QUICK-CHANGE-SWIVELS-SIZE-11-CARP-BARBEL-FISHING-/232402976703?var=&hash=item361c4bffbf:m:mpG7NLQWt4gmqUWPAB3N4wA
p59
aVhttp://www.ebay.com/itm/BIG-EYE-HELICOPTER-CHOD-SWIVELS-SIZE-8-TEFLON-MATT-BLACK-/263079761604?var=&hash=item3d40c696c4:m:mx-Kzmx9iZwS_78YtD-ohPQ
p60
aVhttp://www.ebay.com/itm/Senzo-Outer-Throttle-Cable-Teflon-Lined-Blue-1-5M-UK-KART-STORE-/362033344113?hash=item544ade6e71:g:cdkAAOSwjHdZYf6f
p61
aVhttp://www.ebay.com/itm/Ronnie-Rig-x-10-Teflon-Coated-Curve-shank-Barbless-Bait-Screw-Shrink-tube-Rigs-/192241717142?hash=item2cc27fcf96:g:NjEAAOSwWiBY~P8I
p62
a.