(lp1
Vhttp://www.ebay.com/itm/TALON-FOLDING-WADING-STAFF-/391690883043?hash=item5b32988fe3:g:ZMoAAMXQRPRTIt1Z
p2
aVhttp://www.ebay.com/itm/TALON-CATAPULT-FREE-SAME-DAY-FIRST-CLASS-POST-/331104972138?epid=1155318803&hash=item4d1764ed6a:g:LZQAAOxyVLNS0WlO
p3
aVhttp://www.ebay.com/itm/TALON-FILLETING-UNHOOKING-BUTCHERS-FILLET-GLOVE-/390610571625?epid=1355339972&hash=item5af2345169:g:610AAOxyeR9TIt1~
p4
aVhttp://www.ebay.com/itm/1000-SIZE-2-TALON-ROLLING-SWIVELS-FREE-UK-DELIVERY-/390620015870?epid=1112712366&hash=item5af2c46cfe:g:-usAAOSwXY5ZO76e
p5
aVhttp://www.ebay.com/itm/CARD-OF-60-TALON-STAINLESS-STEEL-WIRE-TRACES-PERCH-PIKE-/390985831536?epid=1955258239&hash=item5b08925470:g:NEAAAOSwg3FUdKTV
p6
aVhttp://www.ebay.com/itm/TALON-10G-20g-28G-TOBY-TOBIES-SPOON-PIKE-SALMON-TROUT-LURE-WITH-2-SPLIT-RINGS-/331041308370?var=&hash=item4d13997ed2:m:mCVSFDglfTzc5qekbeIeK7Q
p7
aVhttp://www.ebay.com/itm/Honda-CR-125-R-2002-2007-TALON-BILLET-EVO-WHEELS-Front-21-Rear-19-RED-BLACK-/271428491042?hash=item3f32661722:g:S7cAAOxydgZTKGPe&vxp=mtr
p8
aVhttp://www.ebay.com/itm/Inov8-X-Talon-212-Unisex-Water-Resistant-Trail-Running-Road-Sports-Shoes-/282219864224?var=&epid=1475610951&hash=item41b59d60a0:m:m2NXAGBEKenzbWO8FX71GUg
p9
aVhttp://www.ebay.com/itm/Gardner-Tackle-Covert-Dark-Hooks-Full-Range-Carp-Barbel-Tench-Coarse-Fishing-/172311942419?var=&epid=1680917164&hash=item281e979513:m:mVP_iwZNwsQJQs7O7UE71MA
p10
aVhttp://www.ebay.com/itm/500-METER-SPOOL-OF-TALON-SUPER-FINE-BAIT-ELASTIC-/290947035059?epid=1155318299&hash=item43bdcb6fb3:m:mXtovtK5-i-6Vt4BELY7Fzw
p11
aVhttp://www.ebay.com/itm/2-x-15mm-NEW-BLACK-TALON-RADIATOR-PIPE-COLLARS-COVER-FREE-UK-DELIVERY-/122403388540?epid=1841209994&hash=item1c7fcf7c7c:g:Mj4AAOSwhQhYzVVP
p12
aVhttp://www.ebay.com/itm/TALON-BLACK-QUICK-RELEASE-CONNECTOR-PACKS-OF-1-2-3-OR-10-/390744090391?var=&hash=item5afa29a717:m:m4dGKNSdy9lGhMWCu_CRVcQ
p13
aVhttp://www.ebay.com/itm/Rogue-The-Talon-Saga-Book-2-Talon-Saga-2-/361847180183?epid=213132154&hash=item543fc5cb97:g:ezkAAOSwnHZYRtTe
p14
aVhttp://www.ebay.com/itm/Inov8-X-Talon-200-Unisex-Trail-Water-Resistant-Running-Sports-Shoes-Pumps-/282135806102?var=&epid=1275661432&hash=item41b09ac096:m:m_27uT3AHhSjFtuIOuWI27Q
p15
aVhttp://www.ebay.com/itm/CLAW-talon-FINGER-TIP-RING-long-nails-GOTH-silver-gold-black-PUNK-CLAWS-rock-/130652112618?var=&hash=item1e6b7906ea:m:mj2LQjghz2mBXHNiV9DpPsQ
p16
aVhttp://www.ebay.com/itm/TREBLE-HOOKS-PACKS-OF-10-100-OR-1000-SIZES-18-TO-2-FOR-PIKE-SEA-FISHING-TALON-/291599414927?var=&hash=item43e4adf68f:m:mCGeA5WvmO_jyQ9AkOr2gqg
p17
aVhttp://www.ebay.com/itm/Kawasaki-KXF-250-2006-2017-TALON-BILLET-EVO-WHEELS-Front-21-Rear-19-BLUE-BLACK-/281289067203?hash=item417e228ac3:g:A7YAAOxyUgtTKGKT&vxp=mtr
p18
aVhttp://www.ebay.com/itm/Aaron-Dembski-Bowden-TALON-OF-HORUS-1st-PB-MINT-Warhammer-40K-Black-Legion-Bk-1-/371868055036?hash=item56951035fc:g:QHwAAOSwx6pYpIR9
p19
aVhttp://www.ebay.com/itm/x2-Talon-Snappit-Radiator-Pipe-Covers-Collars-15mm-Anthracite-Grey-/122600174801?epid=7005472679&hash=item1c8b8a34d1:g:b9gAAOSwd3dZafLe
p20
aVhttp://www.ebay.com/itm/KTM-250-EXC-F-2003-2017-TALON-BILLET-EVO-WHEELS-Front-21-Rear-18-ORANGE-BLACK-/271428592757?hash=item3f3267a475:g:nF8AAOxydgZTKGcG&vxp=mtr
p21
aVhttp://www.ebay.com/itm/TALON-R50-94840-WET-DRY-FLY-TYING-HOOK-SIZES-8-12-16-IN-PKS-OF-100-500-1000-/290681773875?var=&hash=item43adfbdf33:m:me7YFlXgMmEK3gkHaBlUtjA
p22
aVhttp://www.ebay.com/itm/DC-COMICS-DESIGNER-SERIES-TALON-GREG-CAPULLO-ACTION-FIGURE-/371697270879?epid=1730467404&hash=item568ae2405f:g:I7gAAOSwuLZY52Ux
p23
aVhttp://www.ebay.com/itm/EAGLE-TALON-NATIVE-BLACK-BUFFALO-HORN-PENDANT-40-MM-1-5-INCHES-/291669765981?hash=item43e8df6f5d:g:~tEAAOSwuYVWpoMx
p24
aVhttp://www.ebay.com/itm/1000-SIZE-6-TALON-ROLLING-SWIVELS-FREE-UK-DELIVERY-/290940398807?epid=1355340009&hash=item43bd662cd7:g:vD8AAMXQ1d1TJXXe
p25
aVhttp://www.ebay.com/itm/Inov8-X-Talon-190-Fell-and-Cross-Country-Running-Shoes-Blue-Black-Yellow-/111636448094?var=&epid=1742076689&hash=item19fe0d035e:m:mwHGiXvDlUIsZ3ODFwV8lWA
p26
aVhttp://www.ebay.com/itm/Inov8-X-Talon-200-STANDARD-FIT-Red-Black-/112334941438?var=&epid=2131178052&hash=item1a27af2cfe:m:mo3h5opiQ9CAHsL6OhCZmJg
p27
aVhttp://www.ebay.com/itm/Inov-8-X-Talon-212-K-Fell-Junior-Blue-Orange-Trail-Running-Sports-Shoes-/272332632781?var=&epid=1841118578&hash=item3f684a32cd:m:mnewhl_bBpBoF5vXX6Hi26g
p28
aVhttp://www.ebay.com/itm/Suzuki-DRZ-400-Z-E-S-SM-2000-2017-TALON-BILLET-ACR-21-18-Wheels-Var-Colour-/281932099361?epid=1157823998&hash=item41a4766f21:g:AagAAOxyoVZTKGRa&vxp=mtr
p29
aVhttp://www.ebay.com/itm/TALON-FLY-LINE-DT-or-WF-4-5-6-7-8-9-10-11-or-12-33yd-FLYLINE-BACKING-LOOPS-/390399593423?var=&epid=1155226329&hash=item5ae5a10bcf:m:mk6L89f-CdEWIh6n_viZ3Jw
p30
aVhttp://www.ebay.com/itm/ITALERI-MC-130H-Hercules-Combat-Talon-L-1369-1-72-Aircraft-Model-Kit-/331715508110?epid=1846972878&hash=item4d3bc8f78e:g:8mUAAOSwv-NWUvdr
p31
aVhttp://www.ebay.com/itm/Warhammer-40k-Dark-Angels-Ravenwing-Dark-Talon-Painted-/311132273328?hash=item4870edbab0:g:VZ8AAOSwHnFVnS5I
p32
aVhttp://www.ebay.com/itm/EAGLE-TALON-ANTIQUED-BUFFALO-BONE-PENDANT-40-MM-1-5-INCHES-/291952455559?hash=item43f9b8ef87:g:EO4AAOSwCypWoT0x
p33
aVhttp://www.ebay.com/itm/Talon-Vol-1-Scourge-of-the-Owls-The-New-52-Scott-Snyder-/381791337851?epid=152713967&hash=item58e4897d7b:g:D1gAAOSwzaJX6~Kk
p34
aVhttp://www.ebay.com/itm/2-X-10mm-NEW-CHROME-TALON-RADIATOR-PIPE-COLLARS-COVER-FREE-UK-DELIVERY-/261048889437?epid=1688304966&hash=item3cc7b9f05d:m:mW0fafzzgFZ8xs9Q0rctSQg
p35
aVhttp://www.ebay.com/itm/3pcs-MINI-DRAGON-CLAW-EAR-CUFFS-talon-earcuffs-earrings-PUNK-GOTH-silver-gold-pl-/130758736549?var=&hash=item1e71d3faa5:m:mEyr63JKPN1wIYBF0cEfATA
p36
aVhttp://www.ebay.com/itm/Hommes-Plat-Tennis-Escarpins-Talon-Haut-A-Lacets-Garcon-Decontracte-/192000428969?var=&hash=item2cb41e0ba9:m:mtu7W5RHZsq2MSzDT2q9lww
p37
aVhttp://www.ebay.com/itm/Silver-Talon-Skeleton-Skull-Hand-Finger-Bone-Slave-Bracelet-Ring-Gothic-Punk-/263035272243?hash=item3d3e1fbc33:g:6rcAAOSwT4lWTVK9
p38
aVhttp://www.ebay.com/itm/CHAUSSURE-LIFTS-Haute-Qualite-air-coussin-talon-compense-semelles-/111907498896?hash=item1a0e34eb90:g:xycAAOxy2CZTXpvz
p39
aVhttp://www.ebay.com/itm/Inov8-X-Talon-212-Womens-Running-Sports-Shoes-Trainers-Pumps-Precision-Fit-/271977223021?var=&epid=1541945816&hash=item3f531b136d:m:mbfx9WqgBsDs7IeodlvJtvg
p40
aVhttp://www.ebay.com/itm/TALON-BRONZE-POWER-BAIT-SPRING-DOUGH-TREBLE-HOOKS-size-10-12-or-14-/330699218665?var=&hash=item4cff359ee9:m:mYhPQD7KOD9QW_IplYZm5ng
p41
aVhttp://www.ebay.com/itm/KTM-85-SX-XC-2003-2017-TALON-BILLET-ACR-17-14-SMALL-Wheels-ORANGE-BLACK-/281815977387?hash=item419d8a8dab:g:b1YAAOSw4HVWDqDx&vxp=mtr
p42
aVhttp://www.ebay.com/itm/BRAND-NEW-TALON-FLY-LINE-DT-or-WF-4-5-6-7-8-9-10-11-or-12-FULL-33yd-FLY-LINES-/391371269304?var=&hash=item5b1f8ba4b8:m:mk6L89f-CdEWIh6n_viZ3Jw
p43
aVhttp://www.ebay.com/itm/Official-Talon-woven-patch-Lim-100-Neutralized-NWOBHM-Heavy-Metal-/272756915955?hash=item3f81943ef3:g:y~AAAOSwlXhZY6XX
p44
aVhttp://www.ebay.com/itm/DC-Heroclix-Jokers-Wild-TALON-038-/232163476473?hash=item360e0583f9:g:xjwAAOSw5cNYQ2mf
p45
aVhttp://www.ebay.com/itm/Apothecary-Labels-Slim-Hinged-1oz-Tin-Tobacco-Storage-Choose-Your-Design-/191895512518?var=&hash=item2caddd25c6:m:meCi7PEK05439I78i5wECAQ
p46
aVhttp://www.ebay.com/itm/DC-COMICS-DESIGNER-SERIES-BATMAN-TALON-GREG-CAPULLO-ACTION-FIGURE-COLLECTIBLES-/132035429061?epid=1750183021&hash=item1ebdecc2c5:g:JHoAAOSw-0xYUrm7
p47
aVhttp://www.ebay.com/itm/Superwinch-Talon-9-5SR-12v-Winch-Synthetic-Rope-/121492579244?epid=1844856246&hash=item1c4985a3ac:g:TiAAAOSwK6RZKBvw
p48
aVhttp://www.ebay.com/itm/PACK-OF-2-Talon-Chrome-Plated-15mm-Radiator-Pipe-Collars-Covers-New-Top-Quality-/162570334876?hash=item25d9f2729c:g:MGsAAOSwbtVZWqzT
p49
aVhttp://www.ebay.com/itm/Superwinch-Talon-12-5SR-12v-Winch-Synthetic-Rope-/291301409164?epid=1744992653&hash=item43d2eac18c:g:CR4AAOSwR5dXQ4is
p50
aVhttp://www.ebay.com/itm/3-x-NEW-GARDNER-SIZE-8-BARBED-TALON-TIP-HAIR-RIGS-FOR-CARP-FISHING-/381546487158?epid=624610662&hash=item58d5f15d76:g:HYkAAOSwuAVWwaup
p51
aVhttp://www.ebay.com/itm/New-GasGas-JT-JTX-JTR-TX-TXT-Trials-Chain-with-Talon-Front-Rear-Sprockets-/361980229233?hash=item5447b3f671:g:AgYAAMXQOQdRG2BV
p52
aVhttp://www.ebay.com/itm/Real-Crystal-Diamante-Finger-Talon-Nail-Claw-Ring-Punk-Goth-Luxury-Rhinestone-/132146349682?var=&hash=item1ec4894672:m:mxKKdO3LllA3pxvETrqhBpg
p53
aVhttp://www.ebay.com/itm/Yamaha-YZF-250-2002-2017-TALON-BILLET-EVO-WHEELS-Front-21-Rear-19-BLUE-BLACK-/271428567209?hash=item3f326740a9:g:A7YAAOxyUgtTKGKT&vxp=mtr
p54
aVhttp://www.ebay.com/itm/Honda-CR-250-R-2002-2007-TALON-BILLET-EVO-WHEELS-Front-21-Rear-19-RED-BLACK-/271437409305?hash=item3f32ee2c19:g:q3EAAOxyeR9TKGQi&vxp=mtr
p55
aVhttp://www.ebay.com/itm/TALON-REAR-SPROCKET-IN-BLUE-KTM-50-2003-2013-/172327730249?var=&hash=item281f887c49:m:mLHW97H9JzZB9pE7caE5QnQ
p56
aVhttp://www.ebay.com/itm/TALON-SALMON-SINGLE-FLY-TYING-HOOKS-4-6-8-10-12-14-/290489264861?var=&hash=item43a2826add:m:maR9COvHwDnmm9g7OOcxA3Q
p57
aVhttp://www.ebay.com/itm/USAF-NORTHROP-T-38-TALON-Jet-Trainer-Aircraft-Airplane-Mint-Stamp-1-/110774592814?hash=item19caae252e:m:melW-i51GWSvqi0qkqx4PMg
p58
aVhttp://www.ebay.com/itm/TALON-WEIGHT-FORWARD-SINK-TIP-FLY-LINE-TWO-TONE-WF-8-/290940878658?hash=item43bd6d7f42:g:zMYAAMXQDrJR09Lz
p59
aVhttp://www.ebay.com/itm/TALON-2-2-5-BRASS-DEVON-MINNOWS-5-COLORS-AVAILABLE-/331040939270?var=&hash=item4d1393dd06:m:mpG55lwbulRzkkTTezmO7Ow
p60
aVhttp://www.ebay.com/itm/EAGLE-TALON-NATIVE-BUFFALO-BONE-PENDANT-40-CM-1-5-INCHES-/311747366177?hash=item4895974d21:g:S2QAAOSwUV9WpoJD
p61
aVhttp://www.ebay.com/itm/Inov8-X-Talon-212-PRECISION-FIT-Black-Red-/112335829394?var=&epid=508473330&hash=item1a27bcb992:m:mdef6QMPhjP4sWwU4EGcxWA
p62
aVhttp://www.ebay.com/itm/Talon-The-Talon-Saga-Book-1-Julie-Kagawa-/381941159773?epid=209408301&hash=item58ed77975d:g:7hEAAOSw-0xYjCBB
p63
aVhttp://www.ebay.com/itm/1000-SIZE-4-TALON-ROLLING-SWIVELS-FREE-UK-DELIVERY-/330949847641?epid=1155318267&hash=item4d0e25ea59:g:XZkAAOSwSzRZO6SJ
p64
aVhttp://www.ebay.com/itm/The-Front-Bottoms-Talon-Of-The-Hawk-NEW-12-VINYL-LP-/352095912739?epid=1105743979&hash=item51fa8d4323:g:8LkAAOSwLsBZTR2B
p65
aVhttp://www.ebay.com/itm/RAYVEN-TALON-SUMMER-LEATHER-MOTORBIKE-MOTORCYCLE-GLOVES-/290443180108?var=&hash=item439fc3384c:m:mJ532ZmM-YIwBlGpKmRho4w
p66
aVhttp://www.ebay.com/itm/TALON-CLUTCH-BASKET-KX-250-92-05-/321787164939?hash=item4aec02790b:g:hSQAAOSwIBBUbQKd&vxp=mtr
p67
aVhttp://www.ebay.com/itm/Talon-Rear-Sprocket-49T-HONDA-CR-CRF-CRFX-CRM-XR-BLACK-/170860963265?hash=item27c81b65c1:m:m6uH7DJ37Voe8ZX-ATqP2dw&vxp=mtr
p68
aVhttp://www.ebay.com/itm/Inov8-X-Talon-200-Black-Red-Yellow-/122376442198?var=&hash=item1c7e345156:m:mR_QKX6gAZ0DceFlu1xvlCQ
p69
aVhttp://www.ebay.com/itm/3-x-NEW-GARDNER-SIZE-6-BARBED-TALON-TIP-HAIR-RIGS-FOR-CARP-FISHING-/381546486951?epid=624617057&hash=item58d5f15ca7:g:HYkAAOSwuAVWwaup
p70
aVhttp://www.ebay.com/itm/3-x-NEW-GARDNER-SIZE-6-BARBLESS-TALON-TIP-HAIR-RIGS-FOR-CARP-FISHING-/381546486360?epid=624610119&hash=item58d5f15a58:g:HYkAAOSwuAVWwaup
p71
aVhttp://www.ebay.com/itm/3-x-NEW-GARDNER-SIZE-10-BARBED-TALON-TIP-HAIR-RIGS-FOR-CARP-FISHING-/381546487482?epid=627912679&hash=item58d5f15eba:g:HYkAAOSwuAVWwaup
p72
aVhttp://www.ebay.com/itm/3-x-NEW-GARDNER-SIZE-10-BARBED-TALON-TIP-HAIR-RIGS-FOR-CARP-FISHING-/381546487482?epid=627912679&hash=item58d5f15eba:g:HYkAAOSwuAVWwaup
p73
aVhttp://www.ebay.com/itm/TALON-WADER-WADING-BOOT-STUD-KIT-AND-APPLICATOR-/390225474255?epid=1055645999&hash=item5adb4032cf:g:XAsAAOSwwzhZO6Jv
p74
aVhttp://www.ebay.com/itm/KTM-125-SX-2003-2017-TALON-BILLET-EVO-WHEELS-Front-21-Rear-19-ORANGE-BLACK-/281289075300?hash=item417e22aa64:g:nF8AAOxydgZTKGcG&vxp=mtr
p75
aVhttp://www.ebay.com/itm/GARDNER-COVERT-DARK-WIDE-GAPE-TALON-TIP-HOOKS-10pcs-SIZE-6-BARBED-CARP-FISHING-/391381897777?epid=727983234&hash=item5b202dd231:g:jgcAAOSwPc9WujGE
p76
aVhttp://www.ebay.com/itm/3-x-NEW-GARDNER-SIZE-8-BARBLESS-TALON-TIP-HAIR-RIGS-FOR-CARP-FISHING-/281936449094?epid=624602130&hash=item41a4b8ce46:g:HYkAAOSwuAVWwaup
p77
aVhttp://www.ebay.com/itm/GENUINE-Alchemy-Gothic-Pendant-Black-Talon-Mens-Ladies-Alternative-Necklace-/222082929425?hash=item33b52c9311:g:~L4AAOSwbwlXC8vQ
p78
aVhttp://www.ebay.com/itm/Fiore-Juliette-Collant-20-Deniers-Bas-Autofixant-Effet-couture-talon-Motif-/381451703610?var=&hash=item58d04b153a:m:mzwT6Z2Dzp6p9pSLUjZvxWg
p79
aVhttp://www.ebay.com/itm/1-x-Buffalo-Horn-Claw-Pincher-Crescent-Taper-Stretched-Ear-Lobe-Septum-Talon-/231006436295?var=&hash=item35c90e7bc7:m:m0yoE9eshsQlp5l2HfA5ynw
p80
aVhttp://www.ebay.com/itm/Talon-Honda-RS125-Moto3-Honda-NSF250R-GP-Sprocket-Carrier-/332160789378?hash=item4d56536b82:g:~rcAAOSwFMZWq2HZ&vxp=mtr
p81
aVhttp://www.ebay.com/itm/UK-NEW-SILVER-GOLD-DIAMANTE-NAIL-ART-FINGER-TIP-RING-CLAW-TALON-GOTHIC-PUNK-ROCK-/281196340684?var=&hash=item41789ba5cc:m:mq2FktikRg8O1FpM-GhXozQ
p82
aVhttp://www.ebay.com/itm/Jonathan-Aston-Talon-Cubain-Couture-et-talon-Uni-Bas-Autofixant-/391077464163?var=&hash=item5b0e088863:m:mLPTRz2hG6FkTObjD_N7MLA
p83
aVhttp://www.ebay.com/itm/Jonathan-Aston-Talon-Cubain-Couture-et-talon-Uni-Bas-Autofixant-/391077464163?var=&hash=item5b0e088863:m:mLPTRz2hG6FkTObjD_N7MLA
p84
aVhttp://www.ebay.com/itm/3-x-NEW-GARDNER-SIZE-4-BARBED-TALON-TIP-HAIR-RIGS-FOR-CARP-FISHING-/391385748757?hash=item5b20689515:g:HYkAAOSwuAVWwaup
p85
aVhttp://www.ebay.com/itm/22MM-TALON-BLACK-SNAP-IN-OPEN-PIPE-CLIP-BAG-OF-100-/301063130128?epid=1087589774&hash=item4618c2cc10:g:4~MAAOSw-jhUKpmm
p86
aVhttp://www.ebay.com/itm/UK-NEW-SILVER-GOLD-DIAMANTE-NAIL-ART-FINGER-TIP-RING-CLAW-TALON-GOTHIC-PUNK-ROCK-/281196340684?var=&hash=item41789ba5cc:m:mq2FktikRg8O1FpM-GhXozQ
p87
aVhttp://www.ebay.com/itm/Fiore-fonce-Femmes-Faux-Bas-Auto-Fixant-avec-Couture-Talon-/192055895610?var=&epid=2032179071&hash=item2cb76c663a:m:mOAh6_QhHiLa0svj-gaGGHQ
p88
aVhttp://www.ebay.com/itm/Silicone-Gel-Talon-Pad-Avec-Amovible-Spur-/111743652709?var=&hash=item1a0470d365:m:mrC_FpY3nIRlIE-Lzvy7FaA
p89
aVhttp://www.ebay.com/itm/Mens-Shirt-by-Bewley-Ritch-Talon-Long-Sleeved-/391299990583?var=&hash=item5b1b4c0437:m:mb8ZvPIp9TjD-yICF9IV4Qw
p90
aVhttp://www.ebay.com/itm/Yamaha-YZ-125-2002-2017-TALON-BILLET-EVO-WHEELS-Front-21-Rear-19-BLUE-BLACK-/281289072564?hash=item417e229fb4:g:A7YAAOxyUgtTKGKT&vxp=mtr
p91
aVhttp://www.ebay.com/itm/Honda-CRF-250-R-2004-2017-TALON-BILLET-EVO-WHEELS-Front-21-Rear-19-RED-BLACK-/281875213316?hash=item41a1126c04:g:AagAAOxyoVZTKGRa&vxp=mtr
p92
aVhttp://www.ebay.com/itm/The-Talon-of-Horus-The-Black-Legion-by-Aaron-Dembski-Bowden-/162347254336?epid=228941426&hash=item25cca68240:g:13QAAOSwA3dYbnzn
p93
aVhttp://www.ebay.com/itm/GARDNER-COVERT-DARK-WIDE-GAPE-TALON-TIP-HOOKS-10pcs-SIZE-8-BARBED-CARP-FISHING-/281931474255?epid=727979884&hash=item41a46ce54f:g:jgcAAOSwPc9WujGE
p94
aVhttp://www.ebay.com/itm/NEW-MDPE-water-Pipe-hinged-BLACK-BLUE-clip-20mm-25mm-35mm-TALON-PLUMBING-/282367832237?var=&hash=item41be6f30ad:m:mz8nWs_SyrkuF1lKIG1Yldg
p95
aVhttp://www.ebay.com/itm/15MM-TALON-BLACK-SNAP-ON-PIPE-CLIP-BAG-OF-100-/291305051294?epid=1287676534&hash=item43d322549e:g:RQoAAOxyoVZTKMBK
p96
aVhttp://www.ebay.com/itm/10pcs-CLAW-finger-tip-TALON-FINGERTIP-RINGS-long-nails-PUNK-CLAWS-black-GOTH-/140876634616?var=&hash=item20cce6d9f8:m:mGF7UV9p1LKzwgyC0hDpEyA
p97
aVhttp://www.ebay.com/itm/TALON-8-SUPER-DAMSEL-SELECTION-TROUT-FLIES-SDS-/290795298879?epid=1155318121&hash=item43b4c0203f:g:FsIAAOxyUI1TIt1f
p98
a.