(lp0
Vhttp://www.ebay.com/itm/Spikenard-essential-oil-10ml-/122398178393?hash=item1c7f7ffc59:g:0AcAAOSwhQhYxZRt
p1
aVhttp://www.ebay.com/itm/A-Z-of-200-Essential-Oils-FREE-10ml-organic-oil-if-you-spend-20-/162308644901?var=&hash=item25ca596025:m:mJVP8Xzp3_-tWlHnCdnvulw
p2
aVhttp://www.ebay.com/itm/Spikenard-Essential-Oil-10ml-FREE-UK-Delivery-/391474450006?epid=1272860212&hash=item5b25b20e56:g:4sYAAOSwQupXUsI6
p3
aVhttp://www.ebay.com/itm/5ml-Spikenard-Essential-Oil-100-Pure-Dropper-Dispenser-/253030159924?hash=item3ae9c5d634:g:5HUAAOSwOgdYygud
p4
aVhttp://www.ebay.com/itm/Spikenard-Herbal-Infused-Oil-Healing-Calm-meditation-earthy-/311692655072?hash=item48925479e0:g:-l8AAOSwYIxX9h08
p5
aVhttp://www.ebay.com/itm/Dried-herbs-for-wicca-witchcraft-spells-magic-incense-crafts-N-Z-Choice-of-180-/131911244576?var=&hash=item1eb685db20:m:mBU301Nq0die3RvPoH_d5Sg
p6
aVhttp://www.ebay.com/itm/TIBETAN-NEPALESE-INCENSE-STICKS-SANDALWOOD-FRANKINCENSE-NAG-CHAMPA-HERB-FLOWER-/290963181101?var=&hash=item43bec1ce2d:m:mQOn_CEha-X_mMO4wdv1C3Q
p7
aVhttp://www.ebay.com/itm/SANDALWOOD-SPIKENARD-SORCERY-SCENTS-ROLLERBALL-PERFUME-/122305256189?hash=item1c79f61afd:g:IRcAAOSwo4pYNE8U
p8
aVhttp://www.ebay.com/itm/PATCHOULI-SPIKENARD-SORCERY-SCENTS-ROLLERBALL-PERFUME-/112211919713?hash=item1a205a0361:g:oygAAOSwlndZC0g~
p9
aVhttp://www.ebay.com/itm/Pure-Spikenard-Oil-10ml-5-Dilute-Holy-Oil-/110558773760?hash=item19bdd10200:g:aCsAAOxyTjNSfo~f
p10
aVhttp://www.ebay.com/itm/Ancient-Tibetan-Spikenard-Pang-Poe-incense-Prayer-Pooja-30-Stick-Pack-/152553383679?hash=item2384e3e6ff:g:l28AAOSwo4pYNMK1
p11
aVhttp://www.ebay.com/itm/Himalayan-Tibetan-Incense-Sticks-from-Nepal-Hand-Rolled-Authentic-Fragrance-/181746316594?var=&hash=item2a50ecb532:m:mlcsRpoyle-onywnI3n2PsA
p12
aVhttp://www.ebay.com/itm/Pure-Spikenard-Oil-30ml-5-Dilute-Holy-Oil-/400135973313?hash=item5d29f669c1:g:A2AAAOxyzi9SfouG
p13
aVhttp://www.ebay.com/itm/Pure-Spikenard-Oil-5ml-5-Dilute-Holy-Oil-/400135973277?hash=item5d29f6699d:m:mxBiDpU4cTfEg-gQ9trGN_Q
p14
aVhttp://www.ebay.com/itm/Spikenard-Essential-Oil-100-Pure-5ml-EO5SPIK-/320941576140?hash=item4ab99bcfcc:g:4uwAAOSweWVXe4dE
p15
aVhttp://www.ebay.com/itm/Spikenard-Essential-Oil-100-Pure-10ml-EO10SPIK-/320941576337?epid=1413293498&hash=item4ab99bd091:g:5LkAAOSweWVXe4dT
p16
aVhttp://www.ebay.com/itm/Spikenard-Green-Essential-Oil-100-Pure-5ml-EO5SPIKGREE-/322430639104?hash=item4b125d1c00:g:2gMAAOSwWxNYrFuv
p17
aVhttp://www.ebay.com/itm/Spikenard-Essential-Oil-50ml-100-Pure-EO50SPIK-/131651520766?epid=1212714921&hash=item1ea70ac8fe:g:bkMAAOSwEjFXe9gi
p18
aVhttp://www.ebay.com/itm/Spikenard-Essential-Oil-10ml-100-Pure-EO10SPIK-/131651520246?epid=1413293498&hash=item1ea70ac6f6:g:tFIAAOSwOVpXe9JD
p19
a.