(lp1
Vhttp://www.ebay.com/itm/Vintage-War-Poster-Drink-Coaster-Dont-Take-Squander-Bug-When-You-Go-Shopping-/161933164198?epid=1388957923&hash=item25b3f7fea6:g:KNEAAOSwEeFVLlQg
p2
aVhttp://www.ebay.com/itm/Vintage-War-Poster-Fridge-Magnet-Dont-Take-Squander-Bug-When-You-Go-Shopping-/151933436625?epid=1988917073&hash=item235ff042d1:g:4TEAAOSwPhdVFKP5
p3
a.