(lp0
Vhttps://www.amazon.co.uk/Transforming-Primary-Mathematics-Mike-Askew/dp/1138953601/ref=sr_1_1/259-8837619-2906131?ie=UTF8&qid=1500121066&sr=8-1&keywords=askew
p1
aVhttps://www.amazon.co.uk/View-Askew-Silent-Strike-Bluntman/dp/B00RC8N6WC/ref=sr_1_2/259-8837619-2906131?ie=UTF8&qid=1500121066&sr=8-2&keywords=askew
p2
aVhttps://www.amazon.co.uk/d/Toys-Games/View-Askew-Silent-Bluntman-Chronic/B00P4CE3B6/ref=sr_1_3/259-8837619-2906131?ie=UTF8&qid=1500121066&sr=8-3&keywords=askew
p3
aVhttps://www.amazon.co.uk/Maths-Go-101-Ways-Play-x/dp/0224101625/ref=sr_1_4/259-8837619-2906131?ie=UTF8&qid=1500121066&sr=8-4&keywords=askew
p4
aVhttps://www.amazon.co.uk/Queen-Victoria-Joy-Askew/dp/B072L46LB9/ref=sr_1_5/259-8837619-2906131?ie=UTF8&qid=1500121066&sr=8-5&keywords=askew
p5
aVhttps://www.amazon.co.uk/Black-Coffee/dp/B072WF5JMD/ref=sr_1_6/259-8837619-2906131?ie=UTF8&qid=1500121066&sr=8-6&keywords=askew
p6
aVhttps://www.amazon.co.uk/Hansel-Gretel-Storytime-Classics-Amanda/dp/1848354886/ref=sr_1_7/259-8837619-2906131?ie=UTF8&qid=1500121066&sr=8-7&keywords=askew
p7
aVhttps://www.amazon.co.uk/Askew-View-Films-Kevin-Smith/dp/1557835861/ref=sr_1_8/259-8837619-2906131?ie=UTF8&qid=1500121066&sr=8-8&keywords=askew
p8
aVhttps://www.amazon.co.uk/Poppys-Seed-Bethany-Askew-ebook/dp/B01N6SU0EA/ref=sr_1_9/259-8837619-2906131?ie=UTF8&qid=1500121066&sr=8-9&keywords=askew
p9
aVhttps://www.amazon.co.uk/Askew-Family-Crest-Coat-Mouse/dp/B00CGHLSQU/ref=sr_1_10/259-8837619-2906131?ie=UTF8&qid=1500121066&sr=8-10&keywords=askew
p10
aVhttps://www.amazon.co.uk/View-Askew-Silent-Strike-Christ/dp/B00O52T2Z8/ref=sr_1_11/259-8837619-2906131?ie=UTF8&qid=1500121066&sr=8-11&keywords=askew
p11
aVhttps://www.amazon.co.uk/Sterling-Silver-Zirconia-Pendant-Necklace/dp/B0739YRHDT/ref=sr_1_12/259-8837619-2906131?ie=UTF8&qid=1500121066&sr=8-12&keywords=askew
p12
aVhttps://www.amazon.co.uk/Facing-Storm-Eddie-Askew-ebook/dp/B0091GRBQ0/ref=sr_1_13/259-8837619-2906131?ie=UTF8&qid=1500121066&sr=8-13&keywords=askew
p13
aVhttps://www.amazon.co.uk/d/Womens-Watches/Projects-Watch-Tibor-Kalman-Askew/B007N2Y54A/ref=sr_1_14/259-8837619-2906131?ie=UTF8&qid=1500121066&sr=8-14&keywords=askew
p14
aVhttps://www.amazon.co.uk/Vintage-photo-Portrait-Sidney-Askew/dp/B01MEH64J3/ref=sr_1_15/259-8837619-2906131?ie=UTF8&qid=1500121066&sr=8-15&keywords=askew
p15
aVhttps://www.amazon.co.uk/Goldilocks-Three-Bears-Storytime-Classics/dp/184835486X/ref=sr_1_16/259-8837619-2906131?ie=UTF8&qid=1500121066&sr=8-16&keywords=askew
p16
aVhttps://www.amazon.co.uk/Hugginscx-Layers-Askew-Classic-Coffee/dp/B01NAJ2T5N/ref=sr_1_17/259-8837619-2906131?ie=UTF8&qid=1500121068&sr=8-17&keywords=askew
p17
aVhttps://www.amazon.co.uk/d/Indoor-Lighting/q01500-b-ASKEW-Family-Name-Home-Cheers-Light/B009XB1R72/ref=sr_1_18/259-8837619-2906131?ie=UTF8&qid=1500121068&sr=8-18&keywords=askew
p18
aVhttps://www.amazon.co.uk/d/9q9/ccq01500-g-ASKEW-Family-Name-Home-Beer-Coasters/B009PNCD3K/ref=sr_1_19/259-8837619-2906131?ie=UTF8&qid=1500121068&sr=8-19&keywords=askew
p19
aVhttps://www.amazon.co.uk/Torticollis-Children-Philadelphia-Immobilizer-Equipment-x/dp/B072FTS4S9/ref=sr_1_20_a_it/259-8837619-2906131?ie=UTF8&qid=1500121068&sr=8-20&keywords=askew
p20
aVhttps://www.amazon.co.uk/Turistas-Poster-Movie-Italian-11/dp/B003T6DN60/ref=sr_1_21/259-8837619-2906131?ie=UTF8&qid=1500121068&sr=8-21&keywords=askew
p21
aVhttps://www.amazon.co.uk/Air-Earth-Askew-Sisters/dp/B00K58Q04W/ref=sr_1_22/259-8837619-2906131?ie=UTF8&qid=1500121068&sr=8-22&keywords=askew
p22
aVhttps://www.amazon.co.uk/Pirates-Caribbean-Salazars-Revenge-Theatrical/dp/B072LWMHGS/ref=sr_1_23/259-8837619-2906131?ie=UTF8&qid=1500121068&sr=8-23&keywords=askew
p23
aVhttps://www.amazon.co.uk/Green-Berets-VHS-John-Wayne/dp/B00004CJ63/ref=sr_1_24/259-8837619-2906131?ie=UTF8&qid=1500121068&sr=8-24&keywords=askew
p24
aVhttps://www.amazon.co.uk/View-Askew-Jay-Silent-Bob/dp/B00QD77PI4/ref=sr_1_25/259-8837619-2906131?ie=UTF8&qid=1500121068&sr=8-25&keywords=askew
p25
aVhttps://www.amazon.co.uk/d/Figures-Playsets/VIEW-ASKEW-Clerks-Select-Action-Black-White/B00U0KE75E/ref=sr_1_26/259-8837619-2906131?ie=UTF8&qid=1500121068&sr=8-26&keywords=askew
p26
aVhttps://www.amazon.co.uk/d/btu/British-Light-Music-Premieres-Vol-Sutherland-Dods/B0006840RU/ref=sr_1_27/259-8837619-2906131?ie=UTF8&qid=1500121068&sr=8-27&keywords=askew
p27
aVhttps://www.amazon.co.uk/Spotlight-Fact-Network-Licence-Year/dp/0007152868/ref=sr_1_28/259-8837619-2906131?ie=UTF8&qid=1500121068&sr=8-28&keywords=askew
p28
aVhttps://www.amazon.co.uk/d/Handbags-Shoulder-Bags/Canvas-Premium-Printing-Handbags-Briefcases-Fashion-Accessories/B01M13AA3W/ref=sr_1_29/259-8837619-2906131?ie=UTF8&qid=1500121068&sr=8-29&keywords=askew
p29
aVhttps://www.amazon.co.uk/Practical-Guide-Transforming-Primary-Mathematics/dp/0415738458/ref=sr_1_30/259-8837619-2906131?ie=UTF8&qid=1500121068&sr=8-30&keywords=askew
p30
aVhttps://www.amazon.co.uk/Name-Lenny-DVD-Josh-Helman/dp/B06XWGXR3T/ref=sr_1_31/259-8837619-2906131?ie=UTF8&qid=1500121068&sr=8-31&keywords=askew
p31
aVhttps://www.amazon.co.uk/Pykeia-Art-Rectangle-computer-mousepad/dp/B01EST1OHG/ref=sr_1_32/259-8837619-2906131?ie=UTF8&qid=1500121068&sr=8-32&keywords=askew
p32
a.