(lp0
Vhttp://www.ebay.com/itm/Riva-paoletti-Wellesley-duckegg-velvet-chenille-cushion-cover-45cm-/142282841505?epid=1444920651&hash=item2120b7dda1:g:ppsAAOSwWxNYqC7j
p1
aVhttp://www.ebay.com/itm/Kate-Spade-Wellesley-Leaves-Fabric-Hanna-Hycnleaves-100-Genuine-/302062840516?hash=item4654592ac4:g:~ZAAAOSwQupXVv-7
p2
aVhttp://www.ebay.com/itm/Wedgwood-Cream-Ware-Wellesley-Side-or-Tea-Plate-several-available-/381858672694?hash=item58e88cf036:g:TN8AAOSwal5YNZUQ
p3
aVhttp://www.ebay.com/itm/Valom-1-72-Model-Kit-72090-Vickers-Wellesley-Mk-I-African-Campaign-/391490317458?hash=item5b26a42c92:g:3ZcAAOSwnDxUfgwY
p4
aVhttp://www.ebay.com/itm/PAINTING-PORTRAIT-DAWE-ARTHUR-WELLESLEY-1ST-DUKE-WELLINGTON-LARGE-PRINT-LF980-/121786606663?hash=item1c5b0c2447:g:jeUAAOSwo6lWHONU
p5
aVhttp://www.ebay.com/itm/Bronze-Figure-of-Arthur-Wellesley-Duke-of-Wellington-Signed-34cm-High-/351661428642?hash=item51e0a78fa2:g:xssAAOSwBahVUj1q
p6
aVhttp://www.ebay.com/itm/Art-Photo-Print-Lord-Arthur-Wellesley-Duke-Of-Wellington-Thomas-Lawrence1769-/111017262172?var=&hash=item19d924fc5c:m:mb5X_Sbvhu1gPnNWSxrR2Lg
p7
aVhttp://www.ebay.com/itm/Air-International-1980-July-Viggen-Wellesley-Otter-Thailand-Kamov-/401309207024?hash=item5d6fe489f0:g:VjsAAOxyXzxTI0g4
p8
aVhttp://www.ebay.com/itm/Valom-1-72-Model-Kit-72078-Vickers-Wellesley-Mk-I-/331214249707?hash=item4d1de85eeb:g:u6kAAOxyx0JThF2r
p9
aVhttp://www.ebay.com/itm/Pavla-V72013-1-72-Vacform-Canopy-Vickers-Wellesley-Matchbox-/331158090463?epid=2085223053&hash=item4d1a8f72df:g:r1QAAOxyyq5TK8uk
p10
aVhttp://www.ebay.com/itm/Wellington-Portrayed-by-Charles-Wellesley-9781910065129-Hardback-2014-/331780383921?epid=212608151&hash=item4d3fa6e4b1:g:q5MAAOSwKtVWxByF
p11
aVhttp://www.ebay.com/itm/Valom-1-72-Model-Kit-72077-Vickers-Wellesley-Type-292-LRDU-/331214250901?epid=628616294&hash=item4d1de86395:g:xL0AAOxyx0JThF4Z
p12
aVhttp://www.ebay.com/itm/Art-Photo-Print-Lord-Arthur-Wellesley-Duke-Of-Wellington-Thomas-Lawrence1769-/360600921680?var=&hash=item53f57d6650:m:mb5X_Sbvhu1gPnNWSxrR2Lg
p13
aVhttp://www.ebay.com/itm/Slow-Stitch-Claire-Wellesley-Smith-/371968446665?epid=214676325&hash=item569b0c10c9:g:4hAAAOSwYlRZL1jo
p14
aVhttp://www.ebay.com/itm/C4-Porcelain-Noritake-Wellesley-Soup-Bowl-15x5cm-5A1A-/252054018113?hash=item3aaf971841:g:3LEAAOxygPtS78VS
p15
aVhttp://www.ebay.com/itm/A-S-BENNELL-Wellesleys-Settlement-of-Mysore-1799-1952-1st-Ed-/322147359555?hash=item4b017a9b43:g:Q5kAAOSwuxFY1UwI
p16
aVhttp://www.ebay.com/itm/C4-Porcelain-Noritake-Wellesley-Bowl-19x4cm-5A1A-/252054018120?hash=item3aaf971848:g:EEYAAOxyVLNS78Qa
p17
a.