(lp1
Vhttp://www.ebay.com/itm/ECC82-12AU7-TELEFUNKEN-NOS-VALVE-TUBE-/272218187316?epid=650282554&hash=item3f6177e634:g:eEsAAOSwAoRXF15P
p2
aVhttp://www.ebay.com/itm/Matched-Pair-EF806S-NOS-Telefunken-Germany-Valve-Tubes-/112433805231?epid=8002465302&hash=item1a2d93b7af:g:HHwAAOSw0hlZNz3W
p3
aVhttp://www.ebay.com/itm/1x-Platinum-Matched-Pair-ECC88-6DJ8-NOS-Diamond-Bottom-Telefunken-Valve-Tubes-/112193592165?hash=item1a1f425b65:g:AlAAAOSwX~dWkaxE
p4
aVhttp://www.ebay.com/itm/AZ12-TELEFUNKEN-NOS-BOXED-VALVE-TUBE-LC27-/272176167254?epid=652573388&hash=item3f5ef6b956:g:rXIAAOSwHxVW6~As
p5
aVhttp://www.ebay.com/itm/EAM86-TELEFUNKEN-MAGIC-EYE-VALVE-TUBE-NEW-1-PIECE-/263022677207?epid=942996303&hash=item3d3d5f8cd7:g:9wMAAOSwaEhZNnnC
p6
aVhttp://www.ebay.com/itm/PCL82-TELEFUNKEN-NOS-BOXED-/260920377978?hash=item3cc011027a:m:mXgyko5JIOGrld8tSydf5SQ
p7
aVhttp://www.ebay.com/itm/EL83-TELEFUNKEN-1068-NOS-VALVE-TUBE-1-PC-J-/370860240929?epid=1788406520&hash=item5658fe3021:g:bPkAAMXQkN5RC3wT
p8
aVhttp://www.ebay.com/itm/E92CC-TELEFUNKEN-NOS-BOXED-VALVE-TUBE-/261604186185?epid=1988547280&hash=item3ce8d31849:g:9Y8AAOSwRLZUIp~5
p9
aVhttp://www.ebay.com/itm/EM800-TELEFUNKEN-NOS-MAGIC-EYE-VALVE-TUBE-/262832971306?epid=645412802&hash=item3d3210de2a:g:EusAAOSwjDZYkenn
p10
aVhttp://www.ebay.com/itm/UF80-Diamond-Bottomed-NOS-Telefunken-German-Valve-Tubes-/111920116404?epid=647838875&hash=item1a0ef572b4:g:62cAAOSwWTRW04vR
p11
aVhttp://www.ebay.com/itm/E80CF-TELEFUNKEN-NOS-BOXED-VALVE-TUBE-LC46-/272458858100?epid=670594322&hash=item3f6fd03e74:g:0JIAAOSw4GVYNChm
p12
aVhttp://www.ebay.com/itm/UCC85-TELEFUNKEN-NOS-VALVE-TUBE-/261827255994?epid=679940722&hash=item3cf61edeba:g:FskAAOSwrklVFU5K
p13
aVhttp://www.ebay.com/itm/DK96-TELEFUNKEN-NOS-BOXED-VALVE-TUBE-LC46-/272461561087?epid=646425673&hash=item3f6ff97cff:g:Dv8AAOSwj85YNvWn
p14
aVhttp://www.ebay.com/itm/EF80-TELEFUNKEN-NOS-BOXED-/310159765377?hash=item4836f66f81:m:miNqqMMubJpWLhf8Yv0hpiw
p15
aVhttp://www.ebay.com/itm/EF98-TELEFUNKEN-NOS-VALVE-TUBE-/260768098732?epid=625226875&hash=item3cb6fd69ac:m:m1-nMwpe7pHXVMJvT_adxXA
p16
aVhttp://www.ebay.com/itm/EF89-TELEFUNKEN-USED-USED-OLD-STOCK-VALVE-TUBE-J14-/370997905669?hash=item566132c905:g:xIEAAOxyOMdS6n6G
p17
aVhttp://www.ebay.com/itm/Telefunken-DL650-subminiature-pentode-/390715748385?hash=item5af8793021:g:Q7sAAOxyVLNSpdO0
p18
aVhttp://www.ebay.com/itm/Replacement-Remote-Control-for-Telefunken-TE32160B29C10-/112365853937?epid=740184103&hash=item1a2986dcf1:g:BTEAAOSwuLZY63iU
p19
aVhttp://www.ebay.com/itm/6BA6W-TELEFUNKEN-NOS-/310139224613?hash=item4835bd0225:m:mhFWr4ckBesAbFugrhzUmdQ
p20
aVhttp://www.ebay.com/itm/BF470-TELEFUNKEN-TRANSISTOR-X-5PCS-/261201653616?epid=669287369&hash=item3cd0d4ef70:g:WJAAAMXQATlRbA6g
p21
aVhttp://www.ebay.com/itm/Replacement-Remote-Control-for-Telefunken-TE-22880B11-/111657929672?hash=item19ff54cbc8:g:E4YAAOSwqu9VQLPj
p22
aVhttp://www.ebay.com/itm/4pcs-EF85-6BY7-6F19-6F26-Telefunken-Siemens-NOS-German-Valve-Tubes-/111904080603?hash=item1a0e00c2db:g:VtAAAOSwB4NWv45~
p23
aVhttp://www.ebay.com/itm/Replacement-Remote-Control-for-Telefunken-TE32843B16FH-/112445164511?epid=1963007385&hash=item1a2e410bdf:g:MloAAOSwDrNZQ6qG
p24
aVhttp://www.ebay.com/itm/BA479-TELEFUNKEN-DIODE-x-1-PC-/310686209795?epid=652046264&hash=item4856575703:g:LwsAAOxyHntSaTAw
p25
aVhttp://www.ebay.com/itm/Replacement-Remote-Control-for-Telefunken-TE32880N13-TE32880B17-/142416575705?epid=1463786881&hash=item2128b07cd9:g:vgsAAOSwLsBZQ6qC
p26
aVhttp://www.ebay.com/itm/Replacement-Remote-Control-for-Telefunken-TL42PA41-/111657930272?epid=1963216514&hash=item19ff54ce20:g:aqIAAOSwPhdVQLdW
p27
aVhttp://www.ebay.com/itm/Neuware-Telefunken-RC1912-Fernbedienung-Telecommande-/272425939151?epid=526302504&hash=item3f6dd9f0cf:g:dlUAAOSwB09YD1bB
p28
aVhttp://www.ebay.com/itm/Replacement-Remote-Control-for-Telefunken-TE15796B5-/371983553126?hash=item569bf29266:g:6McAAOSwrfVZQ6qB
p29
aVhttp://www.ebay.com/itm/Replacement-Remote-Control-for-Telefunken-TE19910-B17-/111657931714?epid=1463107104&hash=item19ff54d3c2:g:MLIAAOSwPhdVQLU~
p30
aVhttp://www.ebay.com/itm/Replacement-Remote-Control-for-Telefunken-TE19915B17-/371316494976?hash=item5674301280:g:17cAAOSwv0tVQLVw
p31
aVhttp://www.ebay.com/itm/Replacement-Remote-Control-for-Telefunken-TE19880X-N4-/371316496159?epid=1963677608&hash=item567430171f:g:RG8AAOSwPhdVQLYA
p32
aVhttp://www.ebay.com/itm/Replacement-Remote-Control-for-Telefunken-TE26880N13-TE26880B19-TE26880DN9-/112445164778?epid=1463042564&hash=item1a2e410cea:g:jGEAAOSwIjJZQ6qN
p33
aVhttp://www.ebay.com/itm/Replacement-Remote-Control-for-Telefunken-TLD2703-/371316495573?epid=1463033740&hash=item56743014d5:g:A8UAAOSwPgxVQLMA
p34
aVhttp://www.ebay.com/itm/Replacement-Remote-Control-for-Telefunken-TEL2842-TEL2842-TLCDD19-/141652315926?epid=1263107552&hash=item20fb22cf16:g:VqoAAOSwymxVQLLR
p35
aVhttp://www.ebay.com/itm/Replacement-Remote-Control-for-Telefunken-TF32X835LUW-/111657902040?hash=item19ff545fd8:g:f6gAAOSwKtVWzwCT
p36
aVhttp://www.ebay.com/itm/BB105B-BB105-BB105G-2-16pF-varicap-varactor-diodes-NOS-Telefunken-Qty-10-/122092137697?epid=654931738&hash=item1c6d422ce1:g:4VcAAOSwKtlWoiaU
p37
aVhttp://www.ebay.com/itm/Replacement-Remote-Control-for-Telefunken-TE32182B29C10-/141652316984?epid=1763673363&hash=item20fb22d338:g:HjUAAOSwPhdVQLSj
p38
aVhttp://www.ebay.com/itm/Replacement-Remote-Control-for-Telefunken-TE22857-TE22857XN4-TE22857B11-/141652316750?epid=1763145350&hash=item20fb22d24e:g:C0AAAOSwBLlVQLLT
p39
aVhttp://www.ebay.com/itm/Genuine-RC4848-TV-Remote-Control-for-Telefunken-TFL425071B-TFL65300FHDF15-/162550980116?epid=524611057&hash=item25d8cb1e14:g:Pf8AAOSwgv5ZPqEJ
p40
aVhttp://www.ebay.com/itm/Replacement-Remote-Control-for-Telefunken-TE32900B16H-/141652315485?hash=item20fb22cd5d:g:a2YAAOSwymxVQLOY
p41
aVhttp://www.ebay.com/itm/Replacement-Remote-Control-for-Telefunken-TE19857-TE19857X-N4-TE19857-B5-/141652316492?epid=1563667200&hash=item20fb22d14c:g:-VkAAOSwPhdVQLOG
p42
aVhttp://www.ebay.com/itm/BPW83-TELEFUNKEN-PHOTODIODE-NEW-1-PIECE-/272635868945?epid=776948855&hash=item3f7a5d3711:g:wjUAAOSwSypY9hYo
p43
aVhttp://www.ebay.com/itm/TELEFUNKEN-RC5112-Original-Remote-Control-/291671929050?epid=654298754&hash=item43e90070da:g:8iYAAOSwrhBZLYt1
p44
aVhttp://www.ebay.com/itm/Replacement-Remote-Control-for-Telefunken-TLD3702-TLD3703-/141652315937?epid=1763145358&hash=item20fb22cf21:g:sBEAAOSwEeFVQLMJ
p45
aVhttp://www.ebay.com/itm/4x-640-2-7K-NTC-thermistor-2-7k-500mW-5-NTCLE100E3272JB0-VISHAY-TELEFUNKEN-/192226789835?hash=item2cc19c09cb:g:OjgAAOSw6YtZTcyq
p46
aVhttp://www.ebay.com/itm/TBA120S-TELEFUNKEN-14-PIN-DUAL-IN-LINE-4-PIECES-/301700663639?hash=item463ec2c957:g:ZO4AAOSw~gRVuokZ
p47
aVhttp://www.ebay.com/itm/NEW-Genuine-TV-Remote-Control-for-Telefunken-TELORC4875-/182238392259?epid=1681164512&hash=item2a6e412fc3:g:s3gAAOSw9NdXq2Af
p48
a.