(lp1
Vhttp://www.ebay.com/itm/Cane-Creek-Seatpost-Shim-Converter-Adapter-/122318375430?var=&hash=item1c7abe4a06:m:mzwYs9mLdoyZK19tr69M1lw
p2
aVhttp://www.ebay.com/itm/Acor-Alloy-Bike-Seatpost-Shim-Reducer-Black-30-9mm-to-27-2mm-/380993879738?epid=1127915450&hash=item58b5013eba:m:mmsjaVWNjttvMgwODflvVfQ
p3
aVhttp://www.ebay.com/itm/67-0671-67-0672-67-0677-BSA-A7-A10-CRANKSHAFT-SHIM-SET-/401300321274?epid=719014032&hash=item5d6f5cf3fa:g:lwgAAOSwzgBY3iCS&vxp=mtr
p4
aVhttp://www.ebay.com/itm/TRANZ-X-SEATPOST-SHIM-25-4mm-FOR-26-4mm-28-0mm-TAPERED-SADDLE-STEM-SLEEVE-/390862642402?hash=item5b013a9ce2:m:mXZOkCbr4VgBIPBNJlakMuw
p5
aVhttp://www.ebay.com/itm/Kawasaki-13mm-Valve-Shim-Z650-Type-XR69-New-USA-made-Sold-Singularly-Size-235-/272576139793?epid=598577095&hash=item3f76cdd211:g:rZIAAOSwdGFYuYaR&vxp=mtr
p6
aVhttp://www.ebay.com/itm/Kawasaki-Z900-Z1000-titanium-top-retainers-shim-under-type-for-race-use-/252011257567?epid=1431687479&hash=item3aad0a9edf:g:gbMAAOxy4dNS63kL&vxp=mtr
p7
aVhttp://www.ebay.com/itm/Bike-Seatpost-Shim-Various-Sizes-100mm-aluminium-/401200471674?var=&hash=item5d69695e7a:m:mU4GdbbIGjj1cOLnR46BQDg
p8
aVhttp://www.ebay.com/itm/Acor-Seatpost-Shim-Reducer-for-Road-Mountain-Bike-/401260462574?var=&hash=item5d6cfcc1ee:m:mQwmlFvSJLfY9mxv9Cmcv4Q
p9
aVhttp://www.ebay.com/itm/Acor-Seat-Post-Shim-25-0-27-4mm-/181633166920?hash=item2a4a2e2e48:g:W-0AAOSwCGVX2XIN
p10
aVhttp://www.ebay.com/itm/Bicycle-Cycle-Bike-Saddle-Seatpost-Shim-27-2-30-4-25-4-30-8-31-6mm-Aluminium-/291698316732?var=&hash=item43ea9315bc:m:mffSGWK98y1SZXoW2GCfNBA
p11
aVhttp://www.ebay.com/itm/EXTRA-LONG-ALLOY-SEATPOST-SHIM-REDUCER-27-2mm-29-8mm-BICYCLE-SADDLE-STEM-/182659446142?hash=item2a8759f57e:g:SpwAAOxy4eJTMZYl
p12
aVhttp://www.ebay.com/itm/Kawasaki-GPZ1100-titanium-top-retainers-shim-under-type-for-race-use-/252011227619?epid=1031272758&hash=item3aad0a29e3:g:AwsAAOxyRhBS63j6&vxp=mtr
p13
aVhttp://www.ebay.com/itm/Engine-Valve-Shim-9-50mm-Diameter-Size-2-60-Per-5-/281872852280?epid=700176026&hash=item41a0ee6538:g:wgMAAOSwwE5WXhre&vxp=mtr
p14
aVhttp://www.ebay.com/itm/Acor-Seat-Post-Shim-25-0-26-6mm-/181633158693?hash=item2a4a2e0e25:g:hSoAAOSwLF1X2XIx
p15
aVhttp://www.ebay.com/itm/Front-Mech-Derailleur-Adapter-Alloy-Shim-Converter-/112414445766?var=&hash=item1a2c6c50c6:m:mWDsCuh87SySMLWumiWaX9A
p16
aVhttp://www.ebay.com/itm/M-PART-THREADLESS-HEADSET-STEM-1inch-25-4mm-TO-1-1-8inch-28-6mm-SHIM-ADAPTOR-/371995371116?hash=item569ca6e66c:g:ym4AAOSwLVZV02s5
p17
aVhttp://www.ebay.com/itm/ASSORTED-PLASTIC-PACKERS-SHIMS-100-x-43mm-1-10mm-Pack-of-100-/191578504899?var=&hash=item2c9af7fec3:m:mJnP8i3W19d8H0TFqYdvOcQ
p18
aVhttp://www.ebay.com/itm/MOUNTAIN-BIKE-BMX-SEAT-POST-SHIM-27-2-25-4-DIRT-JUMP-FRAME-SIZE-TO-BMX-REDUCER-/252804821334?hash=item3adc577156:g:JAQAAOSwTuJYwUQD
p19
aVhttp://www.ebay.com/itm/RDGTOOLS-3-8-KEYWAY-BROACH-HIGH-SPEED-STEEL-C-SHIM-300MM-LONG-/370916397820?hash=item565c5712fc:g:r08AAOxyVaBS-lHX
p20
aVhttp://www.ebay.com/itm/ALLOY-SEATPOST-SHIM-REDUCER-27-2mm-28-6mm-BICYCLE-SADDLE-STEM-ALLOY-SLEEVE-/391842248474?hash=item5b3b9e371a:g:BY4AAOxyCGNTMZXW
p21
aVhttp://www.ebay.com/itm/New-Hotcams-9-48mm-Shim-Kit-1-20-3-50-Valve-Shims-YZF-CRF-KXF-DRZ-/192232388762?hash=item2cc1f1789a:g:aPwAAOSw~gRVpsEs
p22
aVhttp://www.ebay.com/itm/Acor-Seat-Post-Shim-25-0-27-8mm-/131396657150?hash=item1e97d9dffe:g:yh8AAOSw8gVX2Tfb
p23
aVhttp://www.ebay.com/itm/TIMco-SHIM-Assorted-Plastic-Shims-Packers-1-6mm-Pack-of-200-/112262733671?epid=1828582824&hash=item1a23615f67:g:1V4AAOSwZQRYcpN0
p24
aVhttp://www.ebay.com/itm/Alloy-Ahead-Handlebar-Stem-Shim-Reducer-1-1-8-to-1-28-6mm-to-25-4mm-/360637510026?hash=item53f7abb18a:g:qGcAAOxyBvZTWQNj
p25
aVhttp://www.ebay.com/itm/Handlebar-shim-converts-25-4mm-bars-to-fit-31-8mm-oversized-stem-/201835912829?hash=item2efe5b9e7d:g:3ZoAAOxyVLNS5koi
p26
aVhttp://www.ebay.com/itm/CS70-SPRING-STEEL-SHIM-STRIP-4MM-X-0-25MM-X-150MM-ANNEALED-10-OFF-/391827676435?hash=item5b3abfdd13:g:Gq0AAOSwTM5YxDup
p27
aVhttp://www.ebay.com/itm/316-STAINLESS-STEEL-SHIM-STRIP-10-MM-X-0-5-MM-X-300-MM-1-2-HARD-3-OFF-/391825193349?hash=item5b3a99f985:g:oi4AAOSwuxFYvDLo
p28
aVhttp://www.ebay.com/itm/Steel-Shim-Washers-0-3mm-0-5mm-Depth-Classic-Auto-Motorbike-Marine-/281759292224?var=&hash=item419a299b40:m:mJodCFVD8ctLJ-DGmEKNpjA
p29
aVhttp://www.ebay.com/itm/Velo-Orange-Handlebar-Shim-25-4-to-26-0mm-dia-stainless-steel-45mm-wide-HB-0023-/191846797651?epid=1023120421&hash=item2caaf5d153:g:IYUAAOSwDN1URMWG
p30
aVhttp://www.ebay.com/itm/Alloy-Ahead-Bicycle-Handlebar-Shim-Fit-1-18-Stem-to-1-Steerer-/201989973311?hash=item2f078a653f:g:19wAAOSw3v5YtIx9
p31
aVhttp://www.ebay.com/itm/New-Hotcams-8-90mm-Shim-Kit-1-72-2-60-Valve-Shims-KTM-SXF-SX-F-/192232375838?hash=item2cc1f1461e:g:aPwAAOSw~gRVpsEs
p32
aVhttp://www.ebay.com/itm/Velo-Orange-Handlebar-Shims-31-8mm-to-25-4mm-or-26-0mm-/201403823806?var=&hash=item2ee49a76be:m:mI9oaw0g-TVgJs00tjQWAEw
p33
aVhttp://www.ebay.com/itm/Acor-Seat-Post-Shim-27-2-31-6mm-/131396598020?hash=item1e97d8f904:g:6Y8AAOSwAuZX2Tjq
p34
aVhttp://www.ebay.com/itm/Shim-Ring-washers-0-1mm-thick-Steel-din1624-8mm-to-25mm-Super-deals-m8-to-m25-/331859036840?var=&hash=item4d44570aa8:m:mggtK5U94I4JO_M_RMHxj5A
p35
aVhttp://www.ebay.com/itm/Shim-Ring-washers-2mm-thick-Steel-din988-2-00mm-thick-shims-whs-12mm-to-62mm-/332118865838?var=&hash=item4d53d3b7ae:m:mggtK5U94I4JO_M_RMHxj5A
p36
aVhttp://www.ebay.com/itm/New-10mm-Hotcams-Valve-Shim-Kit-KTM-450-530-690-990-EXC-Motocross-/401181442799?epid=719381368&hash=item5d684702ef:g:Y2IAAOSwPgxVP6As
p37
aVhttp://www.ebay.com/itm/Acor-Alloy-Silver-Seatpost-Shim-25-2-27-2-/142241903791?hash=item211e4734af:g:P~4AAOSw9GhYdlS1
p38
aVhttp://www.ebay.com/itm/HANDLEBAR-SHIM-22-2-25-4-26-0-31-8-reducer-stem-bar-/300499146534?var=&hash=item45f7251726:m:m1RRey5H9duE6c0H7lJmbDA
p39
aVhttp://www.ebay.com/itm/25-4mm-Handlebar-Aadaptor-Reducer-Shim-For-31-8mm-Mount-Clamp-Garmin-Edge-/331501983072?epid=588166358&hash=item4d2f0ed560:g:Gu0AAOSwPYZU8POc
p40
aVhttp://www.ebay.com/itm/Shimano-Front-Derailleur-Clamp-Shim-Adapter-Reducer-34-9-to-31-8-/262980351928?hash=item3d3ad9b7b8:g:izEAAOSwY3BZFLOT
p41
aVhttp://www.ebay.com/itm/NITTO-HANDLEBAR-SHIM-25-4mm-to-26-0mm-track-fixed-bar-/380308785151?hash=item588c2b87ff:m:mR3KybhNv-ccUZWhhoMXXmg
p42
aVhttp://www.ebay.com/itm/Roksan-1mm-Shim-Kit-for-TMS3-Xerxes-X-Xerxes-/112020636799?epid=1473056654&hash=item1a14f3447f:g:5b4AAOSwnFZXVx0F
p43
aVhttp://www.ebay.com/itm/22-2mm-Handlebar-Aadaptor-Reducer-Shim-For-31-8mm-Mount-Clamp-Garmin-Edge-/322528041933?hash=item4b182b5bcd:g:Gu0AAOSwPYZU8POc
p44
aVhttp://www.ebay.com/itm/Shim-Ring-washers-0-25mm-thick-Steel-din1624-8mm-to-60mm-ID-m8-to-m60-/231949742333?var=&hash=item36014830fd:m:mggtK5U94I4JO_M_RMHxj5A
p45
aVhttp://www.ebay.com/itm/Gentetic-Handlebar-Stem-Shims-Converters-31-8mm-to-Smaller-Bar-/122474851313?var=&hash=item1c8411ebf1:m:mqoejuyXe0qLnQwHqkVQRpg
p46
aVhttp://www.ebay.com/itm/NEW-1x-Genuine-Suzuki-Jimny-Kingpin-SHIM-SHIMS-for-Wheel-Wobble-Swivel-Hub-/262927237502?epid=651668642&hash=item3d37af417e:g:wJMAAOSwpP9Y51uy&vxp=mtr
p47
aVhttp://www.ebay.com/itm/Alloy-Ahead-Handlebar-Bike-Stem-Shim-Reducer-1-1-8-to-1-28-6mm-to-25-4mm-/192149645696?hash=item2cbd02e980:g:5sEAAMXQEgpTEGwJ
p48
aVhttp://www.ebay.com/itm/Stainless-a4-marine-grade-steel-Shim-Ring-washers-din988-/232004228791?var=&hash=item36048796b7:m:mggtK5U94I4JO_M_RMHxj5A
p49
aVhttp://www.ebay.com/itm/Kyosho-8-x-12-x-0-2mm-Shim-Set-5pcs-K-96773-/272599045106?epid=1444642206&hash=item3f782b53f2:g:DqEAAOSwTuJYoiLk
p50
aVhttp://www.ebay.com/itm/YZF-RMZ-KXF-7-48-mm-VALVE-shim-kit-1-20-to-3-50-/352095915727?hash=item51fa8d4ecf:g:bSQAAOSw-29ZTRxO
p51
aVhttp://www.ebay.com/itm/ASSORTED-100-x-43mm-PLASTIC-PAILS-PACKERS-SHIMS-1-10mm-Pack-of-100-/401137182256?hash=item5d65a3a630:g:HT8AAOxyTkJSTXxM
p52
aVhttp://www.ebay.com/itm/USE-Alloy-Bike-Seatpost-Shim-Black-25-0-to-26-8-/142129879425?hash=item211799d981:g:KTkAAOSwmfhX6SpB
p53
aVhttp://www.ebay.com/itm/STAINLESS-STEEL-STRIP-SHIM-15-5-MM-X-0-25MM-X-300-MM-1-2-HARD-3-OFF-/391825193148?hash=item5b3a99f8bc:g:VB8AAOSwdGFYvDOf
p54
aVhttp://www.ebay.com/itm/Stem-Shim-1-to-1-1-8-Adapter-/192116853726?hash=item2cbb0e8bde:g:0GEAAOSwB-1Ytr0r
p55
aVhttp://www.ebay.com/itm/NEW-Plastic-Shims-Small-1mm-packers-double-glazing-windows-PACK-OF-25-/131145447432?hash=item1e88e0b808:g:3MIAAMXQPatTKorZ
p56
aVhttp://www.ebay.com/itm/Acor-Handlebar-Shim-Reducer-31-8mm-to-26mm-/361103489275?hash=item541371f8fb:g:bagAAMXQO21RyuRp
p57
aVhttp://www.ebay.com/itm/Engine-Valve-Shim-13-00mm-Diameter-Size-2-40-Per-5-/112136708238?epid=748323388&hash=item1a1bde608e:i:112136708238&vxp=mtr
p58
aVhttp://www.ebay.com/itm/Precision-Brand-Brass-Shim-6-x-100-x-0-007-178mm-/332290459491?hash=item4d5e0e0763:g:mdAAAOxyUrZSzSR1
p59
aVhttp://www.ebay.com/itm/NEW-Dia-Compe-Alloy-Brake-Lever-Handlebar-Shim-25-4mm-band-to-22-2mm-/222453609252?hash=item33cb44b324:g:dMQAAOSwqbZXEinW
p60
aVhttp://www.ebay.com/itm/London-FIXED-GEAR-1-to-1-1-8-Fork-Steerer-Tube-Adapter-Reduction-STEM-SHIM-/181969083098?hash=item2a5e33dada:g:m~MAAOSwZLRZbx8-
p61
aVhttp://www.ebay.com/itm/Tamiya-53587-5mm-Shim-Set-10X3-Types-RC-Hop-ups-/331177655028?epid=1908042401&hash=item4d1bb9faf4:g:HLYAAOSwn51UZ6sr
p62
aVhttp://www.ebay.com/itm/Alloy-Seatpost-Shim-25-4-26-4mm-to-27-2-31-8mm-Universal-/251306261345?var=&hash=item3a83053b61:m:mIXe5FJVx_L9s9jW2nvZZ5w
p63
aVhttp://www.ebay.com/itm/Shim-Ring-washers-0-5mm-thick-Steel-din1624-3mm-to-160mm-ID-m3-to-m160-/231954818242?var=&hash=item360195a4c2:m:mggtK5U94I4JO_M_RMHxj5A
p64
aVhttp://www.ebay.com/itm/316-STAINLESS-STEEL-SHIM-STRIP-6-MM-X-0-5MM-X-150-MM-1-2-HARD-6-OFF-/253011221471?hash=item3ae8a4dbdf:g:6AQAAOSwVJhZRCd1
p65
aVhttp://www.ebay.com/itm/Stainless-Steel-Shim-/191892234066?var=&hash=item2cadab1f52:m:m1kAZ1Y4WEOLqlzOR2gH-Ig
p66
aVhttp://www.ebay.com/itm/CS70-SPRING-STEEL-SHIM-STRIP-1-4-X-0-010-X-150MM-ANNEALED-10-OFF-/253016795745?hash=item3ae8f9ea61:g:0QoAAOSw2gxYxDtp
p67
aVhttp://www.ebay.com/itm/Spellbinders-JUNIOR-METAL-SHIM-for-Grand-Calibur-8-5-x-6-GC-016-/121902741778?epid=1146153882&hash=item1c61f83912:g:a~kAAOSwFNZWy3BQ
p68
aVhttp://www.ebay.com/itm/2-x-USB-to-microUSB-OTG-Converter-Shim-for-Raspberry-Pi-Zero-/162072543863?epid=858637041&hash=item25bc46c277:g:DTcAAOSwIzNXOX4P
p69
aVhttp://www.ebay.com/itm/Raleigh-Seatpost-adjustable-shim-Silver-25-4mm-/152218195337?epid=1718719275&hash=item2370e95589:g:qwcAAOSwdzVXvtM7
p70
aVhttp://www.ebay.com/itm/USB-to-Micro-USB-OTG-Shim-Adapter-for-Raspberry-Pi-Zero-1-2-3-5-PCS-/162072552191?var=&hash=item25bc46e2ff:m:mhFeO1vBTfda2x2Jngv_mtg
p71
aVhttp://www.ebay.com/itm/SRAM-Centera-4-0-Pro-3-x-8-Speed-Shifter-Set-Pair-Left-amp-Right-2-1-Shim-/142352319100?hash=item2124dc027c:g:HH8AAOSw6YtZPcWb
p72
aVhttp://www.ebay.com/itm/ASSORTED-100-x-43mm-PLASTIC-SHIMS-PAILS-PACKERS-1-10mm-Packs-of-100-/301866149084?hash=item46489fe4dc:g:JPMAAOxydyxSTXwr
p73
aVhttp://www.ebay.com/itm/Gusset-Bike-Handlebar-Shims-Black-anodised-alloy-Shim-/162108092527?var=&hash=item25be65306f:m:m754H08miee9TcPIgnhFzUQ
p74
aVhttp://www.ebay.com/itm/4-X-10MM-ALLOY-WHEEL-SPACERS-SHIMS-SPACER-CAR-4-5-STUD-FIT-UNIVERSAL-SET-KIT-/122411511393?epid=1954073829&hash=item1c804b6e61:g:Lr8AAOSwTM5Y05Mm&vxp=mtr
p75
aVhttp://www.ebay.com/itm/Shimano-SM-AD17-Front-Derailleur-Clamp-Shim-Adapter-Reducer-34-9-to-28-6-or-31-8-/262135585765?var=&epid=1440081506&hash=item3d087f9be5:m:mA50MQp8WOXsQh4lwp311Ig
p76
aVhttp://www.ebay.com/itm/Shim-Ring-washers-0-3mm-thick-Steel-din988-0-3mm-thick-shims-whs-quality-shims-/232247791626?var=&hash=item36130c100a:m:mggtK5U94I4JO_M_RMHxj5A
p77
aVhttp://www.ebay.com/itm/Velo-Orange-Stem-Shim-For-31-8mm-Bars-25-4mm-or-26-0mm-/192116855466?var=&hash=item2cbb0e92aa:m:m5BS45Fnupw8EvEkwFGX8ZA
p78
aVhttp://www.ebay.com/itm/30mm-SHIM-WASHER-KIT-FOR-MINI-DIGGER-EXCAVATOR-/311478256517?hash=item48858d0385:g:yLMAAOSwu4BVrSJq
p79
aVhttp://www.ebay.com/itm/Shim-Ring-washers-0-3mm-thick-Steel-din1624-30mm-to-185mm-ID-m30-to-m185-/231954793211?var=&hash=item36019542fb:m:mggtK5U94I4JO_M_RMHxj5A
p80
aVhttp://www.ebay.com/itm/Shimano-SM-AD16-Front-Mech-Clamp-Band-Adapter-Shim-34-9mm-to-28-6mm-Derailleur-/282567370371?hash=item41ca53e683:g:qsIAAMXQAEFSFSVw
p81
aVhttp://www.ebay.com/itm/2-X-5MM-HUBCENTRIC-DEDICATED-BORE-ALLOY-WHEEL-SPACERS-SHIM-AUDI-A4-AVANT-B8-66-6-/141746905979?epid=1754385824&hash=item2100c6237b:g:wKQAAOSw3xJVfztA&vxp=mtr
p82
aVhttp://www.ebay.com/itm/25mm-SHIM-WASHER-KIT-FOR-MINI-DIGGER-EXCAVATOR-/311466732143?hash=item4884dd2a6f:g:IpEAAOSw5VFWIiYc
p83
aVhttp://www.ebay.com/itm/Shimano-SM-AD17-Front-Mech-Clamp-Band-Adapter-Shim-34-9mm-to-31-8mm-Derailleur-/281154986354?epid=1488375463&hash=item417624a172:g:qsIAAMXQAEFSFSVw
p84
aVhttp://www.ebay.com/itm/2x-10mm-Wheel-Spacer-Shims-4-5-Stud-Universal-Spacer-/371925745727?hash=item569880803f:m:mB34qQNSiAfPB0Sf_G-XR1g&vxp=mtr
p85
aVhttp://www.ebay.com/itm/4-X-10mm-SHIMS-SPACER-ALLOY-WHEELS-FITS-LAND-ROVER-RANGE-ROVER-SPORT-/322518829017?hash=item4b179ec7d9:g:hXkAAOSw5cNYiT3l
p86
aVhttp://www.ebay.com/itm/Tamiya-53587-5mm-Shim-Set-10X3-Types-RC-Hop-ups-/331478023104?epid=1908042401&hash=item4d2da13bc0:g:Q-wAAOSwNSxU3MQH
p87
aVhttp://www.ebay.com/itm/Steel-Shim-Washers-Classic-Auto-Motorbike-Marine-0-5mm-Depth-/281759268060?var=&hash=item419a293cdc:m:meZqcgu8HSOjKHER2wHfgdw
p88
aVhttp://www.ebay.com/itm/Steel-Shim-Washers-Multi-Choice-3-5-6-8-10-12-16-19mm-x-0-3mm-Thickness-/261824418159?var=&hash=item3cf5f3916f:m:mMdh818oyNjwX0v8C342JFw
p89
aVhttp://www.ebay.com/itm/Shim-Ring-washers-1mm-thick-Steel-din1624-3mm-to-60mm-ID-m3-to-m60-Diameters-/231971257855?var=&hash=item3602907dff:m:mggtK5U94I4JO_M_RMHxj5A
p90
aVhttp://www.ebay.com/itm/3Racing-Stainless-Steel-6mm-Shim-Spacer-3RAC-SW06-/282534889413?epid=1080763484&hash=item41c86447c5:g:~fEAAOSwV0RXtZHD
p91
aVhttp://www.ebay.com/itm/35mm-SHIM-WASHER-KIT-FOR-MINI-DIGGER-EXCAVATOR-/181790191046?hash=item2a538a2dc6:g:-HUAAOSwjVVVk~MR
p92
aVhttp://www.ebay.com/itm/40mm-SHIM-WASHER-KIT-FOR-MINI-DIGGER-EXCAVATOR-/181790190894?hash=item2a538a2d2e:g:UOQAAOSwu4BVk~MJ
p93
aVhttp://www.ebay.com/itm/NEW-Plastic-Shims-Small-10mm-packers-double-glazing-windows-PACK-OF-25-/111868329327?hash=item1a0bdf3d6f:g:OuQAAOSwrklVXGPR
p94
aVhttp://www.ebay.com/itm/2-x-USB-to-microUSB-OTG-Converter-Shim-for-Raspberry-Pi-Zero-/162072543863?epid=858637041&hash=item25bc46c277:g:DTcAAOSwIzNXOX4P
p95
aVhttp://www.ebay.com/itm/Engine-Valve-Shim-25-00mm-Diameter-Size-3-10-Per-5-/112136699569?epid=747727191&hash=item1a1bde3eb1:g:t4IAAOSwcgNZIBMe&vxp=mtr
p96
aVhttp://www.ebay.com/itm/Engine-Valve-Shim-25-00mm-Diameter-Size-2-40-Per-5-/112136701053?epid=748322024&hash=item1a1bde447d:g:YvIAAOSw7GRZIA-H&vxp=mtr
p97
aVhttp://www.ebay.com/itm/Velo-Orange-Handlebar-Shim-25-4mm-to-26-0mm-dia-stainless-steel-35mm-wide-/201985344600?epid=1448789519&hash=item2f0743c458:g:IYUAAOSwDN1URMWG
p98
aVhttp://www.ebay.com/itm/Engine-Valve-Shim-25-00mm-Diameter-Size-3-00-Per-5-/112136707775?epid=757847393&hash=item1a1bde5ebf:g:Ts4AAOSw-K9ZIBJQ&vxp=mtr
p99
aVhttp://www.ebay.com/itm/Nitto-handlebar-shim-25-4mm-to-26-0mm-/151763099497?epid=932351007&hash=item2355c91f69:g:ZKoAAOSwgQ9Vupeo
p100
aVhttp://www.ebay.com/itm/2-X-10MM-ALLOY-WHEELS-SPACERS-SHIMS-FIT-VOLKSWAGEN-T5-SPORTLINE-/201906129341?hash=item2f028b09bd:g:1hsAAOxy7nNTWrKJ&vxp=mtr
p101
aVhttp://www.ebay.com/itm/Steel-Shim-Washers-Multi-Choice-3-5-6-8-10-12-16-19mm-x-0-3mm-Depth-/261824410376?var=&hash=item3cf5f37308:m:mkM7Z57Q_nyBdmHiDHhOA_w
p102
aVhttp://www.ebay.com/itm/Shim-Ring-washers-0-1mm-thick-Steel-din988-m3-to-m24-top-quality-steel-k50-/332166274988?var=&hash=item4d56a71fac:m:mggtK5U94I4JO_M_RMHxj5A
p103
aVhttp://www.ebay.com/itm/2-X-10MM-ALLOY-WHEELS-SPACERS-SHIMS-FIT-MAZDA-MX5-90-05-/172507462065?hash=item282a3ef9b1:g:A00AAOxyaTxTWUd2&vxp=mtr
p104
aVhttp://www.ebay.com/itm/Kawasaki-13mm-Valve-Shim-Z650-Type-XR69-New-USA-made-Sold-Singularly-Size-245-/272576141973?epid=598577095&hash=item3f76cdda95:g:rZIAAOSwdGFYuYaR&vxp=mtr
p105
aVhttp://www.ebay.com/itm/Kawasaki-13mm-Valve-Shim-Z650-Type-XR69-New-USA-made-Sold-Singularly-Size-230-/361918897766?epid=598577095&hash=item54440c1e66:g:rZIAAOSwdGFYuYaR&vxp=mtr
p106
aVhttp://www.ebay.com/itm/Kawasaki-13mm-Valve-Shim-Z650-Type-XR69-New-USA-made-Sold-Singularly-Size-240-/361918897980?epid=598577095&hash=item54440c1f3c:g:rZIAAOSwdGFYuYaR&vxp=mtr
p107
aVhttp://www.ebay.com/itm/4-X-10mm-SHIMS-SPACER-UNIVERSAL-ALLOY-WHEELS-SPACERS-FITS-PEUGEOT-1-65-1-/322518829149?hash=item4b179ec85d:g:fvsAAOSwopRYiOU9
p108
aVhttp://www.ebay.com/itm/Shim-Ring-washers-0-3mm-thick-Steel-din1624-3mm-to-30mm-ID-m3-to-m30-Various-ODs-/331863836462?var=&hash=item4d44a0472e:m:mggtK5U94I4JO_M_RMHxj5A
p109
a.