(lp0
Vhttps://www.amazon.co.uk/AngularJS-Running-Enhanced-Productivity-Structured/dp/1491901942/ref=sr_1_1/261-9920972-8000405?ie=UTF8&qid=1500121070&sr=8-1&keywords=angular
p1
aVhttps://www.amazon.co.uk/Angular-Practice-applications-tomorrow-framework-ebook/dp/B01N9S0CZN/ref=sr_1_2/261-9920972-8000405?ie=UTF8&qid=1500121070&sr=8-2&keywords=angular
p2
aVhttps://www.amazon.co.uk/Angular-2-Cookbook-Matt-Frisbie/dp/1785881922/ref=sr_1_3/261-9920972-8000405?ie=UTF8&qid=1500121070&sr=8-3&keywords=angular
p3
aVhttps://www.amazon.co.uk/Pro-Angular-2-ADAM-FREEMAN-x/dp/1484223063/ref=sr_1_4/261-9920972-8000405?ie=UTF8&qid=1500121070&sr=8-4&keywords=angular
p4
aVhttps://www.amazon.co.uk/ng-book-Complete-Guide-Angular-4/dp/1546376232/ref=sr_1_5/261-9920972-8000405?ie=UTF8&qid=1500121070&sr=8-5&keywords=angular
p5
aVhttps://www.amazon.co.uk/Angular-Development-Typescript-Yakov-Fain/dp/1617293121/ref=sr_1_6/261-9920972-8000405?ie=UTF8&qid=1500121070&sr=8-6&keywords=angular
p6
aVhttps://www.amazon.co.uk/Getting-MEAN-Mongo-Express-Angular/dp/1617292036/ref=sr_1_7/261-9920972-8000405?ie=UTF8&qid=1500121070&sr=8-7&keywords=angular
p7
aVhttps://www.amazon.co.uk/Beginning-Angular-Typescript-updated-ebook/dp/B01N9ZUHBA/ref=sr_1_8/261-9920972-8000405?ie=UTF8&qid=1500121070&sr=8-8&keywords=angular
p8
aVhttps://www.amazon.co.uk/AngularJS-AngularJS-Beginners-Programming-Language-ebook/dp/B01LBHO0I8/ref=sr_1_9/261-9920972-8000405?ie=UTF8&qid=1500121070&sr=8-9&keywords=angular
p9
aVhttps://www.amazon.co.uk/Angular-2-Example-Chandermani-Arora/dp/178588719X/ref=sr_1_10/261-9920972-8000405?ie=UTF8&qid=1500121070&sr=8-10&keywords=angular
p10
aVhttps://www.amazon.co.uk/d/cka/ASP-NET-Core-Angular-2-Valerio-Sanctis/178646568X/ref=sr_1_11/261-9920972-8000405?ie=UTF8&qid=1500121070&sr=8-11&keywords=angular
p11
aVhttps://www.amazon.co.uk/AngularJS-Developers-Hours-Teach-Yourself/dp/0672337576/ref=sr_1_12/261-9920972-8000405?ie=UTF8&qid=1500121070&sr=8-12&keywords=angular
p12
aVhttps://www.amazon.co.uk/Unraveling-Angular-Ultimate-Beginners-Complete-ebook/dp/B01IR7M4EM/ref=sr_1_13/261-9920972-8000405?ie=UTF8&qid=1500121070&sr=8-13&keywords=angular
p13
aVhttps://www.amazon.co.uk/Building-Web-Components-TypeScript-Angular/dp/0997303727/ref=sr_1_14/261-9920972-8000405?ie=UTF8&qid=1500121070&sr=8-14&keywords=angular
p14
aVhttps://www.amazon.co.uk/Pro-AngularJS-Experts-Voice-Development/dp/1430264489/ref=sr_1_15/261-9920972-8000405?ie=UTF8&qid=1500121070&sr=8-15&keywords=angular
p15
aVhttps://www.amazon.co.uk/AngularJS-Action-Lukas-Ruebbelke/dp/1617291331/ref=sr_1_16/261-9920972-8000405?ie=UTF8&qid=1500121070&sr=8-16&keywords=angular
p16
aVhttps://www.amazon.co.uk/Learning-Angular-2-Pablo-Deeleman/dp/1785882074/ref=sr_1_17/261-9920972-8000405?ie=UTF8&qid=1500121073&sr=8-17&keywords=angular
p17
aVhttps://www.amazon.co.uk/Professional-AngularJS-Valeri-Karpov/dp/1118832078/ref=sr_1_18/261-9920972-8000405?ie=UTF8&qid=1500121073&sr=8-18&keywords=angular
p18
aVhttps://www.amazon.co.uk/Unraveling-AngularJS-1-5-Complete-Samples/dp/1532916140/ref=sr_1_19/261-9920972-8000405?ie=UTF8&qid=1500121073&sr=8-19&keywords=angular
p19
aVhttps://www.amazon.co.uk/d/Painting/PIECE-ANGULAR-FILBERT-ARTIST-TAKLON/B000X268U6/ref=sr_1_20/261-9920972-8000405?ie=UTF8&qid=1500121073&sr=8-20&keywords=angular
p20
aVhttps://www.amazon.co.uk/Double-Row-Angular-Contact-Bearing/dp/B00Z49G93O/ref=sr_1_21/261-9920972-8000405?ie=UTF8&qid=1500121073&sr=8-21&keywords=angular
p21
aVhttps://www.amazon.co.uk/Angular-React-Bundle-Toptitel-Vorzugspreis-ebook/dp/B073QXJ63R/ref=sr_1_22/261-9920972-8000405?ie=UTF8&qid=1500121073&sr=8-22&keywords=angular
p22
aVhttps://www.amazon.co.uk/MEEDEN-Angular-Acrylics-Watercolour-Painting/dp/B01NGT68SP/ref=sr_1_23/261-9920972-8000405?ie=UTF8&qid=1500121073&sr=8-23&keywords=angular
p23
aVhttps://www.amazon.co.uk/Silverline-254617-Angular-Torque-Gauge/dp/B00MH47N2A/ref=sr_1_24/261-9920972-8000405?ie=UTF8&qid=1500121073&sr=8-24&keywords=angular
p24
aVhttps://www.amazon.co.uk/d/Apps-Games/This-Is-My-World-Cheilitis/B00NLYMCI0/ref=sr_1_25/261-9920972-8000405?ie=UTF8&qid=1500121073&sr=8-25&keywords=angular
p25
aVhttps://www.amazon.co.uk/Typescript-Jumpstart-Fast-track-Proficiency-Experienced/dp/1548201715/ref=sr_1_26/261-9920972-8000405?ie=UTF8&qid=1500121073&sr=8-26&keywords=angular
p26
aVhttps://www.amazon.co.uk/Hama-1-7cm-Aluminium-Angular-Cable-Duct/dp/B003LTPG4C/ref=sr_1_27/261-9920972-8000405?ie=UTF8&qid=1500121073&sr=8-27&keywords=angular
p27
aVhttps://www.amazon.co.uk/Wheels-Manufacturing-outboard-Bearings-compatible/dp/B00FZL4JAQ/ref=sr_1_28/261-9920972-8000405?ie=UTF8&qid=1500121073&sr=8-28&keywords=angular
p28
aVhttps://www.amazon.co.uk/Angular-Router-Jumpstart-University/dp/1548657360/ref=sr_1_29/261-9920972-8000405?ie=UTF8&qid=1500121073&sr=8-29&keywords=angular
p29
aVhttps://www.amazon.co.uk/Vitis-VITIS-Implant-Angular-Toothbrush/dp/B00M462JIO/ref=sr_1_30_a_it/261-9920972-8000405?ie=UTF8&qid=1500121073&sr=8-30&keywords=angular
p30
aVhttps://www.amazon.co.uk/dp/B073XXXRRT/ref=sr_1_31/261-9920972-8000405?ie=UTF8&qid=1500121073&sr=8-31&keywords=angular
p31
aVhttps://www.amazon.co.uk/Angular-Standard-Validators-Template-Driven/dp/B01N6BAWEE/ref=sr_1_32/261-9920972-8000405?ie=UTF8&qid=1500121073&sr=8-32&keywords=angular
p32
a.