(lp0
Vhttp://www.ebay.com/itm/Barr-Stroud-Sprite-Mini-10x25-Monocular-70205-London-/263056441902?epid=1118805528&hash=item3d3f62c22e:g:hEoAAOSwux5YUGQV
p1
aVhttp://www.ebay.com/itm/Sprite-and-Midget-Past-and-Present-by-Terry-Horler-9781445655536-/302367598900?epid=223055857&hash=item4666836934:g:~IYAAOSwq~tZVeM8
p2
aVhttp://www.ebay.com/itm/Barr-Stroud-Sprite-Mini-8x25-Roof-Prism-Monocular-70204-London-/332281139452?epid=1907845515&hash=item4d5d7fd0fc:g:gVEAAOSwNgxWC2XO
p3
aVhttp://www.ebay.com/itm/Smiths-Oil-Pressure-Water-Temperature-Gauge-for-MGB-Sprite-Midget-BHA4764-/222447336197?epid=625013759&hash=item33cae4fb05:g:VSgAAOSwLN5Wll2p&vxp=mtr
p4
aVhttp://www.ebay.com/itm/Sprite-and-Midget-Past-and-Present-Paperback-Horler-Terry-9781445655536-/351984083805?epid=223055857&hash=item51f3e2e35d:g:AEcAAOSwaB5Xssp~
p5
aVhttp://www.ebay.com/itm/Iron-Maiden-Fear-Of-The-Dark-Tree-Sprite-T-Shirt-NEW-OFFICIAL-/122339254298?var=&epid=1039109033&hash=item1c7bfce01a:m:maDgkdfePBaVBwCZL0_bm8Q
p6
aVhttp://www.ebay.com/itm/Barr-Stroud-Sprite-Mini-8x25-Waterproof-Bak-4-Monocular-/350818738287?epid=1907845515&hash=item51ae6d206f:g:HW0AAOxyi-ZTW1hM
p7
aVhttp://www.ebay.com/itm/MG-MIDGET-AUSTIN-HEALEY-SPRITE-NEW-BLACK-CARPET-SET-/263045482519?hash=item3d3ebb8817:g:oHkAAOSwIjJZR4WD
p8
aVhttp://www.ebay.com/itm/Screw-on-Washer-Pump-Knob-for-MGA-Healey-Sprite-MG-Midget-MGA-27H9625-/201942445699?hash=item2f04b52e83:g:QhAAAOSwm8VU0Lpv
p9
aVhttp://www.ebay.com/itm/MG-Midget-Austin-Healey-Sprite-High-Performance-Manual-New-Book-All-Models-/253004229864?epid=232148034&hash=item3ae83a2ce8:g:VsgAAOSwpONZSq8w
p10
aVhttp://www.ebay.com/itm/Spirited-Away-Soot-Sprite-Inspired-Baby-Grow-Sleepsuit-Studio-Ghibli-Totoro-Kids-/131701895660?var=&hash=item1eaa0b71ec:m:mYgf1rnvmqRI0_cy5tNPimw
p11
aVhttp://www.ebay.com/itm/MORRIS-MINOR-1000-MIDGET-SPRITE-REAR-BRAKE-SHOE-RETAINING-SPRINGS-AAA4777-4778-/371966027409?hash=item569ae72691:g:ab4AAOSwR0JUQMW3
p12
aVhttp://www.ebay.com/itm/SPRITE-PRYCE-TANNATT-BLIND-EYE-SALMON-HOOKS-SIZE-4-0-FROM-PARTRIDGE-/232384191368?var=&hash=item361b2d5b88:m:mbdcIhPZ3pAeXBrAwGQhaWA
p13
aVhttp://www.ebay.com/itm/Dwarf-French-Bean-Sprite-50-seeds-Free-P-P-/251548107503?hash=item3a916f82ef:m:mNi2P7YvRyu10JcOk5nN4-w
p14
aVhttp://www.ebay.com/itm/IRON-MAIDEN-Fear-Of-The-Dark-T-shirt-S-to-XXL-NEW-OFFICIAL-Eddie-Tree-Sprite-/251305259542?var=&hash=item3a82f5f216:m:midEfRlpODr8SQt_9LMi3Ng
p15
aVhttp://www.ebay.com/itm/MG-Midget-Austin-Healey-Sprite-Windschutzscheibe-Scheibenwischer-TEX-GWB215-/271325893583?hash=item3f2c4893cf:g:G90AAMXQO21Rrgc~
p16
aVhttp://www.ebay.com/itm/MG-MIDGET-AH-SPRITE-CARPET-SET-CARRELLI-WITH-HESSIAN-BACKING-from-1968-1980-/272641367536?hash=item3f7ab11df0:g:zMoAAOSwTA9X3S2V
p17
aVhttp://www.ebay.com/itm/BEK181-MG-MIDGET-SPRITE-FRONT-BRAKE-KIT-STEEL-WHEEL-17H9438-17H9439-BTA383-/381445443684?hash=item58cfeb9064:g:vfcAAOSwk5FUy68g&vxp=mtr
p18
aVhttp://www.ebay.com/itm/Agastache-Apricot-Sprite-40-Seeds-/250951786558?hash=item3a6de4603e:g:AKEAAOSwNuxXZPfJ
p19
aVhttp://www.ebay.com/itm/Seat-Diaphragm-AHA7878-Fits-MGB-MGBGT-MG-Midget-Austin-Healey-Sprite-/201836641624?hash=item2efe66bd58:g:-KkAAOSwZd1Var5n
p20
aVhttp://www.ebay.com/itm/ASTON-STYLE-NON-VENTED-LOCKING-FUEL-CAP-MGA-MGB-SPRITE-MIDGET-MINI-GAC41272-/201658302852?hash=item2ef3c58184:g:UfUAAOSwMVdYEKH7
p21
aVhttp://www.ebay.com/itm/Barr-Stroud-Sprite-10x50-Monocular-/232032673305?epid=1404304858&hash=item3606399e19:g:xhAAAOSwZVlXnKjW
p22
aVhttp://www.ebay.com/itm/MORRIS-1000-SPRITE-MK1-FRONT-BRAKE-SHOES-7INCH-GBS704AF-/371229857544?hash=item566f061708:m:mk5efBRFpq1_DRbjdI1tZsA
p23
aVhttp://www.ebay.com/itm/SPRITE-MIDGET-BRAKE-MASTER-CYLINDER-62-77-Single-Line-Brakes-GMC151-/131977832111?epid=1648820401&hash=item1eba7de6af:g:oFsAAOSwHMJYCiCK
p24
aVhttp://www.ebay.com/itm/MG-SPRITE-MIDGET-1958-63-MGA-BRAKE-MASTER-CYLINDER-TRW-GMC109Z-/132232415585?epid=1325306745&hash=item1ec9aa8961:g:IR0AAOSwKtlWlMvY
p25
aVhttp://www.ebay.com/itm/Original-Sprite-and-Midget-The-Restorers-Guide-to-All-Austin-Healey-and-MG-Mo-/361952515621?epid=102634746&hash=item54460d1625:g:lnMAAOSwmmxW4vSn
p26
aVhttp://www.ebay.com/itm/KNITTING-PATTERN-Ladies-Easy-Knit-Scoop-Neck-Cardigans-Sprite-DK-4572-/291843464699?epid=1776504486&hash=item43f339ddfb:g:e5AAAOSwZKBZN~n-
p27
aVhttp://www.ebay.com/itm/DINOSAUR-T-SHIRT-MENS-WOMENS-DINO-CHROME-GEEK-8-BIT-2D-SPRITE-ANDROID-NEW-/322236516629?var=&hash=item4b06cb0915:m:m3rwEQfOk-dzWdY5pcfws3A
p28
aVhttp://www.ebay.com/itm/KNITTING-PATTERN-Ladies-Easy-Knit-Scoop-Neck-Cardigans-Sprite-DK-4572-/291843464699?epid=1776504486&hash=item43f339ddfb:g:e5AAAOSwZKBZN~n-
p29
aVhttp://www.ebay.com/itm/WEIGHTED-STASH-CANS-HIDDEN-COMPARTMENT-SAFE-HIDE-JEWELLERY-MONEY-VALUABLES-NEW-/371850380724?var=&hash=item56940285b4:m:mGd-GpWB443S_hIfn127quQ
p30
aVhttp://www.ebay.com/itm/DINOSAUR-T-SHIRT-MENS-WOMENS-DINO-CHROME-GEEK-8-BIT-2D-SPRITE-ANDROID-NEW-/322236516629?var=&hash=item4b06cb0915:m:m3rwEQfOk-dzWdY5pcfws3A
p31
aVhttp://www.ebay.com/itm/Studio-Ghibli-SPIRITED-AWAY-No-Face-Soot-Sprite-TOTORO-45cm-Cover-Cushion-Pillow-/131906032518?var=&hash=item1eb6365386:m:mYUSWc6mSN-1-1e6U2Th8MA
p32
aVhttp://www.ebay.com/itm/MG-MIDGET-AH-SPRITE-CARPET-SET-AUTUMN-LEAF-CARRELLI-WITH-HESSIAN-BACKING-68-80-/401340208705?hash=item5d71bd9641:g:1FwAAOSwRXRZOUjB
p33
aVhttp://www.ebay.com/itm/The-MG-Midget-Austin-Healey-Sprite-High-Performance-Manual-by-Colin-/352019642510?epid=233384134&hash=item51f601788e:g:wncAAOSwhQhY4ga5
p34
aVhttp://www.ebay.com/itm/Classic-Mini-MG-Midget-Sprite-AP-Metro-Turbo-High-Capacity-Oil-Pump-1275-1380-/272707902158?epid=1782328630&hash=item3f7ea85ace:g:8b4AAOSw7n9XFO4Q
p35
aVhttp://www.ebay.com/itm/Smiths-Ol-Druck-Wasser-Temperatur-Messgerat-fur-MGB-Sprite-midget-BHA4764-/201861685713?epid=626187751&hash=item2effe4e1d1:g:VSgAAOSwLN5Wll2p&vxp=mtr
p36
aVhttp://www.ebay.com/itm/MG-Midget-Austin-Healey-Sprite-Windscreen-Windshield-Wipers-Genuine-TEX-GWB215-/271217732758?epid=1488355444&hash=item3f25d62c96:g:G90AAMXQO21Rrgc~
p37
aVhttp://www.ebay.com/itm/MG-Midget-AH-Sprite-Silver-Minilight-Alloy-Wheels-/391631457875?hash=item5b2f0dce53:g:ubwAAOSw-0xYVARO
p38
aVhttp://www.ebay.com/itm/Rear-Brake-Wheel-Cylinder-Pair-for-AUSTIN-HEALEY-SPRITE-MK-2-3-4-1963-1971-QH-/122206375056?hash=item1c74114c90:g:kxsAAOSwZQRYd5LW
p39
aVhttp://www.ebay.com/itm/7MM-BUMBLEBEE-IGNITION-LEADS-CLASSIC-MINI-COOPER-S-SPRITE-MIGET-WC200-NOS-/112446368352?hash=item1a2e536a60:g:TUoAAOSwvflZRSN9&vxp=mtr
p40
aVhttp://www.ebay.com/itm/MG-INTERIOR-MIRROR-BHA4806C-MGB-MIDGET-AUSTIN-HEALEY-SPRITE-S-S-BACK-/132248455560?hash=item1eca9f4988:g:r3sAAOSwZG9WllC6&vxp=mtr
p41
aVhttp://www.ebay.com/itm/MG-Midget-AH-Sprite-Black-Minilight-Alloy-Wheels-/391345675836?hash=item5b1e051e3c:g:f28AAOSw4GVYVASC
p42
aVhttp://www.ebay.com/itm/TR2-TR3-MORRIS-1000-MGA-MG-TD-SPRITE-BEE-HIVE-BRAKE-SHOE-STEADY-SPRINGS-AAA4714-/371494424811?hash=item567ecb10eb:g:5NMAAOSwmUdUU1QI
p43
aVhttp://www.ebay.com/itm/The-Austin-Healey-Sprite-MG-Midget-Companion-DVD-/182647270041?hash=item2a86a02a99:g:bIQAAOSwUxNXh2ol&vxp=mtr
p44
aVhttp://www.ebay.com/itm/MG-Midget-1960s-Classic-Sports-BMC-Austin-Healey-Sprite-T-Shirt-Ideal-Gift-/121709176817?var=&hash=item1c566ea7f1:m:mLvW-f9Uj0YSx_vBAuWJDcQ
p45
aVhttp://www.ebay.com/itm/MG-MIDGET-AUSTIN-HEALEY-SPRITE-HINTERRAD-MIT-BAUSATZE-x-2-DELUXE-KIT008-/371864033746?hash=item5694d2d9d2:g:65EAAOSwA3dYG0Xw
p46
aVhttp://www.ebay.com/itm/MG-MIDGET-AH-SPRITE-CARPET-1964-TO-1979-SET-FELT-CARRELLI-WITH-HESSIAN-BACKING-/272499172383?hash=item3f7237641f:g:FfIAAOSwHMJYGDBj
p47
aVhttp://www.ebay.com/itm/CI-Sprite-Compact-FRONT-REAR-Caravan-Sticker-Decal-Graphic-SINGLE-/182547331847?hash=item2a80ab3b07:g:CMcAAOSwzqFZASeq
p48
aVhttp://www.ebay.com/itm/AUSTIN-HEALEY-SPRITE-MG-MIDGET-NEW-PAIR-BRAKE-CALIPERS-OUTRIGHT-NO-EXCHANGE-/401339656638?hash=item5d71b529be:g:0ysAAOSwq1JZJA4P
p49
aVhttp://www.ebay.com/itm/Fairies-Colouring-Book-Charming-Pictures-of-the-Sprites-from-Fo-9781782121817-/252685465568?epid=154725068&hash=item3ad53a37e0:g:RN0AAOSwEzxYVNSj
p50
aVhttp://www.ebay.com/itm/Totoro-Spirited-Away-No-Face-Soot-Sprite-Star-Inspired-Christmas-Jumper-Sweater-/131655285988?var=&hash=item1ea7443ce4:m:mBvROnIiKXhj2L2KIUqWf0g
p51
aVhttp://www.ebay.com/itm/AUSTIN-A35-A40-MG-MIDGET-SPRITE-FRONT-TRUNNIONS-NEGATIVE-CAMBER-COMPETITION-/263013499241?hash=item3d3cd38169:g:3X0AAOSw3gJZLxKT&vxp=mtr
p52
aVhttp://www.ebay.com/itm/HARRISON-BARTLEET-DEE-BLIND-EYE-SALMON-HOOKS-SIZE-3-0-5-0-SPRITE-BY-PARTRIDGE-/302362735225?var=&hash=item4666393279:m:mq7UMKIG9EfKLvdEy5Tx_jw
p53
aVhttp://www.ebay.com/itm/Austin-Healey-Frogeye-Sprite-embroidered-on-Polo-Shirt-/351606385681?hash=item51dd5fac11:i:351606385681
p54
aVhttp://www.ebay.com/itm/Brand-New-Hose-Kit-for-MG-SPRITE-MIDGET-1970-TO-1974-HORIZONTAL-FLOW-RADIATOR-/252938066449?hash=item3ae4489a11:g:N44AAOSwHoFXseNc
p55
aVhttp://www.ebay.com/itm/Frogeye-Sprite-The-Complete-Story-Hardcover-Baggott-John-9781847975508-/391816839713?epid=168165973&hash=item5b3a1a8221:g:BjgAAOSw3ydV4vTh
p56
aVhttp://www.ebay.com/itm/Chrome-Plated-Handle-for-MGB-Austin-Healey-Sprite-MG-Midget-Jaguar-BD32364-/191889128660?hash=item2cad7bbcd4:g:GnIAAOSweW5Vdy9N
p57
aVhttp://www.ebay.com/itm/Barr-Stroud-Sprite-8x25-Mini-Monocular-/222204320577?epid=1907845515&hash=item33bc68db41:g:evIAAOSwZVlXnKVV
p58
aVhttp://www.ebay.com/itm/MG-MIDGET-AUSTIN-HEALEY-SPRITE-REAR-SHOCK-ABSORBERS-/231712571559?hash=item35f32540a7:m:mWLPpyOa0TIElGrF5wXdVLg
p59
aVhttp://www.ebay.com/itm/YU-GI-OH-CARD-SPRITES-BLESSING-INOV-EN064-/192088153134?hash=item2cb9589c2e:g:1qYAAOSwLEtYies3
p60
aVhttp://www.ebay.com/itm/Black-Adjustable-Food-Soda-Can-Shamballa-Bracelet-7-or-Made-to-size-Unisex-/121247860225?var=&hash=item1c3aef8601:m:ms2ShB3kqiBupMq8rMDTxAg
p61
aVhttp://www.ebay.com/itm/MG-Midget-Austin-Healey-Sprite-Genuine-Smiths-Benzintank-Sender-teile-BHA4711-/192043800562?epid=695426161&hash=item2cb6b3d7f2:m:mqauFrSUMPTwOQae2DRx1mw
p62
aVhttp://www.ebay.com/itm/AUSTIN-HEALEY-FROGEYE-SPRITE-BUGEYE-1958-1961-NEW-FUEL-PUMP-NJ952-/271658188864?hash=item3f40170040:g:wegAAOSwrx5UWhyV&vxp=mtr
p63
aVhttp://www.ebay.com/itm/Pair-MG-Midget-DOOR-SEALS-seal-Rubbers-x2-New-Austin-Sprite-/191965334457?hash=item2cb2068bb9:m:mKzp3icJ8TmHQ2pt5On1kjQ
p64
aVhttp://www.ebay.com/itm/Speedometer-Art-Print-Wall-Clock-Austin-Healey-Frogeye-Sprite-White-/162547443749?hash=item25d8952825:g:pG0AAOSwGIRXYCUi
p65
aVhttp://www.ebay.com/itm/VEGETABLE-DWARF-GREEN-BEAN-SPRITE-175-FINEST-SEEDS-/281827801247?epid=1674340416&hash=item419e3ef89f:g:6fwAAOSwl9BWHjKC
p66
aVhttp://www.ebay.com/itm/REAR-OIL-SEAL-CONVERSION-KIT-SPRITE-MIDGET-1098cc-ENGINES-MGS108321-/172643418917?hash=item2832598325:g:V-gAAOSw5UZY~xaM
p67
aVhttp://www.ebay.com/itm/D-and-D-Miniatures-Storm-Kings-Thunder-003-Sprite-with-Bow-/112190117115?hash=item1a1f0d54fb:g:RdQAAOSwal5YGLYA
p68
aVhttp://www.ebay.com/itm/MG-Midget-A-H-Sprite-The-Essential-Buyer-s-Guide-/253030453134?hash=item3ae9ca4f8e:g:KuwAAOSwMvtZXalU
p69
aVhttp://www.ebay.com/itm/MG-Midget-A-H-Sprite-by-Terry-Horler-Paperback-2011-/252247761103?epid=97626082&hash=item3abb2360cf:g:t~YAAOSwDV1XQnhI
p70
aVhttp://www.ebay.com/itm/Soot-Sprite-Totoro-Bunny-inspired-Ghibli-Anime-Manga-Unisex-Tshirt-T-Shirt-Tee-/272632005849?var=&hash=item3f7a2244d9:m:m3jwZuz0cxUJh1erOhgp3Rg
p71
aVhttp://www.ebay.com/itm/7-Halogen-Conversion-Headlights-Austin-Healey-Sprite-A30-A35-A40-DOMED-/360702539100?hash=item53fb8bf55c:m:mOWlLC5gfaJ2tYqiLKvXKHQ
p72
aVhttp://www.ebay.com/itm/2-Astilbe-Sprite-Dwarf-Flowering-Herbaceous-Perennial-Plants-RHS-AGM-Awarded-/132173842881?hash=item1ec62cc9c1:g:kwUAAOSwWWxY~LZt
p73
aVhttp://www.ebay.com/itm/AH-SPRITE-MG-MIDGET-1958-63-MGA-BRAKE-MASTER-CYLINDER-TRW-GMC109Z-/181367153052?epid=1132264379&hash=item2a3a53219c:g:73IAAOSwImRYEK2m
p74
aVhttp://www.ebay.com/itm/AUSTIN-HEALEY-SPRITE-SPARK-PLUGS-x4-CHAMPION-COPPER-CORE-N9YC-1958-66-4L4-/263033883350?epid=787859175&hash=item3d3e0a8ad6:g:yNEAAOSwHnFVhVCF
p75
aVhttp://www.ebay.com/itm/Chrome-Wiper-Bezel-Kit-Austin-Healey-3000-Sprite-ADB826-/192234961897?epid=725192692&hash=item2cc218bbe9:m:mSGt1k3af8tfzo1Iu_k7jNg
p76
aVhttp://www.ebay.com/itm/Lipsmacker-Lip-Smacker-Cap-Kids-Lip-Balm-Choose-Favour-/302301812448?var=&epid=1333215583&hash=item46629796e0:m:mfKPMbrbs5JANLDGH3UtBxw
p77
aVhttp://www.ebay.com/itm/AUSTIN-HEALEY-FROGEYE-SPRITE-MK1-FUEL-TANK-ARA77-/172294517627?epid=1747523201&hash=item281d8db37b:g:S~gAAOSwal5YELF6&vxp=mtr
p78
aVhttp://www.ebay.com/itm/Starter-Cable-to-Switch-Coupling-for-Austin-Healey-Frog-Bug-Eye-Sprite-1958-61-/391808247135?hash=item5b3997655f:g:q9oAAOxyIAZRsGOP
p79
aVhttp://www.ebay.com/itm/MG-MIDGET-AUSTIN-HEALEY-SPRITE-REAR-WHEEL-BEARING-KITS-x-2-DELUXE-KIT008-/371780119285?epid=863086910&hash=item568fd26af5:g:65EAAOSwA3dYG0Xw
p80
aVhttp://www.ebay.com/itm/Nitrilkautschuk-Kofferraumtur-Dichtung-fur-MG-Midget-Austin-Healey-Sprite-/192060450823?hash=item2cb7b1e807:m:mEbe3JCf-bw0okLbEDH8UZg
p81
aVhttp://www.ebay.com/itm/MG-TB-TC-TD-TF-MGA-MGB-SPRITE-MG-MIDGET-BRASS-RADIATOR-ENGINE-WATER-DRAIN-TAP-/282162646745?hash=item41b2344ed9:g:F6MAAOxy63FS44XT
p82
aVhttp://www.ebay.com/itm/Advance-Retard-Vacuum-Pipe-for-Austin-Healey-Sprite-Mk1-Frog-Bug-Eye-1958-61-/332254452130?hash=item4d5be899a2:g:a5AAAOxyHE5RwqZd
p83
aVhttp://www.ebay.com/itm/Barr-And-Stroud-Sprite-20x50-FMC-Monocular-With-Tripod-And-Case-/122480603115?hash=item1c8469afeb:g:IjMAAOSwrhBZDFM3
p84
aVhttp://www.ebay.com/itm/MICRO-SCOOTER-SMOOTH-AXLE-BOLT-SCREW-45mm-38mm-28mm-MINI-SPRITE-RAZOR-JD-BUG-/162587349360?var=&hash=item25daf61170:m:m26dcE5egwqUyauFm4oVkdg
p85
aVhttp://www.ebay.com/itm/Spark-S4127-Austin-Healey-Sprite-46-Ecurie-Ecosse-Le-Mans-1961-1-43-Scale-/162365357601?epid=2134992574&hash=item25cdbabe21:g:mnAAAOSwt5hYge7B
p86
aVhttp://www.ebay.com/itm/MG-Midget-AH-Sprite-Car-Hood-Hoods-Soft-Top-Black-Vinyl-1967-1980-/311817034366?hash=item4899be5a7e:g:gB4AAOSw~AVYvX0M
p87
aVhttp://www.ebay.com/itm/FAIRY-SPRITE-TINKERBELL-3D-CHARM-STERLING-SILVER-/361441105333?hash=item54279195b5:m:mDq31KvCIhem_TByQAyfS6w
p88
aVhttp://www.ebay.com/itm/Deluxe-Large-Feather-Wings-Black-Angel-Fairy-Sprite-Fancy-Dress-Cosplay-/282406539316?epid=1771350751&hash=item41c0bdd034:g:A-oAAOSw4A5Y06xi
p89
aVhttp://www.ebay.com/itm/MG-Midget-A-H-Sprite-Your-Expert-Guide-to-Common-Problems-How-to-Fix-/231831556149?epid=113983182&hash=item35fa3cd035:g:1zYAAOSw3mpXICUE
p90
aVhttp://www.ebay.com/itm/BLACK-8MM-CLASSIC-MINI-COOPER-S-SPRITE-MIGET-IGNITION-LEADS-CHAMPION-WC200-NOS-/122226156141?epid=799608662&hash=item1c753f226d:g:bjUAAOSwLVZV1tYC&vxp=mtr
p91
aVhttp://www.ebay.com/itm/2-Jokon-Red-White-Side-Marker-Light-lamp-Sprite-Caravan-Major-Musketeer-Alpine-/391389597124?hash=item5b20a34dc4:g:O78AAOSwDuJWyIuY
p92
aVhttp://www.ebay.com/itm/MG-MIDGET-SPRITE-67-72-3-WAY-OFF-ON-ON-HEADLIGHT-TOGGLE-SWITCH-1H9077-/282429546538?hash=item41c21ce02a:g:Gt8AAOSw8w1X2qPg
p93
aVhttp://www.ebay.com/itm/MG-Midget-and-Austin-Healey-Sprite-Rostyle-Wheel-Centre-Caps-with-Badges-AHA8950-/201831237347?epid=1325282326&hash=item2efe1446e3:g:JhUAAOSwDN1UPOEE&vxp=mtr
p94
aVhttp://www.ebay.com/itm/MG-MIDGET-AUSTIN-HEALEY-SPRITE-58-70-GEAR-LEVER-RUBBER-GAITER-ACA5208-/351051904768?hash=item51bc52f700:g:SLYAAOxy0x1TVjbE
p95
a.