(lp1
Vhttp://www.ebay.com/itm/Cotton-Tofu-Cheese-Cloth-Soy-For-Kitchen-DIY-Pressing-40cm-x-40cm-UK-Seller-/222455711524?hash=item33cb64c724:g:auAAAOSwXshWtKzq
p2
aVhttp://www.ebay.com/itm/Asian-Tofu-Discover-the-Best-Make-Your-Own-and-Cook-it-at-Home-9781607740254-/332233842963?epid=112280474&hash=item4d5aae2113:g:dS0AAOSw5cRZJVT-
p3
aVhttp://www.ebay.com/itm/CJ-Hetbahn-Cupbahn-Cooked-White-Rice-with-Soft-Tofu-Stew-173-7g-/172595224904?epid=708168959&hash=item282f7a2148:g:mhoAAOSw~CFY70p9
p4
aVhttp://www.ebay.com/itm/Fujiwara-Tofu-Shop-T-Shirt-Hachi-Roku-JDM-Drift-AE86-Corolla-Levin-Trueno-/161759926505?var=&epid=1041054473&hash=item25a9a498e9:m:maazitR0RMWFaSvc1j6VfsA
p5
aVhttp://www.ebay.com/itm/FUJIWARA-TOFU-SHOP-INITIAL-D-Car-Van-Bike-Truck-Vinyl-Decal-Bumper-Sticker-JDM-/181975063313?epid=1988924216&hash=item2a5e8f1b11:g:EbMAAOSwk1JWgay7
p6
aVhttp://www.ebay.com/itm/The-I-Hate-Tofu-Cookbook-35-Recipes-to-Change-Your-Mind-/262767915594?epid=209643739&hash=item3d2e30324a:g:yx0AAOSwOtdYVrX9
p7
aVhttp://www.ebay.com/itm/FUJIWARA-TOFU-SHOP-INITIAL-D-car-vinyl-decal-vehicle-bike-graphic-bumper-sticker-/370827969748?hash=item565711c4d4:g:udAAAOxyFrNRrNKR
p8
aVhttp://www.ebay.com/itm/2x-Initial-D-Fujiwara-Tofu-Shop-Sticker-Decal-CAR-BUMPER-WINDOW-FUNNY-DRIFT-/222122459262?var=&hash=item33b787c07e:m:mU5g81aLe4AhrPJUuJrl3jw
p9
aVhttp://www.ebay.com/itm/Fujiwara-Tofu-Initial-D-AE86-Trueno-decals-Stickers-/160761917336?epid=1332162581&hash=item256e282f98:m:mkPTqp4RQmw1Pt2n73NoQlg
p10
aVhttp://www.ebay.com/itm/Tofu-Kit-Midzu-/151920512531?hash=item235f2b0e13:g:BVYAAOSwQYZW1Z-Y
p11
aVhttp://www.ebay.com/itm/Tofu-Press-a-unique-and-stylish-tofu-press-to-transform-your-tofu-/182540762839?epid=1176934695&hash=item2a8046fed7:g:hWEAAOSwWWxY-6y9
p12
aVhttp://www.ebay.com/itm/The-Tofu-Cookbook-by-Leah-Leneman-NEW-/170831034826?epid=87094221&hash=item27c652b9ca:g:n~sAAMXQL99Scusp
p13
aVhttp://www.ebay.com/itm/Kawaii-Tofu-Cute-Plush-Bread-Anime-Keyring-Key-Chain-Strap-Gift-Vocaloid-Hatsune-/172284831265?var=&hash=item281cf9e621:m:mwMjx0_c2tkjPBCp4rZVBzQ
p14
aVhttp://www.ebay.com/itm/Fujiwara-Tofu-Initial-D-AE86-Trueno-Large-600mm-decals-Stickers-/120876091991?epid=1932101904&hash=item1c24c6ca57:m:muTSb0cItj1zv-wrHn4NvBw
p15
aVhttp://www.ebay.com/itm/Mori-Nu-Tofu-Extra-Firm-2-x-349g-/182633987917?hash=item2a85d57f4d:g:0HAAAOSwd~RZTMhG
p16
aVhttp://www.ebay.com/itm/2x-Fujiwara-Tofu-Initial-D-AE86-Trueno-Large-560mm-decals-Stickers-/253009080764?hash=item3ae88431bc:g:aYIAAOSwGvhT9zac
p17
aVhttp://www.ebay.com/itm/Japan-Anime-Hannari-Adorable-Halloween-Witch-ToFu-BeanCurd-Baby-Plush-20cm-8-/200664852651?hash=item2eb88ea8ab:g:x7sAAOSwPhdVUe8A
p18
aVhttp://www.ebay.com/itm/2x-Fujiwara-Tofu-Initial-D-AE86-Trueno-Large-912mm-decals-Stickers-/253009080730?epid=851198529&hash=item3ae884319a:g:aYIAAOSwGvhT9zac
p19
aVhttp://www.ebay.com/itm/Damen-T-Shirt-Tofu-Never-Screams-grau-/122358511073?var=&hash=item1c7d22b5e1:m:mpYLP6xvP5ThG91Yaao8HPA
p20
aVhttp://www.ebay.com/itm/Mori-Nu-Tofu-Firm-Tofu-12-x-349g-/182520035982?epid=1891288735&hash=item2a7f0aba8e:g:Q4UAAOSwmgJY53fQ
p21
aVhttp://www.ebay.com/itm/Tofu-Press-a-unique-and-stylish-tofu-press-to-transform-your-tofu-/302096060914?hash=item46565411f2:g:FmMAAOSwLF1X86ta
p22
aVhttp://www.ebay.com/itm/4-ANIMAL-RIGHTS-Badge-set-Pin-Button-25mm-veggie-vegan-protest-liberation-tofu-/252088352671?hash=item3ab1a2ff9f:g:IjoAAOSwcBhWadVh
p23
aVhttp://www.ebay.com/itm/S-B-INSTANT-TOFU-MISO-SOUP-3-SACHETS-/252337538340?epid=1052320296&hash=item3ac07d4524:g:IFwAAOSwSHZWcqNC
p24
aVhttp://www.ebay.com/itm/TOFU-NEVER-SCREAMS-tote-bag-shopper-protest-animal-rights-vegan-cruelty-free-/252489707516?var=&hash=item3ac98f2ffc:m:mLelR5Tw7-4yHDM-bMmLMSw
p25
aVhttp://www.ebay.com/itm/9-ANIMAL-RIGHTS-VEGAN-25mm-pin-badge-ALF-LIBERATION-PROTEST-veggie-diet-/262151614185?var=&hash=item3d09742ee9:m:mRC0vAN5ZYr3CXxmCbutHsQ
p26
aVhttp://www.ebay.com/itm/Marigold-Braised-Tofu-Cans-12-x-225g-/182506701976?epid=1004333146&hash=item2a7e3f4498:g:mNQAAOSwc-tY2mfn
p27
aVhttp://www.ebay.com/itm/Stainless-Steel-Cheese-Tofu-Slicer-Cutter-Board-mushroom-kitchen-tool-UK-/111588929111?hash=item19fb37ee57:g:ETEAAOSwNSxUyjVo
p28
aVhttp://www.ebay.com/itm/i-love-tofu-vegetarian-vegan-funny-t-shirt-mens-ladies-kids-veggie-animal-rights-/251327569033?var=&hash=item3a844a5c89:m:m-2ZckVxGCuQ_a40WSrCE0A
p29
aVhttp://www.ebay.com/itm/Clearspring-Tofu-1-x-300g-/182505284051?epid=1705266163&hash=item2a7e29a1d3:g:kRMAAOSwTM5Y2R9K
p30
aVhttp://www.ebay.com/itm/Authentic-Tofu-soft-Soya-Bean-Curd-340g-by-Morinaga-UK-Seller-/112197032072?epid=1508168382&hash=item1a1f76d888:g:sjgAAOSwUuFWuQrQ
p31
aVhttp://www.ebay.com/itm/Kawaii-Plush-Japan-Tofu-Stuffed-Doll-Multipurpose-Stationery-Stand-Phone-Holder-/151506747843?var=&hash=item23468181c3:m:mnKdd6UPbjAkNxQ_WPmKj0w
p32
aVhttp://www.ebay.com/itm/Clearspring-Tofu-1-x-300g-/182505284051?epid=1705266163&hash=item2a7e29a1d3:g:kRMAAOSwTM5Y2R9K
p33
aVhttp://www.ebay.com/itm/MORI-NU-FIRM-SILKEN-TOFU-/261052935283?epid=1905202594&hash=item3cc7f7ac73:g:fR8AAOSww3tY7z6u
p34
aVhttp://www.ebay.com/itm/3-FOR-2-Soft-Squishy-Tofu-Cake-Kawaii-Phone-Charm-Rare-Girl-Gift-Mix-Keychain-/172284829651?var=&hash=item281cf9dfd3:m:mwMjx0_c2tkjPBCp4rZVBzQ
p35
aVhttp://www.ebay.com/itm/2-X-MORI-NU-SOFT-SILKEN-TOFU-349G-/252467510909?hash=item3ac83c7e7d:g:TwUAAOSwsTxXjkGG
p36
aVhttp://www.ebay.com/itm/4-x-VEGAN-Badge-set-Pin-Button-25mm-veggie-protest-liberation-tofu-alf-healthy-/252177422051?hash=item3ab6f216e3:g:wJ0AAOSwv-NWacbu
p37
aVhttp://www.ebay.com/itm/Mens-Save-A-Turkey-Eat-Tofu-Christmas-Xmas-Tshirt-Vegan-Vegetarian-Diet-Shirt-/181586652657?var=&hash=item2a47686df1:m:mT8T1xNtQwZPZ1UjuAeK3-A
p38
aVhttp://www.ebay.com/itm/Clearspring-Tofu-6-x-300g-/182518311229?epid=1705266163&hash=item2a7ef0693d:g:kRMAAOSwTM5Y2R9K
p39
aVhttp://www.ebay.com/itm/Ladies-Save-A-Turkey-Eat-Tofu-Christmas-Tshirt-Vegan-Vegetarian-Diet-Shirt-/171543739526?var=&hash=item27f0cdbc86:m:mRULL3i8EGtiChwaIPvuIRA
p40
aVhttp://www.ebay.com/itm/Japanese-Anime-Hannari-GRILL-ToFu-BeanCurd-Hand-Warming-Cushion-Plush-36cm-14-/201408532791?hash=item2ee4e25137:g:rqgAAOSw44BYCSRC
p41
aVhttp://www.ebay.com/itm/Japanese-Tofu-Phone-Holder-Plush-Protecter-Block-Seat-Stand-Mobile-Kawaii-/301981471573?var=&hash=item464f7f9355:m:mJH1e1YJW_I2HI98ZusJIVA
p42
aVhttp://www.ebay.com/itm/TOFU-The-Vegan-Zombie-Vinyl-Figure-UK-Seller-/112021220336?epid=1273484725&hash=item1a14fc2bf0:g:CUoAAOSwuhhXV~BA
p43
aVhttp://www.ebay.com/itm/The-Guide-to-Cooking-Tofu-The-Ultimate-Tofu-Cookbook-That-You-W-9781540478696-/232235100828?epid=233441973&hash=item36124a6a9c:g:2VAAAOSw2gxYnSIS
p44
aVhttp://www.ebay.com/itm/I-Just-Love-Tofu-Sharkasm-WOMENS-T-SHIRT-tee-birthday-nutrition-shark-fashion-/162512982240?var=&hash=item25d68750e0:m:miv0lJfWMIk-fxpgZhphM0g
p45
aVhttp://www.ebay.com/itm/Blue-Dragon-Tofu-Firm-Silken-3-x-349g-/182507652790?hash=item2a7e4dc6b6:g:QDgAAOSwWxNY22vJ
p46
aVhttp://www.ebay.com/itm/KEEP-CALM-and-Eat-Tofu-Coffee-Cup-Gift-Idea-present-vegetarian-vegan-xmas-/221629857909?var=&hash=item339a2b4075:m:mP6qZ3fpbmE9Akh2lJlA9Xw
p47
aVhttp://www.ebay.com/itm/I-Love-Heart-Tofu-Thin-Pictoral-Plastic-Mouse-Pad-Mat-BadgeBeast-/171807991013?epid=1888702713&hash=item28008de4e5:g:e64AAOSw42dZCNCu
p48
aVhttp://www.ebay.com/itm/Kawaii-TOFU-Hello-Kitty-Plush-Stuffed-Toy-Doll-Mobile-Phone-Stationery-Holder-/161511174386?var=&hash=item259ad0f0f2:m:mUmWLTRwmSBeXc5WPz9vHkA
p49
aVhttp://www.ebay.com/itm/The-Vegg-Not-Your-parents-Tofu-Scramble-/122191389664?hash=item1c732ca3e0:g:jVQAAOSwHMJYCKyu
p50
aVhttp://www.ebay.com/itm/Radar-Roller-Derby-Wheels-Tofu-Demon-Devil-Ray-Diamond-/310997582171?var=&hash=item4868e6815b:m:me1d7e8toPUkNCF6iNwQqIQ
p51
aVhttp://www.ebay.com/itm/Japanese-Anime-Hannari-Kawaii-BeanCurd-PLUM-Tofu-BeanCurd-Plush-Cushion-36cm-14-/190646028204?hash=item2c636387ac:g:aRoAAOSwLVZVz-pZ
p52
aVhttp://www.ebay.com/itm/Japanese-Anime-Hannari-Kawaii-BeanCurd-PLUM-Tofu-BeanCurd-Plush-Cushion-36cm-14-/190646028204?hash=item2c636387ac:g:aRoAAOSwLVZVz-pZ
p53
a.