(lp0
Vhttp://www.ebay.com/itm/Genuine-Harley-Davidson-Ladies-Womens-Brindisi-Dealer-T-Shirt-HarleyWorld-/232373215597?var=&hash=item361a85e16d:m:mszE7h6swIbpo4-TOaCkHXw
p1
aVhttp://www.ebay.com/itm/From-Brindisi-to-Burma-Traders-onboard-the-SS-Clyde-Antique-Print-1886-/351380504979?hash=item51cfe90193:g:DbcAAOSwqu9VOQoD
p2
aVhttp://www.ebay.com/itm/SCREEN-SHADE-PRIVACY-ROOM-DIVIDER-INDOOR-OUTDOOR-LIGHT-STEEL-FRAME-WIDE-FOLDABLE-/232363296890?epid=1970195144&hash=item3619ee887a:g:rU8AAOSwxehXOvaC
p3
aVhttp://www.ebay.com/itm/Enzo-Rodi-Dietsche-Brindisi-1-4-Turn-Lever-Basin-Taps-Bath-Taps-Pair-Chrome-/222525785569?var=&hash=item33cf9205e1:m:mAgcHtFeW858UnRX9ZZaEbw
p4
aVhttp://www.ebay.com/itm/Genuine-Harley-Davidson-Ladies-Womens-Brindisi-Dealer-T-Shirt-HarleyWorld-/382132968156?hash=item58f8e65adc:g:-NUAAOSwgv5ZRo2X
p5
a.