(lp0
Vhttps://www.amazon.co.uk/Lonely-Planet-Bangladesh-Travel-Guide-x/dp/1786572133/ref=sr_1_1/260-9564177-1276806?ie=UTF8&qid=1500121107&sr=8-1&keywords=Bangladesh
p1
aVhttps://www.amazon.co.uk/d/Books/Bangladesh-Politics-Economy-Civil-Society-David-Lewis/0521713773/ref=sr_1_2/260-9564177-1276806?ie=UTF8&qid=1500121107&sr=8-2&keywords=Bangladesh
p2
aVhttps://www.amazon.co.uk/Bangladesh-Culture-Smart-Essential-Customs/dp/185733695X/ref=sr_1_3/260-9564177-1276806?ie=UTF8&qid=1500121107&sr=8-3&keywords=Bangladesh
p3
aVhttps://www.amazon.co.uk/Bangladesh-Bradt-Travel-Guides-Mikey/dp/1841624098/ref=sr_1_4/260-9564177-1276806?ie=UTF8&qid=1500121107&sr=8-4&keywords=Bangladesh
p4
aVhttps://www.amazon.co.uk/History-Bangladesh-Willem-van-Schendel/dp/0521679745/ref=sr_1_5/260-9564177-1276806?ie=UTF8&qid=1500121107&sr=8-5&keywords=Bangladesh
p5
aVhttps://www.amazon.co.uk/1000-Flags-Bangladesh-flag-5x3/dp/B001VD477M/ref=sr_1_6/260-9564177-1276806?ie=UTF8&qid=1500121107&sr=8-6&keywords=Bangladesh
p6
aVhttps://www.amazon.co.uk/d/Books/Bangladesh-Reader-History-Culture-Politics-World-Readers/0822353180/ref=sr_1_7/260-9564177-1276806?ie=UTF8&qid=1500121107&sr=8-7&keywords=Bangladesh
p7
aVhttps://www.amazon.co.uk/Lonely-Planet-Bangladesh-Travel-Guide/dp/1741794587/ref=sr_1_8/260-9564177-1276806?ie=UTF8&qid=1500121107&sr=8-8&keywords=Bangladesh
p8
aVhttps://www.amazon.co.uk/Concert-Bangladesh-George-Harrison-Friends-x/dp/B000BJ7C6K/ref=sr_1_9/260-9564177-1276806?ie=UTF8&qid=1500121107&sr=8-9&keywords=Bangladesh
p9
aVhttps://www.amazon.co.uk/Women-War-Making-Bangladesh-Remembering/dp/0822350386/ref=sr_1_10/260-9564177-1276806?ie=UTF8&qid=1500121107&sr=8-10&keywords=Bangladesh
p10
aVhttps://www.amazon.co.uk/BANGLADESH-T-shirt-Bangladeshi-Medium-Black/dp/B06W9J2W7K/ref=sr_1_11/260-9564177-1276806?ie=UTF8&qid=1500121107&sr=8-11&keywords=Bangladesh
p11
aVhttps://www.amazon.co.uk/Unisex-Bangladesh-Cricket-shirts-Sleeves/dp/B06ZYQB22K/ref=sr_1_12/260-9564177-1276806?ie=UTF8&qid=1500121107&sr=8-12&keywords=Bangladesh
p12
aVhttps://www.amazon.co.uk/Secret-Lives-Amir-Sisters-x/dp/0008192251/ref=sr_1_13/260-9564177-1276806?ie=UTF8&qid=1500121107&sr=8-13&keywords=Bangladesh
p13
aVhttps://www.amazon.co.uk/Punjab-Till-Partition-Bangladesh-Subcontinent-ebook/dp/B01H4G2J4C/ref=sr_1_14/260-9564177-1276806?ie=UTF8&qid=1500121107&sr=8-14&keywords=Bangladesh
p14
aVhttps://www.amazon.co.uk/Greeting-Card-showing-Flag-Bangladesh/dp/B01EFSG2TK/ref=sr_1_15/260-9564177-1276806?ie=UTF8&qid=1500121107&sr=8-15&keywords=Bangladesh
p15
aVhttps://www.amazon.co.uk/Bangladesh-Perspective-Orientation-Chittagong-Keokradang/dp/1521384061/ref=sr_1_16/260-9564177-1276806?ie=UTF8&qid=1500121107&sr=8-16&keywords=Bangladesh
p16
aVhttps://www.amazon.co.uk/Concert-Bangladesh-George-Harrison-Friends/dp/B000AYQJ3I/ref=sr_1_17/260-9564177-1276806?ie=UTF8&qid=1500121110&sr=8-17&keywords=Bangladesh
p17
aVhttps://www.amazon.co.uk/1971-Global-History-Creation-Bangladesh/dp/0674728645/ref=sr_1_18/260-9564177-1276806?ie=UTF8&qid=1500121110&sr=8-18&keywords=Bangladesh
p18
aVhttps://www.amazon.co.uk/CRAZY-LIZARD-BANGLADESH-BOXING-GLOVES/dp/B009SLF9BC/ref=sr_1_19/260-9564177-1276806?ie=UTF8&qid=1500121110&sr=8-19&keywords=Bangladesh
p19
aVhttps://www.amazon.co.uk/Green-Bangladesh-Cufflinks-Country-Present/dp/B00E9757X0/ref=sr_1_20/260-9564177-1276806?ie=UTF8&qid=1500121110&sr=8-20&keywords=Bangladesh
p20
aVhttps://www.amazon.co.uk/Bangladesh-Photography-Shorif-Kipepeo-Publishing/dp/1545332363/ref=sr_1_21/260-9564177-1276806?ie=UTF8&qid=1500121110&sr=8-21&keywords=Bangladesh
p21
aVhttps://www.amazon.co.uk/Bangladesh-Country-Novelty-Collectable-Souvenirz/dp/B072VNNNNS/ref=sr_1_22/260-9564177-1276806?ie=UTF8&qid=1500121110&sr=8-22&keywords=Bangladesh
p22
aVhttps://www.amazon.co.uk/Concert-Bangladesh-George-Harrison/dp/B00000AVLU/ref=sr_1_23/260-9564177-1276806?ie=UTF8&qid=1500121110&sr=8-23&keywords=Bangladesh
p23
aVhttps://www.amazon.co.uk/NEW-Bangladesh-Cuddly-Birthday-Present/dp/B00RVY6WF0/ref=sr_1_24/260-9564177-1276806?ie=UTF8&qid=1500121110&sr=8-24&keywords=Bangladesh
p24
aVhttps://www.amazon.co.uk/India-Nepal-Bhutan-Bangladesh-Lanka/dp/3829767447/ref=sr_1_25/260-9564177-1276806?ie=UTF8&qid=1500121110&sr=8-25&keywords=Bangladesh
p25
aVhttps://www.amazon.co.uk/d/nsj/Cobalt-Play-Bangladesh-Race-Car-Parking-Simulator/B01D7FRE9Y/ref=sr_1_26/260-9564177-1276806?ie=UTF8&qid=1500121110&sr=8-26&keywords=Bangladesh
p26
aVhttps://www.amazon.co.uk/Bangladesh-Badge-Flaggenpin-Fahnenpin-Button/dp/B00RPTRWAA/ref=sr_1_27/260-9564177-1276806?ie=UTF8&qid=1500121110&sr=8-27&keywords=Bangladesh
p27
aVhttps://www.amazon.co.uk/Bangladesh-Ritual-Mouth-Organs-Various-Artists/dp/B00002505L/ref=sr_1_28/260-9564177-1276806?ie=UTF8&qid=1500121110&sr=8-28&keywords=Bangladesh
p28
aVhttps://www.amazon.co.uk/d/SIM-Cards/ChatSim-Unlimited-WhatsApp-Telegram-countries/B014L8CD6A/ref=sr_1_29/260-9564177-1276806?ie=UTF8&qid=1500121110&sr=8-29&keywords=Bangladesh
p29
aVhttps://www.amazon.co.uk/Bangladesh-Lonely-Planet-Country-Guides/dp/1741045479/ref=sr_1_30/260-9564177-1276806?ie=UTF8&qid=1500121110&sr=8-30&keywords=Bangladesh
p30
aVhttps://www.amazon.co.uk/Bangladesh-National-Country-White-Cowbell/dp/B00SA8Y582/ref=sr_1_31/260-9564177-1276806?ie=UTF8&qid=1500121110&sr=8-31&keywords=Bangladesh
p31
aVhttps://www.amazon.co.uk/Bangladesh-Silhouette-Retro-Flight-Black/dp/B01E78C2S8/ref=sr_1_32/260-9564177-1276806?ie=UTF8&qid=1500121110&sr=8-32&keywords=Bangladesh
p32
a.