(lp1
Vhttp://www.ebay.com/itm/Bathroom-Cloakroom-White-Ceramic-Countertop-Wash-Basin-Sink-Washing-Bowl-/262852565562?var=&hash=item3d333bda3a:m:mvdv66479xYlrJ2BLHbdV_w
p2
aVhttp://www.ebay.com/itm/Bathroom-Cloakroom-White-Round-Ceramic-Countertop-Wash-Basin-Sink-Washing-Bowl-/262846894726?hash=item3d32e55286:g:hFgAAOSwCU1Ynkrl
p3
aVhttp://www.ebay.com/itm/Semi-Countertop-White-Ceramic-Wash-Basin-Sink-Bathroom-Half-Under-Bowl-/351944302401?epid=1555635691&hash=item51f183df41:g:MIIAAOxyaURTeyCe
p4
aVhttp://www.ebay.com/itm/Basin-Wash-Bowl-Countertop-Vanity-Metal-Wall-Mounted-Shelf-Brackets-/252215784597?hash=item3ab93b7495:g:SoIAAOSwBPNXSgiF
p5
aVhttp://www.ebay.com/itm/Glass-Wash-Basin-Square-Bowl-Clear-Tempered-Bathroom-Click-Clack-Waste-B0027-/291167522286?hash=item43caefcdee:g:0yUAAOSw-ndToovF
p6
aVhttp://www.ebay.com/itm/Bathroom-Cloakroom-Ceramic-Counter-Top-Wash-Basin-Sink-Washing-Bowl-/262970308381?var=&hash=item3d3a40771d:m:mUejABDTZ5SJL50-e_jS-aw
p7
aVhttp://www.ebay.com/itm/Counter-Top-Basin-Rectangle-Sink-Ceramic-Bowl-Modern-Bathroom-Cloakroom-Wash-Tap-/262195018271?epid=1450306837&hash=item3d0c0a7a1f:g:H20AAOSwjiFZZMOa
p8
aVhttp://www.ebay.com/itm/Vintage-Bathroom-Cloakroom-Ceramic-Counter-Top-Wash-Basin-Sink-Washing-Bowl-/252406733596?hash=item3ac49d1b1c:g:sDIAAOSwal5YIFY4
p9
aVhttp://www.ebay.com/itm/Marble-Stone-Round-Bowl-Bathroom-Wash-Basin-400mm-diameter-Travertine-B0063-/262312801471?epid=1972326491&hash=item3d130fb4bf:g:zUIAAOSwDuJW1Fc7
p10
aVhttp://www.ebay.com/itm/GLASS-BASIN-SINK-WASH-BOWL-GREEN-BLACK-BLUE-CLEAR-BATHROOM-CLOAKROOM-COUNTERTOP-/321344433048?var=&hash=item4ad19eeb98:m:mOp2ZaGDDxJrnfKEpAME8lg
p11
aVhttp://www.ebay.com/itm/White-Round-Basin-Sink-Bathroom-Cloakroom-Ceramic-Counter-Top-Wash-Washing-Bowl-/292007748755?hash=item43fd04a493:g:KWsAAOSwLEtYha2P
p12
aVhttp://www.ebay.com/itm/Basin-Sink-Bowl-Washbasin-Wash-Basin-Cloakroom-Ceramic-Wall-Hung-Mounted-/251690344230?hash=item3a99e9df26:g:jyQAAOSwr81USl1N
p13
aVhttp://www.ebay.com/itm/Vintage-Bathroom-Cloakroom-Ceramic-Counter-Top-Wash-Basin-Washing-Bowl-335mm-/262915178118?hash=item3d36f73e86:g:AwIAAOSwnHZYScND
p14
aVhttp://www.ebay.com/itm/Counter-Top-Basin-Round-Sink-Ceramic-Bowl-Gloss-Modern-Bathroom-Cloakroom-Wash-/262195025929?epid=1746502416&hash=item3d0c0a9809:g:HlEAAOSwYaFWcZre
p15
aVhttp://www.ebay.com/itm/Foldable-Collapsible-Washing-Up-Bowl-Dishwashing-Camping-Travel-Caravan-Kitchen-/381819886350?hash=item58e63d1b0e:g:AFEAAOSw8gVYB3iv
p16
aVhttp://www.ebay.com/itm/Bathroom-Cloakroom-White-Round-Ceramic-Countertop-Wash-Basin-Sink-Washing-Bowl-/262846894726?hash=item3d32e55286:g:hFgAAOSwCU1Ynkrl
p17
aVhttp://www.ebay.com/itm/FOLDING-CAMPING-WASH-BOWL-washing-up-caravan-/362020443337?hash=item544a1994c9:g:0mgAAMXQfFJRO2Kn
p18
aVhttp://www.ebay.com/itm/Vintage-Enamel-Wash-Bowl-White-40cm-Mint-condition-ex-military-hospital-/132236109113?hash=item1ec9e2e539:g:1KYAAOSw-K9ZJE6h
p19
aVhttp://www.ebay.com/itm/2016New-Kitchen-Wash-Tool-Pot-Pan-Dish-Bowl-Palm-Brush-Scrubber-Cleaning-Cleaner-/272156150681?epid=1488972496&hash=item3f5dc54b99:g:WfYAAOSwvgdW2Abo
p20
aVhttp://www.ebay.com/itm/Luxury-Bathroom-Cloakroom-Ceramic-Counter-Top-Gold-Basin-Sink-Washing-Bowl-/262958997741?hash=item3d3993e0ed:g:g6cAAOSwrhBZBK7W
p21
aVhttp://www.ebay.com/itm/SMALL-GLASS-BASIN-SINK-WASH-BOWL-CLEAR-BATHROOM-CLOAKROOM-COUNTERTOP-350mm-/322160624443?hash=item4b0245033b:g:zHgAAOSw~AVYuU4M
p22
aVhttp://www.ebay.com/itm/Marble-Stone-Round-Bowl-Bathroom-Wash-Basin-400mm-diameter-Travertine-B0063-/262312801471?epid=1972326491&hash=item3d130fb4bf:g:zUIAAOSwDuJW1Fc7
p23
aVhttp://www.ebay.com/itm/Wall-Mounted-Hung-Sink-Wash-Basin-Ceramic-Bowl-Bathroom-Cloakroom-Compact-Tap-/252215403407?epid=1650339294&hash=item3ab935a38f:g:TB8AAOSw5IJWcZr1
p24
aVhttp://www.ebay.com/itm/Vintage-Bathroom-Cloakroom-Ceramic-Counter-Top-Wash-Basin-Sink-Washing-Bowl-/262486785102?hash=item3d1d6e7c4e:g:FwIAAOSwa~BYSa20
p25
aVhttp://www.ebay.com/itm/GLASS-BASIN-SINK-WASH-BOWL-CLEAR-BATHROOM-CLOAKROOM-COUNTERTOP-420mm-/221566297049?epid=598941618&hash=item33966163d9:g:ieMAAOSwuxFYuUmS
p26
aVhttp://www.ebay.com/itm/Bathroom-Wall-mounted-CLEAR-round-glass-basin-sink-wash-bowl-STAND-TAP-/221556720890?hash=item3395cf44fa:g:gcwAAOSwfcVUIeEn
p27
aVhttp://www.ebay.com/itm/LUXURY-BLUE-GLASS-FLUTED-RIPPLE-BASIN-SINK-WASH-BOWL-BATHROOM-CLOAKROOM-/321950113260?epid=623161969&hash=item4af5b8ddec:g:6jMAAOSw2gxYuXnS
p28
aVhttp://www.ebay.com/itm/Bathroom-Wall-mount-CLEAR-round-glass-basin-sink-wash-bowl-STAND-TAP-POP-UP-/221423214508?hash=item338dda1fac:g:SlwAAOSwXYtYuJ30
p29
aVhttp://www.ebay.com/itm/Cloakroom-Hand-Sink-Corner-Wash-Basin-Bathroom-Wall-Mounted-Small-Ceramic-Bowl-/361491808522?epid=1446417623&hash=item542a97410a:g:V3IAAOSwKsRWFiVl
p30
aVhttp://www.ebay.com/itm/Black-Marquina-Marble-Wash-Basin-Bowl-Bathroom-300mm-diameter-B0047-/391395925587?epid=1271014348&hash=item5b2103de53:g:h2EAAOSwezVW1HSB
p31
aVhttp://www.ebay.com/itm/Bathroom-Cloakroom-Modern-Full-Pedestal-White-Ceramic-Wash-Basin-Sink-Bowl-/252574365931?var=&hash=item3ace9af8eb:m:mBXDGkp5GWgWWfdDrIxaF5A
p32
aVhttp://www.ebay.com/itm/Marble-Hand-Face-Wash-Basin-Bowl-Bathroom-40cm-diameter-Rain-Forest-Brown-0042-/231861094267?epid=1771331886&hash=item35fbff877b:g:vTcAAOSwWTRW1Fj9
p33
aVhttp://www.ebay.com/itm/Bathroom-FROSTED-GLASS-Wash-Set-Basin-Bowl-Sink-Matching-Waterfall-Brass-Tap-/321360995001?epid=598316922&hash=item4ad29ba2b9:g:pJEAAOSwax5YuXv5
p34
aVhttp://www.ebay.com/itm/36-CM-FALCON-ENAMEL-WASH-BASIN-WASHING-UP-LARGE-BOWL-WHITE-FRENCH-VINTAGE-41036-/162493861663?epid=1237451500&hash=item25d5638f1f:g:oZQAAOSw3utY5XKk
p35
aVhttp://www.ebay.com/itm/Semi-Countertop-Cloakroom-Bathroom-Wash-Basin-Half-Under-Sink-Washing-Bowl-654-/112402432258?hash=item1a2bb50102:g:2VAAAOSwyQtVyWDo
p36
aVhttp://www.ebay.com/itm/Ceramic-bathroom-sink-corner-hand-wash-basin-bowl-washbasin-white-45x33x13-cm-/282550593412?hash=item41c953e784:g:q6wAAOSwq~tZUeoJ
p37
aVhttp://www.ebay.com/itm/Bathroom-Wash-Basin-White-Ceramic-Bowl-Modern-Rectangle-Countertop-Gloss-Sink-/191809512283?epid=1450306837&hash=item2ca8bce35b:g:08gAAOSwDN1USmme
p38
aVhttp://www.ebay.com/itm/Vintage-Bathroom-Cloakroom-Ceramic-Counter-Top-Wash-Basin-Sink-Washing-Bowl-/252673947941?hash=item3ad48a7925:g:ee4AAOSwPh5ZHF61
p39
aVhttp://www.ebay.com/itm/Counter-Top-Basin-Round-Sink-Ceramic-Bowl-Gloss-Modern-Bathroom-Cloakroom-Wash-/391684757797?hash=item5b323b1925:g:KWsAAOSwLEtYha2P
p40
aVhttp://www.ebay.com/itm/Marble-Hand-Face-Wash-Basin-Bowl-Bathroom-40cm-diameter-Rain-Forest-Brown-0042-/231861094267?epid=1771331886&hash=item35fbff877b:g:vTcAAOSwWTRW1Fj9
p41
aVhttp://www.ebay.com/itm/Round-Bathroom-Cloakroom-Ceramic-Counter-Top-Wash-Basin-Sink-Washing-Bowl-/261958602923?hash=item3cfdf310ab:g:-YcAAOSwHnFVm~n2
p42
aVhttp://www.ebay.com/itm/LUXURY-BLUE-GLASS-FLUTED-RIPPLE-BASIN-SINK-WASH-BOWL-BATHROOM-CLOAKROOM-/321950113260?epid=623161969&hash=item4af5b8ddec:g:6jMAAOSw2gxYuXnS
p43
aVhttp://www.ebay.com/itm/36-CM-FALCON-ENAMEL-WASH-BASIN-WASHING-UP-LARGE-BOWL-WHITE-FRENCH-VINTAGE-41036-/162493861663?epid=1237451500&hash=item25d5638f1f:g:oZQAAOSw3utY5XKk
p44
aVhttp://www.ebay.com/itm/Bathroom-EN-SUITE-Wall-mounted-glass-basin-sink-wash-bowl-420mm-STAND-/321950231732?hash=item4af5baacb4:g:rBUAAOSwB-1YuKAE
p45
aVhttp://www.ebay.com/itm/Strata-Little-Star-Baby-Bathing-Top-n-Tail-Wash-Bowl-White-Silver-Star-Baby-Bath-/122017398191?epid=1604315795&hash=item1c68cdbdaf:g:sekAAOSwc1FXYomD
p46
aVhttp://www.ebay.com/itm/Marble-Hand-Face-Wash-Basin-Bowl-Bathroom-300mm-diameter-Crema-Marfil-0071-/331791042278?epid=1163921705&hash=item4d404986e6:g:OQ8AAOSwB4NW1HGr
p47
aVhttp://www.ebay.com/itm/Black-Marquina-Marble-Wash-Basin-Bowl-Bathroom-350mm-diameter-B0046-/391395925561?epid=1071426289&hash=item5b2103de39:g:h9AAAOSwezVW1HSE
p48
aVhttp://www.ebay.com/itm/Marble-Hand-Face-Wash-Basin-Bowl-Bathroom-30cm-diameter-Rain-Forest-Brown-0049-/262312798223?hash=item3d130fa80f:g:CqUAAOSwuAVW1Fe~
p49
aVhttp://www.ebay.com/itm/Marble-Wash-Basin-Bowl-Bathroom-Counter-35cm-diameter-Rain-Forest-Brown-0048-/231861094712?epid=1171229877&hash=item35fbff8938:g:JdcAAOSwFNZW1GmS
p50
aVhttp://www.ebay.com/itm/Cloakroom-Hand-Sink-Corner-Wash-Basin-Bathroom-Wall-Mounted-Small-Ceramic-Bowl-/262195020262?epid=1446417623&hash=item3d0c0a81e6:g:rlcAAOSwCQNWcZmR
p51
aVhttp://www.ebay.com/itm/Bathroom-EN-SUITE-Wall-mounted-CLEAR-round-glass-basin-sink-wash-bowl-STAND-/221529695329?hash=item339432e461:g:iZEAAOSwuxFYuJIB
p52
aVhttp://www.ebay.com/itm/Goldfish-Pattern-Bathroom-Cloakroom-Ceramic-Counter-Top-Wash-Basin-Sink-Bowl-/252325668863?hash=item3abfc827ff:g:iswAAOSwpIdW7Xm~
p53
aVhttp://www.ebay.com/itm/Vintage-Bathroom-Cloakroom-Ceramic-Counter-Top-Flower-Basin-Sink-Washing-Bowl-/252450842952?hash=item3ac73e2948:g:H5gAAOSweWVXfC-m
p54
aVhttp://www.ebay.com/itm/Marble-Hand-Wash-Basin-Bowl-Bathroom-Counter-400mm-diameter-Sunny-Yellow-0043-/231861094341?epid=1463933693&hash=item35fbff87c5:g:~tgAAOSwPc9W1FkA
p55
aVhttp://www.ebay.com/itm/Joseph-Joseph-Wash-and-Drain-Washing-Up-Bowl-Green-Brand-NEW-/252755077639?epid=1033840876&hash=item3ad9606a07:g:XMEAAOSwA3dYlegK
p56
aVhttp://www.ebay.com/itm/Designer-LARGE-aqua-green-glass-basin-sink-wash-bowl-STUNNING-BASIN-four-corners-/321135862988?hash=item4ac53064cc:g:aYEAAMXQDK1RqS~m
p57
aVhttp://www.ebay.com/itm/Marble-Hand-Face-Wash-Basin-Bowl-Bathroom-300mm-diameter-Black-Marquina-B0047-/262312797987?epid=1371395861&hash=item3d130fa723:g:lYkAAOSwzgRW1FdQ
p58
aVhttp://www.ebay.com/itm/Joseph-Joseph-WASH-DRAIN-Washing-Up-Bowl-Straining-Plug-W85055-GY85056-GN85059-/262999957160?var=&epid=1412620572&hash=item3d3c04dea8:m:msPkz1Y853ODuJN-VwDSo7g
p59
aVhttp://www.ebay.com/itm/Wash-Tool-Palm-Steel-Wire-Ball-Pot-Dish-Kitchen-Scrubber-Brush-New-Cleaning-Bowl-/272283194529?epid=556128060&hash=item3f6557d4a1:g:RTIAAOSwGIRXa37V
p60
aVhttp://www.ebay.com/itm/GLASS-BASIN-SINK-WASH-BOWL-VESSEL-CLEAR-BATHROOM-CLOAKROOM-COUNTERTOP-42CM-TAP-/322165768253?hash=item4b0293803d:g:ET0AAOSwhQhYxqfQ
p61
aVhttp://www.ebay.com/itm/Marble-Hand-Wash-Basin-Bowl-Bathroom-Counter-300mm-diameter-Sunny-Yellow-0051-/231861095164?hash=item35fbff8afc:g:JhEAAOSwKtVW1Ghy
p62
aVhttp://www.ebay.com/itm/PREMIUM-Bathroom-FROSTED-GLASS-Wash-Basin-Bowl-Sink-Matching-Waterfall-Brass-Tap-/322049963017?hash=item4afbac7409:g:IUQAAOSw32lYuX11
p63
aVhttp://www.ebay.com/itm/Gorgeous-Bathroom-ripple-aqua-green-countertop-glass-basin-sink-wash-bowl-/221389001194?hash=item338bd011ea:g:CkgAAOxydgZTGeNY
p64
aVhttp://www.ebay.com/itm/PREMIUM-SMALL-CRYSTAL-CLEAR-GLASS-BASIN-SINK-WASH-BOWL-BATHROOM-CLOAKROOM-310mm-/221970808181?epid=1088926447&hash=item33ae7dbd75:g:XswAAOSwY3BZL~03
p65
aVhttp://www.ebay.com/itm/Normann-Copenhagen-Washing-Up-Bowl-Rubber-in-Assorted-Colours-Wash-Bowl-SALE-/391478521615?var=&hash=item5b25f02f0f:m:mz9k3s24vpCDX5OATQFnb3g
p66
aVhttp://www.ebay.com/itm/Vintage-Bathroom-Cloakroom-Ceramic-Counter-Top-Wash-Basin-Sink-Washing-Bowl-/252673942769?hash=item3ad48a64f1:g:AwIAAOSwnHZYScND
p67
aVhttp://www.ebay.com/itm/Round-Bathroom-Cloakroom-Ceramic-Counter-Top-Wash-Basin-Sink-Washing-Bowl-N001-/252019689929?hash=item3aad8b49c9:g:E-4AAOSwDmBY5oeg
p68
aVhttp://www.ebay.com/itm/Black-Marquina-Marble-Wash-Basin-Bowl-Bathroom-400mm-diameter-B0045-/391395925538?hash=item5b2103de22:g:uagAAOSwWTRW1HSO
p69
aVhttp://www.ebay.com/itm/Tin-Wash-Bowl-Dolls-House-Miniatures-Kitchen-Accessory-/192118761944?hash=item2cbb2ba9d8:g:sFsAAOSwL0NXESdN
p70
aVhttp://www.ebay.com/itm/DESIGNER-GORGEOUS-LUXURY-FLUTED-BATHROOM-GLASS-BASIN-STUNNING-sink-wash-bowl-/220812151810?hash=item33696e0c02:g:9a8AAOSwpDdVeDln
p71
aVhttp://www.ebay.com/itm/Joseph-Joseph-Wash-And-Drain-Washing-Up-Bowl-White-Green-/262787907641?hash=item3d2f614039:g:gnsAAOSwZQRYaVLp
p72
aVhttp://www.ebay.com/itm/Designer-Bathroom-glass-basin-transparent-sink-CLOAKROOM-COUNTER-TOP-WASH-BOWL-/221418079713?hash=item338d8bc5e1:g:0P4AAMXQ74JTT0L5
p73
aVhttp://www.ebay.com/itm/Catering-Pot-Wash-Sink-Single-Bowl-/122389077954?hash=item1c7ef51fc2:g:FYoAAOSwBLlU2gIz
p74
aVhttp://www.ebay.com/itm/Joseph-Joseph-Wash-and-Drain-Washing-Up-Bowl-White-Green-Joseph-Joseph-/141951704889?epid=1237598396&hash=item210cfb1f39:g:Ys0AAOSwGYVXBZqt
p75
aVhttp://www.ebay.com/itm/Bathroom-EN-SUITE-Wall-mounted-CLEAR-round-glass-basin-sink-wash-bowl-STAND-/321531674566?hash=item4adcc7ffc6:g:Ov8AAOSwDk5UIY0X
p76
aVhttp://www.ebay.com/itm/Large-Enamel-Wash-Bowl-French-Cream-Black-Text-Boutique-De-Fleurs-Madeleine-Rue-/172443664107?hash=item2826717eeb:g:qgYAAOSwMNxXUubL
p77
aVhttp://www.ebay.com/itm/36CM-FALCON-ENAMEL-WASH-BASIN-WASHING-UP-LARGE-BOWL-WHITE-FRENCH-VINTAGE-41036-/331054715892?epid=1237451500&hash=item4d146613f4:g:JtQAAOxy0NtTDlJk
p78
aVhttp://www.ebay.com/itm/Strata-Little-Star-Baby-Bathing-Top-n-Tail-Wash-Bowl-White-Silver-Star-Baby-Bath-/122017398191?epid=1604315795&hash=item1c68cdbdaf:g:sekAAOSwc1FXYomD
p79
aVhttp://www.ebay.com/itm/Joseph-Joseph-Wash-And-Drain-Washing-Up-Bowl-Grey-/201765395354?epid=1933053472&hash=item2efa279b9a:g:My0AAOSwjDZYZOnu
p80
aVhttp://www.ebay.com/itm/Wash-and-Drain-Bowl-by-Joseph-Joseph-Green-/263052985139?hash=item3d3f2e0333:g:O18AAOSw~y9ZByFO
p81
aVhttp://www.ebay.com/itm/Designer-gorgeous-glass-basin-sink-BATHROOM-CLOAKROOM-COUNTER-TOP-WASH-BOWL-/221338585223?hash=item3388cec887:g:E3sAAOSw4CFYsCSK
p82
aVhttp://www.ebay.com/itm/Round-Bathroom-Cloakroom-Ceramic-Counter-Basin-Sink-Washing-Bowl-Floral-Unique-/261958509202?hash=item3cfdf1a292:g:xfgAAOSwYIxX3tjv
p83
aVhttp://www.ebay.com/itm/Kitchen-Large-Rectangular-Washing-up-Bowl-Light-Pink-/162334752809?hash=item25cbe7c029:g:ulcAAOSwxp9W29D~
p84
aVhttp://www.ebay.com/itm/Vintage-Bathroom-Cloakroom-Ceramic-Counter-Top-Small-Basin-Sink-Washing-Bowl-/262724377252?hash=item3d2b97daa4:g:vzcAAOSw44BYLvvG
p85
aVhttp://www.ebay.com/itm/Vintage-Bathroom-Cloakroom-Ceramic-Counter-Top-Wash-Basin-Sink-Washing-Bowl-/262956131575?hash=item3d396824f7:g:ZBYAAOSwuMZZAhxL
p86
aVhttp://www.ebay.com/itm/Round-Bathroom-Cloakroom-Ceramic-Counter-Top-Wash-Basin-Sink-Washing-Bowl-/261808558428?hash=item3cf501915c:g:dkMAAOSwImRYEetS
p87
aVhttp://www.ebay.com/itm/New-Commercial-Pot-Wash-Sink-Single-Bowl-Stainless-Steel-/252804827375?hash=item3adc5788ef:g:FYoAAOSwBLlU2gIz
p88
aVhttp://www.ebay.com/itm/2X-Nail-Art-Hand-Soaker-Wash-Bowl-Powder-Polish-Remover-Manicure-Soak-Tool-255-/131106369397?epid=857881567&hash=item1e868c6f75:g:WrgAAOSwVL1WCsll
p89
aVhttp://www.ebay.com/itm/Folding-Silicone-Collapsible-Bucket-Camping-Caravan-Hiking-Fishing-Wash-Up-Bowl-/222570980357?hash=item33d243a405:g:96IAAOSwa~BYUC~X
p90
aVhttp://www.ebay.com/itm/Round-Bathroom-Cloakroom-Ceramic-Counter-Basin-Sink-Washing-Bowl-Floral-Unique-/252149261991?hash=item3ab54466a7:g:YLUAAOSw9mFWM7I0
p91
aVhttp://www.ebay.com/itm/Kampa-Portable-Camping-Folding-Cleaning-Wash-Bowl-/201111577295?epid=1242553559&hash=item2ed32f22cf:g:pDkAAOSwVJhZOsyg
p92
aVhttp://www.ebay.com/itm/Joseph-Joseph-WASH-DRAIN-Plus-Washing-Up-Bowl-w-Dish-Drainer-W-85101-Gy-85102-/263003123724?var=&hash=item3d3c35300c:m:mRBO3H2Th9w51k-zQsiRaUQ
p93
aVhttp://www.ebay.com/itm/Comfortable-Classical-Salon-Barber-Basin-Backwash-Units-Shampoo-Back-Wash-Bowl-/262863833176?hash=item3d33e7c858:g:DikAAOSwx6pYqz~L
p94
aVhttp://www.ebay.com/itm/Foldable-Collapsible-Washing-Up-Bowl-Dish-Camping-Travel-Caravan-Boat-Kitchen-/282399076560?var=&hash=item41c04bf0d0:m:mJrlZdjHeAfC59BEtrnW4Tg
p95
aVhttp://www.ebay.com/itm/Wham-Round-Circular-Plastic-Washing-Up-Bowl-Small-Medium-or-Large-Kitchen-Basin-/302019147857?var=&hash=item4651be7851:m:mnYqP6D7TJVakk3wrmhsgDw
p96
aVhttp://www.ebay.com/itm/Wham-Square-Plastic-Washing-Up-Bowl-Kitchen-Sink-Basin-Mixing-/291823378107?var=&hash=item43f2075ebb:m:mVymVohs9PP8claXYmYPgtg
p97
aVhttp://www.ebay.com/itm/Nail-Art-Accessories-Soak-Bowl-Tray-Hand-Wash-Manicure-x-1-/122480802396?var=&hash=item1c846cba5c:m:mYTIz21PUvsCK-idQ6aG5qw
p98
aVhttp://www.ebay.com/itm/NEW-FOLDING-WASH-WATER-BOWL-PET-BOWL-OLIVE-COMPACT-MFH-PVC-STRONG-CAMPING-TRAVEL-/122057411504?hash=item1c6b304bb0:g:M40AAOSwnipWaJx0
p99
aVhttp://www.ebay.com/itm/Plastic-Small-Large-Round-Rectangular-Washing-Up-Bowl-Basin-Sink-Kitchen-/131570686991?var=&epid=1604303894&hash=item1ea2395c0f:m:mh5H-jR_2xuB9M4o6gMIUPw
p100
aVhttp://www.ebay.com/itm/WHAM-LARGE-RECTANGULAR-RECTANGLE-PLASTIC-WASHING-UP-BOWL-BASIN-HEAVY-DUTY-/272547789223?var=&hash=item3f751d39a7:m:ml3LfbFn9MzDhu9KlRw68Pw
p101
aVhttp://www.ebay.com/itm/Wham-Round-Circular-Plastic-Washing-Up-Bowl-Small-Medium-or-Large-Kitchen-Basin-/302019147857?var=&hash=item4651be7851:m:mnYqP6D7TJVakk3wrmhsgDw
p102
aVhttp://www.ebay.com/itm/Folding-Silicone-Collapsible-Bucket-Camping-Caravan-Hiking-Fishing-Wash-Up-Bowl-/222570980357?hash=item33d243a405:g:96IAAOSwa~BYUC~X
p103
aVhttp://www.ebay.com/itm/Round-Bathroom-Cloakroom-Floral-Ceramic-Counter-Top-Basin-Sink-Washing-Bowl-/252450817377?hash=item3ac73dc561:g:8esAAOSw-KFXfCiU
p104
aVhttp://www.ebay.com/itm/Vintage-Bathroom-Cloakroom-Ceramic-Counter-Top-Wash-Basin-Sink-Washing-Bowl-/262754447922?hash=item3d2d62b232:g:9QsAAOSwrhBZDeG0
p105
aVhttp://www.ebay.com/itm/Round-Bathroom-Cloakroom-Ceramic-Counter-Top-Wash-Basin-Sink-Washing-Bowl-/251663174385?hash=item3a984b4af1:g:g4YAAOSwKtlWolq5
p106
aVhttp://www.ebay.com/itm/New-Commercial-Single-Deep-Bowl-Pot-Wash-Sink-2-55ft-78cm-/252684299105?hash=item3ad5286b61:g:FYoAAOSwBLlU2gIz
p107
aVhttp://www.ebay.com/itm/Clam-Shell-Bathroom-Cloakroom-Sink-Wash-Basin-Bowl-Counter-Top-/172439411695?hash=item2826309bef:g:rM8AAOSwh2xYBODC
p108
aVhttp://www.ebay.com/itm/Sea-To-Summit-Kitchen-Sink-10L-litre-Compact-Motorcycle-Camping-Wash-Bowl-/232271915409?epid=1537255457&hash=item36147c2991:g:f68AAOSw4CFYyVZT
p109
a.