(lp1
Vhttp://www.ebay.com/itm/Antique-style-wrought-iron-sign-board-hanging-bracket-shop-sign-house-name-RHB1-/401243281107?hash=item5d6bf696d3:g:m5IAAOSw-3FZCKG0
p2
aVhttp://www.ebay.com/itm/House-name-number-plate-sign-personalised-rigid-signboard-Christmas-gift-idea-/270800161347?hash=item3f0cf28a43:m:mcq3BBthb0uRyBoazH17qyQ
p3
aVhttp://www.ebay.com/itm/Antique-style-wrought-iron-sign-board-hanging-bracket-shop-sign-house-name-RHB1-/401243279345?hash=item5d6bf68ff1:g:F94AAOSwR29ZCKG1
p4
aVhttp://www.ebay.com/itm/Vintage-Shabby-Chic-Wall-Mounted-Door-Sign-Board-Family-Love-Rule-Sign-Plaque-/182177513517?var=&hash=item2a6aa0402d:m:mXlypPcUcg51lJDiIJKEa0g
p5
aVhttp://www.ebay.com/itm/Family-Friend-Birthday-Calendar-Plaque-Special-Occasion-Reminder-Sign-Board-Gift-/292147366390?epid=1960316962&hash=item44055709f6:g:NDEAAOSwd~RZPW1R
p6
aVhttp://www.ebay.com/itm/LED-CINEMATIC-LIGHT-UP-BOX-WITH-84-LETTERS-SYMBOLS-MESSAGE-DISPLAY-SIGN-BOARD-/182599263119?hash=item2a83c3a38f:g:K5UAAOSwA3dYLRjQ
p7
aVhttp://www.ebay.com/itm/Antique-style-wrought-iron-sign-board-hanging-bracket-shop-sign-house-name-RHB1-/401208870631?hash=item5d69e986e7:g:MC0AAOSwnONZCJ7R
p8
aVhttp://www.ebay.com/itm/DISNEY-FROZEN-PERSONALISED-NAME-SIGN-PLAQUE-DOOR-RIGID-SIGNBOARD-GIFT-IDEA-FRZ2-/281501955549?epid=1388617172&hash=item418ad2f5dd:g:UGYAAOSwQJ5UTUYc
p9
aVhttp://www.ebay.com/itm/LED-CINEMATIC-LIGHT-UP-BOX-WITH-60-LETTERS-SYMBOLS-MESSAGE-DISPLAY-SIGN-BOARD-/172724957971?hash=item283735b313:g:7G4AAOSwYlRZLfp9
p10
aVhttp://www.ebay.com/itm/BUY-IT-OR-MARRY-IT-VINTAGE-SHABBY-CHIC-WALL-PLAQUE-SIGN-BOARD-/370925673566?hash=item565ce49c5e:g:Z3IAAOxyHIlTX~5p
p11
aVhttp://www.ebay.com/itm/JUST-MARRIED-NUMBER-PLATE-PERSONALISED-WEDDING-CAR-SIGN-magnetic-or-signboard-/282070905409?var=&hash=item41acbc7241:m:mduRFLNzLtsRPiZm-FXhCMA
p12
aVhttp://www.ebay.com/itm/SIGN-BOARD-WITH-BRACKET-SIGN-BOARD-BRACKET-SIGN-BOARD-WITH-BRACKET-HOUSE-NAME-/221898806400?hash=item33aa331480:g:8iEAAOSw0HVWCXch
p13
aVhttp://www.ebay.com/itm/Man-Cave-Dads-Grandads-Shed-Metal-Screen-Sign-Board-Hanging-Home-Plaque-Hang-/172548001373?var=&hash=item282ca98e5d:m:mdUqYh05eaUa_zAUsCV59gA
p14
aVhttp://www.ebay.com/itm/NO-PARKING-24-HR-ACCESS-REQUIRED-SIGN-BOARD-GRAPHIC-VINYL-STICKER-RED-WHITE-ANY-/151406335005?hash=item234085541d:g:Hg8AAOSwQItUDzPd
p15
aVhttp://www.ebay.com/itm/CHRISTMAS-WOODEN-PLAQUES-CRAFT-BLANK-AND-DECORATION-MDF-WALL-DOOR-SIGN-BOARD-/122233677915?var=&hash=item1c75b1e85b:m:m-ho0OK7r8ZXGJDAl3eS7iA
p16
aVhttp://www.ebay.com/itm/LED-CINEMATIC-LIGHT-UP-BOX-WITH-60-LETTERS-SYMBOLS-MESSAGE-DISPLAY-SIGN-BOARD-/172724957971?hash=item283735b313:g:7G4AAOSwYlRZLfp9
p17
aVhttp://www.ebay.com/itm/LED-CINEMATIC-LIGHT-UP-BOX-WITH-60-LETTERS-SYMBOLS-MESSAGE-SIGN-BOARD-15x10cm-/122551879116?hash=item1c88a945cc:g:TIcAAOSw~e5ZRGMq
p18
aVhttp://www.ebay.com/itm/Funny-Dog-Signs-Signboard-Plaque-Door-Wall-Board-Puppy-Retro-Vintage-Hanging-/172547892282?var=&hash=item282ca7e43a:m:mjwuV975y76ZiqwAsdVqyHA
p19
aVhttp://www.ebay.com/itm/A4-INDOOR-BATTERY-CINEMATIC-WEDDING-PARTY-PLAQUE-SIGN-BOARD-LIGHT-UP-LETTER-BOX-/292024622179?hash=item43fe061c63:g:XSAAAOSwdGFYnZjz
p20
aVhttp://www.ebay.com/itm/LED-CINEMATIC-LIGHT-UP-BOX-WITH-60-LETTERS-SYMBOLS-MESSAGE-SIGN-BOARD-/122598116777?hash=item1c8b6acda9:g:eUcAAOSw4CFYzwbF
p21
aVhttp://www.ebay.com/itm/Wooden-Family-Birthday-Reminder-Plaque-Sign-Board-Calendar-/362029900790?hash=item544aa9e3f6:g:lWQAAOSwwvZZXUjl
p22
aVhttp://www.ebay.com/itm/NO-PARKING-Signboard-Sign-Available-In-Different-Sizes-Colours-NP01-/170912520710?var=&hash=item27cb2e1a06:m:m22zuKQoLQweAJqXmFQg6tg
p23
aVhttp://www.ebay.com/itm/30W-50W-LED-Floodlight-Cool-White-Garden-Security-Signboard-Outdoor-Waterproof-/332032960211?var=&hash=item4d4eb4e6d3:m:mA6aPduYK97g8xPQHrB3k1Q
p24
aVhttp://www.ebay.com/itm/NESTLE-FAB-LOLLY-ICE-CREAM-SIGN-BOARD-RETAIL-SHOP-ADVERTISING-DISPLAY-/361962963973?hash=item5446ac8405:g:wpwAAOSwIWVY~6oq
p25
aVhttp://www.ebay.com/itm/LED-CINEMATIC-LIGHT-UP-BOX-WITH-84-LETTERS-SYMBOLS-MESSAGE-SIGN-BOARD-/122428940374?hash=item1c81556056:g:dUsAAOSwXYtY4awc
p26
aVhttp://www.ebay.com/itm/Large-A-Frame-Sign-Board-Menu-Table-Top-Wedding-Party-Cafe-Shop-2-Sided-A4-/321784292524?hash=item4aebd6a4ac:g:Jl0AAOSwv0tVgCRx
p27
aVhttp://www.ebay.com/itm/Large-A-Frame-Sign-Board-Menu-Table-Top-Wedding-Party-Cafe-Shop-2-Sided-A4-/321784292524?hash=item4aebd6a4ac:g:Jl0AAOSwv0tVgCRx
p28
aVhttp://www.ebay.com/itm/High-Quality-IP65-Weatherproof-Sign-Light-Up-or-Down-Plaque-Signboard-Wall-Wash-/351343693430?hash=item51cdb74e76:g:jvEAAOSwFNZWxH~v
p29
aVhttp://www.ebay.com/itm/LED-Open-Sign-Board-Super-Bright-Flashing-Cafe-Shop-Window-Hanging-Display-/322318705670?var=&hash=item4b0bb12406:m:mBlUeTRlgQ0Nl--Gh5ZtcSQ
p30
aVhttp://www.ebay.com/itm/Staff-Large-Office-Slide-In-Out-Attendance-Register-Wall-Sign-Board-40-Names-/132053472018?epid=1104304869&hash=item1ebf001312:g:LI0AAOSwFqJWr3cO
p31
aVhttp://www.ebay.com/itm/Metal-EXIT-Sign-Made-From-3mm-Thick-Metal-Signboard-Size-210mm-x-145mm-/290736624152?epid=1343821993&hash=item43b140d218:m:mXvWjfcNXhh4607X4Az-41g
p32
aVhttp://www.ebay.com/itm/Foamex-Sign-Board-5mm-Printed-Full-Colour-Rigid-Plastic-Board-/252971127210?var=&hash=item3ae64111aa:m:maHeRGwgVK_e6XU2wzAmIQw
p33
aVhttp://www.ebay.com/itm/PERSONALISE-CUSTOM-SIGN-Board-Parking-Security-Indoor-Outdoor-RED-signage-/121983178782?var=&hash=item1c66c3981e:m:mIyzGlXucnLTCn9gINmSzDg
p34
aVhttp://www.ebay.com/itm/Custom-made-Correx-Sign-Board-Your-Words-Your-Colours-Free-Delivery-/172050762394?var=&hash=item280f064a9a:m:ml5F-hRLkNYR4weVrYdqCPA
p35
aVhttp://www.ebay.com/itm/LED-mobile-unlocking-repairs-sign-board-31-5x16-/321735235031?hash=item4ae8ea15d7:g:z-QAAOSwcwhVOV8R
p36
aVhttp://www.ebay.com/itm/led-off-licence-sign-board-/321700665859?hash=item4ae6da9a03:g:~akAAOSwNSxU46in
p37
aVhttp://www.ebay.com/itm/Custom-Personalised-SIGN-Board-Parking-Security-Indoor-Outdoor-RED-signage-A4-/121994283363?var=&hash=item1c676d0963:m:m0hppdHhM3xFopWTj9Suufw
p38
aVhttp://www.ebay.com/itm/3-x-CAUTION-WORKING-DOGS-SIGNS-MULTI-OPTIONS-STICKER-MAGNET-BOARD-t25-/132059244591?var=&hash=item1ebf58282f:m:mmBq2Yb1WyTcaVUBLDSAaoA
p39
aVhttp://www.ebay.com/itm/Smile-you-are-on-cctv-warning-sign-400mm-x-300mm-5mm-weatherproof-signboard-/272269084282?hash=item3f6480867a:m:miDxgR0Di96dqXWNohfeZpg
p40
aVhttp://www.ebay.com/itm/LED-SIGN-BOARD-ALL-MOBILE-PHONE-UNLOCKING-REPAIRS-ACCESSORIES-HERE-/321907553764?hash=item4af32f75e4:g:YBwAAOSwhcJWNIzO
p41
aVhttp://www.ebay.com/itm/NO-BALL-GAMES-Signboard-Sign-Available-In-Different-Sizes-Colours-/170912246096?var=&hash=item27cb29e950:m:m-teDR5flS6ZLB3LvvaxAZA
p42
aVhttp://www.ebay.com/itm/Vintage-Style-Outdoor-Garden-Brown-Iron-Blackboard-Sign-Board-57-x-44-cm-/282199311511?hash=item41b463c497:g:yWYAAOSw4shX6PfS
p43
aVhttp://www.ebay.com/itm/10-x-CAR-FOR-SALE-sign-signboard-display-boards-CUSTOM-WORDINGS-blue-/232293602803?hash=item3615c715f3:g:6WQAAOSwPc9WwQUb
p44
aVhttp://www.ebay.com/itm/Retail-Sign-Board-POS-Hanging-Kit-for-suspended-ceiling-easy-install-/262636068317?var=&hash=item3d26545ddd:m:m6xq63UhBz0tFf2Dm0MdYfA
p45
aVhttp://www.ebay.com/itm/Property-to-let-sign-board-Personalised-x-2-/152586960758?epid=27002874658&hash=item2386e43f76:g:3IcAAOSw8cNUMrRs
p46
aVhttp://www.ebay.com/itm/Coffee-SignBoard-Decal-Vinyl-Sticker-Window-Shops-Pubs-Hotels-Cafes-Offices-Bars-/141052993164?var=&hash=item20d769de8c:m:ma2GFh0FOB1tiijfDJUG_og
p47
aVhttp://www.ebay.com/itm/Novelty-On-Strike-Sign-Board-Patch-Badge-New-/400272365926?hash=item5d32179966:m:mr7Q4W-KfWN2TTomp12NlTQ
p48
aVhttp://www.ebay.com/itm/Led-Scrolling-Programmable-Message-Sign-board-40-x-8-with-Wifi-PC-Android-/112218631902?hash=item1a20c06ede:g:M3cAAOSwLEtYgp3d
p49
aVhttp://www.ebay.com/itm/BRAND-NEW-SHOP-FLASHING-LED-SIGN-OFF-LICENCE-WINDOW-SIGN-BOARD-/111313444588?hash=item19eacc5eec:g:zmEAAOSwnDxUkaLw
p50
aVhttp://www.ebay.com/itm/Metal-ENTRANCE-Sign-Made-From-3mm-Thick-Metal-Signboard-Size-405mm-x-135mm-/300734796052?epid=1543837738&hash=item460530d114:m:mAzjbNBxuk4PikkreFAs37w
p51
aVhttp://www.ebay.com/itm/CARD-OYSTER-HOLDER-DESTINATION-SIGN-BOARD-NOVELTY-QUIRKY-FUN-XMAS-CHRISTMAS-/281054416329?hash=item4170260dc9:m:mZ7eGWIL4jmHA77Ug8mZ8RA
p52
aVhttp://www.ebay.com/itm/Shop-Sign-Board-Extension-Arm-Bracket-50cm-long-COMPLETE-WITH-LED-FLOODLIGHT-/252789925044?epid=1473119049&hash=item3adb7424b4:g:7hIAAOSwtJZXV~R3
p53
aVhttp://www.ebay.com/itm/LED-SCROLLING-DIGITAL-MOVING-MESSAGE-SIGN-BOARD-7-80-LED-RED-MULTICOLOUR-/222302298070?var=&hash=item33c23fdfd6:m:myuZdElADtLCFerwEsAOFgQ
p54
aVhttp://www.ebay.com/itm/12V-20-Pcs-LED-Module-Light-Pack-Cool-White-SMD5050-LEDs-Waterproof-Signboard-/332012160490?hash=item4d4d7785ea:g:oyoAAOSwn7JYDUT0
p55
aVhttp://www.ebay.com/itm/3x-CAR-FOR-SALE-SIGN-BOARD-CAR-PRICE-SUNVISOR-VEHICLE-AUTO-PRICE-UNIT-f-red-/332174693476?hash=item4d57279464:g:TIwAAOSwgApXBnac
p56
aVhttp://www.ebay.com/itm/NEW-FREE-DELIVERY-SHOP-FLASHING-LED-HIGH-QUALITY-WINDOW-SIGN-BOARD-/112032362575?epid=1170146395&hash=item1a15a6304f:g:YV4AAOSwvg9XZqxH
p57
aVhttp://www.ebay.com/itm/1-BLUE-CAR-FOR-SALE-SIGN-BOARD-CAR-PRICE-SUN-VISOR-2-SELF-CLING-STICKERS-/332174693493?hash=item4d57279475:g:BAwAAOSwHMJYPGKw
p58
aVhttp://www.ebay.com/itm/NEW-OPEN-TAILOR-ALTERATIONS-WINDOW-SIGN-BOARD-LED-BOARD-FLASHING-STILL-LIGHT-/122055303451?hash=item1c6b10211b:g:9M0AAOSwaB5Xkk0J
p59
aVhttp://www.ebay.com/itm/NEW-NAILS-OPEN-SHOP-FLASHING-LED-SIGN-FOOD-WINDOW-SIGN-BOARD-/121787433250?hash=item1c5b18c122:g:6sYAAOSwl9BWHjxq
p60
aVhttp://www.ebay.com/itm/NEW-SALE-REPAIR-SHOP-FLASHING-LED-LAPTOP-SIGN-WINDOW-SIGN-BOARD-/111798054505?hash=item1a07aeee69:g:H5MAAOSwA4dWH3vS
p61
aVhttp://www.ebay.com/itm/BRAND-NEW-SHOP-FLASHING-LED-SIGN-MONEY-TRANSFER-WINDOW-SIGN-BOARD-/111313436047?hash=item19eacc3d8f:g:scwAAOSwg3FUkxgQ
p62
aVhttp://www.ebay.com/itm/10-x-CAR-FOR-SALE-sign-signboard-display-boards-CUSTOM-WORDINGS-one-sided-/332174693497?hash=item4d57279479:g:PWgAAOSwPhdU6PHt
p63
aVhttp://www.ebay.com/itm/10-Pieces-of-Matt-White-A4-sized-PVC-foamex-foam-sheet-sign-board-3mm-thick-/132178176009?hash=item1ec66ee809:g:KqkAAOSwKtVWxs4h
p64
aVhttp://www.ebay.com/itm/PLEASE-CLOSE-THE-GATE-PLASTIC-SIGN-BOARD-SB6-/401142503631?epid=696069192&hash=item5d65f4d8cf:g:mckAAOSwDk5T4Oo7
p65
aVhttp://www.ebay.com/itm/10-x-Car-Price-Pricing-Sun-Visor-Set-FOR-SALE-Sign-Board-/111010156136?hash=item19d8b88e68:g:oFQAAOSwTM5Y0m~3
p66
aVhttp://www.ebay.com/itm/PLEASE-KEEP-TO-THE-FOOTPATH-DOGS-MUST-BE-KEPT-ON-A-LEAD-SIGN-40CM-X-30CM-/152122536906?var=&hash=item236b35b3ca:m:m1jgwAiYEbAGgGnjUjDqE2g
p67
aVhttp://www.ebay.com/itm/Elder-Sign-Board-Game-/121761904968?epid=177210118&hash=item1c59933948:g:yKEAAOSwQTVV-d1v
p68
aVhttp://www.ebay.com/itm/5-Pieces-of-Matt-White-A4-sized-PVC-foamex-foam-sheet-sign-board-3mm-thick-/131994773136?epid=2025842005&hash=item1ebb806690:g:KqkAAOSwKtVWxs4h
p69
aVhttp://www.ebay.com/itm/1-F-RED-CAR-FOR-SALE-SIGN-BOARD-CAR-PRICE-SUN-VISOR-2-SELF-CLING-STICKERS-/332174693521?hash=item4d57279491:g:TNAAAOSwcUBYPGLY
p70
aVhttp://www.ebay.com/itm/Retail-Sign-Board-POS-Hanging-Kit-for-suspended-ceiling-easy-install-/262636070370?var=&hash=item3d265465e2:m:m-zLjk0a8ShK-nVHuieoFrw
p71
aVhttp://www.ebay.com/itm/CCTV-SIGNS-200-MM-X-150-MM-WARNING-SIGN-3mm-rigid-signboard-/270831438986?epid=628384219&hash=item3f0ecfcc8a:g:u88AAOxygj5Si7A7
p72
aVhttp://www.ebay.com/itm/BRAND-NEW-OPEN-CAR-WASH-WINDOW-SIGN-BOARD-LED-BOARD-FLASH-STILL-/111551154051?hash=item19f8f78783:g:mHAAAOSwaNBUkaaH
p73
aVhttp://www.ebay.com/itm/Illuminated-Fuel-Forecourt-Sign-Board-Texaco-Langley-F226-free-post-/272022612533?hash=item3f55cfaa35:g:bJcAAOSw5ZBWJzyL
p74
aVhttp://www.ebay.com/itm/3mm-Matt-White-Foamex-PVC-Sheet-8ft-x-4ft-2440-x-1220mm-Foam-Sign-Board-/322561598289?hash=item4b1a2b6351:g:ZlsAAOSw5cNYNuYa
p75
aVhttp://www.ebay.com/itm/Metal-Steel-Advertising-Sign-A-Board-Sign-Pavement-Sign-Board-Made-in-England-/252403708265?hash=item3ac46ef169:g:NzEAAOSwY0lXR1ab
p76
aVhttp://www.ebay.com/itm/5-MPH-Speed-limit-sign-3mm-rigid-signboard-300mm-x-300mm-/161440505750?hash=item25969a9f96:m:mUodi3nVSd7GuwH9M2UqSdA
p77
aVhttp://www.ebay.com/itm/BRAND-NEW-SHOP-FLASHING-LED-SIGN-PHARMACY-WINDOW-HANGING-DOOR-SIGN-BOARD-/111313514760?hash=item19eacd7108:g:R6EAAOSwcwhVRLTs
p78
aVhttp://www.ebay.com/itm/NEW-WALK-INS-WELCOME-SHOP-FLASHING-LED-SIGN-WINDOW-HANGING-SIGN-BOARD-/111313458453?hash=item19eacc9515:g:4YsAAOSw5VFWH33D
p79
aVhttp://www.ebay.com/itm/Shop-Sign-Board-Extension-Arm-Bracket-50cm-long-COMPLETE-WITH-LED-FLOODLIGHT-/252790396055?hash=item3adb7b5497:g:7hIAAOSwtJZXV~R3
p80
aVhttp://www.ebay.com/itm/NEW-MASSAGE-SHOP-FLASHING-LED-HANGING-SIGN-HIGH-QUALITY-WINDOW-SIGN-BOARD-/111358016976?hash=item19ed747dd0:g:yhEAAOSwGIRXZqX3
p81
aVhttp://www.ebay.com/itm/NEW-WALK-INS-WELCOME-SHOP-FLASHING-LED-SIGN-WINDOW-HANGING-SIGN-BOARD-/111313458453?hash=item19eacc9515:g:4YsAAOSw5VFWH33D
p82
aVhttp://www.ebay.com/itm/BRAND-NEW-SHOP-FLASHING-LED-FREE-DELIVERY-WINDOW-SIGN-BOARD-/111313447499?epid=1170146395&hash=item19eacc6a4b:g:5voAAOSwPgxVRK0J
p83
aVhttp://www.ebay.com/itm/NEW-QUALITY-BURGERS-KEBABS-SHOP-FLASHING-LED-HANGING-SIGN-WINDOW-SIGN-BOARD-/112032369007?hash=item1a15a6496f:g:t8kAAOSwMNxXZq9K
p84
aVhttp://www.ebay.com/itm/1-x-CAR-FOR-SALE-SIGN-BOARD-SUNVISOR-DOLLAR-PRICE-UNIT-red-/332174693475?hash=item4d57279463:g:A2IAAOSwKrxUZKsy
p85
aVhttp://www.ebay.com/itm/NEW-PROFESSIONAL-RANGE-OF-WINDOW-LED-SIGN-FLASHING-LED-HANGING-SIGN-BOARD-/121924174191?var=&hash=item1c633f416f:m:mfwcKCwxCvaS-gyncbPqalw
p86
aVhttp://www.ebay.com/itm/shoe-repairs-cobbler-shop-Sign-Window-decal-SIGN-board-vinyl-/172160261778?var=&hash=item28158d1e92:m:mU7zt_STkgKJjMDL9B59SMw
p87
aVhttp://www.ebay.com/itm/10-x-Car-Price-Pricing-Sun-Visor-Set-FOR-SALE-Sign-Board-Complete-with-Numbers-/121372903715?hash=item1c42638923:g:pqgAAOSwrmdTrIEe
p88
aVhttp://www.ebay.com/itm/BRAND-NEW-WATCH-REPAIR-BATTERIES-WINDOW-SIGN-BOARD-LED-BOARD-FLASH-STILL-/141510615279?hash=item20f2b0a0ef:g:FtMAAOSwnDxUkZwR
p89
aVhttp://www.ebay.com/itm/600-x-400mm-NO-BALL-GAMES-PLASTIC-SIGN-BOARD-SB9-/401146099819?hash=item5d662bb86b:g:VRoAAOSwGvhT4Opu
p90
aVhttp://www.ebay.com/itm/5mm-Matt-White-Foam-PVC-Sheet-A5-210-x-148-Foamex-Foam-PVC-Sheet-Sign-Board-/112426387164?hash=item1a2d2286dc:g:Eu8AAOSws5pZLveS
p91
aVhttp://www.ebay.com/itm/20-x-Car-Price-Pricing-Sun-Visor-Set-FOR-SALE-Sign-Board-/111297708662?hash=item19e9dc4276:g:dFMAAOSwSlBY0mjW
p92
aVhttp://www.ebay.com/itm/COMPUTER-LAPTOP-REPAIR-SHOP-FLASHING-LED-LAPTOP-SIGN-WINDOW-SIGN-BOARD-/142445303463?hash=item212a66d6a7:g:oS8AAOSwvc1ZaKjr
p93
aVhttp://www.ebay.com/itm/BRAND-NEW-DRY-CLEANERS-WINDOW-SIGN-BOARD-LED-BOARD-FLASH-STILL-/111551046007?hash=item19f8f5e177:g:2asAAOSwAL9UkZxl
p94
aVhttp://www.ebay.com/itm/X-10-CAR-FOR-SALE-Sign-Board-Sun-visor-price-Unit-sets-Complete-with-Figures-/111210654700?hash=item19e4abebec:g:wzAAAOSwWxNYy8Fx
p95
aVhttp://www.ebay.com/itm/BRAND-NEW-SHOP-FLASHING-LED-SIGN-PHARMACY-WINDOW-HANGING-DOOR-SIGN-BOARD-/111313514760?hash=item19eacd7108:g:R6EAAOSwcwhVRLTs
p96
aVhttp://www.ebay.com/itm/PRINTED-CORREX-SIGN-BOARD-5mm-OUTDOOR-ADVERTISING-CUSTOM-SIZE-A0-A1-ANY-SIZE-/251063232786?var=&hash=item3a7488e912:m:mw3V_FpcQwECKV8Pzau_lOg
p97
aVhttp://www.ebay.com/itm/1x-CAR-FOR-SALE-SIGN-BOARD-CAR-PRICE-SUNVISOR-VEHICLE-AUTO-PRICE-UNIT-f-red-/232293602810?hash=item3615c715fa:g:kNkAAOSwbwlXBnXT
p98
aVhttp://www.ebay.com/itm/5mm-Matt-White-Foamex-Sheet-1220-x-800-mm-Foam-Craft-Sheet-Sign-Board-Signage-/361242852776?epid=578570726&hash=item541bc07da8:g:4bEAAOSweW5VBafC
p99
aVhttp://www.ebay.com/itm/BRAND-NEW-MINI-CABS-WINDOW-SIGN-BOARD-BEST-LED-BOARD-FLASHING-STILL-/111552221190?hash=item19f907d006:g:YpIAAOSwnDxUkwtN
p100
aVhttp://www.ebay.com/itm/240X190X20MM-LOT-576-OAK-EGG-SHAPE-SIGN-BOARD-WOODTURNING-FIGURED-TIMBER-/361255412013?hash=item541c80212d:g:QMEAAOSwNSxVF0OY
p101
aVhttp://www.ebay.com/itm/240X190X20MM-5PCS-LOT-577-OAK-EGG-SHAPE-SIGN-BOARD-WOODTURNING-FIGURED-TIMBER-/151633332629?hash=item234e0d0995:g:T5MAAOSwNSxVF0Rn
p102
aVhttp://www.ebay.com/itm/CCTV-IN-OPERATION-SECURITY-SAFETY-3mm-METAL-SIGN-BOARD-SIZE-300mm-x-200-mm-/131865820658?epid=1975697039&hash=item1eb3d0bdf2:g:KKcAAOSwbYZXd51F
p103
aVhttp://www.ebay.com/itm/3mm-Matt-White-Foamex-PVC-Sheet-8ft-x-4ft-2440-x-1220mm-Foam-Sign-Board-/322561598289?hash=item4b1a2b6351:g:ZlsAAOSw5cNYNuYa
p104
aVhttp://www.ebay.com/itm/BRAND-NEW-SHOP-FLASHING-LED-SIGN-INTERNET-CAFE-WINDOW-HANGING-DOOR-SIGN-BOARD-/111313505933?epid=1161814971&hash=item19eacd4e8d:g:DRMAAOSw7ThUkZyq
p105
aVhttp://www.ebay.com/itm/Frame-Sign-Board-Sidewalk-Menu-Pavement-Chalkboard-Erase-Double-sided-Code-RO2-/251509515743?epid=1788514357&hash=item3a8f22a5df:g:kPQAAOxylpNTUlv4
p106
aVhttp://www.ebay.com/itm/Property-to-let-sign-board-Personalised-x-1-/152586966194?hash=item2386e454b2:m:mRVB1_j98R3CUVaYHrngNJw
p107
aVhttp://www.ebay.com/itm/Property-For-Sale-sign-board-Personalised-x-1-/162554714011?epid=1988257107&hash=item25d904179b:m:mV1y_e-tcoBHhtklhc3MC3g
p108
aVhttp://www.ebay.com/itm/5-x-For-Sale-Sign-Board-Visor-Price-Unit-complete-with-number-Sets-Blue-/121215637312?hash=item1c3903d740:g:HrEAAOSwhQhY0moD
p109
aVhttp://www.ebay.com/itm/Special-Offer-Market-Trader-Correx-Sheet-Price-Card-Sign-Board-for-Retail-Shops-/201503437287?var=&epid=1362367073&hash=item2eea8a71e7:m:mhtAjLYja-xFNNvvJdlKrrg
p110
aVhttp://www.ebay.com/itm/WATCH-BATTERIES-FITTED-HERE-shop-Sign-Window-decal-SIGN-board-vinyl-/182084134085?var=&hash=item2a650f64c5:m:mfUgVsODGpww-va0wLuLAjw
p111
aVhttp://www.ebay.com/itm/CUSTOM-MADE-NO-PARKING-SIGNS-300MM-X-200MMTH-ANY-COLOUR-WORDING-RIGID-SIGNBOARD-/272269074182?epid=862785898&hash=item3f64805f06:m:mpzjK_wv9d_MB_mIKolIY6Q
p112
aVhttp://www.ebay.com/itm/BRAND-NEW-SHOP-FLASHING-LED-SIGN-HALAL-MEAT-POULTRY-WINDOW-SIGN-BOARD-/111313441614?hash=item19eacc534e:g:f5wAAOSwstxVSHzU
p113
aVhttp://www.ebay.com/itm/NEW-TOP-UP-SHOP-FLASHING-LED-SIGN-WINDOW-SIGN-BOARD-FOR-MOBILE-SHOP-/111694712711?hash=item1a01860f87:g:0lwAAOSweW5VfVqi
p114
aVhttp://www.ebay.com/itm/1-Market-Trader-Correx-Price-Card-Sign-Board-for-Retail-display-Market-Stalls-/201503349683?var=&epid=1061273087&hash=item2eea891bb3:m:m1NgJxuw9P0GxetAy8Fv-BQ
p115
aVhttp://www.ebay.com/itm/BRAND-NEW-SHOP-FLASHING-LED-SIGN-HALAL-MEAT-POULTRY-WINDOW-SIGN-BOARD-/162142670983?hash=item25c074d087:g:0q8AAOSwWfFXj6J0
p116
aVhttp://www.ebay.com/itm/Property-For-Sale-sign-board-Personalised-x-2-/162554708086?epid=1188291479&hash=item25d9040076:g:tNoAAOSw1x1UMq7G
p117
aVhttp://www.ebay.com/itm/WARNING-CCTV-OPERATION-SECURITY-SAFETY-PLASTIC-SIGN-BOARD-A4-SIZE-300mm-x-200-mm-/131865766010?epid=1677572110&hash=item1eb3cfe87a:g:B7EAAOSweW5U7K6w
p118
aVhttp://www.ebay.com/itm/Total-Stock-Clearance-Market-Trader-Retail-Correx-Sheet-Price-Card-Sign-Board-/191782783828?var=&epid=1061755410&hash=item2ca7250b54:m:mzBxxKwx-Fg05THjslH3TDQ
p119
aVhttp://www.ebay.com/itm/BRAND-NEW-HALAL-SHOP-FLASHING-LED-HANGING-SIGN-WINDOW-SIGN-BOARD-/111355812613?hash=item19ed52db05:g:t6sAAOSwY3RXJeQg
p120
aVhttp://www.ebay.com/itm/NEW-SHOP-FLASHING-LED-SIGN-OPEN-WINDOW-HANGING-DOOR-SIGN-BOARD-/111313476595?hash=item19eaccdbf3:g:9xEAAOSwwbdWHkXy
p121
aVhttp://www.ebay.com/itm/NEW-SHOP-FLASHING-LED-48-40-CM-SIGN-HALAL-WINDOW-HANGING-DOOR-SIGN-BOARD-/111313490189?hash=item19eacd110d:g:yQIAAOSwPhdVRMdE
p122
aVhttp://www.ebay.com/itm/1X210X148-Police-Linked-Intruder-Alarm-System-Sign-board-/131858397721?var=&hash=item1eb35f7a19:m:mumJiW_Wv9ApwEV0iZiMYVA
p123
aVhttp://www.ebay.com/itm/LED-OPEN-Sign-Board-Flash-Static-Light-Shop-Store-Window-Display-Board-Mlite1990-/192141543124?var=&hash=item2cbc8746d4:m:mPOx0rYuU08_vykoYSgk-VA
p124
aVhttp://www.ebay.com/itm/250x220mm-Correx-Corrugated-Plastic-Card-Sheet-White-6-Per-Pack-3mm-Sign-Board-/161325889485?epid=1105895361&hash=item258fc5b7cd:g:O5EAAOxyaURTjZHZ
p125
aVhttp://www.ebay.com/itm/BRAND-NEW-SHOP-FLASHING-LED-SIGN-AFRICAN-FOOD-WINDOW-SIGN-BOARD-/111313439529?hash=item19eacc4b29:g:9FgAAOSwPgxVRL-V
p126
a.