(lp0
Vhttp://www.ebay.com/itm/Downton-Abbey-Series-6-DVD-/272028046759?epid=1642098987&hash=item3f562295a7:g:CD4AAOSwa-dWpzMI
p1
aVhttp://www.ebay.com/itm/Downton-Abbey-Series-5-DVD-/281781996445?epid=1231134704&hash=item419b840b9d:g:s-8AAOSwHnFV2-hx
p2
aVhttp://www.ebay.com/itm/Downton-Abbey-Series-4-DVD-/281783073397?epid=171401717&hash=item419b947a75:g:XLQAAOSwjVVV3XI2
p3
aVhttp://www.ebay.com/itm/Downton-Abbey-Series-4-Complete-DVD-2013-3-Disc-Set-Box-Set-/192174285167?epid=171401717&hash=item2cbe7ae16f:g:Bn8AAMXQydtTPHGi
p4
aVhttp://www.ebay.com/itm/DOWNTON-ABBEY-COMPLETE-SERIES-4-DVD-NEW-SEALED-/282558447388?epid=171401717&hash=item41c9cbbf1c:g:Bn8AAMXQydtTPHGi
p5
aVhttp://www.ebay.com/itm/Downton-Abbey-Series-1-6-New-DVD-/391310819079?epid=1342265543&hash=item5b1bf13f07:g:bAIAAOSwsW9Y3TDT
p6
aVhttp://www.ebay.com/itm/Downton-Abbey-The-Weddings-DVD-/272554913400?epid=559610352&hash=item3f7589ee78:g:~CgAAOSw~AVYoKh4
p7
aVhttp://www.ebay.com/itm/DOWNTON-ABBEY-SERIES-1-2-3-4-5-6-PLUS-SPECIALS-FINALE-BRAND-NEW-BLURAY-/182307532106?hash=item2a72602d4a:g:SegAAOSw8gVX-bCO
p8
aVhttp://www.ebay.com/itm/Downton-Abbey-The-London-Season-DVD-/281782263294?epid=177413462&hash=item419b881dfe:g:qycAAOSwd0BV3Fke
p9
aVhttp://www.ebay.com/itm/Downtown-Abbey-Series-1-5-DVD-Episodes-Film-Downton-Abbey-Box-Set-Brand-New-/152412988750?hash=item237c85a54e:g:CmIAAOSwUKxYi96T
p10
aVhttp://www.ebay.com/itm/Downton-Abbey-The-Complete-Collection-Box-Set-DVD-/272388671086?epid=1586788721&hash=item3f6ba1466e:g:rOQAAOSwYIxX5omW
p11
aVhttp://www.ebay.com/itm/The-Beatles-Gift-Bag-Abbey-Road-Album-Official-17-5-x-23-x-10-cm-/192115547852?epid=1212729581&hash=item2cbafa9ecc:g:h64AAOSwdGFYtMzq
p12
aVhttp://www.ebay.com/itm/THE-BEATLES-THE-LOST-ABBEY-ROAD-TAPES-1962-64-NEW-2017-LP-ON-CLEAR-VINYL-/322517453153?hash=item4b1789c961:g:dYoAAOSwX61ZGYkA
p13
aVhttp://www.ebay.com/itm/The-Beatles-Abbey-Road-VINYL-NEW-/282529813673?epid=181303763&hash=item41c816d4a9:g:nn4AAOSwSzRZRKAm
p14
aVhttp://www.ebay.com/itm/Downton-Abbey-Series-1-6-DVD-23-Discs-NEW-SEALED-/322279986570?epid=1342265543&hash=item4b0962558a:g:JGwAAOSwPCVX8Cct
p15
aVhttp://www.ebay.com/itm/Downton-Abbey-A-Moorland-Holiday-DVD-/271967508266?epid=1737106421&hash=item3f5286d72a:g:9EsAAOSw9N1V3JFW
p16
aVhttp://www.ebay.com/itm/Downton-Abbey-Series-1-5-Box-Set-DVD-/291548486220?epid=1633734586&hash=item43e1a4da4c:g:gJMAAOSwX~dWpzLb
p17
aVhttp://www.ebay.com/itm/Downton-Abbey-The-Finale-Blu-ray-/281873426355?epid=1149637915&hash=item41a0f727b3:g:vO8AAOSw8-tWbr09
p18
aVhttp://www.ebay.com/itm/DOWNTON-ABBEY-COMPLETE-SERIES-1-2-3-4-5-6-BRAND-NEW-DVD-BOXSET-/321920362860?epid=1391544882&hash=item4af3f2e96c:g:e24AAOSwkZhWRobn
p19
aVhttp://www.ebay.com/itm/Downton-Abbey-Series-6-Blu-ray-/291599862354?epid=1742215948&hash=item43e4b4ca52:g:vf8AAOSw5VFWLpSx
p20
aVhttp://www.ebay.com/itm/Downton-Abbey-Series-1-5-DVD-Complete-Season-1-2-3-4-5-Box-Set-NEW-REGION-2-/112198277356?epid=1633734586&hash=item1a1f89d8ec:g:MLsAAOSwImRYIhti
p21
aVhttp://www.ebay.com/itm/Downton-Abbey-The-Ultimate-Collection-CD-NEW-/401239360866?epid=1442926892&hash=item5d6bbac562:g:xHMAAOSwImRYSEY3
p22
aVhttp://www.ebay.com/itm/Downton-Abbey-Series-3-DVD-/291548981689?epid=115950887&hash=item43e1ac69b9:g:OyIAAOSwLVZV3aaa
p23
aVhttp://www.ebay.com/itm/Downton-Abbey-Series-5-Blu-ray-/281783223377?epid=1233720090&hash=item419b96c451:g:Ry0AAOSwHnFV3aae
p24
aVhttp://www.ebay.com/itm/DOWNTON-ABBEY-COMPLETE-SERIES-1-2-3-4-5-6-BRAND-NEW-BLU-RAY-BOXSET-/161884090507?epid=1343119885&hash=item25b10b308b:g:ZJMAAOSw5VFWQoK7
p25
aVhttp://www.ebay.com/itm/The-Beatles-Abbey-Road-Silhouette-T-Shirt-NEW-OFFICIAL-/131812917513?var=&epid=1639144527&hash=item1eb0a98109:m:msPll0kPVd0ONJsrJKzi0Kg
p26
aVhttp://www.ebay.com/itm/Downton-Abbey-The-Finale-DVD-NEW-/401220208337?epid=1949591196&hash=item5d6a9686d1:g:jS8AAOSwA3dYHTOW
p27
aVhttp://www.ebay.com/itm/DOWNTON-ABBEY-THE-LONDON-SEASON-CHRISTMAS-SPECIAL-NEW-SEALED-GENUINE-UK-DVD-/161396522097?epid=177413462&hash=item2593fb7c71:g:MAIAAOSwxH1T76YV
p28
aVhttp://www.ebay.com/itm/Downton-Abbey-A-Moorland-Holiday-Blu-ray-/281783224836?epid=1837005086&hash=item419b96ca04:g:ajIAAOSw0vBUksOR
p29
aVhttp://www.ebay.com/itm/The-Beatles-Abbey-Road-wall-art-quote-sticker-vinyl-lounge-bedroom-music-/110888204602?hash=item19d173b93a:m:m6o1NPv5NIKNdEpIspP8R0w
p30
aVhttp://www.ebay.com/itm/Downton-Abbey-Series-1-2-3-4-5-6-Complete-Collection-Box-Set-New-DVD-/281864188484?epid=1342265543&hash=item41a06a3244:g:RlAAAOSwgyxWUhQY
p31
aVhttp://www.ebay.com/itm/Downton-Abbey-Series-1-2-3-4-5-6-The-Complete-Collection-Box-Set-New-DVD-/361933295710?epid=1586788721&hash=item5444e7d05e:g:OL8AAOSw44BYFgXh
p32
aVhttp://www.ebay.com/itm/Downton-Abbey-Series-6-New-DVD-/391299052068?epid=1642098987&hash=item5b1b3db224:g:0DQAAOSww3tY6KKU
p33
aVhttp://www.ebay.com/itm/DOWNTON-ABBEY-COMPLETE-SERIES-1-2-3-4-5-6-BRAND-NEW-DVD-BOXSET-/161885532458?epid=1391544882&hash=item25b121312a:g:jjoAAOSwIwhWRE3u
p34
aVhttp://www.ebay.com/itm/Downton-Abbey-Series-2-DVD-/291548877216?epid=110437779&hash=item43e1aad1a0:g:xIIAAOSwHnFV3XXJ
p35
aVhttp://www.ebay.com/itm/Downton-Abbey-A-Journey-to-the-Highlands-with-UltraViolet-Copy-Double-Play-/271968303529?epid=115983753&hash=item3f5292f9a9:g:Kc0AAOSwgQ9V3aCu
p36
aVhttp://www.ebay.com/itm/Downton-Abbey-Series-2-Blu-ray-/281783223668?epid=110425021&hash=item419b96c574:g:q~IAAOSwTapV3aad
p37
aVhttp://www.ebay.com/itm/Downton-Abbey-Series-1-4-Box-Set-DVD-/291743140558?epid=171355125&hash=item43ed3f0ace:g:-GUAAOSwKfVXFzom
p38
aVhttp://www.ebay.com/itm/Beatles-The-Abbey-Road-CD-NEW-/401219916638?epid=78957984&hash=item5d6a92135e:g:LBwAAOSw4GVYHJgb
p39
aVhttp://www.ebay.com/itm/The-Beatles-Abbey-Road-Mini-Poster-50cm-x-40cm-new-sealed-/361921983220?hash=item54443b32f4:g:PYcAAOSwTM5Yvdfh
p40
aVhttp://www.ebay.com/itm/DOWNTON-ABBEY-ITV-TV-Series-Complete-Season-4-DVD-Collection-Extras-Original-/282349914278?epid=171401717&hash=item41bd5dc8a6:g:RBgAAOSwA3dYle7H
p41
aVhttp://www.ebay.com/itm/Downton-Abbey-Series-1-2-3-4-5-6-The-Complete-Collection-Brand-New-sealed-/132132873626?epid=1586788721&hash=item1ec3bba59a:g:njAAAOSwTglYlINs
p42
aVhttp://www.ebay.com/itm/Abbey-Road-The-Best-Studio-in-the-World-by-Alistair-Lawrence-9781408884201-/302114654006?epid=227348984&hash=item46576fc736:g:gBwAAOSwHsRYCvjJ
p43
aVhttp://www.ebay.com/itm/DOWNTON-ABBEY-ALL-EPISODES-SERIES-1-2-3-4-5-BLURAY-BOX-SET-BRAND-NEW-SEASON-1-5-/271739934720?hash=item3f44f65800:g:MWgAAOSw2s1UtTkn
p44
aVhttp://www.ebay.com/itm/The-Adventures-of-Moby-Dick-DVD-2004-Animated-Cartoon-Abbey-Home-Media-NEW-/400827677741?epid=30484661&hash=item5d5330fc2d:m:mG4_UYLlMYGOdGz5obRMZJQ
p45
aVhttp://www.ebay.com/itm/DOWNTON-ABBEY-THE-FINALE-BRAND-NEW-DVD-/181964451841?epid=1951028668&hash=item2a5ded3001:g:l8EAAOSwk1JWclOd
p46
aVhttp://www.ebay.com/itm/Downton-Abbey-Series-1-6-DVD-/272036722067?epid=1342265543&hash=item3f56a6f593:g:kp0AAOSwKtlWpzMG
p47
aVhttp://www.ebay.com/itm/Downton-Abbey-Series-4-Box-Set-Blu-ray-/271968303467?epid=171361654&hash=item3f5292f96b:g:TTkAAOSwT6pV3aCs
p48
aVhttp://www.ebay.com/itm/Downton-Abbey-The-London-Season-Blu-ray-/281782803852?epid=176303690&hash=item419b905d8c:g:tOgAAOSwDNdV3QHW
p49
aVhttp://www.ebay.com/itm/Downton-Abbey-The-London-Season-Christmas-Special-2013-DVD-/222250613454?epid=177413462&hash=item33bf2b3ace:g:axEAAOSwmLlX2e~E
p50
aVhttp://www.ebay.com/itm/Downton-Abbey-Seasons-1-2-Official-Cryptozoic-Binder-/132188709647?epid=1837747643&hash=item1ec70fa30f:g:6zEAAOSwH09ZFDPD
p51
aVhttp://www.ebay.com/itm/Downton-Abbey-Series-5-DVD-NEW-/401220091313?epid=1231134704&hash=item5d6a94bdb1:g:iLcAAOSwA3dYHPDQ
p52
aVhttp://www.ebay.com/itm/THE-BEATLES-ABBEY-ROAD-SIGNED-GOLD-DISC-DISPLAY-/152494177666?hash=item23815c7d82:g:xcUAAOSww3tY4BjW
p53
aVhttp://www.ebay.com/itm/Downton-Abbey-The-London-Season-Christmas-Special-2013-Sealed-NEW-DVD-/351420318048?epid=177413462&hash=item51d2488160:g:m3oAAOSwsW9Y2m~h
p54
aVhttp://www.ebay.com/itm/Downton-Abbey-Series-1-3-Christmas-at-Downton-Abbey-Box-Set-DVD-/291548981792?epid=115924702&hash=item43e1ac6a20:g:UaQAAOSw0JpV3aah
p55
aVhttp://www.ebay.com/itm/Downton-Abbey-The-Complete-Collection-Box-Set-Blu-ray-/282191542149?epid=1786835306&hash=item41b3ed3785:g:h~kAAOSwLnBX5omg
p56
aVhttp://www.ebay.com/itm/DOWNTON-ABBEY-COMPLETE-SERIES-SEASONS-1-2-3-PLUS-XMAS-BRAND-NEW-DVD-BOXSET-/181009014802?hash=item2a24fa6012:m:mYXMntOqXCb7mVtiQzJj4CQ
p57
aVhttp://www.ebay.com/itm/Downton-Abbey-The-Finale-Hugh-Bonneville-New-/282227230661?epid=1949591196&hash=item41b60dc7c5:g:xZkAAOSwn-tZNBUZ
p58
aVhttp://www.ebay.com/itm/The-Beatles-Abbey-Road-Logo-T-Shirt-NEW-OFFICIAL-/131384050269?var=&epid=1339130530&hash=item1e9719825d:m:mom9LjTk4uoFwgE0GzBSXrQ
p59
aVhttp://www.ebay.com/itm/The-Beatles-Abbey-Road-Casuals-By-A-Guy-Called-Minty-John-Paul-George-Ringo-/322559272234?hash=item4b1a07e52a:g:tPgAAOSw5IJWcosH
p60
aVhttp://www.ebay.com/itm/ORIGINAL-MINISTRY-OF-DEFENCE-MOD-ABBEY-WOOD-FLAG-COLL-SET-POST-GO-/192125095704?hash=item2cbb8c4f18:g:Ky0AAOSwNnRYmQBD
p61
aVhttp://www.ebay.com/itm/Downton-Abbey-The-Complete-Collection-Hugh-Bonneville-Maggie-Smith-Blu-ray-/281598837875?hash=item4190994473:g:cecAAOSwstxU3xuf
p62
aVhttp://www.ebay.com/itm/Downton-Abbey-DVD-Box-Set-Complete-Collection-Series-1-6-Christmas-Downtown-/112180852198?hash=item1a1e7ff5e6:g:QTYAAOSwA3dYD2Sf
p63
aVhttp://www.ebay.com/itm/Beatles-Abbey-Road-Heather-Grey-White-Embroidered-Tee-T-Shirt-/122375096121?var=&hash=item1c7e1fc739:m:mlwV8_FVWIp2pUkg-F--kKw
p64
aVhttp://www.ebay.com/itm/The-Monks-of-Glenstal-Abbey-The-Spiritual-Road-NEW-SEALED-DVD-Irish-History-/192124220543?hash=item2cbb7ef47f:g:WL8AAOSwfVpYwB8v
p65
aVhttp://www.ebay.com/itm/Downton-Abbey-Series-3-Blu-ray-/291548981575?epid=115950937&hash=item43e1ac6947:g:KH8AAOSwyQtV3aaT
p66
aVhttp://www.ebay.com/itm/The-Red-Hot-Chili-Peppers-Abbey-Road-POSTER-/261679418137?epid=564193095&hash=item3ced4f0b19:g:0wYAAOxyCSRSGOkO
p67
aVhttp://www.ebay.com/itm/DOWNTON-ABBEY-THE-FINALE-BRAND-NEW-DVD-/181964451841?epid=1951028668&hash=item2a5ded3001:g:l8EAAOSwk1JWclOd
p68
a.