(lp1
Vhttp://www.ebay.com/itm/Synthetic-Softball-12-/331758568985?hash=item4d3e5a0619:g:sJ0AAOSw-zxWn2oo
p2
aVhttp://www.ebay.com/itm/Louisville-Slugger-Baseball-Softball-Fielders-Glove-Ball-Set-/152471020862?epid=1462789195&hash=item237ffb253e:g:LuYAAOSwXYtYxspV
p3
aVhttp://www.ebay.com/itm/Combat-Antivirus-Rusty-Bumgardner-ASA-98-Composite-Softball-Bat-27oz-FL-or-B-NIW-/321731252204?var=&hash=item4ae8ad4fec:m:mPKmtehSZTJbGQg8BsFyiXg
p4
aVhttp://www.ebay.com/itm/Outdoor-10-5-11-5-12-5-inch-Baseball-Glove-Softball-Team-Sports-Hand-UK-/322417003803?var=&hash=item4b118d0d1b:m:m9eVFX79Y37e9-BW-qT9svw
p5
aVhttp://www.ebay.com/itm/ALUMINIUM-METAL-BASEBALL-BAT-RACKET-SOFTBALL-CRICKET-YOUTH-WOODEN-HEAVY-DUTY-NEW-/152446354005?var=&hash=item237e82c255:m:mnqLreccFqT07CJ_IkWSwDg
p6
aVhttp://www.ebay.com/itm/10-5-11-5-12-5-Baseball-Glove-Softball-Mitts-Outdoor-Team-Sports-Hand-/142089878365?var=&hash=item2115377b5d:m:mfkeNoAduttjfzZu7cUzwWw
p7
aVhttp://www.ebay.com/itm/Spordas-Softball-Baseball-Glove-Mitt-Left-Hand-Player-/172247972729?hash=item281ac77b79:m:mx8qJ4mtYe3uT3rrkL8WOvA
p8
aVhttp://www.ebay.com/itm/Heavy-Duty-Wooden-Baseball-Rounders-with-or-without-Softball-Bat-size-24-or-62cm-/252799434419?var=&hash=item3adc053eb3:m:mSja5Mg_ceB0pDq6BAdasJA
p9
aVhttp://www.ebay.com/itm/NEW-REEBOK-VR6000-CL-BASEBALL-SOFTBALL-BATTING-GLOVES-/301576452591?var=&hash=item46375b79ef:m:mAWqVesk1A5Jf5aJA_rU27Q
p10
aVhttp://www.ebay.com/itm/ALUMINIUM-METAL-BASEBALL-BAT-RACKET-SOFTBALL-CRICKET-YOUTH-WOODEN-HEAVY-DUTY-TOY-/371900716685?var=&hash=item569702968d:m:mnBj8pBA8IjLgwv-pzm7xeg
p11
aVhttp://www.ebay.com/itm/Wilks-Softball-Active-Softball-Set-Bat-Balls-Gloves-Bases-Bag-/331470956635?epid=1312716930&hash=item4d2d35685b:g:2AYAAOSwqu9U-Zya
p12
aVhttp://www.ebay.com/itm/Wilks-Softball-Senior-Teambuilder-Set-Bats-Balls-Gloves-Bases-Rules-Bag-/331470950451?epid=1512702092&hash=item4d2d355033:g:MCMAAOSweW5U-Zv2
p13
aVhttp://www.ebay.com/itm/Wilks-Junior-Softball-Set-Softball-Bat-Softball-Glove-Carry-Case-Children-/331464123851?hash=item4d2ccd25cb:g:lpUAAOSw-W5UymLm
p14
aVhttp://www.ebay.com/itm/Wilks-Softball-Padded-Base-Set-/331891826973?hash=item4d464b611d:g:5QoAAOSwOVpXb~hy
p15
aVhttp://www.ebay.com/itm/Wilks-Dominator-Aluminium-Softball-Bat-BR220-Match-Quality-Leather-Grip-/330706217653?epid=1812704885&hash=item4cffa06ab5:g:OLEAAOSwEeFU-Y0X
p16
aVhttp://www.ebay.com/itm/24-Wooden-Rounders-Baseball-Bat-And-Soft-Ball-Sports-Outdoor-Kids-/281761748242?epid=1445629287&hash=item419a4f1512:g:8TIAAOSw~gRVukJP
p17
aVhttp://www.ebay.com/itm/Top-Quality-25-30-Aluminium-Baseball-Bat-Lightweight-TRANING-GLOVES-SOFTBALL-ET-/252700641182?var=&hash=item3ad621c79e:m:mSKCB0ioVKWn1xYQtICsclA
p18
aVhttp://www.ebay.com/itm/SOFTBALL-SKILLS-VOLUME-2-DVD-Stacey-Iveson-Drills-Baseball-New-Sealed-/261610105686?epid=60640271&hash=item3ce92d6b56:g:ps0AAOSwRLZUKS~k
p19
aVhttp://www.ebay.com/itm/Wilks-Home-Runner-Maxi-Softball-Bat-BR200-Adult-Ash-Rubber-Grip-/330706218953?epid=1713510361&hash=item4cffa06fc9:g:PY8AAOSwNSxU-Y2H
p20
aVhttp://www.ebay.com/itm/24-Bass-Ball-Bat-Full-Set-Bassball-Glove-Child-Kids-Beginner-Softball-Outdoor-/322424147472?hash=item4b11fa0e10:g:OE4AAOSwZVlXtqmN
p21
aVhttp://www.ebay.com/itm/32-34-36-Hot-Quality-Wood-Softball-Baseball-Bat-Youth-Adult-/112435691807?var=&hash=item1a2db0811f:m:mZeR01rMD8-vIUTPzA-nMSg
p22
aVhttp://www.ebay.com/itm/Rawlings-PM140BT-14-inch-Baseball-Softball-Glove-Left-Hand-Thrower-/172466261329?hash=item2827ca4d51:g:GDYAAOSwt5hYZvy~
p23
aVhttp://www.ebay.com/itm/WOODEN-BASEBALL-BAT-ROUNDERS-SOFTBALL-HEAVY-DUTY-SOLID-BAT-28-30-32-34-/152242670139?var=&hash=item23725eca3b:m:mhj6wGACETWaXBhVhE60jiw
p24
aVhttp://www.ebay.com/itm/Wilks-Storm-Softball-BR310-Match-Quality-Durable-Box-of-2-Balls-/331470895502?hash=item4d2d34798e:g:cuYAAOSwI-BWJgpl
p25
aVhttp://www.ebay.com/itm/Rawlings-baseball-softball-pro-ball-bag-/172760812103?hash=item283958ca47:g:fxQAAOSwEHpZMZSB
p26
aVhttp://www.ebay.com/itm/American-Sportswear-Lightweight-Aluminium-Baseball-Rounders-Softball-Bat-3-Sizes-/112335708443?var=&hash=item1a27bae11b:m:mFuxpRbuLlRp9jzXFv9V3NA
p27
aVhttp://www.ebay.com/itm/NEW-Mid-West-Slugger-Softball-Baseball-Cheap-Junior-Sof-T-Ball-Baseball-Rubber-/331243998043?hash=item4d1fae4b5b:g:yAgAAOSwcnpTqp-K
p28
aVhttp://www.ebay.com/itm/Rawlings-Baseball-Softball-Pro-Ball-Bag-/321075669057?hash=item4ac199e841:g:fTcAAOxyD5pRIoll
p29
aVhttp://www.ebay.com/itm/Full-Set-Bassball-Child-Kids-Beginner-24-Bass-Ball-Bat-Mitts-Softball-Outdoor-/192195808735?hash=item2cbfc34ddf:g:acAAAOSwGJlZFWLH
p30
aVhttp://www.ebay.com/itm/Wilks-Force-Soft-Softball-BR380-Practice-Ball-Soft-Core-Box-of-2-Balls-/331470915702?hash=item4d2d34c876:g:OKIAAOSwT5tWJgsl
p31
aVhttp://www.ebay.com/itm/Wilks-Tornado-Softball-BR320-Soft-Practice-Ball-Junior-Box-of-2-Balls-/331470906800?hash=item4d2d34a5b0:g:vikAAOSwKIpWCYAL
p32
aVhttp://www.ebay.com/itm/WOODEN-BASEBALL-BAT-ROUNDERS-SOFTBALL-HIGH-QUALITY-CRICKET-RACKET-25-30-34-/292064997612?var=&hash=item44006e30ec:m:mWpQQCx8bOJad49BV_5jx2A
p33
aVhttp://www.ebay.com/itm/Wilks-Softball-Batting-Tee-and-Base-Rubber-Adjustable-Junior-Practice-/331470975650?epid=1312719932&hash=item4d2d35b2a2:g:eLYAAOSwqu9U03xV
p34
aVhttp://www.ebay.com/itm/24-Bass-Ball-Bat-Full-Set-Bassball-Child-Kids-Beginner-Mitts-Softball-Outdoor-/142091103348?hash=item21154a2c74:g:pkUAAOSwaB5XtqmC
p35
aVhttp://www.ebay.com/itm/Synthetic-Softball-12-/371989732651?hash=item569c50dd2b:g:a3MAAOSwd~RZS8rY
p36
aVhttp://www.ebay.com/itm/Wilks-Force-Match-Softball-BR340-Match-Ball-Cork-Core-Box-of-2-Balls-/331470911542?hash=item4d2d34b836:g:l28AAOSwYHxWJgrT
p37
aVhttp://www.ebay.com/itm/Wilks-Softball-Duffle-Bag-Double-Strap-Large-Volume-Big-Bag-/331470979245?hash=item4d2d35c0ad:g:0z4AAOSwBLlU-ZOP
p38
aVhttp://www.ebay.com/itm/Wilks-Big-Hitter-Maxi-Softball-Bat-BR210-Juniors-School-Bat-Length-29-5-inch-/331506545762?epid=1043431441&hash=item4d2f547462:g:Z4AAAOSwrklU-Yuj
p39
aVhttp://www.ebay.com/itm/Rolling-Stones-Mens-American-Tongue-Baseball-T-Shirt-/282482359989?var=&epid=2058901755&hash=item41c542beb5:m:m1ylgFy3pkbd3qCMg5DRGhw
p40
aVhttp://www.ebay.com/itm/Wilks-Softball-Junior-Facemask-/331891832874?epid=1975020322&hash=item4d464b782a:g:UfcAAOSwOVpXb~x0
p41
aVhttp://www.ebay.com/itm/Wilks-Home-Runner-Mini-Softball-Bat-BR204-Junior-Ash-Non-Slip-Grip-/330706219844?epid=1050308203&hash=item4cffa07344:g:ENwAAOSwstxU-Yrj
p42
aVhttp://www.ebay.com/itm/Suicide-Squad-Mens-Black-on-Black-Logo-Baseball-T-Shirt-/282523707236?var=&hash=item41c7b9a764:m:mEq67m3wr5ZcdtsdYdEbm1A
p43
aVhttp://www.ebay.com/itm/Great-Gift-Scotland-Lettering-Baseball-Saltire-Cap-Navy-Hat-/111945411833?hash=item1a10776cf9:g:TnsAAOSwAvJW8pXv
p44
aVhttp://www.ebay.com/itm/18-High-Quality-Kids-Wooden-Baseball-Bat-with-soft-Ball-Rounders-Park-Holidays-/171503743393?hash=item27ee6b71a1:g:YEEAAOSwY45UR92-
p45
aVhttp://www.ebay.com/itm/Soft-ball-Baseball-10-Round-Pack-of-2-Aresson-Junior-Training-Ball-White-/111881748105?hash=item1a0cabfe89:g:Za0AAOSwUV9WoTpu
p46
aVhttp://www.ebay.com/itm/Midwest-Baseball-Junior-Handschuh-und-Ball-Set-/222446476631?hash=item33cad7dd57:g:X-gAAOSw4A5YpZGn
p47
a.