(lp1
Vhttp://www.ebay.com/itm/Windbag-Inflatable-Air-Cushion-Shim-For-Windows-and-Doors-Reusable-/122050072589?var=&hash=item1c6ac0500d:m:miTkyUQTk9d84QV75LAzl3Q
p2
aVhttp://www.ebay.com/itm/Windbag-the-Sailor-Film-On-DVD-Will-Hay-Graham-Moffatt-Comedy-1936-/232303844372?hash=item3616635c14:g:ej4AAOSwWWxY80e~
p3
aVhttp://www.ebay.com/itm/Windbag-the-Sailor-Film-On-DVD-Will-Hay-Moore-Marriott-Comedy-1936-/232370404854?hash=item361a5afdf6:g:n4oAAOSwgv5ZP7Uj
p4
aVhttp://www.ebay.com/itm/Windbag-the-Sailor-DVD-DVD-/301468059059?epid=1905005826&hash=item4630e585b3:g:gAwAAOSwfcVUGx4i
p5
aVhttp://www.ebay.com/itm/Windbag-the-Sailor-DVD-2001-Will-Hay-/301808942911?epid=44092903&hash=item464536ff3f:g:4lkAAOSw9GhYkPVF
p6
aVhttp://www.ebay.com/itm/Windbag-The-Sailor-DVD-By-Will-Hay-Moore-Marriott-Edward-Black-/291521724056?hash=item43e00c7e98:g:XpoAAOSwMmBVsHCe
p7
a.