(lp1
Vhttp://www.ebay.com/itm/Jolly-Rancher-Awesome-Twosome-Chews-/251974128403?epid=1508059853&hash=item3aaad41313:g:SKkAAOSwv0tVZUKv
p2
aVhttp://www.ebay.com/itm/Integra-Twosome-Corded-Metal-Extendable-Curtain-Track-Valance-/150629971041?var=&hash=item23123ef461:m:mIr0GnrRn_HkMwM_0k6A2kg
p3
aVhttp://www.ebay.com/itm/Integra-Super-Twosome-Corded-Extendable-Track-Valance-/150630503189?var=&hash=item2312471315:m:mRL0tCMep3yijMV6dJDOgKw
p4
aVhttp://www.ebay.com/itm/BERKLEY-TWOSOME-FOURSOME-FULL-SET-OF-FRONT-WHEEL-CYLINDERS-/390719238245?hash=item5af8ae7065:g:M3UAAOxydlFSogmZ
p5
aVhttp://www.ebay.com/itm/The-Dragon-and-the-Gruesome-Twosome-M-P-Robertson-/132255490208?epid=87297430&hash=item1ecb0aa0a0:g:giYAAOSw~jNZYlNS
p6
aVhttp://www.ebay.com/itm/WACKY-RACES-round-drinks-COASTERS-RETRO-CLASSIC-/380560755005?var=&hash=item589b30493d:m:mn_cY5G-agYl52MhraO3Ozw
p7
aVhttp://www.ebay.com/itm/100-Integra-valance-hooks-to-fix-curtain-pelmets-2-curtain-track-Twosome-premier-/300928698405?epid=1209909418&hash=item4610bf8825:g:HkoAAOSw8cNURBks
p8
aVhttp://www.ebay.com/itm/WACKY-RACES-ROUND-FRIDGE-MAGNETS-RETRO-COOL-12-different-to-choose-from-/381426174261?var=&hash=item58cec58935:m:mp-cLi9jeVoYg1rCvBBmepQ
p9
aVhttp://www.ebay.com/itm/10-Integra-valance-hooks-to-fix-curtain-pelmets-to-curtain-track-Twosome-premier-/300479393296?epid=1209909418&hash=item45f5f7ae10:g:3iMAAOSw8cNURBb3
p10
a.