(lp1
Vhttp://www.ebay.com/itm/Brazilian-Rosewood-wood-veneer-sheet-2500mm-x-310mm-real-wood-/282373287054?hash=item41bec26c8e:g:eKYAAOSwblZZHhMT
p2
aVhttp://www.ebay.com/itm/IRON-ON-WOOD-VENEER-TEAK-100inches-x-10inches-/391655436578?hash=item5b307bb122:m:m61fa8N_YC1xFXviWF_H2gw
p3
aVhttp://www.ebay.com/itm/Sicilian-Walnut-Veneer-wood-veneer-sheet-2500mm-x-310mm-real-wood-/282447197131?hash=item41c32a33cb:g:yqEAAOSwX61ZEwH-
p4
aVhttp://www.ebay.com/itm/Wood-Veneer-Samples-Ebony-Rosewood-Oak-Zebrano-Walnut-Olive-Sandalwood-/282341400222?var=&hash=item41bcdbde9e:m:mhedZWDVRGtn5UZBtQhShgw
p5
aVhttp://www.ebay.com/itm/White-Macassar-Ebony-Veneer-wood-veneer-sheet-2500mm-x-310mm-real-wood-/282385429077?hash=item41bf7bb255:g:xZcAAOSwX9FZEwBB
p6
aVhttp://www.ebay.com/itm/Iron-On-Oak-veneer-2500-x-250-x-0-6-real-wood-sheet-Oak-Sample-20-x-15cm-/282425063504?var=&hash=item41c1d87850:m:mX3bxHROkFZrWbX8iJHZt9g
p7
aVhttp://www.ebay.com/itm/American-Walnut-Veneer-wood-veneer-sheet-2500mm-x-310mm-real-wood-/282371568883?hash=item41bea834f3:g:OdQAAOSwY3BZHhKi
p8
aVhttp://www.ebay.com/itm/Mahogany-Curl-Veneer-9-sheets-10-x-8-922-/302325633164?hash=item466403108c:g:xiQAAOSwY3BZJETD
p9
aVhttp://www.ebay.com/itm/High-Quality-Red-Ebony-Veneer-wood-veneer-sheet-/282486968298?var=&hash=item41c5890fea:m:mJ4eqG9o90ZAMJwm8Cm_Drg
p10
aVhttp://www.ebay.com/itm/22mm-Pre-Glued-Iron-On-Edging-Melamine-Veneer-Tape-Veneers-Online-/290609554680?var=&hash=item43a9ade4f8:m:m-1TA3Zw_hjX-34Gpcxmg6g
p11
aVhttp://www.ebay.com/itm/Santos-Rosewood-wood-veneer-sheet-2800mm-x-310mm-real-wood-/282349393732?hash=item41bd55d744:g:THcAAOSwIaFZEwR1
p12
aVhttp://www.ebay.com/itm/Flexible-Wood-Veneer-Flexi-Large-Veneer-Sheets-choice-of-4-sizes-/390529703917?var=&hash=item5aed625fed:m:mkk0WiHUL93byDNek_iZ88A
p13
aVhttp://www.ebay.com/itm/Mixed-Mini-Pack-of-Veneer-for-marquetry-and-small-projects-jewellery-1084-/282578211803?hash=item41caf953db:g:Dv4AAOSwSTFZb2vp
p14
aVhttp://www.ebay.com/itm/Bolivian-Ebony-Veneer-wood-veneer-sheet-2500mm-x-310mm-real-wood-/282468168877?hash=item41c46a34ad:g:NVAAAOSwB09YRcqy
p15
aVhttp://www.ebay.com/itm/Mixed-veneer-pack-10-sheets-various-sizes-Crafts-models-marquetry-/272325325306?hash=item3f67dab1fa:g:NPMAAOSwkaZZcGbM
p16
aVhttp://www.ebay.com/itm/Figured-Mahogany-Veneer-REAL-WOOD-Sheet-1080mm-x-190mm-42-5-x-7-5-inches-/262462336784?hash=item3d1bf96f10:g:SRYAAOSwGjpXTc4P
p17
aVhttp://www.ebay.com/itm/High-Quality-Bog-Oak-Veneer-Flexible-Veneer-Sheet-/282500745418?var=&hash=item41c65b48ca:m:mgEUgzivOLNk-P6xM1m6gpQ
p18
aVhttp://www.ebay.com/itm/American-Cherry-Wood-veneer-veneer-sheet-2500mm-x-310mm-real-wood-/282442098397?hash=item41c2dc66dd:g:8AoAAOSwlndZHhOY
p19
aVhttp://www.ebay.com/itm/Brazilian-Rosewood-wood-veneer-sheet-2800mm-x-310mm-real-wood-/282349395949?hash=item41bd55dfed:g:~0UAAOSw-3FZEwQP
p20
aVhttp://www.ebay.com/itm/Bog-Oak-Veneer-wood-veneer-sheet-2500mm-x310mm-real-wood-/282371572796?hash=item41bea8443c:g:dMkAAOSwZQRYYEwf
p21
aVhttp://www.ebay.com/itm/Spanish-Olive-Wood-Veneer-wood-veneer-sheet-2800mm-x-310mm-real-wood-/282479862425?hash=item41c51ca299:g:o1QAAOSwhvFZHovw
p22
aVhttp://www.ebay.com/itm/Edge-Banding-Tape-Iron-On-Natural-Real-Wood-Veneer-Edging-/291434450027?var=&hash=item43dad8cc6b:m:mMz3G-di6sGoJhsGF2niXfQ
p23
aVhttp://www.ebay.com/itm/Wenge-Veneer-wood-veneer-sheet-2500mm-x-320mm-real-wood-/282525821826?hash=item41c7d9eb82:g:AXAAAOSwnHZYYEg8
p24
aVhttp://www.ebay.com/itm/IRON-ON-REAL-WOOD-VENEER-PRE-GLUED-SHEETS-CHOICE-OF-TWO-SIZES-100-X10-OR-50-X10-/390392667042?var=&hash=item5ae5375ba2:m:mkk0WiHUL93byDNek_iZ88A
p25
aVhttp://www.ebay.com/itm/PAPER-BACKED-FLEXIBLE-TEAK-WOOD-VENEER-/391422248075?var=&hash=item5b2295848b:m:mxS0c5j__PUMSuzkEQhUM7g
p26
aVhttp://www.ebay.com/itm/Brazilian-Rosewood-wood-veneer-sheet-2500mm-x-310mm-real-wood-/282315162791?hash=item41bb4b84a7:g:UHQAAOSwIaFZEwTQ
p27
aVhttp://www.ebay.com/itm/Iron-On-Marquetry-Furniture-Repair-Wood-Veneer-Pack-of-8-Species-G003-/302073390746?hash=item4654fa269a:g:S0EAAOSw7NNT~eQb
p28
aVhttp://www.ebay.com/itm/Brasilian-Rosewood-2500mm-x-640mm-wood-veneer-sheet-real-wood-/282432843520?hash=item41c24f2f00:g:1cYAAOSwZ4dZEwE4
p29
aVhttp://www.ebay.com/itm/Wenge-Veneer-wood-veneer-sheet-2500mm-x-640mm-real-wood-/282318804271?hash=item41bb83152f:g:AXAAAOSwnHZYYEg8
p30
aVhttp://www.ebay.com/itm/American-White-Oak-Veneer-wood-veneer-sheet-2800mm-x-310mm-real-wood-/282442106412?hash=item41c2dc862c:g:o-oAAOSwGJlZHooq
p31
aVhttp://www.ebay.com/itm/Zebrano-Negro-Veneer-wood-veneer-sheet-2500mm-x-310mm-real-wood-/282398099632?hash=item41c03d08b0:g:j2wAAOSwA3dYYE~j
p32
aVhttp://www.ebay.com/itm/Perforated-Veneer-Tape-12mm-Wide-x-400-metres-/370968398122?hash=item565f70892a:g:IRcAAMXQeW5TYlYa
p33
aVhttp://www.ebay.com/itm/Australian-Sandalwood-Veneer-wood-veneer-sheet-2500mm-x-310mm-real-wood-/282424970064?hash=item41c1d70b50:g:TQ0AAOSwtGlZIOPc
p34
aVhttp://www.ebay.com/itm/Bolivian-Ebony-Veneer-wood-veneer-sheet-2500mm-x-640mm-real-wood-/282468172332?hash=item41c46a422c:g:NVAAAOSwB09YRcqy
p35
aVhttp://www.ebay.com/itm/Wood-Veneers-/222051343931?var=&epid=1260747357&hash=item33b34a9e3b:m:mkeKyi6cG-z675vXEvr5NtA
p36
aVhttp://www.ebay.com/itm/Brazilian-Rosewood-2500mm-x-640mm-wood-veneer-sheet-real-wood-/282432840638?hash=item41c24f23be:g:IjoAAOSwaEhZHoyn
p37
aVhttp://www.ebay.com/itm/Zebrano-Veneer-wood-veneer-sheet-2500mm-x-630mm-real-wood-/282391616366?hash=item41bfda1b6e:g:J~sAAOSwux5YXaaA
p38
aVhttp://www.ebay.com/itm/PreGlued-Iron-on-Oak-Wood-Veneer-Sheets-200mm-wide-you-choose-the-Length-/370997915836?var=&hash=item566132f0bc:m:m7ohpC7U9kqBePr1idvPUyQ
p39
aVhttp://www.ebay.com/itm/Figured-Walnut-Veneer-11-sheets-12-5-x-8-893-/302319867485?hash=item4663ab165d:g:I4YAAOSw5cRZHGUM
p40
aVhttp://www.ebay.com/itm/High-Quality-20-mm-Pre-Glued-Iron-On-Edging-Melamine-Veneer-Tape-Strips-Colours-/252289799144?var=&hash=item3abda4d3e8:m:mrElANjiS35Vvt3JKdyRYVA
p41
aVhttp://www.ebay.com/itm/American-Walnut-Veneer-wood-veneer-sheet-2500mm-x-640mm-real-wood-/282399926332?hash=item41c058e83c:g:PicAAOSwurZZHhJN
p42
aVhttp://www.ebay.com/itm/Indian-Rosewood-wood-veneer-sheet-2500mm-x-310mm-real-wood-/282315158790?hash=item41bb4b7506:g:gX8AAOSwfpVZEwLk
p43
aVhttp://www.ebay.com/itm/High-Quality-Zebrano-Veneer-wood-veneer-sheet-2500mm-x-310mm-real-wood-/282416260795?hash=item41c15226bb:g:J~sAAOSwux5YXaaA
p44
aVhttp://www.ebay.com/itm/Figured-Walnut-Veneer-12-sheets-12-5-x-7-5-894-/282482368180?hash=item41c542deb4:g:JPIAAOSwH09ZHGZS
p45
aVhttp://www.ebay.com/itm/Bog-Oak-Veneer-wood-veneer-sheet-2500mm-x-640mm-real-wood-/282399921605?hash=item41c058d5c5:g:dMkAAOSwZQRYYEwf
p46
aVhttp://www.ebay.com/itm/White-Ebony-Veneer-wood-veneer-sheet-2800mm-x-310mm-real-wood-/282368045522?hash=item41be7271d2:g:7GAAAOSw44BYWG0g
p47
aVhttp://www.ebay.com/itm/PAPER-BACKED-FLEXIBLE-WOOD-VENEER-SHEETS-96inchesx12inches-/370575903492?var=&hash=item56480b8b04:m:mZNrz5DPTwz7s7GG4vaNhAw
p48
aVhttp://www.ebay.com/itm/Oak-veneer-Red-Oak-3000mm-x-150mm-x-0-6mm-real-wood-/282424982518?hash=item41c1d73bf6:g:KH8AAOSw6DtYWY6S
p49
aVhttp://www.ebay.com/itm/Old-Oak-Veneer-wood-veneer-sheet-2800mm-x-310mm-real-wood-/282385429789?hash=item41bf7bb51d:g:xuEAAOSwfRdZHhSf
p50
aVhttp://www.ebay.com/itm/Iron-On-Ash-veneer-sheet-2500-x-250-Pre-Glued-Ash-Sample-20-x-15cm-/282425076341?var=&hash=item41c1d8aa75:m:m_4ZLzcMGrT7pWPOJnZQyxQ
p51
aVhttp://www.ebay.com/itm/Olive-Wood-Veneer-wood-veneer-sheet-2500mm-x-640mm-real-wood-/282399881568?hash=item41c0583960:g:3NMAAOSwImRYRLfs
p52
aVhttp://www.ebay.com/itm/Silverline-300x30-25-20-16mm-TCT-Veneer-Blade-100T-Circular-Saw-Power-427539-/391651934579?epid=1705100360&hash=item5b30464173:g:MtcAAOSwal5YNKbA
p53
aVhttp://www.ebay.com/itm/European-Walnut-Veneer-wood-veneer-sheet-2800mm-x-640mm-real-wood-/282399923695?hash=item41c058ddef:g:T80AAOSw-K9ZHhaQ
p54
aVhttp://www.ebay.com/itm/High-Quality-Pre-Glued-Wood-Veneer-Sheet-Iron-On-Oak-Wood-Veneer-/282477224397?hash=item41c4f461cd:g:DOgAAOSwYvFZF~3k
p55
aVhttp://www.ebay.com/itm/Wood-veneer-Makore-4-Sheets-22-x-6-5-56cm-x-16-cm-/272176762252?hash=item3f5effcd8c:g:AqkAAOSwhQhYxFMo
p56
aVhttp://www.ebay.com/itm/Australian-Sandalwood-Veneer-wood-veneer-sheet-2500mm-x-310mm-real-wood-/282424970064?hash=item41c1d70b50:g:TQ0AAOSwtGlZIOPc
p57
aVhttp://www.ebay.com/itm/American-Walnut-Veneer-wood-veneer-sheet-2200mm-x-310mm-real-wood-/282349401166?hash=item41bd55f44e:g:PccAAOSwGJlZEwPV
p58
aVhttp://www.ebay.com/itm/Pick-Your-Own-Wood-Veneer-Marquetry-Sheets-Can-Choose-Iron-on-or-Unglued-/290934693119?var=&hash=item43bd0f1cff:m:m7CvkdXPHCVUWvyw5WL6BNw
p59
aVhttp://www.ebay.com/itm/Wood-veneer-Flamed-Mahogany-2-Sheets-22-x-5-5-56-cm-x-15-cm-/272639020214?hash=item3f7a8d4cb6:g:jLEAAOSwBOtY-RK7
p60
aVhttp://www.ebay.com/itm/Wild-Apple-veneer-veneer-sheet-2800mm-x-300mm-real-wood-/282449824818?hash=item41c3524c32:g:QC4AAOSw~FJZMfn8
p61
aVhttp://www.ebay.com/itm/Sicilian-Walnut-Veneer-wood-veneer-sheet-2500mm-x-630mm-real-wood-/282431012056?hash=item41c2333cd8:g:m2cAAOSwrhBZEwDd
p62
aVhttp://www.ebay.com/itm/Pre-Glued-Edging-Tape-Real-Iron-on-Wood-Veneer-Edge-Banding-22mm-30mm-40mm-50mm-/301334700604?var=&hash=item4628f2a23c:m:ml4A-jqEm23t9x6Xu4XQmjA
p63
aVhttp://www.ebay.com/itm/IRON-ON-WHITE-OAK-WOOD-VENEER-FOR-EDGING-STAIR-STRINGERS-PLINTHS-SKIRTING-DOORS-/292011515078?var=&hash=item43fd3e1cc6:m:mcB81KlcWDBvgxAnuXlAG2Q
p64
aVhttp://www.ebay.com/itm/Mixed-Mini-Pack-of-Veneer-for-marquetry-and-small-projects-jewellery-1084-/282578211803?hash=item41caf953db:g:Dv4AAOSwSTFZb2vp
p65
aVhttp://www.ebay.com/itm/Olive-Wood-Veneer-wood-veneer-sheet-2500mm-x-310mm-real-wood-/282385428106?hash=item41bf7bae8a:g:3NMAAOSwImRYRLfs
p66
aVhttp://www.ebay.com/itm/American-Walnut-Veneer-REAL-WOOD-Sheet-720mm-x-310mm-28-3-x-12-2-inches-/262462141723?hash=item3d1bf6751b:g:V7QAAOSwwIZXTa7F
p67
aVhttp://www.ebay.com/itm/IRON-ON-WOOD-VENEER-AMERICAN-WALNUT-98-x11-3-4-/390365973399?hash=item5ae3a00b97:m:mOIj1sAl8d1RAl9s5S9996Q
p68
aVhttp://www.ebay.com/itm/Virutex-End-Trimmer-RC21E-For-Trimming-PVC-Melamine-Polyester-and-Veneer-/201612162923?hash=item2ef105776b:g:wLEAAOSwDk5T39x9
p69
aVhttp://www.ebay.com/itm/Burr-Walnut-Veneer-8-sheets-11-x-7-5-1018-/302381465393?hash=item466756ff31:g:PZUAAOSwQ59ZZiOF
p70
aVhttp://www.ebay.com/itm/Limba-Black-or-Dark-Afara-2-Consecutive-Leaves-Wood-Veneer-2819mm-x-279mm-/322294663260?hash=item4b0a42485c:g:2xwAAOSwxKtX~z~c
p71
aVhttp://www.ebay.com/itm/Beautiful-Ebony-Veneer-wood-veneer-sheet-2500mm-x-310mm-real-wood-/282311098984?hash=item41bb0d8268:g:rZYAAOSwq1JZHo4Y
p72
aVhttp://www.ebay.com/itm/IRON-ON-WOOD-VENEER-AMERICAN-WALNUT-/370677131305?hash=item564e142829:m:mOIj1sAl8d1RAl9s5S9996Q
p73
aVhttp://www.ebay.com/itm/Iron-on-wood-veneer-sheet-Oak-Mahogany-Walnut-Pine-Teak-Ash-Maple-Cherry-Beech-/390785150528?var=&hash=item5afc9c2e40:m:mkk0WiHUL93byDNek_iZ88A
p74
aVhttp://www.ebay.com/itm/IRON-ON-WOOD-VENEER-TEAK-/390403121776?hash=item5ae5d6e270:m:m61fa8N_YC1xFXviWF_H2gw
p75
aVhttp://www.ebay.com/itm/Figured-Teak-Veneer-REAL-WOOD-Sheet-900mm-x-100mm-35-x-4-inches-/251329449928?hash=item3a84670fc8:g:HBMAAMXQILVSINDf
p76
aVhttp://www.ebay.com/itm/OAK-WOOD-VENEER-SHEET-UNGLUED-FLEECE-BACKED-2500mm-x300mm-/291635977357?hash=item43e6dbdc8d:g:9i4AAOSwm8VU1IJE
p77
aVhttp://www.ebay.com/itm/oak-burr-burl-wood-veneer-1-leaf-2200-mm-x-380-mm-great-sheet-/262801648674?hash=item3d3032ec22:g:ALsAAOSw44BYdO1s
p78
aVhttp://www.ebay.com/itm/Wood-veneer-Flamed-Mahogany-Sheet-4ft-x-6-122-x-16-cm-Great-figuration-/282164632347?hash=item41b2529b1b:g:EBQAAOSwxvFZcQCK
p79
aVhttp://www.ebay.com/itm/IRON-ON-OAK-PRE-GLUED-STAIR-STRINGER-WOOD-VENEER-SHEET-4500mm-x-300mm-/262899152678?epid=554344760&hash=item3d3602b726:g:-mIAAOSwcldUZznc
p80
aVhttp://www.ebay.com/itm/Wood-veneer-Ziricote-2-Sheets-2ft-3-x-6-70-cm-x-15-cm-/272341194872?hash=item3f68ccd878:g:ixMAAOSw0TxZakm7
p81
aVhttp://www.ebay.com/itm/Oak-veneer-2800-x-340-real-wood-veneer-/282325358587?hash=item41bbe717fb:g:BysAAOSw241YeZGa
p82
aVhttp://www.ebay.com/itm/IRON-ON-MAHOGANY-SAPELE-PRE-GLUED-WOOD-VENEER-SHEET-1000mm-x-250mm-/291111172651?epid=1731965932&hash=item43c793fa2b:g:7DMAAOxykmZTMu9R
p83
aVhttp://www.ebay.com/itm/Oak-veneer-2800-x-290mm-wood-veneer-sheet-sample-200-x-150mm-/282357625815?var=&hash=item41bdd373d7:m:myEzDcmvqScd0UsUQ-dZfeg
p84
aVhttp://www.ebay.com/itm/Best-Teacher-Rulers-OAK-VENEER-perfect-teachers-gift-16cm-/192178221625?var=&hash=item2cbeb6f239:m:mfxGNNFR7QHYHkzyESqbcGA
p85
aVhttp://www.ebay.com/itm/IRON-ON-WHITE-OAK-WOOD-VENEER-STAIR-STRING-STRINGER-SHEET-4500mm-x-250mm-/302255446956?epid=1632342804&hash=item465fd41bac:g:flsAAOxydlFSovCP
p86
aVhttp://www.ebay.com/itm/Teak-Veneer-wood-veneer-sheet-2500mm-x310mm-real-wood-/282355727737?hash=item41bdb67d79:g:ytEAAOSwfRdZHhTw
p87
aVhttp://www.ebay.com/itm/IRON-ON-OAK-PRE-GLUED-WOOD-VENEER-SHEET-2500mm-x-300mm-/292058452381?epid=684675836&hash=item44000a519d:g:xYsAAOSw4YdYy50c
p88
aVhttp://www.ebay.com/itm/Rosewood-veneer-Santos-Palisander-2-leafs-6ft-3-x-4-5-183-cm-x-11-cm-/282037132303?hash=item41aab91c0f:g:4bkAAOSwmNlZa1dt
p89
aVhttp://www.ebay.com/itm/IRON-ON-ASH-WOOD-VENEER-250cm-x-30cm-/291636631390?epid=1289007860&hash=item43e6e5d75e:g:jaoAAOSwcBhWatut
p90
aVhttp://www.ebay.com/itm/IRON-ON-OAK-PRE-GLUED-WOOD-VENEER-SHEET-3000mm-x-150mm-/291583500289?epid=1888815453&hash=item43e3bb2001:g:cjIAAOSwEK9UI8od
p91
aVhttp://www.ebay.com/itm/IRON-ON-WOOD-VENEER-ZEBRANO-/371000808848?hash=item56615f1590:m:m469KNgbH0u4UsETFXDihRw
p92
aVhttp://www.ebay.com/itm/Box-of-wood-veneer-offcuts-Great-for-crafts-models-hobbies-marquetry-/282063727005?hash=item41ac4ee99d:g:Nt8AAOSw6DtYSW3V
p93
aVhttp://www.ebay.com/itm/Figured-Sycamore-Veneer-REAL-WOOD-Sheet-800mm-x-145mm-31-5-x-5-7-inches-/262462291761?hash=item3d1bf8bf31:g:PsIAAOSw7ehXTcnO
p94
aVhttp://www.ebay.com/itm/High-Quality-Pre-Glued-Oak-Wood-Veneer-Iron-On-Wood-Veneer-Sheet-/282426927091?hash=item41c1f4e7f3:g:-54AAOSwc-tY6i2Q
p95
aVhttp://www.ebay.com/itm/Iron-on-Pine-Wood-Veneer-Stair-Stringer-String-4200mm-x-250mm-/371485609397?epid=1588924723&hash=item567e448db5:g:nHsAAOSwT4lWRQ71
p96
aVhttp://www.ebay.com/itm/IRON-ON-MAHOGANY-SAPELE-PRE-GLUED-WOOD-VENEER-SHEET-5000mm-x-250mm-/261434965037?epid=1831895832&hash=item3cdebcfc2d:g:7DMAAOxykmZTMu9R
p97
aVhttp://www.ebay.com/itm/PAPER-BACKED-FLEXI-AMERICAN-BLACK-WALNUT-WOOD-VENEER-/370522548119?var=&hash=item5644dd6797:m:mPc4LYzVtI1sGgftRT2AqQg
p98
aVhttp://www.ebay.com/itm/Wood-Veneer-Samples-/370576274467?var=&hash=item5648113423:m:m0UtUfJMbHzIT9rLzlTYUaw
p99
aVhttp://www.ebay.com/itm/IRON-ON-MAHOGANY-SAPELE-PRE-GLUED-WOOD-VENEER-SHEET-5000mm-x-250mm-/261434965037?epid=1831895832&hash=item3cdebcfc2d:g:7DMAAOxykmZTMu9R
p100
aVhttp://www.ebay.com/itm/PAPER-BACKED-FLEXI-SAPELE-WOOD-VENEER-/370551891321?var=&hash=item56469d2579:m:miLI53mJepp5-QrVlR96rNA
p101
aVhttp://www.ebay.com/itm/Luthitec-Dyed-Wood-Guitar-Headstock-Veneer-200-x-100-x-0-6mm-/152089283397?var=&hash=item23693a4b45:m:m6LlQPBmE0gBNJ2UQgR2peg
p102
aVhttp://www.ebay.com/itm/High-Quality-Pre-Glued-Oak-Wood-Veneer-Iron-On-Wood-Veneer-Sheet-/282426927091?hash=item41c1f4e7f3:g:-54AAOSwc-tY6i2Q
p103
aVhttp://www.ebay.com/itm/IRON-ON-CHERRY-WOOD-VENEER-250cm-x-30cm-/300661242912?epid=1432314586&hash=item4600ce7c20:g:tS4AAOSwl-FXMuE1
p104
aVhttp://www.ebay.com/itm/Wood-Veneers-Marquetry-12-Lengths-assorted-sheets-/162004856476?var=&epid=1850834239&hash=item25b83dee9c:m:mBo6qoP8Uxx5wLVB9dJGK1w
p105
aVhttp://www.ebay.com/itm/Pre-Glued-Iron-on-Oak-Wood-Veneer-Sheets-150mm-wide-you-choose-the-Length-/390759728930?var=&hash=item5afb184722:m:m7ohpC7U9kqBePr1idvPUyQ
p106
aVhttp://www.ebay.com/itm/IRON-ON-BEECH-WOOD-VENEER-250cm-x-30cm-/291636632039?epid=1289007801&hash=item43e6e5d9e7:g:02sAAOSwv-NWatwx
p107
aVhttp://www.ebay.com/itm/IRON-ON-WOOD-VENEER-MAHOGANY-/370437831952?hash=item563fd0bd10:m:m1v5iYAiM5UH4FQEPJMb0Ng
p108
aVhttp://www.ebay.com/itm/African-Mansonia-Veneer-2-Consecutive-Leaves-Wood-Veneer-2616mm-x-279mm-/322291432020?hash=item4b0a10fa54:g:YqMAAOSwPCVX~g-B
p109
aVhttp://www.ebay.com/itm/Iron-on-Glue-Film-Hotmelt-Adhesive-Wood-Veneer-Marquetry-Crafts-/370842360625?var=&hash=item5657ed5b31:m:mAnJEympgIqw4nBtwjKWeZw
p110
aVhttp://www.ebay.com/itm/Unglued-American-White-Oak-Wood-Veneer-Sheets-250mm-wide-stair-string-stringer-/371163854120?var=&hash=item566b16f528:m:m7ohpC7U9kqBePr1idvPUyQ
p111
aVhttp://www.ebay.com/itm/Iron-on-Wood-Veneer-Oak-Walnut-Teak-Beech-Mahogany-Pine-Ash-Cherry-Wenge-/290850541195?var=&hash=item43b80b0e8b:m:m9Ovpcq8UPTX7tFzaA1auuA
p112
aVhttp://www.ebay.com/itm/High-Quality-American-Walnut-Wood-Veneer-Flexible-Veneer-Sheet-/282500610864?var=&hash=item41c6593b30:m:mkhkuxeFb0Pwlbp7JMZGsQw
p113
aVhttp://www.ebay.com/itm/IRON-ON-MAHOGANY-SAPELE-PRE-GLUED-WOOD-VENEER-SHEET-2500mm-x-300mm-/300842667775?epid=1632338688&hash=item460b9eceff:m:mMYHwfyKP4mJLjCjojRhd1A
p114
aVhttp://www.ebay.com/itm/Beech-real-wood-veneer-1-leaf-2600-mm-x-410-mm-long-and-wide-sheet-/262967406981?hash=item3d3a143185:g:xtYAAOSw-3FZC59X
p115
aVhttp://www.ebay.com/itm/IRON-ON-OAK-PRE-GLUED-STAIR-STRINGER-WOOD-VENEER-SHEET-4200mm-x-250mm-/292058788290?epid=685035318&hash=item44000f71c2:g:W48AAOSwuMFUZzmq
p116
aVhttp://www.ebay.com/itm/Rosewood-real-wood-veneer-1-leaf-2950-mm-x-240-mm-very-great-sheet-7-5-ft2-/262745193818?hash=item3d2cd57d5a:g:5s8AAOSwbsBXj0us
p117
aVhttp://www.ebay.com/itm/Black-High-Gloss-22mm-Wide-Iron-on-Melamine-Edging-Veneer-U180h-/292015375670?var=&hash=item43fd790536:m:moJ9nUSJEo1xQm1oauUp-nQ
p118
aVhttp://www.ebay.com/itm/Figured-Teak-Veneer-REAL-WOOD-Sheet-900mm-x-100mm-35-x-4-inches-/251329449928?hash=item3a84670fc8:g:HBMAAMXQILVSINDf
p119
aVhttp://www.ebay.com/itm/1mm-THICK-Oak-Veneer-REAL-WOOD-2400x215x1mm-/263080166220?hash=item3d40ccc34c:g:9FkAAOSwDmBY3-tz
p120
aVhttp://www.ebay.com/itm/IRON-ON-PINE-WOOD-VENEER-250cm-x-30cm-/291636633345?epid=1588958114&hash=item43e6e5df01:g:KZMAAOSwAKxWatyE
p121
aVhttp://www.ebay.com/itm/African-Mansonia-Veneer-2-Consecutive-Leaves-Wood-Veneer-2616mm-x-279mm-/322291432020?hash=item4b0a10fa54:g:YqMAAOSwPCVX~g-B
p122
aVhttp://www.ebay.com/itm/IRON-ON-PINE-WOOD-VENEER-250cm-x-30cm-/291636633345?epid=1588958114&hash=item43e6e5df01:g:KZMAAOSwAKxWatyE
p123
aVhttp://www.ebay.com/itm/Wood-veneer-Cedar-of-Lebanon-2-Sheets-22-x-6-56cm-x-15-cm-/282515963742?hash=item41c7437f5e:g:FjcAAOSwbiFZOaMh
p124
aVhttp://www.ebay.com/itm/1-5mm-THICK-Ash-Veneer-REAL-WOOD-3500x170x1-5mm-/263080168119?hash=item3d40cccab7:g:gykAAOSwCU1Y3-eS
p125
aVhttp://www.ebay.com/itm/IRON-ON-WOOD-VENEER-CHERRY-/370258907865?hash=item56352692d9:m:mcgwjrp3iJSg00Yqr6Y370Q
p126
aVhttp://www.ebay.com/itm/IRWIN-Jack-10503533-Xpert-Floorboard-Veneer-Saw-325mm-13in-12tpi-/311040756068?epid=1605288242&hash=item486b794964:g:cO8AAOSwXeJXcn3f
p127
aVhttp://www.ebay.com/itm/IRON-ON-OAK-PRE-GLUED-STAIR-STRINGER-WOOD-VENEER-SHEET-4200mm-x-250mm-/292058788290?hash=item44000f71c2:g:W48AAOSwuMFUZzmq
p128
aVhttp://www.ebay.com/itm/High-Quality-American-Walnut-Wood-Veneer-Flexible-Veneer-Sheet-/282500610864?var=&hash=item41c6593b30:m:mkhkuxeFb0Pwlbp7JMZGsQw
p129
aVhttp://www.ebay.com/itm/IRON-ON-MAHOGANY-SAPELE-PRE-GLUED-WOOD-VENEER-SHEET-2500mm-x-300mm-/300842667775?epid=1632338688&hash=item460b9eceff:m:mMYHwfyKP4mJLjCjojRhd1A
p130
aVhttp://www.ebay.com/itm/Birch-real-wood-veneer-1-leaf-2550-mm-x-600-mm-very-great-wide-sheet-/252920128747?hash=item3ae336e4eb:g:qAsAAOSwX61ZC5pp
p131
aVhttp://www.ebay.com/itm/Figured-Teak-Veneer-REAL-WOOD-Sheet-900mm-x-100mm-35-x-4-inches-3-/261276067201?hash=item3cd5446581:g:iLcAAOxy7AxSINO9
p132
aVhttp://www.ebay.com/itm/Wood-Veneers-Offcut-Pack-for-Marquetry-/161575334409?var=&hash=item259ea3f209:m:mCO99IhL1beicHTAWL8NMBg
p133
aVhttp://www.ebay.com/itm/Mahogany-Veneer-10-sheets-11-5-x-7-5-1053-/302383288516?hash=item466772d0c4:g:Vl8AAOSwJq1ZaJ1c
p134
aVhttp://www.ebay.com/itm/African-Shedua-2-Consecutive-Leaves-Wood-Veneer-2616mm-x-254mm-/322294700507?hash=item4b0a42d9db:g:-FcAAOSwLF1YB68S
p135
aVhttp://www.ebay.com/itm/Birch-real-wood-veneer-1-leaf-2550-mm-x-440-mm-very-great-wide-sheet-12-ft2-/262745193798?hash=item3d2cd57d46:g:NXgAAOSw7PBTmcyq
p136
aVhttp://www.ebay.com/itm/oak-burr-burl-wood-veneer-1-leaf-2200-mm-x-300-mm-great-sheet-/262967431320?hash=item3d3a149098:g:GpMAAOSw7GRZC6Q6
p137
aVhttp://www.ebay.com/itm/American-Walnut-Veneer-REAL-WOOD-Sheet-1040mm-x-210mm-40-9-x-8-2-inches-/261260788031?hash=item3cd45b413f:g:J8MAAOxybetSAiZE
p138
aVhttp://www.ebay.com/itm/Oak-veneer-wood-veneer-sheet-2350mm-x-340mm-real-wood-/282479884068?hash=item41c51cf724:g:wXYAAOSww5hZGlDh
p139
aVhttp://www.ebay.com/itm/Oak-veneer-Apple-best-teacher-Keyrings-/201863970832?var=&hash=item2f0007c010:m:m6Nr6SsHSxzIl55_Tj-IUJg
p140
a.