(lp0
Vhttps://www.amazon.co.uk/Tacos-Tortas-Tamales-Griddles-Street-Side/dp/1118190203/ref=sr_1_1/260-6993813-0065541?ie=UTF8&qid=1500121357&sr=8-1&keywords=tamale
p1
aVhttps://www.amazon.co.uk/Hot-Tamales-Theatre-Box-141g-x/dp/B00KB5ISKI/ref=sr_1_2_a_it/260-6993813-0065541?ie=UTF8&qid=1500121357&sr=8-2&keywords=tamale
p2
aVhttps://www.amazon.co.uk/Tamale-Explicit/dp/B00C3BLPY4/ref=sr_1_3/260-6993813-0065541?ie=UTF8&qid=1500121357&sr=8-3&keywords=tamale
p3
aVhttps://www.amazon.co.uk/Hot-Tamales-Cinnamon-Candies-Theatre/dp/B009PLOQSM/ref=sr_1_4_a_it/260-6993813-0065541?ie=UTF8&qid=1500121357&sr=8-4&keywords=tamale
p4
aVhttps://www.amazon.co.uk/Zmatoo-Steamer-Strainer-Patients-Aluminum/dp/B0158FF3BW/ref=sr_1_5/260-6993813-0065541?ie=UTF8&qid=1500121357&sr=8-5&keywords=tamale
p5
aVhttps://www.amazon.co.uk/d/DVD-Blu-ray/Hot-Tamale-DVD-Randy-Spelling/B0018SHUE2/ref=sr_1_6/260-6993813-0065541?ie=UTF8&qid=1500121357&sr=8-6&keywords=tamale
p6
aVhttps://www.amazon.co.uk/d/Sweets-Chocolate-Gum/Cinnamon-spicy-American-sweets-Dolci-Di-Lechlade/B00J4QJJJE/ref=sr_1_7_a_it/260-6993813-0065541?ie=UTF8&qid=1500121357&sr=8-7&keywords=tamale
p7
aVhttps://www.amazon.co.uk/morgan-taylor-polish-TAMALE-50023/dp/B00PCIDRPU/ref=sr_1_8_a_it/260-6993813-0065541?ie=UTF8&qid=1500121357&sr=8-8&keywords=tamale
p8
aVhttps://www.amazon.co.uk/Tamales-Fast-Delicious-Mexican-Meals-ebook/dp/B00JNQMZ6E/ref=sr_1_9/260-6993813-0065541?ie=UTF8&qid=1500121357&sr=8-9&keywords=tamale
p9
aVhttps://www.amazon.co.uk/Tamale-Ghana-Navigator-Golden-Forge/dp/B00JSE0OZU/ref=sr_1_10/260-6993813-0065541?ie=UTF8&qid=1500121357&sr=8-10&keywords=tamale
p10
aVhttps://www.amazon.co.uk/3dRose-Inches-Mouse-Tamale-mp-3198-1/dp/B001LDF1MM/ref=sr_1_11/260-6993813-0065541?ie=UTF8&qid=1500121357&sr=8-11&keywords=tamale
p11
aVhttps://www.amazon.co.uk/Too-Many-Tamales-Blanca-Camacho/dp/B072P18168/ref=sr_1_12/260-6993813-0065541?ie=UTF8&qid=1500121357&sr=8-12&keywords=tamale
p12
aVhttps://www.amazon.co.uk/d/Digital-Music/Homemade-Tamales-Live-at-Floores/B00JK4RYU6/ref=sr_1_13/260-6993813-0065541?ie=UTF8&qid=1500121357&sr=8-13&keywords=tamale
p13
aVhttps://www.amazon.co.uk/d/Toys-Games/Madpax-MadPax-83736-bubble-m-hot-tamale/B011ZAFAPI/ref=sr_1_14/260-6993813-0065541?ie=UTF8&qid=1500121357&sr=8-14&keywords=tamale
p14
aVhttps://www.amazon.co.uk/McKinley-Womens-Jacket-Multicolour-Multicolor/dp/B01B2WO79Y/ref=sr_1_15/260-6993813-0065541?ie=UTF8&qid=1500121357&sr=8-15&keywords=tamale
p15
aVhttps://www.amazon.co.uk/Just-Fun-Collar-16-Inch-Leather/dp/B009YD2ARK/ref=sr_1_16/260-6993813-0065541?ie=UTF8&qid=1500121357&sr=8-16&keywords=tamale
p16
aVhttps://www.amazon.co.uk/MadPax-Bubble-Half-Tamale-Textile/dp/B00JE2VROI/ref=sr_1_17/260-6993813-0065541?ie=UTF8&qid=1500121360&sr=8-17&keywords=tamale
p17
aVhttps://www.amazon.co.uk/Authentic-Pigment-Pigment-Dyed-Direct-Dyed-Ringspun/dp/B001I4JFZS/ref=sr_1_18/260-6993813-0065541?ie=UTF8&qid=1500121360&sr=8-18&keywords=tamale
p18
aVhttps://www.amazon.co.uk/PURPLE-Tamale-Glass-Coaster-COLOUR/dp/B01FFK8NHG/ref=sr_1_19/260-6993813-0065541?ie=UTF8&qid=1500121360&sr=8-19&keywords=tamale
p19
aVhttps://www.amazon.co.uk/Custom-engraved-manicure-set-name/dp/B01N1N4BA3/ref=sr_1_20/260-6993813-0065541?ie=UTF8&qid=1500121360&sr=8-20&keywords=tamale
p20
aVhttps://www.amazon.co.uk/5-6-PIG-DIR-DYE-TAMALE/dp/B00BN4G9R0/ref=sr_1_21/260-6993813-0065541?ie=UTF8&qid=1500121360&sr=8-21&keywords=tamale
p21
aVhttps://www.amazon.co.uk/Hot-Tamales-Cinnamon-Candy-Theatre/dp/B0091FEZLA/ref=sr_1_22_a_it/260-6993813-0065541?ie=UTF8&qid=1500121360&sr=8-22&keywords=tamale
p22
aVhttps://www.amazon.co.uk/Carabiner-Flashlight-Tamale-surname-nickname/dp/B00G32QDFU/ref=sr_1_23/260-6993813-0065541?ie=UTF8&qid=1500121360&sr=8-23&keywords=tamale
p23
aVhttps://www.amazon.co.uk/Personalised-bottle-carabiner-surname-nickname/dp/B00B4VSITE/ref=sr_1_24/260-6993813-0065541?ie=UTF8&qid=1500121360&sr=8-24&keywords=tamale
p24
aVhttps://www.amazon.co.uk/Glasses-Tamale-first-surname-nickname-x/dp/B00AJLCVHU/ref=sr_1_25/260-6993813-0065541?ie=UTF8&qid=1500121360&sr=8-25&keywords=tamale
p25
aVhttps://www.amazon.co.uk/Hot-Grill-Tamale-Hots-2007-09-11/dp/B01MQ2E133/ref=sr_1_26/260-6993813-0065541?ie=UTF8&qid=1500121360&sr=8-26&keywords=tamale
p26
aVhttps://www.amazon.co.uk/d/Hair-Care/Garnier-Nutrisse-Auburn-Blonde-Tamale/B000GCUC6O/ref=sr_1_27_a_it/260-6993813-0065541?ie=UTF8&qid=1500121360&sr=8-27&keywords=tamale
p27
aVhttps://www.amazon.co.uk/d/Soft-Toys/Personalised-ladybird-plush-Tamale-T-Shirt-surname-nickname/B01BM94436/ref=sr_1_28/260-6993813-0065541?ie=UTF8&qid=1500121360&sr=8-28&keywords=tamale
p28
aVhttps://www.amazon.co.uk/Tamale-Live-Explicit/dp/B00EX9PEVE/ref=sr_1_29/260-6993813-0065541?ie=UTF8&qid=1500121360&sr=8-29&keywords=tamale
p29
aVhttps://www.amazon.co.uk/Granite-6257-1-2-Quart-Tamale-Steamer/dp/B004WSJ40S/ref=sr_1_30/260-6993813-0065541?ie=UTF8&qid=1500121360&sr=8-30&keywords=tamale
p30
aVhttps://www.amazon.co.uk/d/Books/Vegan-Mexico-Soul-Satisfying-Regional-Tostadas/1941252214/ref=sr_1_31/260-6993813-0065541?ie=UTF8&qid=1500121360&sr=8-31&keywords=tamale
p31
aVhttps://www.amazon.co.uk/NYX-Butter-Lipstick-Hot-Tamale/dp/B00I48BHWA/ref=sr_1_32_a_it/260-6993813-0065541?ie=UTF8&qid=1500121360&sr=8-32&keywords=tamale
p32
a.