(lp1
Vhttp://www.ebay.com/itm/Avenged-Sevenfold-Avenged-Sevenfold-Vinyl-12-Album-NEW-/302382521582?epid=178427604&hash=item4667671cee:g:vhcAAOSwcx5ZZ4vN
p2
aVhttp://www.ebay.com/itm/AVENGED-SEVENFOLD-HAIL-TO-THE-KING-NEW-SEW-ON-W-PATCH-OFFICIAL-BAND-MERCH-/253042460881?hash=item3aea8188d1:g:vsEAAOSw8vZXNI~a
p3
aVhttp://www.ebay.com/itm/Avenged-Sevenfold-Death-Bat-Black-Patch-/132253881319?epid=1648508660&hash=item1ecaf213e7:g:b3AAAOSwY4pZYC~i
p4
aVhttp://www.ebay.com/itm/Avenged-Sevenfold-Love-It-or-Die-A7X-Patch-/362031882212?epid=1638144719&hash=item544ac81fe4:g:NYAAAOSwvPRZYAjp
p5
aVhttp://www.ebay.com/itm/Avenged-Sevenfold-Death-Bat-A7X-Black-Textile-Flag-/362031648832?epid=1874812132&hash=item544ac49040:g:e4kAAOSwGBtZX7s2
p6
aVhttp://www.ebay.com/itm/Avenged-Sevenfold-Red-Crown-Black-A7X-Patch-/362031588296?epid=4003938924&hash=item544ac3a3c8:g:KcYAAOSwKoRZX6hE
p7
a.