(lp1
Vhttp://www.ebay.com/itm/Drywall-Stilt-Replacement-Strap-Kit-Strap-Adaptor-Kit-Leg-Strap-Kit-/112170180874?hash=item1a1ddd210a:g:lREAAOSwP~tW5gL9
p2
aVhttp://www.ebay.com/itm/Pentagon-Tool-Professional-24-40-Red-Drywall-Stilts-Highest-Quality-Stilts-NEW-/191731954759?epid=1800021710&hash=item2ca41d7447:g:0hIAAOxyrrpTjvg2
p3
aVhttp://www.ebay.com/itm/Pentagon-Tool-Professional-24-40-inch-Black-Drywall-Stilts-Highest-Quality-NEW-/191569029595?epid=1700204768&hash=item2c9a6769db:g:6TAAAOSwJ7RYWQQa
p4
aVhttp://www.ebay.com/itm/Drywall-Stilts-Painters-Walking-Taping-Finishing-Tools-Adjustable-18-30-/371326267980?epid=1248409859&hash=item5674c5324c:g:wFcAAOSwsB9WCWM9
p5
aVhttp://www.ebay.com/itm/Drywall-Stilts-Painters-Walking-Finishing-Tools-Adjustable-15-23-Black-/371880972503?hash=item5695d550d7:g:IR8AAOSwTM5YuDyd
p6
aVhttp://www.ebay.com/itm/Pentagon-Tool-Professional-18-30-Black-Drywall-Stilts-Highest-Quality-NEW-/111636593786?hash=item19fe0f3c7a:g:sPsAAOSw7aBVHVAw
p7
aVhttp://www.ebay.com/itm/Drywall-Stilts-Painters-Walking-Finishing-Tools-Adjustable-36-48-Black-/351995447539?hash=item51f49048f3:g:7y4AAOSwH09ZKF~w
p8
aVhttp://www.ebay.com/itm/Drywall-Stilts-Painters-Walking-Finishing-Tools-Adjustable-24-40-Black-/302240115226?hash=item465eea2a1a:g:-i0AAOSwx6pYuD1s
p9
aVhttp://www.ebay.com/itm/Universal-Fit-My-Comfort-Stilt-Leg-Strap-OEM-NEW-/172279262049?hash=item281ca4eb61:g:DhYAAOSwARZXj8wL
p10
aVhttp://www.ebay.com/itm/Dura-Stilt-Complete-Foot-Harness-Kit-Dura-IV-Style-Also-Replaces-Dura-III-/263005427079?hash=item3d3c585587:g:r5kAAOSw42dZKJ9P
p11
aVhttp://www.ebay.com/itm/Pentagon-Tool-Mag-Pros-Magnesium-18in-30in-Yellow-Drywall-Stilts-Highest-Quality-/112386669359?epid=1430256104&hash=item1a2ac47b2f:i:112386669359
p12
aVhttp://www.ebay.com/itm/Pentagon-Tool-Mag-Pros-Magnesium-18in-30in-Black-Drywall-Stilts-Highest-Quality-/112386669294?epid=1730291799&hash=item1a2ac47aee:g:vG8AAOSwjqVZAgie
p13
aVhttp://www.ebay.com/itm/Drywall-Painting-Dura-Stilt-Sole-Replacement-Tool-Kit-For-Painter-Taping-Black-/142384899773?hash=item2126cd26bd:g:to4AAOSw9OFZGxos
p14
aVhttp://www.ebay.com/itm/Heavy-Duty-Drywall-Stilts-Adjustable-Height-48-64-Professional-Painting-New-/262796819804?hash=item3d2fe93d5c:g:H9sAAOSw44BYXsfZ
p15
aVhttp://www.ebay.com/itm/Dura-Stilts-Dura-IV-14-22-Drywall-Stilts-OEM-NEW-/201590051328?hash=item2eefb41200:g:RTUAAOSwDV1XQyRz
p16
aVhttp://www.ebay.com/itm/Drywall-24-40-Stilt-Aluminum-Tool-Painting-Painter-Taping-Strap-Finishing-Tapes-/201482013236?hash=item2ee9438a34:g:81UAAOSwHQ9WaMT6
p17
aVhttp://www.ebay.com/itm/SurPro-SP-Quadlock-Interlok-Magnesium-Drywall-Stilts-18-30in-SUR-SP-1830MP-/161304980066?hash=item258e86aa62:g:ItIAAOSwLEtYglD2
p18
aVhttp://www.ebay.com/itm/4x-Set-Drywall-Painting-Dura-Stilt-Sole-Replacement-Tool-Kit-For-Painter-Taping-/401356686999?hash=item5d72b90697:g:xYgAAOSwvjdZVaj7
p19
aVhttp://www.ebay.com/itm/Sur-Pro-SP2-Dual-Pole-Aluminum-Drywall-Stilts-18-30-Medium-NEWEST-/151083761301?hash=item232d4b3e95:g:J24AAOSw5cNYglQy
p20
aVhttp://www.ebay.com/itm/Drywall-Stilts-Painters-Walking-Finishing-Tools-Adjustable-18-30-Black-/351995439553?hash=item51f49029c1:g:-Q4AAOSw8HBZKF~f
p21
a.