(lp1
Vhttp://www.ebay.com/itm/Sepia-Ship-Map-CANVAS-PRINT-ART-PICTURE-PP145DK-/182342904623?var=484886968109&epid=1475452085&hash=item2a747beb2f:m:mcdRj5UTvG1VYdDg3p0_jgg
p2
aVhttp://www.ebay.com/itm/Scarface-Tony-Montana-Canvas-Wall-Art-Picture-Print-76x50cm-Sepia-Color-/201786379788?hash=item2efb67ce0c:g:d5sAAOSwImRYfj6G
p3
aVhttp://www.ebay.com/itm/LARGE-ELEPHANT-SEPIA-BROWN-SUNSET-REFLECTION-CANVAS-WALL-ART-PICTURE-MULTI-PANEL-/252686422593?epid=680311547&hash=item3ad548d241:g:cQMAAOSwOtdYVbWa
p4
aVhttp://www.ebay.com/itm/Sepia-Cat-ACEO-His-Toy-Print-by-I-Garmashova-/142402682303?hash=item2127dc7dbf:g:Z98AAMXQEgpTF4d6
p5
aVhttp://www.ebay.com/itm/LARGE-SEPIA-WHITE-SEA-SUNSET-BEACH-CANVAS-WALL-ART-PICTURE-PRINT-4-PANELS-112cm-/252735702689?hash=item3ad838c6a1:g:4iEAAOSwA3dYhOND
p6
aVhttp://www.ebay.com/itm/Sepia-Cat-ACEO-Print-Librarian-by-I-Garmashova-/391846962411?hash=item5b3be624eb:g:lKQAAMXQBlJSBT0M
p7
aVhttp://www.ebay.com/itm/NEW-YORK-CANVAS-SEPIA-BROOKLYN-BRIDGE-PICTURE-42-x20-L-/190512023070?hash=item2c5b66c61e:m:mc7oyhI3MDa_-9c93tKJUYg
p8
aVhttp://www.ebay.com/itm/Large-Sepia-Brown-Cream-Landscape-Lake-Box-Canvas-Wall-Art-Picture-Print-30-x-40-/252390974103?hash=item3ac3aca297:g:ol4AAOSwTuJYrW8t
p9
aVhttp://www.ebay.com/itm/Map-of-the-World-Canvas-Prints-Vintage-Sepia-Brown-/400867243158?epid=1957911244&hash=item5d558cb496:g:PWYAAOSwX~dWph8g
p10
aVhttp://www.ebay.com/itm/Your-Personalised-Photo-on-Canvas-Print-8-x-6-Framed-A5-Ready-to-Hang-/381437696591?var=650591475383&epid=1660434983&hash=item58cf755a4f:m:mweyapZ6wBm4eDDWfaH7zpg
p11
aVhttp://www.ebay.com/itm/STEAMPUNK-OCTOPUS-Vintage-Sepia-Style-Wall-Art-Print-Poster-in-3-sizes-/162374952487?var=461405103580&hash=item25ce4d2627:m:mnUBgZiJwPcFwcYajerozVA
p12
aVhttp://www.ebay.com/itm/Star-Wars-Millenium-Falcon-Movie-Framed-Canvas-Box-/321180018931?var=510144289564&hash=item4ac7d228f3:m:mnpz6puxgInajmfe94kr5sg
p13
aVhttp://www.ebay.com/itm/Star-Wars-Darth-Vader-Canvas-Wall-Art-Picture-Print-45x30cm-Sepia-/201736257401?epid=919047801&hash=item2ef86aff79:g:u2UAAOSwnHZYQZ3n
p14
aVhttp://www.ebay.com/itm/Sepia-Cat-ACEO-Print-When-Everyone-Is-Asleep-by-I-Garmashova-/141120498295?hash=item20db6fea77:g:HBYAAOxy4t1Si83n
p15
aVhttp://www.ebay.com/itm/Large-2-Tone-Sepia-Cream-Grey-Love-Heart-Swans-Canvas-Wall-Art-Picture-4-Panel-/252643578916?hash=item3ad2bb1424:g:vSgAAOSwbopZPuD8
p16
aVhttp://www.ebay.com/itm/X-Large-New-York-Canvas-Brooklyn-Bridge-Sepia-44-x20-ready-2-hang-chunky-frame-/190576274800?hash=item2c5f3b2d70:m:mGkIS5TukMln3ZIlT8rOJNw
p17
aVhttp://www.ebay.com/itm/3-Part-Brown-Sepia-Canvas-Pictures-Wall-Art-Living-Room-Prints-3076-/261252579653?epid=1657931462&hash=item3cd3de0145:g:kYsAAMXQiFxR8DjK
p18
aVhttp://www.ebay.com/itm/VAN-GOGH-SEPIA-RED-PURPLE-TEAL-3-SET-CANVAS-ART-PRINT-/110643177466?hash=item19c2d8e7fa:m:mDeOk0Q4g10ZJfs4w3kHpxg
p19
aVhttp://www.ebay.com/itm/LARGE-SEPIA-GOLDEN-LANDSCAPE-CANVAS-WALL-ART-4-PANEL-SPLIT-ART-FOUR-PANEL-MULTI-/252097202002?hash=item3ab22a0752:g:4qgAAOSw9r1V~bA3
p20
aVhttp://www.ebay.com/itm/Large-Sepia-Brown-Landscape-Lake-Box-Canvas-Wall-Art-Picture-Print-20-x-30-/252390970911?hash=item3ac3ac961f:g:F4cAAOSw-29ZRoZY
p21
aVhttp://www.ebay.com/itm/Set-of-Three-Part-Brown-Sepia-Canvas-Wall-Art-Pictures-Prints-XXL-3088-/261252579618?epid=1157977276&hash=item3cd3de0122:g:6bcAAMXQGQRR8Div
p22
aVhttp://www.ebay.com/itm/Your-Personalised-Photo-on-Canvas-Print-12-x-8-Framed-A4-Ready-to-Hang-/261743512812?var=560617075362&hash=item3cf1210cec:m:mweyapZ6wBm4eDDWfaH7zpg
p23
aVhttp://www.ebay.com/itm/Large-Brown-Beige-Sepia-Landscape-Canvas-Wall-Art-130cm-Pictures-4117-/251158335681?epid=1322754689&hash=item3a7a3410c1:g:ij8AAOSwUV9WnU3N
p24
aVhttp://www.ebay.com/itm/VINTAGE-WORLD-MAP-SEPIA-CASCADE-CANVAS-WALL-ART-PRINT-PICTURE-READY-TO-HANG-/232176984429?var=531385573253&hash=item360ed3a16d:m:m8WO-VxbNJ7KuVctVQRc5SA
p25
aVhttp://www.ebay.com/itm/Sepia-Cat-Print-Perfect-Ball-by-Irina-Garmashova-/391091376514?hash=item5b0edcd182:g:ahYAAOSwBahVDtOF
p26
aVhttp://www.ebay.com/itm/Sepia-Cat-ACEO-Print-The-Watcher-by-I-Garmashova-/391018004923?hash=item5b0a7d41bb:m:mnLvFV3Fe8QPM5cj7YXV98Q
p27
aVhttp://www.ebay.com/itm/LARGE-RED-AND-SEPIA-POPPIES-BOX-CANVAS-WALL-ART-PICTURE-103-x-52-cm-3-cm-frame-/190921087603?hash=item2c73c89a73:g:CawAAOxyAs9STvGC
p28
aVhttp://www.ebay.com/itm/Your-Personalised-Photo-on-Canvas-Print-16-x-12-Framed-A3-Ready-to-Hang-/201269944257?var=500468146079&hash=item2edc9f9fc1:m:mweyapZ6wBm4eDDWfaH7zpg
p29
aVhttp://www.ebay.com/itm/Extra-Large-Sepia-Brown-Canvas-Wall-Art-Pictures-130cm-XL-Zen-Spa-4046-/251154868432?epid=1522765041&hash=item3a79ff28d0:g:FegAAOSwqYBWnOPA
p30
aVhttp://www.ebay.com/itm/Sepia-Cat-ACEO-print-Breakfast-Ready-by-I-Garmashova-/390677764128?hash=item5af6359820:g:62kAAOxy3NBSd7B3
p31
aVhttp://www.ebay.com/itm/CANVAS-PRINT-YOUR-PHOTO-ON-LARGE-PERSONALISED-BOX-FRAMED-A4-A3-A2-A1-A0-280G-/181830265600?var=480778243562&hash=item2a55edab00:m:mHc6Tg8gITsLbvB-DG2d4yA
p32
aVhttp://www.ebay.com/itm/Detailed-World-Map-Vintage-Sepia-Countries-Wall-Art-Canvas-Print-Cheap-/171482401512?var=470518489437&hash=item27ed25cae8:m:mCBl1ryjpfXAYMrBWWGY5Ww
p33
aVhttp://www.ebay.com/itm/Sepia-Cat-ACEO-Contented-Sleep-Print-by-I-Garmashova-/140967374746?hash=item20d24f6f9a:g:CgcAAMXQ9MVRgCyB
p34
aVhttp://www.ebay.com/itm/CREAM-BEIGE-WHITE-SEPIA-ORCHIDS-CANVAS-WALL-ART-PICTURE-4-PANEL-MULTI-100CM-/190911874792?epid=1488381822&hash=item2c733c06e8:g:do8AAOxyaqlSQYVv
p35
aVhttp://www.ebay.com/itm/Batman-Logo-Canvas-Wall-Art-Picture-Print-60x30cm-Sepia-/201736291662?hash=item2ef86b854e:g:ofYAAOSwB09YQamA
p36
aVhttp://www.ebay.com/itm/LARGE-LIGHT-BROWN-SEPIA-ROSE-CANVAS-WALL-ART-FRAMED-A1-/190521187848?epid=1488227676&hash=item2c5bf29e08:m:mXEOglpbwg0I9iN4i9DWkng
p37
aVhttp://www.ebay.com/itm/LARGE-HORSE-ON-SEA-CANVAS-PICTURE-BROWN-SEPIA-44-x20-/190497263099?hash=item2c5a858dfb:m:mzrTuuyciaBmZdmqosU4UhA
p38
aVhttp://www.ebay.com/itm/16x12-Inch-FANTASY-ANGEL-WATERFALL-LANDSCAPE-CANVAS-ART-PICTURE-SEPIA-GOLD-FAIRY-/181682892491?hash=item2a4d24eecb:g:FycAAOSwPhdU-LQf
p39
aVhttp://www.ebay.com/itm/Sepia-Cat-ACEO-Print-Sleepless-Night-by-I-Garmashova-/141102482590?hash=item20da5d049e:g:DmQAAOxywXFSbso2
p40
aVhttp://www.ebay.com/itm/Muhammad-Ali-Boxing-Sports-Canvas-Wall-Art-Picture-Print-76cmx50cm-Sepia-Color-/201601293354?hash=item2ef05f9c2a:g:6PUAAOSwmtJXWrrE
p41
aVhttp://www.ebay.com/itm/LARGE-SEA-CANVAS-ART-PRINT-SEPIA-SEASCAPE-MOUNTED-A1-/200365330488?epid=1388185927&hash=item2ea6b45038:m:mS96Nv0i3o6EtOpp2QYEsng
p42
aVhttp://www.ebay.com/itm/LUNCH-ATOP-A-SKYSCRAPER-NEW-YORK-SEPIA-GICLEE-CANVAS-ART-/230793084378?var=530253260715&hash=item35bc56fdda:m:m6sN-bxuOp9Z5y4osX8hsHw
p43
aVhttp://www.ebay.com/itm/LARGE-BROWN-SEPIA-NEW-YORK-SKYLINE-CITY-CANVAS-WALL-ART-MULTI-PANEL-100cm-wide-/200603573276?hash=item2eb4e79c1c:g:qP8AAOSwpP9Y8Nea
p44
aVhttp://www.ebay.com/itm/LARGE-CANVAS-NEW-YORK-YELLOW-TAXIS-SEPIA-WALL-ART-MULTI-SPLIT-4-PANEL-100-cm-/190528090018?hash=item2c5c5befa2:g:L5MAAOSwAPVZJrrV
p45
aVhttp://www.ebay.com/itm/Sepia-Cat-ACEO-Print-My-Precious-by-I-Garmashova-/140953089779?hash=item20d17576f3:m:mbzjSlEd551VPaFu6_sCvPA
p46
aVhttp://www.ebay.com/itm/LARGE-YELLOW-TAXIS-NEW-YORK-TIMES-SQUARE-CANVAS-SEPIA-/190507130717?hash=item2c5b1c1f5d:m:m-37A2cIzNWL5AQvaIEevVQ
p47
aVhttp://www.ebay.com/itm/Sepia-Cat-ACEO-Print-Detective-Library-by-I-Garmashova-/391135177106?hash=item5b11792992:g:qMgAAOSwPgxVSRal
p48
aVhttp://www.ebay.com/itm/Sepia-Cat-ACEO-Print-Hard-Day-Reading-by-I-Garmashova-/141595937909?hash=item20f7c68c75:g:l00AAOSwBahU-g1E
p49
aVhttp://www.ebay.com/itm/Sepia-Cat-ACEO-Print-Will-Soon-Be-Time-To-Read-by-I-Garmashova-/141499351034?hash=item20f204bffa:g:WeoAAOSwAL9UhKrD
p50
aVhttp://www.ebay.com/itm/Sepia-Cat-ACEO-Summer-Meditation-Print-by-I-Garmashova-/390807595277?hash=item5afdf2a90d:m:mJH9v1OYYUtbI7L2FBH9WnA
p51
aVhttp://www.ebay.com/itm/Large-Brown-Sepia-Beach-Canvas-Wall-Art-Pictures-130cm-Prints-XL-4076-/251157841957?epid=1222760942&hash=item3a7a2c8825:g:UykAAOSwFqJWnS-E
p52
aVhttp://www.ebay.com/itm/BOB-MARLEY-Sepia-Music-Canvas-Framed-Print-30X20-INCH-76x50CM-/322428479099?hash=item4b123c267b:g:fgMAAOSwCU1YqdKR
p53
aVhttp://www.ebay.com/itm/Sepia-Cat-ACEO-Print-Favourite-Toy-by-I-Garmashova-/390566965699?hash=item5aef9af1c3:g:bRQAAMXQfFJRU2C2
p54
aVhttp://www.ebay.com/itm/SEPIA-STEVE-McQUEEN-GREAT-ESCAPE-100-COTTON-CANVAS-PICTURE-WALL-ART-34-X-20-/171751782158?hash=item27fd34370e:g:q1AAAOxydgZTI4u2
p55
aVhttp://www.ebay.com/itm/Sepia-Cat-ACEO-Print-Warm-As-Toast-by-I-Garmashova-/141543622957?hash=item20f4a8492d:g:IygAAOSwmrlUuSQx
p56
aVhttp://www.ebay.com/itm/CANVAS-PICTURE-LARGE-SCENIC-LANDSCAPE-LAKE-CREAM-SEPIA-/200490057246?epid=1188185685&hash=item2eae237e1e:m:mAfc4U_n9iTVLIi05qUjqNw
p57
aVhttp://www.ebay.com/itm/Bruce-Lee-Quotes-Kung-Fu-Icon-Split-Canvas-Print-Wall-Art-Deco-/221253190162?var=520155543602&hash=item3383b7c212:m:mJ87jnAhe7yhRSxBH7brFWg
p58
aVhttp://www.ebay.com/itm/ROSE-CANVAS-LIGHT-SEPIA-FLORAL-ARTWORK-WALL-PICTURE-A1-/200387656821?epid=1331846976&hash=item2ea808fc75:m:mvp8fn2Agi3X-Up3Flq_6Bg
p59
aVhttp://www.ebay.com/itm/Red-Sepia-Canvas-Chinese-Floral-Wall-Art-Picture-77x52-cm-framed-3cm-frame-/321602410450?epid=1388619496&hash=item4ae0ff57d2:g:Zj0AAOSwAL9UemLC
p60
aVhttp://www.ebay.com/itm/FOREST-AND-WOLF-SEPIA-Modern-BOX-CANVAS-20-x-30-/360361647211?hash=item53e73a5c6b:g:GzEAAOxyjFpSRXIj
p61
aVhttp://www.ebay.com/itm/TIGER-CUB-BOX-CANVAS-ART-PRINT-SEPIA-LARGE-27-x-20-/200374002219?hash=item2ea738a22b:m:mSs5eE_ms85i8XbAAciUD9Q
p62
aVhttp://www.ebay.com/itm/RED-SEPIA-BROWN-CANVAS-Missed-You-WALL-ART-PICTURE-4-PANEL-SPLIT-ARTWORK-100cm-/321544612833?epid=1188584410&hash=item4add8d6be1:g:R6sAAOSwEppUMv4N
p63
aVhttp://www.ebay.com/itm/Goodfellas-Gangster-Family-Movie-Modern-Wall-Art-Canvas-Sepia-/322105457686?var=511030299557&hash=item4afefb3c16:m:mP-hq7C1c7tKL-FoEKURuCg
p64
aVhttp://www.ebay.com/itm/LARGE-RED-POPPIES-FLORAL-CANVAS-ARTWORK-SEPIA-34-x20-/190504447502?hash=item2c5af32e0e:m:mtHqoTNAbB_6Bd8eZ0GRh0g
p65
aVhttp://www.ebay.com/itm/SEPIA-GOLD-LARGE-16x12-INCH-FANTASY-FAIRY-WINGS-FRAMED-CANVAS-WALL-ART-PICTURE-/171949901142?hash=item2809034556:g:HocAAOSw37tWB6nB
p66
aVhttp://www.ebay.com/itm/Sepia-Cat-ACEO-What-Should-I-Paint-Print-by-I-Garmashova-/140814405819?hash=item20c93150bb:m:mG04An4OIxfhDgPgcnPkpMA
p67
aVhttp://www.ebay.com/itm/LARGE-SEPIA-ROSES-CANVAS-ART-PRINT-FLORAL-ARTWORK-A1-/200359007519?epid=1188167509&hash=item2ea653d51f:m:ma2QnT8qDxG_5iYT-2CxY0w
p68
aVhttp://www.ebay.com/itm/ROSE-Water-Drops-SEPIA-Picture-on-Modern-BOX-CANVAS-18-x-30-/360401486825?hash=item53e99a43e9:g:ArAAAOSwB-1Y3NlT
p69
aVhttp://www.ebay.com/itm/London-Big-Ben-Sepia-Red-Panoramic-Picture-on-Modern-Box-Canvas-20-x36-/110747542679?hash=item19c9116497:g:EHcAAMXQlrxRaGdE
p70
aVhttp://www.ebay.com/itm/BEAUTIFUL-MORNING-Sepia-Picture-on-Modern-BOX-CANVAS-20-x-30-/110753519232?hash=item19c96c9680:g:6DwAAOSwymxVK7Vd
p71
aVhttp://www.ebay.com/itm/Sepia-Cat-ACEO-Print-Making-A-Reading-List-by-Irina-Garmashova-/390950601784?hash=item5b0678c438:g:uZ4AAOSw8cNUPWnS
p72
aVhttp://www.ebay.com/itm/LARGE-FLORAL-BOX-CANVAS-PICTURE-PINK-SEPIA-TULIPS-A1-/190494015015?hash=item2c5a53fe27:m:mNGAqSY_fIkcOkQBbMK5fiQ
p73
aVhttp://www.ebay.com/itm/Sepia-Cat-ACEO-Print-A-Day-Is-Too-Short-by-I-Garmashova-/141439905851?hash=item20ee79b03b:g:rnAAAOSw6EhUPtmF
p74
aVhttp://www.ebay.com/itm/BOB-MARLEY-Sepia-Music-Canvas-Framed-Print-30X20-INCH-76x50CM-/322428479099?hash=item4b123c267b:g:fgMAAOSwCU1YqdKR
p75
aVhttp://www.ebay.com/itm/LARGE-CANVAS-ART-ELEPHANTS-BROWN-SEPIA-Canvas-Print-Large-A1-30x20-/322336141651?hash=item4b0cbb3153:g:CYwAAOSwImRYM6VV
p76
aVhttp://www.ebay.com/itm/Sepia-Cat-ACEO-Print-While-You-Are-Sleeping-by-I-Garmashova-/390595681333?hash=item5af1511c35:g:D0sAAMXQh5JRkoXZ
p77
aVhttp://www.ebay.com/itm/Red-Sepia-Canvas-Chinese-Floral-Wall-Art-Picture-77x52-cm-framed-3cm-frame-/321602410450?epid=1388619496&hash=item4ae0ff57d2:g:Zj0AAOSwAL9UemLC
p78
aVhttp://www.ebay.com/itm/The-Godfather-Al-Pacino-Marlon-Brando-Film-Movie-Canvas-Print-/321165780448?var=510135789576&hash=item4ac6f8e5e0:m:mnYbpnqvp_CJdggBqKtNeAw
p79
aVhttp://www.ebay.com/itm/The-Godfather-Al-Pacino-Quotes-Film-Movie-Canvas-Print-/221255793109?var=520156578139&hash=item3383df79d5:m:mGlSemtK3h3-tPvDiFbTqvw
p80
aVhttp://www.ebay.com/itm/Sepia-Cat-ACEO-Print-Mystery-Library-By-I-Garmashova-/141110737408?hash=item20dadafa00:g:zXUAAOxyRNJSfWge
p81
aVhttp://www.ebay.com/itm/Bruce-Lee-Quotes-Kung-Fu-Icon-Split-Canvas-Print-Wall-Art-Deco-/221253190162?var=520155543606&hash=item3383b7c212:m:mJ87jnAhe7yhRSxBH7brFWg
p82
aVhttp://www.ebay.com/itm/Christmas-Sepia-Cat-ACEO-Print-Midwinter-Night-by-I-Garmashova-/391336806078?hash=item5b1d7dc6be:g:BGMAAOSwcBhWZI3Y
p83
aVhttp://www.ebay.com/itm/LARGE-ROSES-CANVAS-ART-PICTURE-LIGHT-BROWN-SEPIA-SPLIT-4-PANEL-MULTI-100cm-wide-/190530479605?epid=1288271783&hash=item2c5c8065f5:g:BNsAAOSwc49Y6if~
p84
aVhttp://www.ebay.com/itm/SEPIA-BRUCE-LEE-LARGE-CANVAS-WALL-ART-PHOTO-ART-PICTURE-PRINT-/151125323804?var=450215312531&hash=item232fc5701c:m:mj2UglTeWiv0rhvWFjjPooQ
p85
aVhttp://www.ebay.com/itm/CAT-in-Sepia-with-Green-Eyes-Picture-on-Modern-BOX-CANVAS-20-x-30-/110909745082?hash=item19d2bc67ba:g:nZ4AAOxyhlJRboDX
p86
aVhttp://www.ebay.com/itm/Your-photo-picture-Wall-Canvas-A0-A1-A2-A3-A4-A5-Box-Framed-Ready-to-Hang-/232288615949?var=531545174989&hash=item36157afe0d:g:1nAAAOSwLEtYjJJ2
p87
aVhttp://www.ebay.com/itm/Yacht-Canvas-Sepia-Print-Black-and-White-Boat-Sea-Picture-/322460936802?var=511435932500&hash=item4b142b6a62:m:mL3VjogBQDKNetK0VIQZNGw
p88
aVhttp://www.ebay.com/itm/LARGE-ELEPHANTS-BOX-CANVAS-ART-PICTURE-SEPIA-WALL-ART-103x52-cm-3-cm-frame-/200975780697?hash=item2ecb170b59:g:m5cAAOxy-sRSXwjb
p89
aVhttp://www.ebay.com/itm/Vintage-Sepia-Funny-Policeman-Painting-4-Set-Art-Print-Lrge-Sm-Poster-Size-/142099280025?var=441183992326&hash=item2115c6f099:m:mfxj0SAazYWWj1uji1ZGyuQ
p90
aVhttp://www.ebay.com/itm/Personalised-Mini-Canvas-plus-Easel-for-desktop-Any-Photo-/251194643916?var=550223386160&hash=item3a7c5e15cc:m:mCVLnup_CIbVmSobkYmvzbw
p91
aVhttp://www.ebay.com/itm/Sepia-Tabby-Cat-Print-In-The-Old-Library-by-I-Garmashova-/141013125762?hash=item20d5098a82:g:2FkAAOxyfuZR3GFI
p92
aVhttp://www.ebay.com/itm/Large-Canvas-Picture-New-York-Skyline-Panorama-/161869319235?var=460838868309&hash=item25b029cc43:g:8gwAAMXQ3kNTgHni
p93
aVhttp://www.ebay.com/itm/Steve-McQueen-Jaguar-Movie-Icon-Sepia-Canvas-Wall-Art-Print-76cmx50cm-/321814999750?epid=1788872708&hash=item4aedab32c6:g:a14AAOSwLVZVslkR
p94
aVhttp://www.ebay.com/itm/Sepia-Cat-ACEO-Playing-Kitten-Print-by-I-Garmashova-/160503511201?hash=item255ec138a1:m:mGWV6aEeOyKgyZZAlpEOpxA
p95
aVhttp://www.ebay.com/itm/Set-of-Three-Sepia-Brown-Canvases-Living-Bed-Room-Lounge-Pictures-3117-/261252579665?hash=item3cd3de0151:g:cDEAAOxyDLZR8Di8
p96
aVhttp://www.ebay.com/itm/LARGE-ELEPHANT-MODERN-BOX-CANVAS-ART-PRINT-SEPIA-34x20-/200468070299?hash=item2eacd3ff9b:m:mgqy-b7MS0Ltc2Io4SVFjTQ
p97
aVhttp://www.ebay.com/itm/ROSE-CANVAS-ART-BROWN-SEPIA-FLORAL-PRINT-mounted-A1-/200428646293?hash=item2eaa7a6f95:m:mnbeUisyFn41Q1nmT9deaxg
p98
aVhttp://www.ebay.com/itm/Black-Horse-Canvas-Sepia-Wall-Art-45x30cm-Framed-Picture-Print-1-PREMIUM-PR-/322276139855?hash=item4b0927a34f:g:4kQAAOSwstxVb091
p99
aVhttp://www.ebay.com/itm/Set-of-Three-Brown-Sepia-Canvases-Art-Prints-Pictures-Landscapes-3045-/400536477595?epid=1357992118&hash=item5d41d59f9b:g:5RkAAMXQE9hR8Di1
p100
aVhttp://www.ebay.com/itm/Personalised-Canvas-Print-Your-PHOTO-PICTURE-ON-30mm-Frame-INSTAGRAM-SQUARE-/310605664142?var=610175885611&hash=item48518a4f8e:m:m3Uc0Hk9WkAWcsog4QJkHOg
p101
aVhttp://www.ebay.com/itm/EXTRA-LARGE-CANVAS-PRINTS-LEGEND-BRUCE-LEE-SEPIA-4-PANEL-35-90cm-XXL-PICTURES-/151177888548?hash=item2332e78324:g:RWQAAOxyXDhSmPf2
p102
aVhttp://www.ebay.com/itm/Sepia-Cat-ACEO-Sharp-Claws-In-A-Velvet-Glove-Print-by-I-Garmashova-/391018005381?hash=item5b0a7d4385:m:maTPQezKKsySwASTZOCruIA
p103
aVhttp://www.ebay.com/itm/Extra-Large-Sepia-Brown-Canvas-Wall-Art-Pictures-130cm-Prints-Set-4045-/251154868423?epid=1322722956&hash=item3a79ff28c7:g:nRQAAOSwLnlWpg26
p104
aVhttp://www.ebay.com/itm/Large-London-Tower-Bridge-Sunset-Canvas-Picture-/151874250493?var=451064525610&hash=item235c6926fd:g:h5QAAOSwgQ9V5G3M
p105
aVhttp://www.ebay.com/itm/LARGE-FLORAL-CANVAS-ART-PRINT-ROSES-SEPIA-A1-34-x-20-/200372958398?epid=1188170690&hash=item2ea728b4be:m:ma2QnT8qDxG_5iYT-2CxY0w
p106
aVhttp://www.ebay.com/itm/Sepia-Cat-ACEO-Print-A-Very-Boring-Book-by-I-Garmashova-/141062212114?hash=item20d7f68a12:m:mlawXzxZv6QrA-JXtB5LWJw
p107
aVhttp://www.ebay.com/itm/Steve-McQueen-with-Gun-Icon-Canvas-Wall-Art-Print-76x50cm-Sepia-/321819621317?hash=item4aedf1b7c5:g:xz8AAOSw3ydVuj5d
p108
aVhttp://www.ebay.com/itm/Set-of-Three-Sepia-Brown-Canvases-Living-Bed-Room-Lounge-Pictures-3117-/261252579665?hash=item3cd3de0151:g:cDEAAOxyDLZR8Di8
p109
aVhttp://www.ebay.com/itm/Sepia-Chrysanthemums-Canvas-Picture-Artwork-H57-W77-D1-8cm-Stylish-New-Home-/231521175321?hash=item35e7bcc719:g:4OYAAOSwPhdVHCLP
p110
a.