(lp0
Vhttp://www.ebay.com/itm/Tea-Trolley-Serving-Trolly-on-Wheel-2-Tier-Round-Dining-Tea-Coffee-Serving-Cart-/292078277308?hash=item440138d2bc:g:u5kAAOSwX61ZBLzs
p1
aVhttp://www.ebay.com/itm/Tea-Serving-Trolley-on-Wheel-3-Tier-Cocktail-Bar-Cart-Dining-Coffee-Serving-/292078271804?hash=item440138bd3c:g:DsIAAOSw42dZBLwx
p2
aVhttp://www.ebay.com/itm/Black-Large-3-Tier-Kitchen-Hostess-Catering-Trolley-Cart-Tea-Drink-Dish-Caddy-/331646148121?hash=item4d37a69e19:g:tKAAAOSwHnFV6cVu
p3
aVhttp://www.ebay.com/itm/Serving-Trolley-3-Tier-Metal-Storage-Shelving-Units-Retro-Kitchen-Tea-Cart-White-/182526763727?hash=item2a7f7162cf:g:~~AAAOSwls5Y7XME
p4
aVhttp://www.ebay.com/itm/LARGE-3-TIER-SERVICE-TROLLEY-UTILITY-CLEANING-CLEARING-CATERING-KITCHEN-TEA-CART-/232172384340?hash=item360e8d7054:g:ivoAAOSwRMRYTuCH
p5
aVhttp://www.ebay.com/itm/Tea-Trolley-Serving-Trolly-on-Wheel-2-Tier-Round-Dining-Tea-Coffee-Serving-Cart-/162471317749?hash=item25d40b90f5:g:T70AAOSw~y9ZBbjR
p6
aVhttp://www.ebay.com/itm/Grey-Medium-3-Tier-Kitchen-Hostess-Catering-Trolley-Cart-Tea-Drink-Dish-Caddy-/221873881457?hash=item33a8b6c171:g:HaIAAOSwMmBV6cVl
p7
aVhttp://www.ebay.com/itm/Grey-Large-3-Tier-Kitchen-Hostess-Catering-Trolley-Cart-Tea-Drink-Dish-Caddy-/331646147971?hash=item4d37a69d83:g:DfUAAOSw0JpV6cVl
p8
aVhttp://www.ebay.com/itm/Tea-Trolley-Serving-Trolly-on-Wheel-2-Tier-Round-Dining-Tea-Coffee-Serving-Cart-/162471317749?hash=item25d40b90f5:g:T70AAOSw~y9ZBbjR
p9
aVhttp://www.ebay.com/itm/Kids-Tea-Party-Cart-Role-Playing-Pretend-Drink-Making-Trolley-Girls-Gift-Princes-/272450602339?epid=795786657&hash=item3f6f524563:g:rwAAAOSwWWxY-z9I
p10
aVhttp://www.ebay.com/itm/HARTLEYS-TEA-DRINKS-TROLLEY-HOSTESS-KITCHEN-SHOP-CAFE-CART-CADDY-SERVING-TRAY-/231792114311?var=&hash=item35f7e2fa87:m:mLefJG_ap3X_4Cvtf-4_tyw
p11
aVhttp://www.ebay.com/itm/Disney-Princess-Belle-Tea-Party-Cart-Accessory-/232354180012?epid=2070017061&hash=item3619636bac:g:osIAAOSwq1JZLYp~
p12
aVhttp://www.ebay.com/itm/Disney-Princess-Belle-Musical-Tea-Party-Cart-Mrs-Potts-Chip-Cups-Trolley-Toy-Set-/122418747009?hash=item1c80b9d681:g:-lQAAOSwax5Y2hTs
p13
aVhttp://www.ebay.com/itm/Tassimo-T-Discs-Pods-Capsules-Tea-Coffee-or-Chocolate-/252109730361?var=&epid=1942021575&hash=item3ab2e93239:m:mF9W3D59N9Z50Grr8cS7_8Q
p14
aVhttp://www.ebay.com/itm/Disney-Princess-Belle-Inspiring-Authentic-Musical-Rolling-Tea-Party-Cart-Playset-/122178790498?hash=item1c726c6462:g:b54AAOSw4shX~ldh
p15
aVhttp://www.ebay.com/itm/Carte-Postale-4-Coasters-Tea-Coffee-Cup-Mug-Glass-Table-Placemats-Matts-50779-/252898230196?hash=item3ae1e8bfb4:g:9toAAOSwrhBZAZyW
p16
aVhttp://www.ebay.com/itm/Dolls-House-Miniature-Dining-Room-Furniture-Mahogany-Tea-Drinks-Trolley-Cart-/371452020072?hash=item567c440568:g:UYgAAOSwpONZXxni
p17
aVhttp://www.ebay.com/itm/Dolls-House-Miniature-Furniture-Victorian-Drop-Leaf-Mahogany-Tea-Trolley-Cart-/191250057713?epid=1305533151&hash=item2c876449f1:g:JfAAAOSw6YtZXyAv
p18
aVhttp://www.ebay.com/itm/CARTE-BLANCHE-NOVELTY-JOKE-RING-FOR-BELL-PEACE-CAKE-TEA-SNOG-SHAG-ETC-/360722186816?var=&hash=item53fcb7c240:m:mBhtcuzDhUfmaXNRbow2jZA
p19
aVhttp://www.ebay.com/itm/Tassimo-Home-Use-T-Discs-Pods-You-Choose-Flavours-Carte-Noire-Cadburys-/281363801650?var=&hash=item418296e632:m:mMc8bFS8DxwjEc08Q9hxEoQ
p20
aVhttp://www.ebay.com/itm/TASSIMO-8-T-DISC-PACKS-CHOOSE-30-BLENDS-COFFEE-HOT-CHOC-TEA-CAPSULES-PODS-/300744204173?var=&hash=item4605c05f8d:m:mjsc5URGKwcXx9RDODyEWjQ
p21
aVhttp://www.ebay.com/itm/kids-Beauty-Princess-Tea-Set-Tea-Cart-Trolley-Pretend-Play-Party-Pretend-Play-/322377716043?epid=1305474500&hash=item4b0f35914b:g:KgQAAOSwo4pYOXAF
p22
aVhttp://www.ebay.com/itm/Princess-Tea-Service-Trolley-With-Cups-Pot-Beauty-Cart-Play-Set-Kids-Gift-Set-/152216091000?hash=item2370c93978:g:4zUAAOSwE0JY91P7
p23
a.