(lp1
Vhttp://www.ebay.com/itm/20-x-GP-Professional-Group-A-Strep-GAS-Streptococcus-Throat-Swab-Test-Kits-/152621120295?hash=item2388ed7b27:g:sYsAAOSwkttZZd1y
p2
aVhttp://www.ebay.com/itm/Probiotics-Complex-20-BILLION-CFU-120-Capsules-Acidophilus-Streptococcus-Lactis-/152591240507?epid=2142352201&hash=item2387258d3b:g:8~kAAOSwstJZRvfj
p3
aVhttp://www.ebay.com/itm/Probiotics-Complete-20-Billion-CFU-120-Capsules-with-Acidophilus-Streptococcus-/322516370413?epid=2032094217&hash=item4b177943ed:g:198AAOSwlMFZFzgl
p4
aVhttp://www.ebay.com/itm/Probiotics-Complete-20-Billion-CFU-120-Capsules-with-Acidophilus-Streptococcus-/252630591973?epid=2032094217&hash=item3ad1f4e9e5:g:wuIAAOSwNRlYJK3p
p5
aVhttp://www.ebay.com/itm/Probiotic-Blend-with-Lactobacillus-Salivarius-Streptococcus-Thermophilus-x150-/291037157153?hash=item43c32a9721:g:0msAAOSwGWNUU4c2
p6
aVhttp://www.ebay.com/itm/Nelson-Honey-Manuka-Honey-30miligram-kg-of-methylglyoxal-250-Grams-/261838118168?hash=item3cf6c49d18:g:u8MAAOSwNphWYLs8
p7
aVhttp://www.ebay.com/itm/Nelsons-Active-Manuka-Honey-200-500g-/261497272433?epid=1461919175&hash=item3ce273b871:g:r5QAAOSw~gRVlkcW
p8
aVhttp://www.ebay.com/itm/Nelsons-Active-Manuka-Honey-100-500g-/261487722505?epid=1905322060&hash=item3ce1e20009:g:HW8AAOSw-CpX9Ma5
p9
aVhttp://www.ebay.com/itm/Natures-Aid-PRO-30-Max-30-Billion-Daily-Probiotic-Pack-of-30-Vegetari-NEW-/361882584957?hash=item5441e2077d:g:qZEAAOSwImRYflCl
p10
aVhttp://www.ebay.com/itm/Comvita-10-Manuka-Honey-1-x-500g-/182500300864?epid=1755197194&hash=item2a7ddd9840:g:bBwAAOSwSlBY09-J
p11
aVhttp://www.ebay.com/itm/Comvita-UMF-10-Manuka-Honey-500gm-/251754182882?epid=1755197194&hash=item3a9db7f8e2:g:bsoAAOSwPTlTzOYc
p12
aVhttp://www.ebay.com/itm/ARGENTIN-T-throat-spray-20ml-/152625302604?epid=1052023982&hash=item23892d4c4c:g:71UAAOSwYS9Zajsz
p13
aVhttp://www.ebay.com/itm/Nelsons-Active-Manuka-Honey-Silver-1kg-/261145865344?epid=1905322060&hash=item3ccd81ac80:g:NEIAAOSwBahVIFB5
p14
aVhttp://www.ebay.com/itm/20-x-GP-Professional-Group-A-Strep-GAS-Streptococcus-Throat-Swab-Test-Kits-/152621120295?hash=item2388ed7b27:g:sYsAAOSwkttZZd1y
p15
aVhttp://www.ebay.com/itm/Probiotics-Complex-20-BILLION-CFU-120-Capsules-Acidophilus-Streptococcus-Lactis-/152591240507?epid=2142352201&hash=item2387258d3b:g:8~kAAOSwstJZRvfj
p16
aVhttp://www.ebay.com/itm/Probiotics-Complete-20-Billion-CFU-120-Capsules-with-Acidophilus-Streptococcus-/322516370413?epid=2032094217&hash=item4b177943ed:g:198AAOSwlMFZFzgl
p17
aVhttp://www.ebay.com/itm/Probiotics-Complete-20-Billion-CFU-120-Capsules-with-Acidophilus-Streptococcus-/252630591973?epid=2032094217&hash=item3ad1f4e9e5:g:wuIAAOSwNRlYJK3p
p18
aVhttp://www.ebay.com/itm/Probiotic-Blend-with-Lactobacillus-Salivarius-Streptococcus-Thermophilus-x150-/291037157153?hash=item43c32a9721:g:0msAAOSwGWNUU4c2
p19
aVhttp://www.ebay.com/itm/Nelson-Honey-Manuka-Honey-30miligram-kg-of-methylglyoxal-250-Grams-/261838118168?hash=item3cf6c49d18:g:u8MAAOSwNphWYLs8
p20
aVhttp://www.ebay.com/itm/Nelsons-Active-Manuka-Honey-200-500g-/261497272433?epid=1461919175&hash=item3ce273b871:g:r5QAAOSw~gRVlkcW
p21
aVhttp://www.ebay.com/itm/Comvita-10-Manuka-Honey-1-x-500g-/182500300864?epid=1755197194&hash=item2a7ddd9840:g:bBwAAOSwSlBY09-J
p22
aVhttp://www.ebay.com/itm/Nelsons-Active-Manuka-Honey-100-500g-/261487722505?epid=1905322060&hash=item3ce1e20009:g:HW8AAOSw-CpX9Ma5
p23
aVhttp://www.ebay.com/itm/Comvita-UMF-10-Manuka-Honey-500gm-/251754182882?epid=1755197194&hash=item3a9db7f8e2:g:bsoAAOSwPTlTzOYc
p24
aVhttp://www.ebay.com/itm/Natures-Aid-PRO-30-Max-30-Billion-Daily-Probiotic-Pack-of-30-Vegetari-NEW-/361882584957?hash=item5441e2077d:g:qZEAAOSwImRYflCl
p25
aVhttp://www.ebay.com/itm/ARGENTIN-T-throat-spray-20ml-/152625302604?epid=1052023982&hash=item23892d4c4c:g:71UAAOSwYS9Zajsz
p26
aVhttp://www.ebay.com/itm/Nelsons-Active-Manuka-Honey-Silver-1kg-/261145865344?epid=1905322060&hash=item3ccd81ac80:g:NEIAAOSwBahVIFB5
p27
aVhttp://www.ebay.com/itm/20-x-GP-Professional-Group-A-Strep-GAS-Streptococcus-Throat-Swab-Test-Kits-/152621120295?hash=item2388ed7b27:g:sYsAAOSwkttZZd1y
p28
aVhttp://www.ebay.com/itm/Probiotics-Complex-20-BILLION-CFU-120-Capsules-Acidophilus-Streptococcus-Lactis-/152591240507?epid=2142352201&hash=item2387258d3b:g:8~kAAOSwstJZRvfj
p29
aVhttp://www.ebay.com/itm/Probiotics-Complete-20-Billion-CFU-120-Capsules-with-Acidophilus-Streptococcus-/322516370413?epid=2032094217&hash=item4b177943ed:g:198AAOSwlMFZFzgl
p30
aVhttp://www.ebay.com/itm/Probiotics-Complete-20-Billion-CFU-120-Capsules-with-Acidophilus-Streptococcus-/252630591973?epid=2032094217&hash=item3ad1f4e9e5:g:wuIAAOSwNRlYJK3p
p31
aVhttp://www.ebay.com/itm/Probiotic-Blend-with-Lactobacillus-Salivarius-Streptococcus-Thermophilus-x150-/291037157153?hash=item43c32a9721:g:0msAAOSwGWNUU4c2
p32
aVhttp://www.ebay.com/itm/Nelson-Honey-Manuka-Honey-30miligram-kg-of-methylglyoxal-250-Grams-/261838118168?hash=item3cf6c49d18:g:u8MAAOSwNphWYLs8
p33
aVhttp://www.ebay.com/itm/Nelsons-Active-Manuka-Honey-200-500g-/261497272433?epid=1461919175&hash=item3ce273b871:g:r5QAAOSw~gRVlkcW
p34
aVhttp://www.ebay.com/itm/Nelsons-Active-Manuka-Honey-100-500g-/261487722505?epid=1905322060&hash=item3ce1e20009:g:HW8AAOSw-CpX9Ma5
p35
aVhttp://www.ebay.com/itm/Natures-Aid-PRO-30-Max-30-Billion-Daily-Probiotic-Pack-of-30-Vegetari-NEW-/361882584957?hash=item5441e2077d:g:qZEAAOSwImRYflCl
p36
aVhttp://www.ebay.com/itm/Comvita-10-Manuka-Honey-1-x-500g-/182500300864?epid=1755197194&hash=item2a7ddd9840:g:bBwAAOSwSlBY09-J
p37
aVhttp://www.ebay.com/itm/Comvita-UMF-10-Manuka-Honey-500gm-/251754182882?epid=1755197194&hash=item3a9db7f8e2:g:bsoAAOSwPTlTzOYc
p38
aVhttp://www.ebay.com/itm/ARGENTIN-T-throat-spray-20ml-/152625302604?epid=1052023982&hash=item23892d4c4c:g:71UAAOSwYS9Zajsz
p39
aVhttp://www.ebay.com/itm/Nelsons-Active-Manuka-Honey-Silver-1kg-/261145865344?epid=1905322060&hash=item3ccd81ac80:g:NEIAAOSwBahVIFB5
p40
a.