(lp1
Vhttp://www.ebay.com/itm/Travis-Scott-Logo-T-Shirt-Rodeo-Antidote-Dope-Swag-3500-Rihanna-Gift-Idea-/141939871466?var=&hash=item210c468eea:m:mYbsZaL714b2feu3XwVG9aQ
p2
aVhttp://www.ebay.com/itm/Official-Blink-182-Big-Smile-T-Shirt-Rock-Band-Thomas-DeLonge-Travis-Barker-/121714487741?var=&hash=item1c56bfb1bd:m:mFgyygw2tg0AGM0ZeVBlO1A
p3
aVhttp://www.ebay.com/itm/Kings-Will-Dream-Travis-SS-Crew-Neck-T-Shirt-Sage-/182603672875?var=&epid=935196152&hash=item2a8406ed2b:m:mVyg7xofU0eNXIzufAkJ6bQ
p4
aVhttp://www.ebay.com/itm/Taxi-Driver-Cult-70s-Vigilante-Film-Japan-Poster-T-Shirt-Scorsese-Travis-New-200-/232215765240?var=&hash=item36112360f8:m:mK87wZz8bWTAj0_Ph4_X79w
p5
aVhttp://www.ebay.com/itm/Kings-Will-Dream-Mens-Travis-Logo-T-Shirt-White-/182537741265?var=&epid=809150142&hash=item2a8018e3d1:m:mdU4tb9TJSsD5EBu1pGjPtQ
p6
aVhttp://www.ebay.com/itm/Kings-Will-Dream-T-Shirt-Mens-Travis-Tee-in-White-/152627386476?var=&epid=737645095&hash=item23894d186c:m:mc9L-Rz8e0lFG820z_pW6vQ
p7
aVhttp://www.ebay.com/itm/TRAVIS-BICKLE-PORTRAIT-MENS-T-SHIRT-TAXI-DRIVER-ROBERT-DE-NIRO-MOVIE-FILM-PUNK-/262825620528?var=&hash=item3d31a0b430:m:mt4UXQ2XcqWmww5JMtHrGKA
p8
aVhttp://www.ebay.com/itm/Mens-Genuine-DC-Casual-Fashion-Tee-T-Shirt-S-M-L-XL-XXL-Travis-Pastrana-DC21-/141666735420?var=&hash=item20fbfed53c:m:mavda9NSIhZ4amfq903HLmA
p9
aVhttp://www.ebay.com/itm/Travis-Scott-La-Flame-Dripping-Logo-T-Shirt-3500-Rodeo-Antidote-Swag-Finesse-/141939871481?var=&hash=item210c468ef9:m:mOoSKKDvObYLR9aQgXbLveA
p10
aVhttp://www.ebay.com/itm/TAXI-DRIVER-ROBERT-DE-NIRO-TRAVIS-BICKLE-T-SHIRT-MONG-NEW-OFFICIAL-FILM-MOVIE-/160544258264?var=&hash=item25612ef8d8:m:mL1pSo_b08rfPxwal59D6UQ
p11
aVhttp://www.ebay.com/itm/VERY-BEST-OF-TRAVIS-TRITT-COUNTRY-MUSIC-COMPILATION-CD-NEW-/381896056365?epid=59449859&hash=item58eac75e2d:g:iNwAAOSw3xJVXq8b
p12
aVhttp://www.ebay.com/itm/Travis-Tritt-The-Very-Best-Of-NEW-CD-/390889679560?epid=59449859&hash=item5b02d72ac8:g:TR0AAOSwbqpTyn7x
p13
aVhttp://www.ebay.com/itm/Travis-Scott-Birds-In-The-Trap-Sing-Mcknight-NEW-CD-/351908532706?epid=2056211151&hash=item51ef6211e2:g:R7sAAOSwHMJYLror
p14
aVhttp://www.ebay.com/itm/Lit-Graphic-Logo-T-Shirt-Travis-Scott-3500-Antidote-Rodeo-Rihanna-Dope-Swag-/141937062914?var=&hash=item210c1bb402:m:mK9X8IOVAFr6ZwGE-feD7yQ
p15
aVhttp://www.ebay.com/itm/Travis-Scott-Rodeo-Rider-T-Shirt-Antidote-Dope-Swag-3500-Rihanna-Gift-Idea-/141939871473?var=&hash=item210c468ef1:m:mYbsZaL714b2feu3XwVG9aQ
p16
aVhttp://www.ebay.com/itm/Travis-Everything-at-Once-2016-CD-NEW-SEALED-SPEEDYPOST-/331903573979?epid=1660497390&hash=item4d46fe9fdb:g:VcUAAOSw2GlXIQ3v
p17
aVhttp://www.ebay.com/itm/Travis-Everything-at-Once-CD-NEW-/401220219516?epid=1660497390&hash=item5d6a96b27c:g:mp8AAOSwHMJYHTpe
p18
aVhttp://www.ebay.com/itm/Travis-Tritt-The-Very-Best-Of-CD-NEW-/302190383160?epid=181856652&hash=item465bf35038:g:KlsAAOSw241YcaV9
p19
aVhttp://www.ebay.com/itm/STEVE-TRAVIS-BEST-OF-FRIENDS-2-CD-/130697186237?epid=1207707978&hash=item1e6e28cbbd:g:9lcAAOxyCTtTc4My
p20
aVhttp://www.ebay.com/itm/COLLINS-TRAVIS-Wired-CD-NEW-/282308521484?epid=222755267&hash=item41bae62e0c:g:8bEAAOSwEzxYZpK3
p21
aVhttp://www.ebay.com/itm/18-24-months-Teddy-Bear-Childrens-Costume-by-Travis-Dress-Up-By-Design-/121717995817?epid=1530651650&hash=item1c56f53929:g:KJ4AAOSwd0BVut9y
p22
aVhttp://www.ebay.com/itm/Blink-182-The-Mark-Tom-And-Travis-Show-NEW-CD-/311037569993?epid=3991338&hash=item486b48abc9:g:XxoAAOSw7NNT32zG
p23
aVhttp://www.ebay.com/itm/RANDY-TRAVIS-THE-PLATINUM-COLLECTION-CD-GREATEST-HITS-VERY-BEST-OF-/122144955225?epid=59461133&hash=item1c70681b59:m:mx1qurDFJgZ8Xv_AbeQDIrw
p24
aVhttp://www.ebay.com/itm/TRAVIS-Closer-3-TRACK-CD-NEW-NOT-SEALED-/311836676737?hash=item489aea1281:g:xhgAAOSwTM5Y3ZJl
p25
aVhttp://www.ebay.com/itm/RANDY-TRAVIS-NEW-SEALED-CD-THE-PLATINUM-GREATEST-HITS-COLLECTION-VERY-BEST-OF-/391717721097?epid=59461133&hash=item5b34321409:g:NhQAAOSwTuJYtsU7
p26
aVhttp://www.ebay.com/itm/Randy-Travis-The-Platinum-Collection-CD-NEW-/401219926561?epid=59461133&hash=item5d6a923a21:g:PsAAAOSwImRYHJ0-
p27
aVhttp://www.ebay.com/itm/Travis-Tritt-The-Very-Best-Of-CD-NEW-/401220059147?epid=59449859&hash=item5d6a94400b:g:gfQAAOSwal5YHOIc
p28
aVhttp://www.ebay.com/itm/TRAVIS-Re-Offender-UK-3-Track-CD-Single-Part-2-/220995006664?hash=item33745430c8:m:mCeBLJtWnKRf-FbJodZHwEA
p29
aVhttp://www.ebay.com/itm/Travis-Everything-At-Once-NEW-CD-/391401268456?epid=1660497390&hash=item5b215564e8:g:fVQAAOSwh-1W3cQ0
p30
aVhttp://www.ebay.com/itm/High-Lonesome-Randy-Travis-CD-/201215871086?hash=item2ed966886e:g:hr8AAOSwX~dWnPm2
p31
aVhttp://www.ebay.com/itm/TRAVIS-EVERYTHING-AT-ONCE-CD-NEW-RELEASE-APRIL-2016-/121953831330?epid=1660497390&hash=item1c6503c9a2:g:r7wAAOSwbwlXDPBM
p32
aVhttp://www.ebay.com/itm/TRAVIS-NEW-SEALED-CD-SINGLES-GREATEST-HITS-COLLECTION-THE-VERY-BEST-OF-/371881745171?epid=109766907&hash=item5695e11b13:g:Y6YAAOSwiYFXIejn
p33
aVhttp://www.ebay.com/itm/Randy-Travis-No-Holdin-Back-CD-/400868436664?hash=item5d559eeab8:g:KPUAAOSw-zxWp1Zy
p34
aVhttp://www.ebay.com/itm/Travis-Tritt-Strong-Enough-My-Honky-Tonk-NEW-CD-/351126716210?epid=1105539063&hash=item51c0c87f32:g:UsEAAOSwhMpT0S5H
p35
aVhttp://www.ebay.com/itm/70J-Travis-Song-to-Self-DJ-CD-/360182636962?hash=item53dc8ee1a2:g:KUkAAOxywXFScHHO
p36
aVhttp://www.ebay.com/itm/TRAVIS-EVERYTHING-AT-ONCE-CD-DVD-DELUXE-EDITION-NEW-RELEASE-APRIL-2016-/121953836096?epid=1660941251&hash=item1c6503dc40:g:GRgAAOSwZ8ZXDPGP
p37
aVhttp://www.ebay.com/itm/Randy-Travis-Platinum-Collection-NEW-CD-/351122191693?epid=59461133&hash=item51c083754d:g:KCEAAOSwX6VTynXS
p38
aVhttp://www.ebay.com/itm/Travis-And-Fripp-Discretion-NEW-CD-DVD-/311096989369?epid=1530631520&hash=item486ed356b9:g:AjgAAOSwPe1UGp7o
p39
aVhttp://www.ebay.com/itm/Travis-Where-You-Stand-NEW-CD-/311007716392?epid=170340802&hash=item4869812428:g:NMcAAOSw-dBTvWKf
p40
aVhttp://www.ebay.com/itm/Travis-Everything-At-Once-2016-BRAND-NEW-CD-/222225142929?hash=item33bda69491:g:KeUAAOSwFfhXjPmU
p41
aVhttp://www.ebay.com/itm/Travis-Everything-At-Once-Deluxe-NEW-CD-DVD-/391401268472?epid=1660941251&hash=item5b215564f8:g:7mIAAOSwxp9W3cW-
p42
aVhttp://www.ebay.com/itm/Travis-Good-Feeling-CD-ALBUM-/400805115200?hash=item5d51d8b540:g:ltEAAOSwa-dWpk9j
p43
aVhttp://www.ebay.com/itm/TRAVIS-EVERYTHING-AT-ONCE-CD-2016-/401109514394?epid=1660497390&hash=item5d63fd789a:g:6DMAAOSw8aNXGgfS
p44
aVhttp://www.ebay.com/itm/Parrot-Minidrone-Cargo-Drone-Travis-/162576351362?epid=1742087243&hash=item25da4e4082:g:UGYAAOSwCkZZWngq
p45
aVhttp://www.ebay.com/itm/RANDY-TRAVIS-Greatest-1-Hits-CD-New-Sealed-/162293137231?epid=1722383443&hash=item25c96cbf4f:g:m~0AAOSwr7ZW8Umo
p46
a.