(lp1
Vhttp://www.ebay.com/itm/Snatch-Steelbook-Bluray-Italian-Edition-Region-B-New-and-Sealed-/162402910707?hash=item25cff7c1f3:g:y1cAAOSwB-1Yq07b
p2
aVhttp://www.ebay.com/itm/Snatch-DVD-/291548981140?epid=102146214&hash=item43e1ac6794:g:fO0AAOSw7ThUmqW5
p3
aVhttp://www.ebay.com/itm/Snatch-Blu-ray-/291548981192?epid=74226066&hash=item43e1ac67c8:g:DXIAAOSwEeFU8I-T
p4
aVhttp://www.ebay.com/itm/Layer-Cake-Snatch-DVD-NEW-/401220235627?epid=109420394&hash=item5d6a96f16b:g:5G0AAOSwXeJYHURR
p5
aVhttp://www.ebay.com/itm/Vinnie-Jones-Jason-statham-Brad-Pitt-SNATCH-2000-British-Crime-2-Disc-UK-DVD-/231853873019?epid=3948069&hash=item35fb91577b:g:W1IAAOSwXYtY0rPY
p6
aVhttp://www.ebay.com/itm/SNATCH-Brad-Pitt-BLU-RAY-REGION-B-UK-/162223212140?epid=74226066&hash=item25c541c66c:m:mRiTczEnXTM_EX46kcgnf0Q
p7
aVhttp://www.ebay.com/itm/DVD-Snatch-Brad-Pitt-Jason-Statham-Vinnie-Jones-Stephen-Graham-/400863645463?hash=item5d5555cf17:g:3EkAAOSwPYZU3139
p8
aVhttp://www.ebay.com/itm/Snatch-DVD-2001-/152497901783?epid=3948069&hash=item23819550d7:m:mkirgi6pYnW8FMoCvPCbbVw
p9
aVhttp://www.ebay.com/itm/Snatch-Single-Disc-DVD-Region-2-/381049795196?hash=item58b856727c:g:ZuEAAOSwpRRWojkY
p10
aVhttp://www.ebay.com/itm/Snatch-DVD-2001-Jason-Statham-Brad-Pit-/252342716292?hash=item3ac0cc4784:g:zEkAAOSw6wRXAaqr
p11
aVhttp://www.ebay.com/itm/SNATCH-Brad-Pitt-DVD-REGION-2-UK-/162224522331?epid=102146214&hash=item25c555c45b:m:mIlJzmPyCKCL9TSvoED3XSQ
p12
aVhttp://www.ebay.com/itm/Snatch-London-Crank-DVD-Region-2-Ash-R-Shah-Benicio-Del-Toro-Dennis-Farina-Vi-/400838324748?hash=item5d53d3720c:g:arQAAOSwFqJWp1WC
p13
aVhttp://www.ebay.com/itm/Snatch-Lock-Stock-Two-Smoking-Barrels-DVD-Region-2-/400805098452?hash=item5d51d873d4:g:nC4AAOSw5dNWpk5U
p14
aVhttp://www.ebay.com/itm/Snatch-Blu-ray-NEW-/291700592991?epid=74226066&hash=item43eab5d15f:g:omsAAOSwfRdZI-cO
p15
aVhttp://www.ebay.com/itm/Snatch-White-Custom-Made-T-Shirt-/191911039243?var=&hash=item2caeca110b:m:mHHPevBOge0DbHptxUaEYFQ
p16
aVhttp://www.ebay.com/itm/I-Clean-Snatch-Workout-Crossfit-Strength-Training-Weights-T-Shirt-Ideal-Gift-/272277250257?var=&hash=item3f64fd20d1:m:mOD1x1eSTGkqwzjFY--o94w
p17
aVhttp://www.ebay.com/itm/Snatch-2-x-DVD-2001-FREEPOST-5035822078932-/191599550453?epid=3948069&hash=item2c9c391ff5:m:mkirgi6pYnW8FMoCvPCbbVw
p18
aVhttp://www.ebay.com/itm/Daniel-Craig-Kenneth-Cranham-Layer-Cake-Snatch-DVD-NEW-/351682620892?hash=item51e1eaeddc:g:8wAAAOSwHxVW74hM
p19
aVhttp://www.ebay.com/itm/Bullet-Tooth-Tony-Daimler-Sovereign-Snatch-Mens-100-Cotton-T-shirt-/251900038599?var=&hash=item3aa6698dc7:m:mbpTxddUMpmhYeutS2y24lQ
p20
aVhttp://www.ebay.com/itm/Dr-Magic-Snatch-A-Dye-120-Sheets-6-x-20-Pack-Colour-Catcher-/381919390073?epid=1638003882&hash=item58ec2b6979:g:kcIAAOSwNphWaspH
p21
aVhttp://www.ebay.com/itm/SNATCH-BRAD-PITT-JASON-STATHAM-GUY-RITCHIE-GANGSTER-MOVIE-FILM-T-SHIRT-TOP-/221832731639?var=&hash=item33a642dbf7:m:mpGvbaHdQFcN1RGmzU-h2Fw
p22
aVhttp://www.ebay.com/itm/I-predict-a-riot-snatch-land-rover-phoenix-100-cotton-T-shirt-/251894333170?var=&hash=item3aa6127ef2:m:mEX9w6_yvGA_0XOcOss8zFQ
p23
aVhttp://www.ebay.com/itm/Jill-Corbett-Fedora-Snatch-black-nappa-lamb-skin-Handmade-in-UK-to-order-/351930061888?hash=item51f0aa9440:g:j~AAAOSw2zlXhUlS
p24
aVhttp://www.ebay.com/itm/SNATCH-MOVIE-PHOTO-Poster-Print-24x20-/200645795634?hash=item2eb76bdf32:g:MFwAAOxy9ERSRYsn
p25
aVhttp://www.ebay.com/itm/Jill-Corbett-Fedora-Snatch-hat-whisky-leather-Handmade-in-England-S-M-L-XL-/351432412752?hash=item51d3010e50:g:-4kAAOSwyQtVhvYm
p26
aVhttp://www.ebay.com/itm/SNATCH-CANVAS-PRINT-GICLEE-WALL-ART-MOVIE-FILM-PICTURE-POSTER-ARTWORK-/322320265443?var=&hash=item4b0bc8f0e3:m:mkp08Ry53rszvAPvAAJNzxw
p27
aVhttp://www.ebay.com/itm/Snatch-DVD-NEW-/121918834799?epid=102146214&hash=item1c62edc86f:g:vKUAAOSw2gxYpsH0
p28
aVhttp://www.ebay.com/itm/Snatch-Two-Disc-Set-Jason-Statham-New-/282238124288?epid=3948069&hash=item41b6b40100:g:~cAAAOSwcB5ZODcF
p29
aVhttp://www.ebay.com/itm/Snatch-Movie-Cast-Handsome-Famouse-Movie-Actor-Hollywood-/191586568992?var=&hash=item2c9b730b20:m:moquj1-Vj65TL1LwhDg3Bvw
p30
aVhttp://www.ebay.com/itm/Snatch-Handsome-Famouse-Movie-Actor-Hollywood-/191586569269?var=&hash=item2c9b730c35:m:mO4KF3c7v7OfkAMMGLZOihQ
p31
aVhttp://www.ebay.com/itm/Snatch-5-Poster-Greatest-Movies-Classic-Vintage-Films-/322441644927?var=&hash=item4b13050b7f:m:mHqVjSaEmVWyupduyn-hKaw
p32
aVhttp://www.ebay.com/itm/SNATCH-MOVIE-PHOTO-Poster-Print-24x20-iconic-image-277842-/200645771276?hash=item2eb76b800c:g:0EMAAOxyu~lSRYuG
p33
aVhttp://www.ebay.com/itm/Landrover-Defender-SNATCH-conversion-set-T35086-BLACK-DOG-1-35-/122348450471?epid=652047969&hash=item1c7c8932a7:g:xcQAAOSwoudW3J6v
p34
aVhttp://www.ebay.com/itm/4-ton-Medium-Duty-Snatch-Block-4-1-2-Wheel-with-Swivel-Shackle-Pulley-Lifting-/361462255465?hash=item5428d44f69:g:oKsAAOSwGotWjpHU
p35
aVhttp://www.ebay.com/itm/Greatest-Movie-Posters-Top-100-Classic-Vintage-Poster-Art-Prints-/162316856012?var=&hash=item25cad6aacc:m:mxaMgVvdBMlvtUBjoNLbGgw
p36
aVhttp://www.ebay.com/itm/Snatch-1-Micky-In-The-Ring-Handsome-Famouse-Movie-Actor-Hollywood-/400925202043?var=&hash=item5d5901167b:m:mp4oIpkYn8bshzvqJtlW-uQ
p37
aVhttp://www.ebay.com/itm/4-ton-Medium-Duty-Snatch-Block-4-1-2-Wheel-with-Swivel-Shackle-Pulley-Lifting-/361462255465?hash=item5428d44f69:g:oKsAAOSwGotWjpHU
p38
aVhttp://www.ebay.com/itm/Snatch-1-Micky-In-The-Ring-Handsome-Famouse-Movie-Actor-Hollywood-/400925202043?var=&hash=item5d5901167b:m:mp4oIpkYn8bshzvqJtlW-uQ
p39
aVhttp://www.ebay.com/itm/SNATCH-CAST-x4-PP-SIGNED-POSTER-12X8-BRAD-PITT-/252640756115?epid=872811646&hash=item3ad2900193:g:Uy8AAOSwcLxYLfsE
p40
aVhttp://www.ebay.com/itm/NEW-British-Army-Desert-Camo-Snatch-Bag-Ammunition-Grab-Bag-Afghan-Issue-/390593000099?hash=item5af12832a3:g:TksAAMXQQSFRi-mO
p41
aVhttp://www.ebay.com/itm/Snatch-3-Poster-Greatest-Movies-Classic-Vintage-Films-/322441644331?var=&hash=item4b1305092b:m:mtiSLjTCwj3C3xhBj1xBYxg
p42
aVhttp://www.ebay.com/itm/Pulley-Snatch-Block-Heavy-Duty-Off-Road-Recovery-1-2-4-8-10-12-Tonne-Ton-4x4-/252615499771?var=&hash=item3ad10e9ffb:m:m7GgjyODzPLyZfM7GRheaUg
p43
aVhttp://www.ebay.com/itm/Snatch-4-Poster-Greatest-Movies-Classic-Vintage-Films-/322441644591?var=&hash=item4b13050a2f:m:mt5fqbOURYOzT1YTP_cgciw
p44
aVhttp://www.ebay.com/itm/Bricktop-Snatch-Retro-Movie-T-Shirt-Cool-British-Gangster-Classic-/252455487701?epid=939077496&hash=item3ac78508d5:g:qBcAAOSwyDxXgTMM
p45
aVhttp://www.ebay.com/itm/SNATCH-MOVIE-PHOTO-Poster-Print-24x20-iconic-photo-276750-/130568279716?hash=item1e6679d6a4:g:QcQAAOxy-j9SRYtK
p46
aVhttp://www.ebay.com/itm/Snatch-Modern-Art-Movie-Canvas-Print-Large-A1-30x20-/222322455087?epid=2075955624&hash=item33c373722f:g:OVgAAOSw4GVYM5~G
p47
aVhttp://www.ebay.com/itm/Original-Soundtrack-Snatch-CD-NEW-/351550861245?epid=109745779&hash=item51da106fbd:g:2esAAOSweW5VbJhm
p48
aVhttp://www.ebay.com/itm/PROGEN-2-4-8-10-TON-TONNE-WINCH-SNATCH-BLOCK-PULLEY-OFF-ROAD-4x4-RECOVERY-/322443976196?var=&hash=item4b13289e04:m:mmP1NHyx2k1f44zdnFR1-0Q
p49
aVhttp://www.ebay.com/itm/Snatch-2-Poster-Greatest-Movies-Classic-Vintage-Films-/322441643854?var=&hash=item4b1305074e:m:msAUrljy6codejRBNliG2sw
p50
aVhttp://www.ebay.com/itm/ARMY-LAND-ROVER-WOLF-WIMIK-SNATCH-DEFENDER-AFGHAN-IRAQ-UNION-JACK-LARGE-DECAL-X2-/262918657562?hash=item3d372c561a:g:ZgcAAOxy7vJTdhkS
p51
aVhttp://www.ebay.com/itm/Guy-Ritchies-Snatch-Movie-Film-Poster-Print-Picture-A3-A4-Size-/271300775870?var=&hash=item3f2ac94fbe:m:mov0TnUtY2w2eDQZoNqeM6w
p52
aVhttp://www.ebay.com/itm/2X-ARMY-GREEN-UNION-JACK-FLAG-STICKERS-WOLF-WMIK-SNATCH-DEFENDER-LAND-ROVER-/262918657534?hash=item3d372c55fe:g:~EcAAOSw-7RVF61L
p53
aVhttp://www.ebay.com/itm/MILITARY-LAND-ROVER-WOLF-WMIK-SNATCH-DEFENDER-90-110-Bonnet-Warning-Decal-/252839569944?hash=item3ade69aa18:g:ySkAAOSweW5U5heJ
p54
aVhttp://www.ebay.com/itm/SNATCH-MOVIE-GICLEE-CANVAS-ART-/230758682898?var=&hash=item35ba4a1112:m:mQvZWfz3EIen-VVhdWjCYww
p55
aVhttp://www.ebay.com/itm/SNATCH-MOVIE-POSTER-1-4-SIZES-A5-A4-A3-A2-A-FREE-SURPRISE-A3-POSTER-BRAD-/112031013230?var=&hash=item1a1591996e:m:mROv0y5LoyLcuVBXHWZ5HNA
p56
aVhttp://www.ebay.com/itm/4-TONNELLATE-Snatch-Block-4-TEMPI-MANOVELLA-PULEGGIA-4-TON-winchmax-qualita-/142362882746?hash=item21257d32ba:g:HGsAAOSwvihZAL2H
p57
aVhttp://www.ebay.com/itm/ARMY-LAND-ROVER-WOLF-WMIK-SNATCH-DEFENDER-SNORKEL-RAISED-AIR-INTAKE-WARNING-X2-/262918657440?epid=1234351084&hash=item3d372c55a0:g:cU8AAOSwEppUSnOm
p58
aVhttp://www.ebay.com/itm/SNATCH-MOVIE-PHOTO-8x10-Photo-/130568344819?hash=item1e667ad4f3:g:2BAAAOxyTkJSRYnl
p59
aVhttp://www.ebay.com/itm/SNATCH-BRICK-TOP-QUOTE-Cotton-Canvas-Wall-Art-Picture-Print-A1-A2-Ready-to-Hang-/171963181595?var=&hash=item2809cdea1b:m:m47vPhIsARrAgX00aIHmebg
p60
aVhttp://www.ebay.com/itm/SNATCH-8x10-Photo-/130556464510?hash=item1e65c58d7e:g:SmgAAOxyAZ9SRYp0
p61
aVhttp://www.ebay.com/itm/MILITARY-LAND-ROVER-SNATCH-XD-WOLF-WMIK-BOWMAN-FUEL-WARNING-DECAL-X2-/262918657466?hash=item3d372c55ba:g:XC4AAOSweW5U8LWl
p62
aVhttp://www.ebay.com/itm/Holt-30mm-Bearing-Ball-Snatch-Block-HT4475-1-/292097864724?epid=812770586&hash=item440263b414:g:6AwAAOSwE0JZAPaw
p63
aVhttp://www.ebay.com/itm/BRAD-PITT-AS-MICKEY-FROM-SNATCH-bare-knuckle-boxing-Poster-Print-24x20-/130556158530?epid=1188216152&hash=item1e65c0e242:g:rzMAAOxy0QBSRYu7
p64
aVhttp://www.ebay.com/itm/Snatch-Framed-35mm-Film-Cell-Memorabilia-Filmcells-Movie-Cell-Presentation-/161538574288?hash=item259c7307d0:g:XesAAOSwDwtUoDaS
p65
aVhttp://www.ebay.com/itm/2-X-DR-MAGIC-SNATCH-A-DYE-40-SHEETS-NEW-PREVENTS-COLOUR-RUNS-/192087182173?epid=1638003882&hash=item2cb949cb5d:g:CbwAAOSw2xRYiIqe
p66
aVhttp://www.ebay.com/itm/Snatch-Micky-Brad-Pitt-punch-scene-A3-A4-Poster-/171156887024?var=&hash=item27d9bed5f0:m:mCAXCcVIL9Pwc3sh3xQouSw
p67
aVhttp://www.ebay.com/itm/HEAVY-DUTY-WINCH-SNATCH-BLOCK-PULLEY-OFF-ROAD-4x4-RECOVERY-2-TON-TONNE-/232299532201?epid=747146346&hash=item3616218fa9:g:OH4AAOSwTM5Y7PtI
p68
aVhttp://www.ebay.com/itm/SNATCH-CAST-X3-PP-SIGNED-12X8-POSTER-PITT-RICHIE-N2-/260516578128?epid=884889062&hash=item3ca7ff8350:m:mnZ4lF0-ogaEiY4HplPsRpQ
p69
aVhttp://www.ebay.com/itm/Heavy-Duty-Winch-Snatch-Block-Pulley-Off-Road-4x4-Recovery-4-8-10-Ton-Tonne-/191442229579?var=&epid=1356333500&hash=item2c92d8994b:m:mFw0_fOd87C7jz0CnRZfQTA
p70
aVhttp://www.ebay.com/itm/Snatch-logo-graphic-yellow-cast-A3-A4-Poster-/181245793643?var=&hash=item2a3317556b:m:mdGsls9MkWWDPtnrR_LUung
p71
aVhttp://www.ebay.com/itm/Snatch-logo-graphic-yellow-A3-A4-Poster-/181245792940?var=&hash=item2a331752ac:m:mbujIjb1ZPpQOr1v3YASXhA
p72
aVhttp://www.ebay.com/itm/8-tonne-snatch-puleggia-blocco-fuoristrada-4x4-recupero-essenziale-per-/252451280359?hash=item3ac744d5e7:g:vvoAAOSwpDdVCpc2
p73
aVhttp://www.ebay.com/itm/HEAVY-DUTY-WINCH-SNATCH-BLOCK-PULLEY-OFF-ROAD-4x4-RECOVERY-8-TON-TONNE-/232299543941?hash=item361621bd85:g:KeUAAOSwrddY7P7O
p74
aVhttp://www.ebay.com/itm/Silver-Handbag-Purse-Keys-Theft-Holiday-Snatch-Security-Chain-with-Trolley-Coin-/141367342954?hash=item20ea26776a:g:5s8AAOSwq7JT36RD
p75
aVhttp://www.ebay.com/itm/RC4WD-ARB-Winch-Snatch-Block-10th-scale-Z-S0341-Metal-VERY-strong-reliable-TOY-/111687854519?epid=1122842759&hash=item1a011d69b7:g:3YcAAOxy2d9SZhSs
p76
aVhttp://www.ebay.com/itm/Original-Soundtrack-Snatch-CD-NEU-/281842275675?epid=3772217&hash=item419f1bd55b:g:e54AAOSwwbdWMgh~
p77
aVhttp://www.ebay.com/itm/Bricktop-Snatch-Retro-Movie-T-Shirt-Mug-Cool-British-Gangster-Classic-/252455661549?epid=939327758&hash=item3ac787afed:g:c~sAAOSwyDxXgWdd
p78
aVhttp://www.ebay.com/itm/SUGAR-SNATCH-Mad-Cows-and-Englishmen-CD-NEW-1997-POP-PUNK-90s-/371844349091?hash=item5693a67ca3:g:lPYAAOSwnHZYghj-
p79
aVhttp://www.ebay.com/itm/ALAN-FORD-SNATCH-Poster-Print-24x20-/200625228405?hash=item2eb6320a75:g:XCIAAOxynRRSRYui
p80
aVhttp://www.ebay.com/itm/2X-BLACK-WHITE-UNION-JACK-FLAG-STICKERS-WOLF-WMIK-SNATCH-DEFENDER-LAND-ROVER-/252839569884?hash=item3ade69a9dc:g:EmsAAOSw-7RVF66W
p81
aVhttp://www.ebay.com/itm/JASON-STATHAM-SNATCH-Poster-Print-24x20-/130539656756?hash=item1e64c51634:g:O6EAAOxyFjNSRYtD
p82
aVhttp://www.ebay.com/itm/Snatch-cast-movie-photo-Brad-Pitt-Vinnie-Jones-Jason-Statham-Poster-Print-24x20-/131075678460?epid=1888325591&hash=item1e84b820fc:g:V1EAAOxydlFStMO2
p83
aVhttp://www.ebay.com/itm/8-tonne-snatch-pulley-block-off-road-4x4-recovery-essential-for-winch-2-1-/261474317055?epid=695380362&hash=item3ce11572ff:g:vvoAAOSwpDdVCpc2
p84
aVhttp://www.ebay.com/itm/MILITARY-WOLF-WMIK-SNATCH-VIXEN-LAND-ROVER-RRC7945-strap-X4-NEW-Pioneer-Kit-/262918657530?hash=item3d372c55fa:g:vbcAAOSwsN9XA95n
p85
aVhttp://www.ebay.com/itm/HEAVY-DUTY-WINCH-SNATCH-BLOCK-PULLEY-OFF-ROAD-4x4-RECOVERY-4-TON-TONNE-/232299535486?epid=748591384&hash=item3616219c7e:g:GaUAAOSwhQhY7Pv2
p86
a.