(lp1
Vhttp://www.ebay.com/itm/Alloy-Outboard-Transom-Pad-Fishing-Speed-Boat-Rib-Dinghy-New-A270-/132219838289?hash=item1ec8ea9f51:g:83AAAMXQfvlScSeG
p2
aVhttp://www.ebay.com/itm/BEST-ON-EBAY-Concealed-Overhead-Transom-Door-Closer-for-aluminium-door-Shopfront-/112434169255?hash=item1a2d9945a7:g:Ol8AAOSwcgNZHueE
p3
aVhttp://www.ebay.com/itm/Launching-Wheels-Boat-Inflatable-Dinghy-RIB-foldable-transom-wheels-/322541420878?epid=1260697120&hash=item4b18f7814e:g:7wIAAOSwPh5ZMrdP
p4
aVhttp://www.ebay.com/itm/Seagull-outboard-40-plus-40-transom-mounting-bracket-/311881196540?hash=item489d9163fc:g:SDYAAOSwc-tY6mQp&vxp=mtr
p5
aVhttp://www.ebay.com/itm/Launching-Wheels-Boat-Inflatable-Dinghy-RIB-foldable-transom-wheels-Video-Inside-/322513475625?epid=1260697120&hash=item4b174d1829:g:BNIAAOSwjVVVxg-d
p6
aVhttp://www.ebay.com/itm/British-Seagull-engine-transom-cup-washer-/112394605460?epid=838689018&hash=item1a2b3d9394:g:z~cAAOSwuMZZCZoK&vxp=mtr
p7
aVhttp://www.ebay.com/itm/British-Seagull-outboard-transom-cup-washer-/162501431680?epid=837740977&hash=item25d5d71180:g:z~cAAOSwuMZZCZoK&vxp=mtr
p8
aVhttp://www.ebay.com/itm/Black-Boat-Transom-Bung-Housing-Screw-in-/311860619372?hash=item489c57686c:g:yF0AAOSwjL5ZBwOl
p9
aVhttp://www.ebay.com/itm/Lalizas-Plastic-Outboard-Transom-Pad-230mm-x-86mm-/292099775552?epid=1751256810&hash=item440280dc40:g:UCIAAOSwwE5WZuy8
p10
aVhttp://www.ebay.com/itm/Dorma-RTS85-Concealed-Transom-Door-Closer-Shopfront-Non-Hold-Open-NHO-/172599609225?var=&hash=item282fbd0789:m:maIJWwA2TIDUfTOXen2Fdig
p11
aVhttp://www.ebay.com/itm/Pack-of-2-x-RWR2066-RWO-screw-in-transom-side-tank-bungs-/122419101329?epid=712039419&hash=item1c80bf3e91:g:G-8AAOSwc-tY2mtr
p12
aVhttp://www.ebay.com/itm/POLPORT-BOAT-TRANSOM-PAD-MOUNTING-OUTBOARD-ENGINE-MOTOR-YACHT-PREMIUM-PROTECTOR-/272588891096?hash=item3f779063d8:g:-TkAAOSw4A5YxyfO
p13
aVhttp://www.ebay.com/itm/Brand-New-Solid-Transom-Dinghy-with-Airdeck-Floor-Waveline-Inflatable-Boat-/361925755059?var=&hash=item544474c0b3:m:mCqpx42ZUvGegP3P3YUg3Ug
p14
aVhttp://www.ebay.com/itm/Round-Frosted-Window-Number-Etched-glass-Fanlight-House-Window-Numbers-Transom-/152464830664?var=&hash=item237f9cb0c8:m:mt4qzeY1aqCadELPACGfwoA
p15
aVhttp://www.ebay.com/itm/BOAT-TRANSOM-BUNG-MADE-OF-AISI-316-STAINLESS-STEEL-SCREW-IN-BUNG-FOR-32mm-HOLE-/292033754173?hash=item43fe91743d:g:XQwAAOSwrklVJ-7M
p16
aVhttp://www.ebay.com/itm/Aluminium-Shop-Front-Door-Closer-Heavy-Duty-Concealed-Transom-Door-Closer-/292018290566?hash=item43fda57f86:g:b8AAAOSwwbdWJ4VJ
p17
aVhttp://www.ebay.com/itm/Heavy-Duty-Concealed-Transom-Door-Closer-Aluminium-Shop-Front-Door-Closer-90-/302213560000?hash=item465d54f6c0:g:b8AAAOSwwbdWJ4VJ
p18
aVhttp://www.ebay.com/itm/Seiwa-Airmar-P58-DST-8-Pin-600-Watt-Transom-Mount-Transducer-9-Meter-Cable-/282346016101?epid=1243133820&hash=item41bd224d65:g:5-kAAOxyDEVSb6TW
p19
aVhttp://www.ebay.com/itm/Northstar-Airmar-P58-DST-6-Pin-600-Watt-Transom-Mount-Transducer-8-Meter-Cable-/371854647543?epid=1944352592&hash=item569443a0f7:g:IP4AAOxyBXNSZ-UI
p20
aVhttp://www.ebay.com/itm/Simrad-EQ-CE-CA-CX-Transom-Mount-Depth-Temp-Transducer-/311792072789?hash=item4898417855:g:jVEAAOxyLm9TEzU3
p21
aVhttp://www.ebay.com/itm/Vinyl-Outboard-Engine-Transom-Pad-Fishing-Speed-Boat-Rib-Dinghy-New-AS39-/112283129982?hash=item1a2498987e:g:vlAAAOSwm8VU1O-k
p22
aVhttp://www.ebay.com/itm/Oval-Etched-glass-Fanlight-Frosted-Transom-House-Numbers-Frosted-Window-Number-/162364160213?var=&hash=item25cda878d5:m:meRXsEaavN0Uore54q4Z3rA
p23
aVhttp://www.ebay.com/itm/Gold-House-Numbers-for-Victorian-Front-Door-Fanlight-Transom-Door-Window-Number-/152384393788?var=&hash=item237ad1523c:m:mQgGa7IgYvRr5LLRy6RitCw
p24
aVhttp://www.ebay.com/itm/U-S-Boat-Garboard-Drain-Bung-and-Socket-Transom-Drain-Plug-/162340396746?hash=item25cc3ddeca:g:VoAAAOSwjDZYZ5O3
p25
aVhttp://www.ebay.com/itm/U-S-Boat-Garboard-Drain-Bung-Transom-Bung-Drain-Plug-50MM-Brass-Boat-Chandlery-/152376965332?epid=2122651866&hash=item237a5ff8d4:g:mcQAAOSw241YZ5OP
p26
aVhttp://www.ebay.com/itm/Lowrance-Hook-4X-Fish-Finder-with-Mid-High-DownScan-Transom-Mount-Transducer-/282307254479?epid=1563892911&hash=item41bad2d8cf:g:67gAAOSwKtVW1BwH
p27
aVhttp://www.ebay.com/itm/Lowrance-Hook-4X-Fishfinder-with-Mid-High-transom-mount-transducer-/371819335955?epid=1355512282&hash=item569228d113:g:ERkAAOSwqYBWphwb
p28
aVhttp://www.ebay.com/itm/Lowrance-Hook-3X-DSI-455-800-with-transom-mount-transducer-/371809967658?epid=1754359514&hash=item569199de2a:g:YcUAAOSw5dNWlmqW
p29
aVhttp://www.ebay.com/itm/Airmar-P66-Replacement-Transom-Mount-Bracket-33-479-01-/282282800569?epid=1843889635&hash=item41b95db5b9:g:QiAAAOSw~CRTqoar
p30
aVhttp://www.ebay.com/itm/LOWRANCE-AIRMAR-P66-DT-7PIN-600-Watt-Transom-Mount-Transducer-/282280578785?epid=1742223191&hash=item41b93bcee1:g:issAAOxy8HlSao~s
p31
aVhttp://www.ebay.com/itm/BOAT-TRANSOM-PAD-OF-HEAVY-DUTY-PVC-TO-CUSHION-THE-MOUNTING-OF-OUTBOARD-ENGINES-/291930090659?hash=item43f863aca3:g:4lcAAOxy79JSZ7BL
p32
aVhttp://www.ebay.com/itm/Vetus-stainless-steel-transom-exhaust-connector-50mm-for-yacht-engine-/302095836515?epid=648059476&hash=item465650a563:g:oVcAAOSwfZ1WXugE
p33
aVhttp://www.ebay.com/itm/Vetus-stainless-steel-transom-exhaust-connector-45mm-for-yacht-engine-/302095835141?hash=item465650a005:g:oVcAAOSwfZ1WXugE
p34
aVhttp://www.ebay.com/itm/Vetus-transom-exhaust-connector-45mm-for-yacht-engine-/291898385679?epid=652748879&hash=item43f67fe50f:g:zDIAAOSwRLZT5e9Z
p35
aVhttp://www.ebay.com/itm/Vetus-stainless-steel-transom-exhaust-connector-40mm-for-yacht-engine-/302095830390?epid=649786559&hash=item4656508d76:g:oVcAAOSwfZ1WXugE
p36
aVhttp://www.ebay.com/itm/Stainless-Steel-Adjustable-Outboard-Transom-Bracket-for-Boat-Yacht-Motorboat-/371744357435?hash=item568db0bc3b:g:OaAAAOSwCGVX5P-f
p37
aVhttp://www.ebay.com/itm/Lalizas-Plastic-Outboard-Transom-Pad-450mm-x-360mm-/272347447033?epid=1944818954&hash=item3f692c3ef9:m:mEKnZ4HIMkB1LNVQWPTVLIg
p38
aVhttp://www.ebay.com/itm/Replacement-Pico-Transom-Flap-Plate-HT7092-/291849824261?epid=1180801947&hash=item43f39ae805:g:wkkAAOSwx2dYF26c
p39
aVhttp://www.ebay.com/itm/Adams-Rite-Concealed-Transom-Closer-Heavy-Duty-Hold-Open-HO-Shopfront-Door-/262566744648?epid=1083315267&hash=item3d22329248:g:g5wAAOSwp5JWZFI0
p40
aVhttp://www.ebay.com/itm/Stainless-Steel-Sports-Ski-Boat-Transom-Ski-Tow-Eye-/291835490765?hash=item43f2c031cd:g:E~kAAOSwqfNXoL4f
p41
aVhttp://www.ebay.com/itm/Holt-Transom-Gudgeon-HT4020-/291831710422?hash=item43f28682d6:g:T~sAAOSwXrhXmxbj
p42
aVhttp://www.ebay.com/itm/Gold-Black-Etched-glass-style-Fanlight-Transom-House-Numbers-Victorian-Door-/162150972099?var=&hash=item25c0f37ac3:m:muPW_jHFih0mtSBS6BvVmhw
p43
aVhttp://www.ebay.com/itm/Adams-Rite-Concealed-Transom-Door-Closer-Replacement-Top-Arm-Kit-All-Types-/282115551128?var=&hash=item41af65af98:m:mQ8jtneTn620Qs84-l4bf1Q
p44
aVhttp://www.ebay.com/itm/ERA-Transom-Window-Lock-825-12-/112070336664?epid=1208028958&hash=item1a17e9a098:g:edQAAOSwdzVXlhGP
p45
aVhttp://www.ebay.com/itm/BOAT-TRANSOM-BUNG-FOR-A-25mm-HOLE-MADE-OF-CHROMED-BRASS-PLASTIC-SCREW-IN-BUNG-/302018768305?hash=item4651b8adb1:g:BG8AAOxysstSZ7AD
p46
aVhttp://www.ebay.com/itm/NEW-ERA-SECURITY-WINDOW-DOOR-CASEMENT-TRANSOM-HINGED-KEY-STAY-LOCK-CATCH-/361626732466?hash=item5432a207b2:m:meW3L_A_A7ps3ntYDPPzmNQ
p47
aVhttp://www.ebay.com/itm/BOAT-TRANSOM-BUNG-MADE-OF-CHROMED-BRASS-AND-PLASTIC-SCREW-IN-BUNG-FOR-33mm-HOLE-/291804799614?hash=item43f0ebe27e:g:HioAAOSweW5VJ-B1
p48
aVhttp://www.ebay.com/itm/Replica-Laser-Replacement-Transom-Bung-/162118287829?hash=item25bf00c1d5:g:ixQAAOSwbYZXZWP9
p49
aVhttp://www.ebay.com/itm/Vetus-transom-exhaust-connector-40mm-for-yacht-engine-/291793396099?epid=649030276&hash=item43f03de183:g:zDIAAOSwRLZT5e9Z
p50
aVhttp://www.ebay.com/itm/Dorma-RTS85-Heavy-Duty-Concealed-Transom-Closer-For-Aluminium-Doors-All-Sizes-/282069057629?var=&hash=item41aca0405d:m:maIJWwA2TIDUfTOXen2Fdig
p51
aVhttp://www.ebay.com/itm/LOWRANCE-HDS-GEN3-CHIRP-Skimmer-Transducer-Transom-mount-TM150M-/152125021334?epid=1930639533&hash=item236b5b9c96:g:5rsAAOSwLnBXXCPK
p52
aVhttp://www.ebay.com/itm/TRANSOM-BIG-BORE-WATER-PICKUP-aluminium-rc-gas-boat-brushless-parts-/391477057808?hash=item5b25d9d910:g:tVoAAOSwnHZYavap
p53
aVhttp://www.ebay.com/itm/AUSTIN-BMC-Klassisch-Mini-Edelstahl-RH-Transom-rund-uberhol-Spiegel-/191881885376?hash=item2cad0d36c0:g:QIYAAOSwBLlU22a8
p54
aVhttp://www.ebay.com/itm/LOWRANCE-Plastic-Transom-Bracket-for-DSI-HDI-Skimmer-Transducer-Mount-/152096188947?hash=item2369a3aa13:g:UkIAAOSwXSJXPa~w
p55
aVhttp://www.ebay.com/itm/Heavy-duty-Transom-pintle-A4019S-/172201218718?hash=item2817fe129e:g:~4sAAOSw8vZXMf-G
p56
aVhttp://www.ebay.com/itm/Vetus-transom-exhaust-connector-75mm-for-yacht-engine-/301946306938?epid=649639764&hash=item464d67017a:g:zDIAAOSwRLZT5e9Z
p57
aVhttp://www.ebay.com/itm/ENFIELD-Z-DRIVE-TRANSOM-UNITS-SERVICE-MANUAL-MODEL-130-AND-130H-PAPER-COPY-/301943283726?hash=item464d38e00e:g:Rj8AAOSwyjBW3tvP
p58
aVhttp://www.ebay.com/itm/Outboard-Engine-Transom-or-Wall-Mount-Up-To-10HP-30KG-Stainless-Steel-Marine-/252363355746?hash=item3ac2073662:g:UNsAAOSwYmZXGOBl
p59
aVhttp://www.ebay.com/itm/Dorma-RTS85-Concealed-Transom-Closer-Heavy-Duty-Hold-Open-90-HO-Shopfront-Door-/172161130928?epid=1961406944&hash=item28159a61b0:g:tIUAAOSwiylXB8vl
p60
aVhttp://www.ebay.com/itm/A4020S-Mirror-dinghy-other-Allen-Heavy-duty-Transom-Gudgeon-/172161115133?epid=1261534670&hash=item28159a23fd:g:So8AAOSwv9hW6V0n
p61
aVhttp://www.ebay.com/itm/NADIA-GUILLOTINE-WOOD-BURNING-INSERT-STOVE-FIREPLACE-6-options-5years-warranty-/141952527790?var=&hash=item210d07adae:m:msPlooF590wNL8Q5bHhH21Q
p62
aVhttp://www.ebay.com/itm/Ladder-316-Stainless-Steel-3-Step-Fixings-Included-Wall-Mount-Transom-Marine-/252338980130?hash=item3ac0934522:g:DY8AAOSwQjNW~UPd
p63
aVhttp://www.ebay.com/itm/AISI-316-Marine-Grade-Stainless-Steel-Stern-Transom-Boat-Ship-Navigation-Light-/111932691833?epid=1612694671&hash=item1a0fb55579:g:4TcAAOSwh-1W4qtK
p64
aVhttp://www.ebay.com/itm/ALPRO-end-load-top-Assembly-Transom-Door-Closer-Arm-Adams-Rite-Aluminium-door-/262327994110?hash=item3d13f786fe:g:AS4AAOSwEppUO~7q
p65
aVhttp://www.ebay.com/itm/ALPRO-Side-Load-Assembly-Transom-Door-Closer-Arm-Adams-Rite-Aluminium-door-/262327994111?hash=item3d13f786ff:g:b4oAAOSwY45UPQyh
p66
aVhttp://www.ebay.com/itm/Simrad-IS12-IS15-Transom-Speed-Temp-Transducer-/311557068677?hash=item488a3f9785:g:3uUAAOxyGwNTEyWA
p67
aVhttp://www.ebay.com/itm/Larch-Timber-Glazing-Bar-Laquer-Polished-Mullion-Transom-Timber-/281937372395?hash=item41a4c6e4eb:g:phsAAOSwBahVPLjL
p68
aVhttp://www.ebay.com/itm/Vetus-transom-exhaust-connector-50mm-for-yacht-engine-/301873595563?epid=655016283&hash=item46491184ab:g:zDIAAOSwRLZT5e9Z
p69
aVhttp://www.ebay.com/itm/Lalizas-Black-Plastic-Outboard-Transom-Pad-320mm-x-220mm-/141900344917?epid=1057909652&hash=item2109eb6e55:g:LTIAAOSwQYZWu1tm
p70
aVhttp://www.ebay.com/itm/Lalizas-Grey-Plastic-Outboard-Transom-Pad-320mm-x-220mm-/141900180080?epid=1155053686&hash=item2109e8ea70:g:a-sAAOSwKtVWuyrC
p71
aVhttp://www.ebay.com/itm/Lalizas-Grey-Plastic-Outboard-Transom-Pad-230mm-x-86mm-/262283141861?epid=1357773904&hash=item3d114b22e5:g:KDsAAOSwDuJWugbC
p72
aVhttp://www.ebay.com/itm/Allen-Transom-Gudgeon-A420-Supernova-optimist-dinghy-/172095382774?epid=1343802226&hash=item2811af24f6:g:uhgAAOSwHnFVito-
p73
aVhttp://www.ebay.com/itm/Mirror-dinghy-transom-gudgeon-A4020-/121889893455?hash=item1c61342c4f:m:meOEbixZile3zQ3IoDqB7HQ
p74
aVhttp://www.ebay.com/itm/520-Transom-Gudgeon-/172095382762?hash=item2811af24ea:g:8SYAAOSwqu9VGpaV
p75
aVhttp://www.ebay.com/itm/519-Transom-pintle-/172095382767?hash=item2811af24ef:g:KnMAAOSwEeFVGpYO
p76
aVhttp://www.ebay.com/itm/LOWRANCE-SIMRAD-StructureScan-3D-with-Transom-Mount-Transducer-Gen3-EVO2-/182012010437?epid=1756806499&hash=item2a60c2dfc5:g:w1EAAOSwFMZWseSW
p77
aVhttp://www.ebay.com/itm/Adams-Rite-Concealed-Transom-Closer-Medium-Duty-Hold-Open-90-With-Arm-And-Pivot-/172071491224?var=&hash=item2810429698:m:m-T-dhf_2V0FsCJ7jVW1dkQ
p78
aVhttp://www.ebay.com/itm/EXHAUST-TRANSOM-OUTLET-CNC-aluminium-Zenoah-RCMK-QD-exhaust-rcboat-/361467727175?hash=item542927cd47:g:hOQAAOSw5dNWlnp3
p79
aVhttp://www.ebay.com/itm/Vetus-transom-exhaust-connector-60mm-for-yacht-engine-/301843954357?hash=item46474d3ab5:g:zDIAAOSwRLZT5e9Z
p80
aVhttp://www.ebay.com/itm/Transom-Shield-Rubber-Seal-Strip-for-Volvo-Penta-290-290DP-SP-DP-DPX-852868-/371512318462?epid=24003328482&hash=item567fdc19fe:g:SAIAAOSwSHZWdYhT&vxp=mtr
p81
aVhttp://www.ebay.com/itm/Transom-Shield-Rubber-Seal-for-Volvo-Penta-Sterndrives-270-275-280-897726-/262192931315?hash=item3d0beaa1f3:g:4tkAAOSwSHZWcABg&vxp=mtr
p82
aVhttp://www.ebay.com/itm/OUTBOARD-TRANSOM-MOUNTING-PLATE-200mmx-95mm-motor-boat-dinghy-yacht-fishing-/181959469330?hash=item2a5da12912:g:fNAAAOSwbdpWaukL
p83
aVhttp://www.ebay.com/itm/OUTBOARD-TRANSOM-MOUNTING-PLATE-315mm-x-100mm-boat-dinghy-yacht-fishing-/181959467737?hash=item2a5da122d9:g:pHcAAOSwbdpWauqQ
p84
aVhttp://www.ebay.com/itm/Ski-Rope-Hook-Stainless-Steel-316-Transom-Mount-Marine-Boat-/252208030481?hash=item3ab8c52311:g:dX0AAOSwwbdWQfMI
p85
aVhttp://www.ebay.com/itm/Water-Ski-Rope-Hook-Stainless-Steel-316-Transom-Mount-Marine-Boat-/252207626441?hash=item3ab8bef8c9:g:DpUAAOSw7hRWQfJN
p86
aVhttp://www.ebay.com/itm/Ladder-316-Stainless-Steel-4-Steps-Fixings-Included-Wall-Mount-Transom-Marine-/252194966741?hash=item3ab7fdccd5:g:bzQAAOSwJQdW~T8X
p87
aVhttp://www.ebay.com/itm/304-Stainless-Steel-Transom-Vent-213mm-x-58mm-226mm-x-88mm-Available-/262119245887?var=&hash=item3d0786483f:m:m42ws1PAwN7lXeIXnaKoDwg
p88
aVhttp://www.ebay.com/itm/Puppenhaus-Miniatur-1-12-Masstab-Naturholz-Traditionell-Transom-Oberlicht-Tur-/381432896168?hash=item58cf2c1aa8:g:XUAAAOSw8GtZXsH4
p89
aVhttp://www.ebay.com/itm/LOWRANCE-Elite-CHIRP-Transom-mount-transducer-50-200-455-800-kHz-Deep-/181891856810?epid=1225390187&hash=item2a599979aa:g:bIAAAOxy3zNSpg2~
p90
aVhttp://www.ebay.com/itm/Transom-Drain-Socket-With-Bung-Plug-As-Used-On-Many-Dinghys-/272001335369?hash=item3f548b0049:g:dAIAAOSw1-RUZV-C
p91
aVhttp://www.ebay.com/itm/Transom-Pontoon-Corner-Fender-Fenders-Sailing-Canal-Boat-Yacht-New-TS18-/131577107518?var=&hash=item1ea29b543e:m:m-VVpKZcTk2NHHTtXoUcg_g
p92
aVhttp://www.ebay.com/itm/Etched-glass-style-Fanlight-Transom-House-Numbers-Victorian-Front-Door-CLASSIC-/151756420274?var=&hash=item23556334b2:m:mf9sCkHB2yhJ4liyUlGGO8Q
p93
aVhttp://www.ebay.com/itm/Era-Locking-Window-Casement-Transom-Catch-828-52-in-Zinc-/201389464635?epid=1552500308&hash=item2ee3bf5c3b:g:kyAAAOSwLVZVp2mx
p94
aVhttp://www.ebay.com/itm/Aluminium-fittings-and-RUBBER-BELLOWS-2-radio-box-seals-rc-boat-transom-/361325511078?hash=item5420adc1a6:g:Op0AAOSw4CFYvIx0
p95
aVhttp://www.ebay.com/itm/Lalizas-Black-Plastic-Outboard-Transom-Pad-230mm-x-86mm-/261935041695?epid=1143302702&hash=item3cfc8b8c9f:g:AncAAOSwMmBVgsdO
p96
aVhttp://www.ebay.com/itm/BISON-ELECTRIC-OUTBOARD-SPARE-PARTS-PROPELLER-BRUSHES-SWITCH-ALL-PARTS-/331579709392?var=&hash=item4d33b0d7d0:m:mjwiUazhE1W__gacTtIcnkw
p97
aVhttp://www.ebay.com/itm/Transom-Kit-Boat-Engine-Steering-Cable-Transom-Fitting-Mounting-Kit-/361312616937?epid=1922819808&hash=item541fe901e9:g:Bs0AAOxymnFSEdJL
p98
aVhttp://www.ebay.com/itm/LOWRANCE-Transom-Bracket-for-HST-DFSBL-skimmer-Transducer-000-10392-001-/181761630118?epid=1030640623&hash=item2a51d65fa6:g:hbkAAOSwstxVavSb
p99
aVhttp://www.ebay.com/itm/Raymarine-Paddlewheel-Kit-365-465-Fishfinder-M99-143-33-096-01-Transom-/371330776763?epid=1163172245&hash=item567509febb:g:xDkAAOSwl8NVWv6K
p100
aVhttp://www.ebay.com/itm/TRANSOM-PLATE-METAL-OUTBOARD-MOUNTING-DINGHY-ENGINE-BRACKET-INFLATABLE-BOATS-/271873872411?epid=1234433100&hash=item3f4cf2121b:g:9O8AAOSwzOxUVMAw
p101
aVhttp://www.ebay.com/itm/10-x-WINDOW-STAY-Clamp-Transom-Lock-Crittall-Type-Secure-Universal-Security-Keys-/201331160038?epid=1165265473&hash=item2ee045b3e6:g:jP0AAOSwxp9W~PKe
p102
aVhttp://www.ebay.com/itm/2-x-WINDOW-STAY-Clamp-Transom-Lock-Crittall-Type-Secure-Universal-Security-Keys-/171755349489?epid=1453712433&hash=item27fd6aa5f1:g:J~YAAOSwB4NWzG0M
p103
aVhttp://www.ebay.com/itm/Raymarine-ST30-40-60-70-Transom-Dual-Speed-Depth-Transducer-/311326305270?hash=item487c7e6bf6:g:b~EAAOxyLm9TEz~n
p104
aVhttp://www.ebay.com/itm/Raymarine-A-Series-A50-60-65-70-Transom-Transducer-/311326300375?hash=item487c7e58d7:g:yq8AAMXQC-tTE0I0
p105
aVhttp://www.ebay.com/itm/Stainless-Steel-Boat-Navigation-Light-Transom-Stern-Boat-Light-/111580319481?hash=item19fab48ef9:g:ruUAAOSwmrlUwSpj
p106
aVhttp://www.ebay.com/itm/AISI-316-Marine-Grade-Stainless-Steel-Transom-Stern-Boat-Light-Clear-Lens-Ship-/111580319018?epid=1937730037&hash=item19fab48d2a:g:VIwAAOSw0e9UwSpO
p107
aVhttp://www.ebay.com/itm/LOWRANCE-Stainless-Transom-Bracket-for-DSI-HDI-Skimmer-Transducer-Mount-/151534360018?epid=1230680692&hash=item234826d5d2:g:nGoAAOSwt5hYd2Lt
p108
aVhttp://www.ebay.com/itm/ZODIAC-CADET-BOMBARD-DINGHY-ANY-INFLATABLE-BOAT-TRANSOM-LAUNCHING-WHEEL-SET-/161502448603?hash=item259a4bcbdb:g:6lQAAOSwj0NUegKq
p109
aVhttp://www.ebay.com/itm/Aluminium-Boat-Outboard-Engine-Transom-Pad-30-5cm-x-9-5cm-6-20601-/261669276032?hash=item3cecb44980:g:bWEAAOSwiCRUbd0C
p110
aVhttp://www.ebay.com/itm/TRANSOM-PLATE-PLASTIC-OUTBOARD-MOUNTING-PLATE-INFLATABLE-BOATS-/281484295621?hash=item4189c57dc5:g:b0sAAOSw8cNUMnct
p111
aVhttp://www.ebay.com/itm/LOWRANCE-Transom-mount-skimmer-depth-Transducer-X4-3x-HST-WSU-83-200-kHz-/161456127332?epid=1205218468&hash=item259788fd64:g:oKEAAOSwofxUis9B
p112
aVhttp://www.ebay.com/itm/LOWRANCE-DSI-Transom-mount-transducer-455-800-kHz-Hook-Elite-4-5-DSI-/151442481552?epid=1625418437&hash=item2342ace190:g:uhAAAOSwEK9UJVHv
p113
aVhttp://www.ebay.com/itm/LOWRANCE-LSS-2-Structure-Scan-HD-Skimmer-Transom-Mount-Transducer-Touch-/181538041089?epid=1811716545&hash=item2a4482ad01:g:IDUAAOxygj5Sjlme
p114
aVhttp://www.ebay.com/itm/LOWRANCE-Stainless-Transom-Bracket-for-StructureScan-LSS-HD-Transducer-/181530471654?epid=1072654754&hash=item2a440f2ce6:g:YWwAAOSwVFlUGfWF
p115
aVhttp://www.ebay.com/itm/Lowrance-HS-WS-SS-Stainless-Transom-Mount-Bracket-for-192-83-200kHz-Transducers-/181521666691?epid=1525387545&hash=item2a4388d283:g:FN4AAOSwVFlUDxyQ
p116
aVhttp://www.ebay.com/itm/LOWRANCE-Airmar-P66-Transom-mounted-Transducer-Blue-plug-50-200-kHz-/151404782526?epid=1730698461&hash=item23406da3be:g:CfUAAOSwxH1UDM04
p117
aVhttp://www.ebay.com/itm/TRANSOM-DRAIN-PLUGS-x-2-GP14-Enterprise-Solo-Wayfarer-Merlin-etc-free-post-/171427716714?var=&hash=item27e9e35e6a:m:mq_QtfZU0dRPT6Ruc4LccLA
p118
aVhttp://www.ebay.com/itm/Aluminium-Outboard-Transom-Pad-With-Retaining-Eye-305-x-95mm-/141353566523?epid=862358860&hash=item20e954413b:m:mnbZCmUwvS6ArfOgdN5Zshg
p119
aVhttp://www.ebay.com/itm/British-Seagull-Century-Lock-Bar-and-Pin-Transom-Locking-Bar-Security-Bar-/271549659367?hash=item3f399ef8e7:g:3zkAAOxy4dNS0sn7
p120
aVhttp://www.ebay.com/itm/Aluminium-Outboard-Transom-Steering-Through-Tube-Kit-for-RIBs-Inflatable-Boats-/141322065868?epid=628621832&hash=item20e77397cc:g:gccAAOSwcnpToFmm
p121
aVhttp://www.ebay.com/itm/PLASTIC-OUTBOARD-ENGINE-TRANSOM-PAD-PROTECTIVE-BOARD-BOATS-RIBS-/221452241580?hash=item338f950aac:g:qgMAAOxy3cJTiG91
p122
aVhttp://www.ebay.com/itm/Lalizas-Plastic-Outboard-Transom-Pad-320mm-x-220mm-/261487007502?epid=1155053686&hash=item3ce1d7170e:g:g2QAAOxyrjZRvxC-
p123
aVhttp://www.ebay.com/itm/LOWRANCE-Transom-mount-skimmer-depth-Transducer-HST-WSBL-Blue-plug-83-200kHz-/151306780727?epid=1304155458&hash=item233a964037:g:foEAAOxydUJTPCia
p124
aVhttp://www.ebay.com/itm/LOWRANCE-HDI-Transom-mount-transducer-83-200-455-800-kHz-For-Elite-and-HDS-/161309557056?epid=1425372413&hash=item258ecc8140:g:9XcAAOxyTjNSjk7d
p125
aVhttp://www.ebay.com/itm/Large-transom-pad-made-from-white-plastic-Size-is-420mm-x-340mm-/271471525830?epid=1227677488&hash=item3f34f6bfc6:g:1nMAAOxyHIlTYO6T
p126
aVhttp://www.ebay.com/itm/LOWRANCE-Transom-mount-Skimmer-Transducer-Blue-plug-HST-DFSBL-50-200-kHz-/161266343908?hash=item258c391fe4:g:IKkAAOxy039TPCrY
p127
aVhttp://www.ebay.com/itm/Raymarine-ST30-40-60-70-Transom-Speed-Temp-Transducer-/310841697346?hash=item485f9be442:g:h8wAAMXQC-tTEyO6
p128
aVhttp://www.ebay.com/itm/LOWRANCE-Elite-4-HDI-Transom-mount-transducer-50-200-455-800-kHz-Deep-/161195572404?epid=1225390187&hash=item2588013cb4:g:bIAAAOxy3zNSpg2~
p129
aVhttp://www.ebay.com/itm/LOWRANCE-Elite-4x-HDI-Transom-mount-transducer-83-200-455-800-kHz-/151208042523?epid=1425372413&hash=item2334b3a01b:g:9XcAAOxyTjNSjk7d
p130
aVhttp://www.ebay.com/itm/LOWRANCE-Hook-Elite-HDS-HDI-Transom-mount-transducer-83-200-455-800-kHz-/151208041679?epid=1425372413&hash=item2334b39ccf:g:9XcAAOxyTjNSjk7d
p131
aVhttp://www.ebay.com/itm/MerCruiser-Transom-seal-Alpha-One-Gen-2-Bravo-1-2-3-Quicksilver-43713-/161194036181?epid=650940159&hash=item2587e9cbd5:g:5EEAAOxyUrZSx-66
p132
aVhttp://www.ebay.com/itm/Genuine-YAMAHA-Transom-Bracket-Anode-F100B-F115A-F150A-4-STROKE-6G5-45251-02-/161187941023?epid=1423570224&hash=item25878cca9f:g:dIYAAOxy63FSxH7K
p133
aVhttp://www.ebay.com/itm/Genuine-Yamaha-Transom-Bracket-Anode-25-100-HP-6H1-45251-03-/161187937596?epid=1323562301&hash=item25878cbd3c:g:U4QAAMXQVT9SxH1d
p134
aVhttp://www.ebay.com/itm/Dolls-House-Miniature-1-12-Scale-Natural-Wood-Traditional-Transom-Fanlight-Door-/370962958556?epid=1210137564&hash=item565f1d88dc:g:XUAAAOSw8GtZXsH4
p135
aVhttp://www.ebay.com/itm/LOWRANCE-HDI-Transom-mount-transducer-50-200-455-800-kHz-For-Elite-and-HDS-/151185578541?epid=1225390187&hash=item23335cda2d:g:bIAAAOxy3zNSpg2~
p136
aVhttp://www.ebay.com/itm/Lowrance-HST-WSBL-83-200-kHz-Transom-Mount-Skimmer-c-w-Temp-000-0106-72-/231104334187?epid=1923248095&hash=item35cee4496b:g:1BkAAMXQWzNSlcuV
p137
aVhttp://www.ebay.com/itm/Etched-Glass-Style-Fanlight-Transom-House-Numbers-Front-Door-coloured-glass-/151150614820?var=&hash=item2331475924:m:m9kscHH6opY25F9b9SouvHQ
p138
aVhttp://www.ebay.com/itm/Etched-glass-style-Fanlight-Transom-House-Numbers-for-Victorian-Front-Door-/151149749348?var=&hash=item23313a2464:m:mIidqhBMUDBK2cNE0jecpUQ
p139
aVhttp://www.ebay.com/itm/Water-Pick-Up-Hose-all-Mercruiser-Bravo-Drives-Transom-Replaces-32-43437-/181210853766?epid=649888844&hash=item2a31023186:g:Ao0AAOxyni9TFN6y&vxp=mtr
p140
aVhttp://www.ebay.com/itm/British-Seagull-Model-40-Transom-Bracket-Tie-Bar-/271257513032?epid=1252671436&hash=item3f28352c48:g:OsoAAOSw3KFWg6tL&vxp=mtr
p141
aVhttp://www.ebay.com/itm/British-Seagull-Century-Lock-Bar-Clip-Transom-Hairpin-Clip-/281148568951?hash=item4175c2b577:g:imMAAOSw14xWLkOM&vxp=mtr
p142
aVhttp://www.ebay.com/itm/Raymarine-a-c-e-series-MFD-Transom-Depth-Transducer-P48-A102140-A80150-/390615210160?epid=1845003425&hash=item5af27b18b0:g:JF4AAOxyBC1R~l0~
p143
aVhttp://www.ebay.com/itm/Lalizas-Plastic-Outboard-Transom-Pad-230mm-x-86mm-/140988178300?epid=1445585111&hash=item20d38cdf7c:g:Ll8AAOxy--NRqHIZ
p144
aVhttp://www.ebay.com/itm/Aluminium-Outboard-Transom-Pad-With-Retaining-Eye-200mm-/140981473210?epid=1488354168&hash=item20d3268fba:g:0fQAAOxywh1TD0L0
p145
aVhttp://www.ebay.com/itm/Raymarine-A-Series-Transom-Depth-Transducer-P58-A102138-/390590278933?epid=1004500735&hash=item5af0fead15:m:m46fNmxNNjBovGN9sbBcqXA
p146
aVhttp://www.ebay.com/itm/Lowrance-HS-WS-SS-Stainless-Transom-Mount-Bracket-for-192-83-200kHz-Transducers-/330893181972?hash=item4d0ac54414:m:mc6YqMwC2vgkUW3-2E3piLw
p147
aVhttp://www.ebay.com/itm/BISON-MARINE-TRANSOM-CLAMP-FOR-DOWNRIGGER-TABLES-ETC-/330865549311?hash=item4d091f9fff:g:~nkAAOSw~XpZO6KS
p148
aVhttp://www.ebay.com/itm/Navman-Northstar-4500-6500-M121-M84-Fish-Finder-Transom-Mount-Transducer-/230887220701?hash=item35c1f365dd:g:pKgAAMXQC-tTAwrR
p149
aVhttp://www.ebay.com/itm/Navman-Northstar-4150-4431-4433-4380-443-438-LT8-Depth-Transom-Mount-Transducer-/230887220619?hash=item35c1f3658b:g:KPgAAMXQVT9S~~PV
p150
aVhttp://www.ebay.com/itm/1x-4-2-Transom-for-Kwikstage-Scaffolding-Self-Build-Tower-Used-kwik-stage-cup-/251143671932?epid=1088257448&hash=item3a7954507c:m:mEsNySBxdaR_W2vjQcng4iA
p151
aVhttp://www.ebay.com/itm/Gold-Leaf-Fanlight-Transom-House-Numbers-for-Victorian-Front-Door-Fanlights-/220951147102?var=&hash=item3371b6f25e:m:mlSRHj0cMdCDcd0a-bx0h3g
p152
aVhttp://www.ebay.com/itm/Raymarine-ST60-Transom-Depth-Transducer-P66-E26027-E26027-PZ-/390350839686?epid=1058732594&hash=item5ae2b91f86:m:mkRbwUnt-mvA0CAiB-TKTQQ
p153
a.