(lp1
Vhttp://www.ebay.com/itm/US-NATURE-2013-4736-SPICEBUSH-SWALLOWTAIL-BUTTERFLY-66c-MINT-NH-VF-SINGLE-STAMP-/263103572134?hash=item3d4231e8a6:g:49wAAOSw3YJZSxgN
p2
aVhttp://www.ebay.com/itm/US-4736a-Spicebush-Swallowtail-66c-imperf-NDC-plate-block-MNH-2013-/362025393945?hash=item544a651f19:g:cQ8AAOxyBjBTTD7C
p3
aVhttp://www.ebay.com/itm/US-4736a-Spicebush-Swallowtail-66c-imperf-NDC-single-MNH-2013-/362025393957?epid=550030131&hash=item544a651f25:g:eAUAAOSwpDdU9Qj2
p4
aVhttp://www.ebay.com/itm/US-4736-Spicebush-Swallowtail-66c-header-strip-4-MNH-2013-/132244927947?epid=550030131&hash=item1eca6975cb:g:VakAAMXQhpdRrXnf
p5
aVhttp://www.ebay.com/itm/US-4736-Spicebush-Swallowtail-66c-single-MNH-2013-/362021967148?epid=550030131&hash=item544a30d52c:g:n8MAAMXQBNlRgMMP
p6
aVhttp://www.ebay.com/itm/WINTER-SWEET-Chimonanthus-praecox-WINTER-FLOWERING-SHRUB-FREE-GROWING-KIT-/181278581050?hash=item2a350ba13a:g:-xcAAOxydlFS9qy0
p7
aVhttp://www.ebay.com/itm/BSN-NO-XPLODE-XE-EDGE-263g-POWERFUL-PRE-WORKOUT-ENERGY-25-SERVINGS-/263045831389?var=&epid=1969947189&hash=item3d3ec0dadd:m:mNimDI4mFHrxT_QMOF8KerA
p8
aVhttp://www.ebay.com/itm/WINTER-SWEET-Chimonanthus-praecox-samling-HOCHGRADIG-PARFUMIERT-BLUMEN-BUSCH-/182026235504?hash=item2a619bee70:g:-xcAAOxydlFS9qy0
p9
aVhttp://www.ebay.com/itm/Chimonanthus-WINTER-SWEET-PARFUMIERT-Pflanzen-in-einem-8cm-topf-GRATIS-/181772616337?hash=item2a527e0291:g:b5EAAOxyrrpTgjuI
p10
aVhttp://www.ebay.com/itm/Chimonanthus-WINTER-SWEET-SCENTED-PLANT-in-a-8cm-pot-FREE-GROWING-KIT-/181231140156?epid=1231197286&hash=item2a3237bd3c:g:b5EAAOxyrrpTgjuI
p11
aVhttp://www.ebay.com/itm/BSN-N-O-XPLODE-XE-EDGE-Pre-Workout-25-Servings-No-Explode-XE-Energy-Focus-Pump-/162560455064?var=&hash=item25d95bb198:m:m_j8H5349Lw_nVOe9X6PutQ
p12
aVhttp://www.ebay.com/itm/O-TWO-O-Naked4-Foundation-Whitening-Moisturizer-Waterproof-Liquid-Natural-Beige-/192157245533?hash=item2cbd76e05d:g:~ZcAAOSwTM5Y71~u
p13
aVhttp://www.ebay.com/itm/US-NATURE-2013-4736-SPICEBUSH-SWALLOWTAIL-BUTTERFLY-66c-MINT-NH-VF-SINGLE-STAMP-/263103572134?hash=item3d4231e8a6:g:49wAAOSw3YJZSxgN
p14
aVhttp://www.ebay.com/itm/US-4736a-Spicebush-Swallowtail-66c-imperf-NDC-plate-block-MNH-2013-/362025393945?hash=item544a651f19:g:cQ8AAOxyBjBTTD7C
p15
aVhttp://www.ebay.com/itm/US-4736a-Spicebush-Swallowtail-66c-imperf-NDC-single-MNH-2013-/362025393957?epid=550030131&hash=item544a651f25:g:eAUAAOSwpDdU9Qj2
p16
aVhttp://www.ebay.com/itm/US-4736-Spicebush-Swallowtail-66c-header-strip-4-MNH-2013-/132244927947?epid=550030131&hash=item1eca6975cb:g:VakAAMXQhpdRrXnf
p17
aVhttp://www.ebay.com/itm/US-4736-Spicebush-Swallowtail-66c-single-MNH-2013-/362021967148?epid=550030131&hash=item544a30d52c:g:n8MAAMXQBNlRgMMP
p18
aVhttp://www.ebay.com/itm/WINTER-SWEET-Chimonanthus-praecox-WINTER-FLOWERING-SHRUB-FREE-GROWING-KIT-/181278581050?hash=item2a350ba13a:g:-xcAAOxydlFS9qy0
p19
aVhttp://www.ebay.com/itm/BSN-NO-XPLODE-XE-EDGE-263g-POWERFUL-PRE-WORKOUT-ENERGY-25-SERVINGS-/263045831389?var=&epid=1969947189&hash=item3d3ec0dadd:m:mNimDI4mFHrxT_QMOF8KerA
p20
aVhttp://www.ebay.com/itm/WINTER-SWEET-Chimonanthus-praecox-samling-HOCHGRADIG-PARFUMIERT-BLUMEN-BUSCH-/182026235504?hash=item2a619bee70:g:-xcAAOxydlFS9qy0
p21
aVhttp://www.ebay.com/itm/Chimonanthus-WINTER-SWEET-PARFUMIERT-Pflanzen-in-einem-8cm-topf-GRATIS-/181772616337?hash=item2a527e0291:g:b5EAAOxyrrpTgjuI
p22
aVhttp://www.ebay.com/itm/BSN-N-O-XPLODE-XE-EDGE-Pre-Workout-25-Servings-No-Explode-XE-Energy-Focus-Pump-/162560455064?var=&hash=item25d95bb198:m:m_j8H5349Lw_nVOe9X6PutQ
p23
aVhttp://www.ebay.com/itm/O-TWO-O-Naked4-Foundation-Whitening-Moisturizer-Waterproof-Liquid-Natural-Beige-/192157245533?hash=item2cbd76e05d:g:~ZcAAOSwTM5Y71~u
p24
aVhttp://www.ebay.com/itm/BSN-N-O-NO-XPLODE-XE-EDGE-XTREME-ENERGY-Pre-Workout-Focus-Pump-25-serv-263g-/112096792973?var=&hash=item1a197d518d:m:m9fQlj45pDCPWJnJxBncidQ
p25
aVhttp://www.ebay.com/itm/US-NATURE-2013-4736-SPICEBUSH-SWALLOWTAIL-BUTTERFLY-66c-MINT-NH-VF-SINGLE-STAMP-/263103572134?hash=item3d4231e8a6:g:49wAAOSw3YJZSxgN
p26
aVhttp://www.ebay.com/itm/US-4736a-Spicebush-Swallowtail-66c-imperf-NDC-plate-block-MNH-2013-/362025393945?hash=item544a651f19:g:cQ8AAOxyBjBTTD7C
p27
aVhttp://www.ebay.com/itm/US-4736a-Spicebush-Swallowtail-66c-imperf-NDC-single-MNH-2013-/362025393957?epid=550030131&hash=item544a651f25:g:eAUAAOSwpDdU9Qj2
p28
aVhttp://www.ebay.com/itm/US-4736-Spicebush-Swallowtail-66c-header-strip-4-MNH-2013-/132244927947?epid=550030131&hash=item1eca6975cb:g:VakAAMXQhpdRrXnf
p29
aVhttp://www.ebay.com/itm/US-4736-Spicebush-Swallowtail-66c-single-MNH-2013-/362021967148?epid=550030131&hash=item544a30d52c:g:n8MAAMXQBNlRgMMP
p30
aVhttp://www.ebay.com/itm/WINTER-SWEET-Chimonanthus-praecox-WINTER-FLOWERING-SHRUB-FREE-GROWING-KIT-/181278581050?hash=item2a350ba13a:g:-xcAAOxydlFS9qy0
p31
aVhttp://www.ebay.com/itm/BSN-NO-XPLODE-XE-EDGE-263g-POWERFUL-PRE-WORKOUT-ENERGY-25-SERVINGS-/263045831389?var=&epid=1969947189&hash=item3d3ec0dadd:m:mNimDI4mFHrxT_QMOF8KerA
p32
aVhttp://www.ebay.com/itm/WINTER-SWEET-Chimonanthus-praecox-samling-HOCHGRADIG-PARFUMIERT-BLUMEN-BUSCH-/182026235504?hash=item2a619bee70:g:-xcAAOxydlFS9qy0
p33
aVhttp://www.ebay.com/itm/Chimonanthus-WINTER-SWEET-PARFUMIERT-Pflanzen-in-einem-8cm-topf-GRATIS-/181772616337?hash=item2a527e0291:g:b5EAAOxyrrpTgjuI
p34
aVhttp://www.ebay.com/itm/BSN-N-O-XPLODE-XE-EDGE-Pre-Workout-25-Servings-No-Explode-XE-Energy-Focus-Pump-/162560455064?var=&hash=item25d95bb198:m:m_j8H5349Lw_nVOe9X6PutQ
p35
aVhttp://www.ebay.com/itm/O-TWO-O-Naked4-Foundation-Whitening-Moisturizer-Waterproof-Liquid-Natural-Beige-/192157245533?hash=item2cbd76e05d:g:~ZcAAOSwTM5Y71~u
p36
aVhttp://www.ebay.com/itm/BSN-N-O-NO-XPLODE-XE-EDGE-XTREME-ENERGY-Pre-Workout-Focus-Pump-25-serv-263g-/112096792973?var=&hash=item1a197d518d:m:m9fQlj45pDCPWJnJxBncidQ
p37
a.