(lp0
Vhttp://www.ebay.com/itm/Art-of-Yiddish-Song-The-Abelson-Frieder-Orbach-CD-NEW-/281872414563?epid=114579724&hash=item41a0e7b763:g:pCMAAOSwqu9U983g
p1
aVhttp://www.ebay.com/itm/Neurotrauma-Managing-Patients-with-Head-Injury-by-Nadine-Abelson-Mitchell-/331684666379?epid=139715575&hash=item4d39f25c0b:g:85sAAOSwiYFXFQ4n
p2
aVhttp://www.ebay.com/itm/Structure-and-Interpretation-of-Computer-Programs-by-Abelson-Harold-/310875697475?epid=88542637&hash=item4861a2b143:g:SOMAAOSwyZ5UmFaF
p3
aVhttp://www.ebay.com/itm/Resolving-Plantar-Fasciitis-Roadmap-to-Success-Abelson-Rowan-Tree-9780973384888-/172147429607?epid=212891508&hash=item2814c950e7:g:ArcAAOSwGYVW9li~
p4
a.