(lp1
Vhttp://www.ebay.com/itm/MENS-MIYAZAKI-KUSALA-SILVER-CHOOSE-GRAM-X-STIFF-DRIVER-WOOD-SHAFT-335-TIP-8755-/131620897552?var=&hash=item1ea5378310:m:m-jbzE7jNg11mClbsV2D0BA
p2
aVhttp://www.ebay.com/itm/MENS-MIYAZAKI-JDL-DRIVER-WOOD-SHAFT-335-TIP-GOLF-SHAFT-CHOOSE-FLEX-R-S-XS-/141793639262?var=&hash=item21038f3b5e:m:mkhq98aeoHOWhvDdweEtpNw
p3
aVhttp://www.ebay.com/itm/New-2016-TaylorMade-PSi-A-Wedge-KBS-Tour-C-Taper-105-Stiff-Flex-Steel-Shaft-/262955852257?epid=814640487&hash=item3d3963e1e1:g:l~wAAOSww9xZAeMs
p4
aVhttp://www.ebay.com/itm/NEW-MATRIX-RADIX-SV-DRIVER-SHAFT-CHOOSE-FLEX-REGULAR-SENIOR-STIFF-350-TIP-/141796990060?var=&hash=item2103c25c6c:m:m0nSlxwUsIlda-ugbM0vbwA
p5
aVhttp://www.ebay.com/itm/Mitsubishi-Rayon-FUBUKI-shaft-X-Stiff-Raw-uncut-Grips-and-Tips-available-/332271525885?hash=item4d5ced1ffd:g:DUwAAOSwX61ZDGHP
p6
aVhttp://www.ebay.com/itm/New-Wilson-WS-FG-Tour-F5-Fw-MRH-15dg-3-Wood-Stiff-Graphite-Shaft-/282486707042?epid=2087044829&hash=item41c5851362:g:RmYAAOSwIQdZIFmO
p7
aVhttp://www.ebay.com/itm/NEW-MENS-GOLF-SHAFT-ALDILA-NVS-75-STIFF-FLEX-350-TIP-UNCUT-DRIVER-WOOD-/172279443151?hash=item281ca7aecf:g:9wkAAOSwIgNXkAqz
p8
aVhttp://www.ebay.com/itm/NEW-MENS-MITSUBISHI-RAYON-BASSARA-E45-X5CT-WOOD-SHAFT-CHOOSE-FLEX-350-TIP-/142012499131?var=&hash=item21109ac4bb:m:mXntlNz5oRq7qjH2dhAGO0A
p9
a.