(lp1
Vhttp://www.ebay.com/itm/CB-RADIO-Magnum-Omega-Force-S45-High-Power-10m-Transceiver-AM-FM-USB-LSB-/152445982339?epid=578527568&hash=item237e7d1683:g:O40AAOSwfVpYrY8m
p2
aVhttp://www.ebay.com/itm/Elecraft-KX2-Transceiver-/162134526218?hash=item25bff8890a:g:zjEAAOSwRgJXhVSW
p3
aVhttp://www.ebay.com/itm/AnyTone-AT-588-66-88-MHz-70-MHz-FM-transceiver-50w-4m-Ham-Radio-FREE-PROGRAMMING-/362007634045?epid=725075822&hash=item544956207d:g:H40AAOSwCQZZIv69
p4
aVhttp://www.ebay.com/itm/Handheld-Radio-Scanner-2-Way-Digital-Transceiver-Police-HAM-VHF-Antenna-New-Gift-/282467658929?hash=item41c4626cb1:g:O4cAAOSw~y9ZEKbh
p5
aVhttp://www.ebay.com/itm/TYT-TH-7800-Dual-band-Car-Radio-VHF-UHF-50W-809CH-CTCSS-DCS-Mobile-Transceiver-/401038830850?hash=item5d5fc6ed02:g:0VsAAOSwaB5XiKnl
p6
aVhttp://www.ebay.com/itm/DIY-DC9-13-8V-CW-QRP-Shortwave-Radio-Transceiver-Kit-7-023Mhz-Case-NEW-2017-UK-/112474084038?hash=item1a2ffa52c6:g:qGYAAOSw~AVYndZg
p7
aVhttp://www.ebay.com/itm/QYT-KT-8900-Mini-136-174-400-480MHz-Dual-Band-FM-Car-Radio-25W-200CH-Transceiver-/162535609969?hash=item25d7e09671:g:GQsAAOSw-0xYTlVf
p8
aVhttp://www.ebay.com/itm/Leixen-VV-898-UHF-VHF-Dual-Band-2m-70cm-Mobile-Amateur-Taxi-Radio-Transceiver-/321920097634?epid=903021096&hash=item4af3eedd62:g:b1oAAOSwEgVWRKpC
p9
aVhttp://www.ebay.com/itm/IC-7300-TRANSCEIVER-FROM-ICOM-TOP-UK-SELLER-/152167306989?epid=25003545507&hash=item236de0d6ed:g:vmUAAOSww9VXh60e
p10
aVhttp://www.ebay.com/itm/ALINCO-DR-135DX-UK-CRE-8900-10M-11M-CB-RADIO-DR135-PROGRAMMED-CABLE-SOFTWARE-/162553392997?epid=1723881221&hash=item25d8efef65:g:PkoAAOSwo8hTp2fu
p11
aVhttp://www.ebay.com/itm/Amateur-Radio-World-Prefix-Map-DXCC-/272729355319?hash=item3f7fefb437:g:HqsAAOSw-itXtE~l
p12
aVhttp://www.ebay.com/itm/Hybrid-Transceiver-Alinco-DX-SR9E-HF-/351123615537?epid=1681497694&hash=item51c0992f31:g:tbEAAOSwgmJXz9vE
p13
aVhttp://www.ebay.com/itm/Baofeng-GT-3-Mark-IV-DMR-VHF-UHF-5W-Walkie-Talkie-Dual-Digital-ham-Two-way-Radio-/192217081762?epid=22003269472&hash=item2cc107e7a2:g:wocAAOSwMvtZQSGr
p14
aVhttp://www.ebay.com/itm/Yaesu-Fully-Isolated-USB-Digimode-Interface-PSK31-SSTV-Echolink-and-more-/371692569307?epid=1179089994&hash=item568a9a82db:g:W4AAAOSwRgJXjp5U
p15
aVhttp://www.ebay.com/itm/Handheld-Transceiver-Yaesu-VX-3E-Dual-Band-/121441007295?hash=item1c4672b6bf:g:nL8AAOSwMgdXyVvf
p16
aVhttp://www.ebay.com/itm/M0AQC-PSK31-Digitalmode-Interface-to-suit-most-radios-/122566440107?hash=item1c898774ab:g:YhcAAOSw241YXPBY
p17
aVhttp://www.ebay.com/itm/SDR-Apache-ANAN-100E-HF-6m-100W-Transceiver-/152422028210?hash=item237d0f93b2:g:I~YAAOSw4DJYlF4d
p18
aVhttp://www.ebay.com/itm/UHF-MOBILE-RADIO-PROFESSIONAL-HAM-PMR-CRT-7M-UHF-RX-TX-400-470-MHz-/162248635697?hash=item25c6c5b531:g:AsUAAOSw2XFUiw0B
p19
aVhttp://www.ebay.com/itm/YAESU-FT-252-144MHz-5WATT-HANDHELD-TRANSCEIVER-/111176483915?hash=item19e2a2844b:g:FUYAAOSwNSxVQ1BV
p20
aVhttp://www.ebay.com/itm/Handheld-Transceiver-Intek-KT-980HP-Dual-Band-High-Power-/121467936796?hash=item1c480da01c:g:CtEAAOSwFdtXyVTz
p21
aVhttp://www.ebay.com/itm/CRE8900-10M-11M-MULTIMODE-AM-FM-USB-LSB-CW-MULTICOLOR-DISPLAY-NO-USBCABLE-DIN-PP-/302255444552?epid=1123188909&hash=item465fd41248:g:z0MAAOSw3ydVjWrQ
p22
aVhttp://www.ebay.com/itm/President-Grant-II-2-AM-FM-SSB-CB-Radio-Transceiver-/162552526497?epid=1123181897&hash=item25d8e2b6a1:g:kYYAAOSw03lY7kwQ
p23
aVhttp://www.ebay.com/itm/2016-HackRF-One-1-MHz-to-6-GHz-SDR-Platform-Software-Defined-Radio-Black-In-UK-/232400530757?hash=item361c26ad45:g:U58AAOSwEUVZX1l5
p24
aVhttp://www.ebay.com/itm/Yaesu-FT-950-Panadaptor-Spectrum-Display-RTL-SDR-HD-SDR-/122113895380?hash=item1c6e8e2bd4:g:69IAAOSwpDdVTObp
p25
aVhttp://www.ebay.com/itm/Handheld-Radio-Scanner-2-Way-Digital-Transceiver-Police-HAM-VHF-Antenna-New-/232274513415?hash=item3614a3ce07:g:B4EAAOSwdGFYzFfK
p26
aVhttp://www.ebay.com/itm/Yaesu-FTM-3100R-E-FM-144MHz-65W-Mobile-Transceiver-/302121856307?hash=item4657ddad33:g:dFsAAOSwn7JYE39V
p27
aVhttp://www.ebay.com/itm/CRT-SS9900-10m-Multimode-AM-FM-SSB-AT6666-SS-9900-Superstar-9900-IN-STOCK-/231292188350?hash=item35da16b6be:g:KigAAOSwVFlT09Bq
p28
aVhttp://www.ebay.com/itm/Yaesu-FT-2000-Panadaptor-Spectrum-Display-RTL-SDR-HD-SDR-/122113927728?hash=item1c6e8eaa30:g:l~wAAOSwRLZT-uxO
p29
aVhttp://www.ebay.com/itm/CRT2000-Multistandard-AM-FM-CB-Radio-Moonraker-Mini-CB-Antenna-27MHz-with-Coax-/302306274387?epid=2110438741&hash=item4662dbac53:g:zioAAOSw~e5ZVYeR
p30
aVhttp://www.ebay.com/itm/Icom-Fully-Isolated-USB-Digimode-Interface-PSK31-SSTV-Echolink-and-more-/262534360193?epid=1278434600&hash=item3d20446c81:g:W4AAAOSwRgJXjp5U
p31
aVhttp://www.ebay.com/itm/ICOM-IC-718-Amateur-Radio-Transceiver-All-Band-Multi-Mode-HF-30MHz-100w-Accs-/221669109797?epid=1682560130&hash=item339c823025:g:05wAAOSwxYxUwDFj
p32
aVhttp://www.ebay.com/itm/CB-RADIO-SUPERSTAR-CRT-3900-EL-AM-FM-LSB-USB-SSB-CW-EXPORT-25-610-28-310-MHz-/122330305980?hash=item1c7b7455bc:g:hswAAOSwImRYjTDO
p33
aVhttp://www.ebay.com/itm/Sigma-Eurocom-SE-HF-360-Fibre-Glass-Vertical-Antenna-Ham-Amateur-Radio-Aerial-/151806997747?epid=781579196&hash=item235866f4f3:g:Yl0AAOxycmBSxpmf
p34
aVhttp://www.ebay.com/itm/DP446-PMR446-446MHz-Base-Station-Antenna-Aerial-/391478503816?epid=1776852761&hash=item5b25efe988:g:Kh0AAOxyg7xSZ5-J
p35
aVhttp://www.ebay.com/itm/President-Randy-II-2-Handheld-CB-Radio-European-UK40-AM-FM-/291274235044?hash=item43d14c1ca4:g:zHwAAOxy4fVS~OM0
p36
aVhttp://www.ebay.com/itm/YAESU-VX-8DE-50-144-430MHz-5-WATT-TRIBAND-HANDHELD-BRAND-NEW-LATEST-VERSION-/122210381467?hash=item1c744e6e9b:g:npcAAOSwDk5UGqBb
p37
aVhttp://www.ebay.com/itm/President-Lincoln-II-PLUS-AM-FM-USB-LSB-MULTIMODE-RADIO-/192219296492?hash=item2cc129b2ec:g:x~YAAOSw6DtYT8xi
p38
aVhttp://www.ebay.com/itm/CRT-SS-6900-N-V-6-MOBILE-10-11-METRE-TRANSCEIVER-/192135916159?hash=item2cbc316a7f:g:LIYAAOSwhQhY0ScI
p39
aVhttp://www.ebay.com/itm/Kenwood-USB-CAT-Digimode-PSK-and-Echolink-Interface-TS-2000-TS-570-TS-590-/262487000117?hash=item3d1d71c435:g:V2MAAMXQpPhTkjZA
p40
aVhttp://www.ebay.com/itm/Handheld-Transceiver-Yaesu-VX-8DE-TRI-BAND-/121440995055?epid=1881418466&hash=item1c467286ef:g:Kj4AAOSw9IpXz90Z
p41
aVhttp://www.ebay.com/itm/CLANSMAN-RACAL-PLESSEY-MILITARY-PRC349-WORKING-SET-/311522979807?epid=1388181976&hash=item4888376fdf:m:mYSRJXvxauj7oFQl7bit67g
p42
aVhttp://www.ebay.com/itm/Yaesu-SCU-17-USB-interface-unit-SOUNDCARD-INTERFACE-WITH-DRIVER-DOWNLOAD-/112359758147?hash=item1a2929d943:g:6MAAAOSwKtVW1Ymh
p43
aVhttp://www.ebay.com/itm/QYT-KT8900D-144-432-Mhz-mobile-quad-display-UK-Supplier-25w-20w-high-10w-low-/192225184566?hash=item2cc1838b36:g:UvgAAOSwCEdYT-I~
p44
aVhttp://www.ebay.com/itm/Yaesu-FT-817ND-1-8-430MHz-5-Watts-All-Mode-Portable-Transceiver-/182313772559?hash=item2a72bf660f:g:x80AAOSw-CpYANPf
p45
aVhttp://www.ebay.com/itm/CB-RADIO-PRESIDENT-LINCOLN-II-V3-ASC-28-29-7-AM-FM-LSB-USB-CW-10M-11M-/152394681347?hash=item237b6e4c03:g:220AAOSw241YeMsT
p46
aVhttp://www.ebay.com/itm/Portable-Transceiver-Yaesu-FT-817ND-HF-VHF-UHF-/301320043907?hash=item462812fd83:g:Go4AAOSwdIFXyCyn
p47
aVhttp://www.ebay.com/itm/Doublet-Antenna-Hf-Antenna-Atu-Long-Wire-Antenna-Dipole-Antenna-300-Ohm-Ribbon-/322402789514?hash=item4b10b4288a:g:0ogAAOSw44BYSCU2
p48
aVhttp://www.ebay.com/itm/All-Mode-Transceiver-Yaesu-FT-857D-FREE-Remote-Head-Kit-/301320069296?hash=item46281360b0:g:dIcAAOSwdIFXz9zw
p49
aVhttp://www.ebay.com/itm/CRE8900-FACTORY-STANDARD-AM-FM-USB-LSB-CW-MULTICOLOR-DISPLAY-NO-USB-CABLE-DIN-/132129401477?epid=1123188909&hash=item1ec386aa85:g:dfAAAOSwu4BVo7jy
p50
aVhttp://www.ebay.com/itm/CRT2000-Multistandard-AM-FM-CB-Radio-with-Colour-Display-CRT-2000-UK-EU-mobile-/132131914167?epid=2110438741&hash=item1ec3ad01b7:g:VEcAAOSwB-1YzwWS
p51
aVhttp://www.ebay.com/itm/YAESU-FT-7900E-Dual-Band-Transceiver-/152448978041?hash=item237eaacc79:g:idUAAOSw4CFYsJuX
p52
aVhttp://www.ebay.com/itm/MOTOROLA-GM340-VHF-136-174-Mhz-TAXI-MOBILE-TWO-WAY-RADIOS-x-2-/322012990543?hash=item4af9784c4f:g:qrQAAOSwdzVXvb7a
p53
aVhttp://www.ebay.com/itm/Kenwood-USB-CAT-Digimode-PSK-and-Echolink-Interface-includes-full-CAT-control-/371290009457?hash=item56729bef71:g:V2MAAMXQpPhTkjZA
p54
aVhttp://www.ebay.com/itm/Anti-radiation-handsfree-mobile-phone-walkie-talkie-transceiver-for-iPhone-ipad-/281039688442?epid=1475142996&hash=item416f4552fa:g:x7kAAOxyV85RzCtu
p55
aVhttp://www.ebay.com/itm/Handheld-Transceiver-Kenwood-TH-K40E-70cm-FM-5-Watt-/301985291009?hash=item464fb9db01:g:k-oAAOSwvzRXyVZy
p56
aVhttp://www.ebay.com/itm/SELEX-PRR-Radio-PRR-Wireless-Intercom-P21030500-/322486101393?hash=item4b15ab6591:g:GiQAAOSwN6JY9LJC
p57
aVhttp://www.ebay.com/itm/CRT-SS6900N-Latest-version-6-10m-Multimode-AM-FM-SSB-SS-6900-Superstar-6900-/271810166305?epid=1023165826&hash=item3f4925fe21:g:jTkAAOSweW5VCYzk
p58
aVhttp://www.ebay.com/itm/HOXIN-AV-908-DESKTOP-COMPRESSOR-MICROPHONE-ADONIS-AM-708E-MFJ-299-/302179476270?hash=item465b4ce32e:g:SqsAAOSw1vlUwJb1
p59
aVhttp://www.ebay.com/itm/Nuovo-TYT-TH-7800-VHF-UHF-50W-809CH-CTCSS-Two-Way-Car-Mobile-Radio-Cable-CD-/401038836540?hash=item5d5fc7033c:g:KX4AAOSwGtNXiKpK
p60
aVhttp://www.ebay.com/itm/4-PIN-ICOM-KENWOOD-YAESU-DC-POWER-LEAD-SPECIAL-OFFER-/162583806762?hash=item25dac0032a:g:kKsAAOSwTM5Yv~xT
p61
aVhttp://www.ebay.com/itm/Handheld-Transceiver-Baofeng-BF-888S-UHF-400-470MHz-/351729853031?hash=item51e4bba267:g:yYEAAOSw8oFXyUoy
p62
aVhttp://www.ebay.com/itm/HackRF-One-/162525113707?hash=item25d7406d6b:g:Ka4AAOSw9OFZIwBu
p63
aVhttp://www.ebay.com/itm/WOUXUN-KG-UV950PL-QUAD-BAND-RADIO-6M-4M-2M-70cms-Full-Duplex-RADIO-/111969367757?hash=item1a11e4f6cd:g:wZEAAOSwoQ1ToUk4
p64
aVhttp://www.ebay.com/itm/Ham-Radio-Essential-CW-Decoder-Reader-Translator-for-Morse-Code-Decoding-/201701045344?hash=item2ef651b460:g:w~wAAOSwYaFWe6AS
p65
aVhttp://www.ebay.com/itm/CLANSMAN-RACAL-PLESSEY-MILITARY-PRC349-WORKING-SET-/310885439866?epid=1724774834&hash=item486237597a:m:mGFX71FzIQ8wEINd2FB5bjg
p66
aVhttp://www.ebay.com/itm/PSK31-Interface-Full-CAT-for-Icom-IC-706-All-versions-/262479953469?epid=1031584890&hash=item3d1d063e3d:g:xeMAAOxyFiRR0L3-
p67
aVhttp://www.ebay.com/itm/150-WATT-DUMMY-LOAD-ZERO-2-5-GHZ-50-OHMS-HF-AND-2-AN-70S-PMR-40DB-TAP-/262021256078?epid=761998353&hash=item3d01af138e:g:XF0AAOSwu4BVxc8i
p68
aVhttp://www.ebay.com/itm/Yaesu-FTM-400DR-de-LAMCO-Barnsley-/122307856790?hash=item1c7a1dc996:g:1cgAAOSwUKxYdlmD
p69
aVhttp://www.ebay.com/itm/YAESU-FT-450D-HF-PLUS-6M-IF-DSP-TRANSCEIVER-ATU-PLUS-HF-GENERAL-COVERAGE-T-X-/111850653534?hash=item1a0ad1875e:g:Q8EAAOSw2s1UrkQ2
p70
aVhttp://www.ebay.com/itm/CRE8900-FACTORY-STANDARD-AM-FM-USB-LSB-CW-MULTICOLOR-DISPLAY-W-USB-CABLE-DIN-/192132507276?epid=1123188909&hash=item2cbbfd668c:g:SVQAAOSw~gRVo7jX
p71
aVhttp://www.ebay.com/itm/CRT2000-Multistandard-AM-FM-CB-Radio-with-Colour-Display-CRT-2000-UK-EU-mobile-/132131914167?epid=2110438741&hash=item1ec3ad01b7:g:VEcAAOSwB-1YzwWS
p72
aVhttp://www.ebay.com/itm/20PCS-Baofeng-BF-888S-Plus-UHF-400-470MHz-Two-Way-FM-Radio-1-x-UV-5R-Cable-UK-/221963159726?hash=item33ae0908ae:g:yGQAAOSwUEVYCcUT
p73
aVhttp://www.ebay.com/itm/Elecraft-KX3-Kit-Form-/182213167129?hash=item2a6cc04819:g:zdYAAOSwqfNXkJTC
p74
aVhttp://www.ebay.com/itm/M0AQC-PSK31-Digimode-interface-to-suit-most-radios-/122562438719?hash=item1c894a663f:g:a7cAAOSwo4pYXPMN
p75
aVhttp://www.ebay.com/itm/20-x-Baofeng-BF-888S-Plus-UHF-400-470MHz-Two-Way-FM-Radio-w-Earpieces-UK-/322457814092?hash=item4b13fbc44c:g:Uv4AAOSw4YdYz7Qt
p76
aVhttp://www.ebay.com/itm/MOTOROLA-GM340-VHF-136-174-Mhz-TAXI-MOBILE-TWO-WAY-RADIOS-x3-/322418246911?hash=item4b11a004ff:g:WEAAAOSwr~lYnFl5
p77
aVhttp://www.ebay.com/itm/MOBILE-RADIO-ALINCO-DR-438-H-MOBILE-TRANSCEIVER-UHF-FM-430-440-MHz-10W-25W-45W-/162293019298?hash=item25c96af2a2:g:8nQAAOSwa~BYNdXS
p78
aVhttp://www.ebay.com/itm/100-Hi-Quality-PCB-Pin-Terminal-Solder-or-Rivit-/140531414185?hash=item20b85334a9:m:mwUsq5KtuEasFicgjo4Ph1A
p79
aVhttp://www.ebay.com/itm/USB-CAT-control-and-Digimode-Interface-PSK31-SSTV-Echolink-and-many-more-/261529968983?hash=item3ce466a157:g:V2MAAMXQpPhTkjZA
p80
a.