(lp1
Vhttp://www.ebay.com/itm/Murder-One-Dual-Stutter-Pedal-Guitar-Killswitch-/331251834092?hash=item4d2025dcec:g:0gIAAOSwzJ5XWnea
p2
aVhttp://www.ebay.com/itm/James-Stutter-James-CD-61VG-The-Cheap-Fast-Free-Post-/302240734936?epid=4063229&hash=item465ef39ed8:g:xOkAAOSwyltZQoSQ
p3
aVhttp://www.ebay.com/itm/Elastica-Stutter-CD-/302205658623?epid=1023185134&hash=item465cdc65ff:g:J~8AAOSw~rpZU~12
p4
aVhttp://www.ebay.com/itm/Fridge-Magnet-Play-Vibrate-While-Pregnant-Stutter-Child-Quote-Saying-Gift-/222261149072?epid=1786928168&hash=item33bfcbfd90:g:LrIAAOSwWdZZZ6uU
p5
aVhttp://www.ebay.com/itm/James-Stutter-2007-New-Sealed-/361516347219?epid=4063229&hash=item542c0daf53:m:mQwDE4OKb790Mlut_vuaGXg
p6
aVhttp://www.ebay.com/itm/Stutter-CD-1991-/381495282281?epid=4063229&hash=item58d2e40a69:g:O30AAOSwjDZYkJuI
p7
aVhttp://www.ebay.com/itm/Joe-Stutter-Single-CD-/400867343467?hash=item5d558e3c6b:g:jrEAAOSwLnlWp1ZL
p8
aVhttp://www.ebay.com/itm/James-Stutter-NEW-CD-/311017039421?epid=4063229&hash=item486a0f663d:g:0bIAAOSwPe1Tym7s
p9
aVhttp://www.ebay.com/itm/Murder-One-Dual-Stutter-Pedal-Guitar-Killswitch-/331251834092?hash=item4d2025dcec:g:0gIAAOSwzJ5XWnea
p10
aVhttp://www.ebay.com/itm/Joe-Stutter-Single-CD-/400867343467?hash=item5d558e3c6b:g:jrEAAOSwLnlWp1ZL
p11
aVhttp://www.ebay.com/itm/James-Stutter-NEW-CD-/311017039421?epid=4063229&hash=item486a0f663d:g:0bIAAOSwPe1Tym7s
p12
aVhttp://www.ebay.com/itm/Murder-One-Dual-Stutter-Pedal-Guitar-Killswitch-/331251834092?hash=item4d2025dcec:g:0gIAAOSwzJ5XWnea
p13
aVhttp://www.ebay.com/itm/Joe-Stutter-Single-CD-/400867343467?hash=item5d558e3c6b:g:jrEAAOSwLnlWp1ZL
p14
aVhttp://www.ebay.com/itm/James-Stutter-NEW-CD-/311017039421?epid=4063229&hash=item486a0f663d:g:0bIAAOSwPe1Tym7s
p15
aVhttp://www.ebay.com/itm/Murder-One-Dual-Stutter-Pedal-Guitar-Killswitch-/331251834092?hash=item4d2025dcec:g:0gIAAOSwzJ5XWnea
p16
aVhttp://www.ebay.com/itm/James-Stutter-James-CD-61VG-The-Cheap-Fast-Free-Post-/302240734936?epid=4063229&hash=item465ef39ed8:g:xOkAAOSwyltZQoSQ
p17
aVhttp://www.ebay.com/itm/Elastica-Stutter-CD-/302205658623?epid=1023185134&hash=item465cdc65ff:g:J~8AAOSw~rpZU~12
p18
aVhttp://www.ebay.com/itm/Fridge-Magnet-Play-Vibrate-While-Pregnant-Stutter-Child-Quote-Saying-Gift-/222261149072?epid=1786928168&hash=item33bfcbfd90:g:LrIAAOSwWdZZZ6uU
p19
aVhttp://www.ebay.com/itm/James-Stutter-2007-New-Sealed-/361516347219?epid=4063229&hash=item542c0daf53:m:mQwDE4OKb790Mlut_vuaGXg
p20
aVhttp://www.ebay.com/itm/Stutter-CD-1991-/381495282281?epid=4063229&hash=item58d2e40a69:g:O30AAOSwjDZYkJuI
p21
aVhttp://www.ebay.com/itm/Joe-Stutter-Single-CD-/400867343467?hash=item5d558e3c6b:g:jrEAAOSwLnlWp1ZL
p22
aVhttp://www.ebay.com/itm/James-Stutter-NEW-CD-/311017039421?epid=4063229&hash=item486a0f663d:g:0bIAAOSwPe1Tym7s
p23
aVhttp://www.ebay.com/itm/Murder-One-Dual-Stutter-Pedal-Guitar-Killswitch-/331251834092?hash=item4d2025dcec:g:0gIAAOSwzJ5XWnea
p24
a.