(lp1
Vhttp://www.ebay.com/itm/MoYou-Nails-WorkSpace-Stamping-Mat-For-Nail-Art-Designs-Practise-Protect-Surface-/162447979783?hash=item25d2a77507:g:1NoAAOSw4A5Y2l7E
p2
aVhttp://www.ebay.com/itm/Nail-Art-Print-Silicon-WorkSpace-Stamping-Plate-Transfer-Mat-Sheet-Table-New-/232207626616?var=&hash=item3610a73178:m:mPgjiedIOr2GddNwRwdY3PA
p3
aVhttp://www.ebay.com/itm/Nail-Art-Print-Silicon-WorkSpace-Stamping-Plate-Transfer-Mat-Sheet-Table-New-/252762113685?var=&hash=item3ad9cbc695:m:mPgjiedIOr2GddNwRwdY3PA
p4
aVhttp://www.ebay.com/itm/Kingston-DataTraveler-Workspace-32GB-USB-3-0-Flash-Stick-Pen-Memory-Drive-/112185026400?hash=item1a1ebfa760:g:T5EAAOSwal5YE0CE
p5
aVhttp://www.ebay.com/itm/Nail-Art-Print-Silicon-WorkSpace-Stamping-Plate-Transfer-Mat-Sheet-Table-New-/252859772983?var=&epid=768427219&hash=item3adf9df037:m:mgc94UxnRBBv9kqFZvRD4bg
p6
aVhttp://www.ebay.com/itm/Set-Of-2-Glass-Chopping-Board-Clear-Workspace-Protect-Cutting-Worktop-Kitchen-/351567955257?epid=1954662236&hash=item51db154539:g:Tk0AAOSwT5tWN4cg
p7
aVhttp://www.ebay.com/itm/Kinetic-Sand-Workspace-Tray-Plastic-/112357909430?epid=726091092&hash=item1a290da3b6:g:lcoAAOSwA29Y4pfi
p8
aVhttp://www.ebay.com/itm/New-Clear-Glass-Chopping-Board-Workspace-Protect-Cutting-Worktop-Kitchen-Saver-/252384727910?epid=1954662236&hash=item3ac34d5366:g:UBEAAOSwDJhXMY4M
p9
aVhttp://www.ebay.com/itm/Kingston-DataTraveler-Workspace-128GB-SSD-USB-3-0-Portable-Flash-Solid-Drive-/121733167129?hash=item1c57dcb819:g:k~MAAOSwWxNYxGsW
p10
aVhttp://www.ebay.com/itm/Fellowes-Workspace-Monitor-Riser-Desk-Stand-for-PC-Computer-Brand-New-Free-Posta-/152611681122?epid=2078557116&hash=item23885d7362:g:d94AAOSwjRpZW-jd
p11
aVhttp://www.ebay.com/itm/Glass-Chopping-Board-Clear-Workspace-Saver-Worktop-Place-Mats-Table-Top-Protect-/111859423527?epid=1027218694&hash=item1a0b575927:g:peoAAOSwCQNWce34
p12
aVhttp://www.ebay.com/itm/Vintage-Do-Not-Give-Up-Bedroom-Workspace-Studio-LED-Sign-/272158667460?hash=item3f5debb2c4:g:1Z4AAOSwZ8ZW3IAp
p13
aVhttp://www.ebay.com/itm/Greenhurst-Coffee-Table-Ingenious-Lift-Up-Top-Useful-Storage-Work-Space-Oak-/401032868394?epid=1549218603&hash=item5d5f6bf22a:g:d-8AAOSw7FRWVyHF
p14
aVhttp://www.ebay.com/itm/Rainbow-Gay-Pride-Flag-On-Stick-Desk-top-Work-space-Office-Flag-30cm-high-LGBT-/162018309323?hash=item25b90b34cb:g:pPsAAOSwLpdW9WnJ
p15
aVhttp://www.ebay.com/itm/DUST-OFF-80-KEYBOARD-MOUSE-WIPES-WORKSPACE-CLEANER-PC-LAPTOP-FAX-PHONE-OFFICE-/131628808326?epid=1179368160&hash=item1ea5b03886:g:Yv8AAOSwhcJWH4Zi
p16
aVhttp://www.ebay.com/itm/NEW-PARAGON-GREEN-APPLE-HEAVY-CONTRACT-WORKSPACE-LOOP-CARPET-TILES-5M2-PER-BOX-/252468444420?hash=item3ac84abd04:g:IhUAAOSwv0tVQ6UV
p17
aVhttp://www.ebay.com/itm/2-Leg-Thin-Jaw-Bearing-Hub-Puller-Extractor-narrow-work-space-us-PRO-A5123-/152151252686?hash=item236cebdece:g:AjgAAOSw~OVWu4xa
p18
aVhttp://www.ebay.com/itm/CAPITA-Bracket-Stainless-Steel-Stylish-Kitchen-Bar-Solution-Get-More-Work-Space-/252479002625?hash=item3ac8ebd801:g:gZ4AAOSwqfNXmhfP
p19
aVhttp://www.ebay.com/itm/NEW-PARAGON-RUBY-RED-HEAVY-CONTRACT-WORKSPACE-LOOP-CARPET-TILES-5M2-PER-BOX-/262534895181?hash=item3d204c964d:g:FBUAAOSwEeFVQ7Ex
p20
aVhttp://www.ebay.com/itm/NEW-PARAGON-GREEN-APPLE-HEAVY-CONTRACT-WORKSPACE-LOOP-CARPET-TILES-5M2-PER-BOX-/252468444420?hash=item3ac84abd04:g:IhUAAOSwv0tVQ6UV
p21
aVhttp://www.ebay.com/itm/Nail-Art-Print-Silicon-WorkSpace-Stamping-Plate-Transfer-Mat-Sheet-Table-UK-/112422252333?var=&epid=768427219&hash=item1a2ce36f2d:m:moYmfc-DH41xCXwvm9hfa5g
p22
aVhttp://www.ebay.com/itm/Glass-Chopping-Board-Clear-Workspace-Saver-Protect-Cutting-Worktop-Placemat-Mat-/351567952446?epid=1954662236&hash=item51db153a3e:g:mKUAAOSwwbdWN4LV
p23
aVhttp://www.ebay.com/itm/Set-of-4-Glass-Chopping-Board-Clear-Workspace-Saver-Worktop-Place-Mats-Table-Top-/112328580376?epid=1027218694&hash=item1a274e1d18:g:peoAAOSwCQNWce34
p24
aVhttp://www.ebay.com/itm/Dremel-Multi-Tool-Precision-Drill-Accesories-Screw-Home-Garage-Rotary-Work-Space-/122268284511?epid=2104590591&hash=item1c77c1f65f:g:OY4AAOSwUIhZX5H5
p25
aVhttp://www.ebay.com/itm/CAPITA-Bracket-Stainless-Steel-Stylish-Kitchen-Bar-Solution-Get-More-Work-Space-/282211242893?hash=item41b519d38d:g:mDcAAOSwzaJX99yq
p26
aVhttp://www.ebay.com/itm/ELECTRIC-HOME-WORK-SPACE-PORTABLE-HEATER-HALOGEN-QUICK-WARMING-400W-800W-1200W-/142060938059?epid=1765064153&hash=item21137de34b:g:X6wAAOSwOfxXBRb8
p27
aVhttp://www.ebay.com/itm/Draper-07210-4-Piece-Half-Moon-Ring-Spanner-Set-Confined-Work-Space-Tool-Garage-/131683987243?epid=1723309285&hash=item1ea8fa2f2b:g:0i4AAOSwYaFWe79T
p28
aVhttp://www.ebay.com/itm/Set-Of-4-Glass-Chopping-Board-Clear-Workspace-Protect-Cutting-Worktop-Kitchen-/351567957301?epid=1954662236&hash=item51db154d35:g:mKUAAOSwwbdWN4LV
p29
a.