(lp1
Vhttp://www.ebay.com/itm/Bagpipes-Practice-Chanter-Syntactic-Reeds-6-Pcs-Practice-Chanter-Reeds-Chanter-/322451182657?hash=item4b13969441:g:GgEAAOSwPc9Wzl44
p2
aVhttp://www.ebay.com/itm/Highland-Bagpipe-Pipe-Chanter-Cane-Reeds-Practice-Chanter-Syntactic-Reeds-3-Pcs-/252741992554?var=&hash=item3ad898c06a:m:mN9suMcDl0GwGRQAOsdKQuw
p3
aVhttp://www.ebay.com/itm/Bagpipe-Practice-Chanter-Syntactic-Reeds-6-Pcs-Practice-Chanter-Reeds-Plastic-/282303227594?hash=item41ba9566ca:g:IT0AAOSw6n5Xv2VS
p4
aVhttp://www.ebay.com/itm/Highland-Bagpipes-Practice-Chanter-Syntactic-Reeds-Practice-Chanter-Reeds-2-Pcs-/322346910591?hash=item4b0d5f837f:g:vDIAAOSwll1W0I52
p5
aVhttp://www.ebay.com/itm/New-Highland-Bagpipe-Syntactic-Cane-Drone-Reeds-Practice-Chanter-Reed-Blow-Valve-/112168906983?hash=item1a1dc9b0e7:g:vWAAAOSw8gVYA8wa
p6
aVhttp://www.ebay.com/itm/New-Great-Highland-Bgapipe-Cane-Drone-Reeds-Practice-Chanter-Syntactic-Reed-Cane-/112168902241?hash=item1a1dc99e61:g:xMEAAOSwzaJYA8pk
p7
aVhttp://www.ebay.com/itm/Syntactic-Hair-Shaving-Brush-With-the-Antique-designed-handle-in-Black-Metal-/322290586312?epid=1193183074&hash=item4b0a0412c8:g:Km0AAOSwHsRYCho2
p8
aVhttp://www.ebay.com/itm/Syntactic-Badger-looking-Hair-Shaving-Brush-with-Ivory-Handle-Base-Stand-holder-/222278247278?hash=item33c0d0e36e:g:2A8AAOSw8w1YB2U8
p9
aVhttp://www.ebay.com/itm/Syntactic-Badger-looking-Hair-Shaving-Brush-with-Black-Handle-Base-Stand-/222278188600?hash=item33c0cffe38:g:TdUAAOSwmLlYB1uL
p10
aVhttp://www.ebay.com/itm/Syntactic-Badger-looking-Hair-Shaving-Brush-with-Black-Handle-Base-Stand-/222278188600?hash=item33c0cffe38:g:TdUAAOSwmLlYB1uL
p11
aVhttp://www.ebay.com/itm/Syntactic-Badger-looking-Hair-Shaving-Brush-with-Black-Handle-Base-Perfect-f-/322290421402?hash=item4b0a018e9a:g:vnQAAOSwLF1YB1pI
p12
aVhttp://www.ebay.com/itm/Syntactic-Structures-9781614278047-Paperback-2015-/232082969938?epid=213314638&hash=item3609391552:g:TuUAAOSwmfhX2hZl
p13
aVhttp://www.ebay.com/itm/Highland-Bagpipe-Cane-Reeds-Scottish-Bagpipe-Practice-Chanter-Syntactic-Reeds-/282132918881?var=&hash=item41b06eb261:m:mauvmMyhsiSXl6opXaCJFFQ
p14
aVhttp://www.ebay.com/itm/TE-Scottish-Bagpipe-Practice-Chanter-Syntactic-Reeds-Practice-Chanter-Reed-/122052122819?hash=item1c6adf98c3:g:-XIAAOSwH71XOsb5
p15
aVhttp://www.ebay.com/itm/TE-Great-Highland-Bagpipe-Syntactic-Drone-Reed-Bagpipe-Cane-Reed-Cane-Drone-Reed-/122052118949?hash=item1c6adf89a5:g:O1UAAOSw74FXOvnS
p16
aVhttp://www.ebay.com/itm/New-Practice-Chanter-Syntactic-Reed-6-Pcs-Bagpipe-Practice-Chanter-Reed-Reeds-/122052084578?hash=item1c6adf0362:g:M5EAAOSwrXdXKJrx
p17
aVhttp://www.ebay.com/itm/Scottish-Great-Highland-Bagpipes-Cane-Reed-Cane-Drone-Practice-Synthetic-Reeds-/122016750296?var=&hash=item1c68c3dad8:m:mD_xywhksBga_jqKAePw7Lw
p18
aVhttp://www.ebay.com/itm/New-Bagpipes-Practice-Chanter-Syntactic-Reeds-12-Pcs-Scottish-Practice-Reeds-/122016750061?hash=item1c68c3d9ed:g:~IwAAOSwNsdXTdgw
p19
aVhttp://www.ebay.com/itm/New-Practice-Chanter-Syntactic-Reeds-6-Pcs-Practice-Reeds-for-Practice-Chanter-/122016750020?hash=item1c68c3d9c4:g:~34AAOSwY0lXTdbC
p20
aVhttp://www.ebay.com/itm/TE-Scottish-Bagpipe-Practice-Chanter-Syntactic-Reeds-Practice-Chanter-Reed-/122016736092?hash=item1c68c3a35c:g:-XIAAOSwH71XOsb5
p21
aVhttp://www.ebay.com/itm/New-Great-Highland-Bagpipes-Drone-Reed-Syntactic-Scottish-Bagpipes-Drone-Reeds-/322071580118?hash=item4afcf64dd6:g:7woAAOSwDuJWxgyL
p22
aVhttp://www.ebay.com/itm/Highland-Bagpipe-Cane-Reeds-Scottish-Bagpipe-Practice-Chanter-Syntactic-Reeds-/201559239795?var=&hash=item2eedddec73:m:m8Fjz56T4DO0Um9IkDduXMQ
p23
aVhttp://www.ebay.com/itm/Bagpipes-Practice-Chanter-Syntactic-Reeds-Practice-Chanter-Reeds-6-chanter-reeds-/322065722623?hash=item4afc9cecff:g:k0UAAOSwzgRW0I8~
p24
aVhttp://www.ebay.com/itm/Great-Highland-Bagpipe-Drone-Reeds-Practice-Chanter-Syntactic-Reed-Cane-Reeds-/201546348879?hash=item2eed19394f:g:HuEAAOSwwpdW8a2u
p25
aVhttp://www.ebay.com/itm/Bagpipe-Practice-Chanter-Syntactic-Plastic-Reeds-6-Pcs-Red-/322030578064?hash=item4afa84a990:g:a-AAAOSwa-dWtILf
p26
aVhttp://www.ebay.com/itm/Bagpipes-Practice-Chanter-Syntactic-Reeds-Practice-Chanter-Reeds-12-Pcs-chanter-/322019961902?hash=item4af9e2ac2e:g:EaIAAOSwB4NW0JDH
p27
aVhttp://www.ebay.com/itm/Bagpipes-Practice-Chanter-Syntactic-Reeds-Practice-Chanter-Reeds-6-Pcs-chanter-/322019958077?hash=item4af9e29d3d:g:k0UAAOSwzgRW0I8~
p28
aVhttp://www.ebay.com/itm/Scottish-Bagpipes-Practice-Chanter-Syntactic-Reeds-Practice-Chanter-Reed-1-Pcs-/322019947026?hash=item4af9e27212:g:dmYAAOSwB4NW0Isq
p29
aVhttp://www.ebay.com/itm/Brand-New-Bagpipes-Practice-Chanter-Syntactic-Reeds-Practice-Chanter-Reed-5-Pcs-/201527787887?hash=item2eebfe016f:g:00gAAOSwG-1WyjRN
p30
aVhttp://www.ebay.com/itm/Great-Highland-Bagpipes-Practice-Chanter-Syntactic-Reeds-Practice-Chanter-Reeds-/201527772851?hash=item2eebfdc6b3:g:xzsAAOSwzgRWyi61
p31
aVhttp://www.ebay.com/itm/Scottish-Bagpipe-Practice-Chanter-Syntactic-Reeds-Bagpipes-Practice-Chanter-Reed-/201524466166?hash=item2eebcb51f6:g:X28AAOSwUuFWwuB-
p32
aVhttp://www.ebay.com/itm/Great-Highland-Bagpipes-Practice-Chanter-Syntactic-Reed-3-Pcs-Practice-Chanter-/201518239847?hash=item2eeb6c5067:g:pcQAAOSwXshWtOR6
p33
aVhttp://www.ebay.com/itm/Bagpipe-Practice-Chanter-Syntactic-Plastic-Reeds-6-Pcs-Red-/161882979670?hash=item25b0fa3d56:g:ZPAAAOSwhkRWccNd
p34
aVhttp://www.ebay.com/itm/Bagpipe-Practice-Chanter-Syntactic-Plastic-Reeds-6-Pcs-Black-/161879791727?hash=item25b0c9986f:g:lX8AAOSwNyFWccIc
p35
aVhttp://www.ebay.com/itm/HW-Mac-Valve-for-Highland-Bagpipes-Bagpipes-Blowpipe-Mac-Valve-Syntactic-1-Pcs-/261920586210?hash=item3cfbaef9e2:g:H9EAAOSwBLlVdZsg
p36
aVhttp://www.ebay.com/itm/HW-Highland-Bagpipes-Cane-Reeds-Hemp-Valve-Stock-Corks-Syntactic-Cane-Drone-Reed-/261920484214?hash=item3cfbad6b76:g:DF0AAOSwpDdVdY80
p37
aVhttp://www.ebay.com/itm/HW-Highland-Bagpipes-Practice-Chanter-Syntactic-Reeds-Bagpipe-Pipe-Chanter-Reeds-/261919409418?hash=item3cfb9d050a:g:b2wAAOSwrklVdI2E
p38
aVhttp://www.ebay.com/itm/HW-Bagpipe-Syntactic-Drone-Reeds-Practice-Chanter-Reeds-Bagpipe-Cane-Reeds-Hemp-/251987040924?hash=item3aab991a9c:g:qp4AAOSwNSxVdIoQ
p39
aVhttp://www.ebay.com/itm/HW-Bagpipe-Practice-Chanter-Syntactic-Reeds-6-Pcs-Practice-Chanter-Reeds-Plastic-/261915820082?hash=item3cfb664032:g:A3UAAOSwv0tVcMCX
p40
aVhttp://www.ebay.com/itm/HW-Highland-Bagpipes-Pipe-Chanter-Cane-Reeds-Bagpipes-Drone-Reeds-Cane-Syntactic-/261914776808?hash=item3cfb5654e8:g:25UAAOSwstxVb~23
p41
aVhttp://www.ebay.com/itm/HW-Great-Highland-Bagpipes-Syntactic-Drone-Reeds-Bagpipes-Pipe-Chanter-Cane-Reed-/251983070243?hash=item3aab5c8423:g:cPEAAOSw~OdVb~xR
p42
aVhttp://www.ebay.com/itm/HW-New-Bagpipes-Pipe-Chanter-Cane-Reeds-Highland-Bagpipes-Syntactic-Drone-Reeds-/251983063728?hash=item3aab5c6ab0:g:oOAAAOSwKrhVb~oX
p43
a.