(lp1
Vhttp://www.ebay.com/itm/Clara-and-Mr-Tiffany-Paperback-Susan-Vreeland-9780812980189-/351955134930?epid=112291404&hash=item51f22929d2:g:XnIAAOSwmrlUtT1A
p2
aVhttp://www.ebay.com/itm/D-V-by-Diana-Vreeland-9780062024404-Paperback-2011-/252572918810?epid=176568173&hash=item3ace84e41a:g:4EcAAOSwzaJX9q2F
p3
aVhttp://www.ebay.com/itm/An-Open-Heart-The-Dalai-Lama-Edited-by-Nicholas-Vreeland-Paperback-New-/381360223155?epid=1905425854&hash=item58cad733b3:g:tGEAAOSwjVVVyzZI
p4
aVhttp://www.ebay.com/itm/Diana-Vreeland-The-Modern-Woman-The-Bazaar-Years-1936-1962-/292010607691?epid=224351693&hash=item43fd30444b:g:r~4AAOSwA3dYlf-S
p5
aVhttp://www.ebay.com/itm/Girl-in-Hyacinth-Blue-By-Susan-Vreeland-9780755305308-/172071016835?epid=95111900&hash=item28103b5983:g:XIYAAOSwX~dWoOh5
p6
aVhttp://www.ebay.com/itm/The-Passion-of-Artemisia-By-Susan-Vreeland-9780747265337-/201536814360?epid=96686891&hash=item2eec87bd18:g:cbkAAOSwh-1W3YcY
p7
aVhttp://www.ebay.com/itm/Diana-Vreeland-An-Illustrated-Biography-Paperback-NEW-Eleanor-Dwight-2011-05-/310585536034?epid=99949900&hash=item4850572e22:g:9coAAOSwPhdVACva
p8
aVhttp://www.ebay.com/itm/Diana-Vreeland-The-Modern-Woman-9780847846085-/311689444142?epid=224351693&hash=item4892237b2e:g:It8AAOSw-kdXycG3
p9
aVhttp://www.ebay.com/itm/Luncheon-of-the-Boating-Party-Vreeland-Susan-Book-The-Cheap-Fast-Free-Post-/302031991706?epid=1905333865&hash=item465282739a:g:C64AAOSwSzFZYpIx
p10
aVhttp://www.ebay.com/itm/Girl-in-Hyacinth-Blue-Vreeland-Susan-Paperback-Book-The-Cheap-Fast-Free-Post-/301826005219?epid=88159780&hash=item46463b58e3:g:RJEAAOSwi8VZQBqD
p11
aVhttp://www.ebay.com/itm/The-Passion-of-Artemisia-Vreeland-Susan-Paperback-Book-The-Cheap-Fast-Free-/391403719138?epid=91825981&hash=item5b217ac9e2:m:m1XYEbeZHzs3_ALG-OY2ktg
p12
a.