(lp1
Vhttp://www.ebay.com/itm/Timex-Originals-TW2P83800-Mens-Waterbury-Brown-Leather-Strap-Watch-RRP-79-99-/391624391252?epid=1885978835&hash=item5b2ea1fa54:g:42YAAOSwc-tY2wkf
p2
aVhttp://www.ebay.com/itm/Timex-Originals-TW2P84400-Mens-Waterbury-Mid-Size-Brown-Leather-Strap-Watch-/232126889932?epid=2069737023&hash=item360bd73fcc:g:bokAAOSwnbZYEpOK
p3
aVhttp://www.ebay.com/itm/BLUE-WATERBURY-PRO2-300-x-35mm-GRAB-RAIL-MOBILITY-AID-STABILITY-BAR-PULL-HANDLE-/381216302435?epid=1352058099&hash=item58c2432563:g:IzEAAOSwBahVIFt~
p4
aVhttp://www.ebay.com/itm/BLUE-WATERBURY-PRO2-600-x-35mm-GRAB-RAIL-MOBILITY-AID-STABILITY-BAR-PULL-HANDLE-/381216301809?epid=1352058099&hash=item58c24322f1:g:nnQAAOSw34FVIFtZ
p5
aVhttp://www.ebay.com/itm/Timex-Originals-TW2P83800-Mens-Waterbury-Brown-Leather-Strap-Watch-RRP-79-99-/391624391252?epid=1885978835&hash=item5b2ea1fa54:g:42YAAOSwc-tY2wkf
p6
aVhttp://www.ebay.com/itm/Timex-Originals-TW2P84400-Mens-Waterbury-Mid-Size-Brown-Leather-Strap-Watch-/232126889932?epid=2069737023&hash=item360bd73fcc:g:bokAAOSwnbZYEpOK
p7
aVhttp://www.ebay.com/itm/BLUE-WATERBURY-PRO2-300-x-35mm-GRAB-RAIL-MOBILITY-AID-STABILITY-BAR-PULL-HANDLE-/381216302435?epid=1352058099&hash=item58c2432563:g:IzEAAOSwBahVIFt~
p8
aVhttp://www.ebay.com/itm/BLUE-WATERBURY-PRO2-600-x-35mm-GRAB-RAIL-MOBILITY-AID-STABILITY-BAR-PULL-HANDLE-/381216301809?epid=1352058099&hash=item58c24322f1:g:nnQAAOSw34FVIFtZ
p9
aVhttp://www.ebay.com/itm/Timex-Originals-TW2P83800-Mens-Waterbury-Brown-Leather-Strap-Watch-RRP-79-99-/391624391252?epid=1885978835&hash=item5b2ea1fa54:g:42YAAOSwc-tY2wkf
p10
aVhttp://www.ebay.com/itm/Timex-Originals-TW2P84400-Mens-Waterbury-Mid-Size-Brown-Leather-Strap-Watch-/232126889932?epid=2069737023&hash=item360bd73fcc:g:bokAAOSwnbZYEpOK
p11
aVhttp://www.ebay.com/itm/BLUE-WATERBURY-PRO2-300-x-35mm-GRAB-RAIL-MOBILITY-AID-STABILITY-BAR-PULL-HANDLE-/381216302435?epid=1352058099&hash=item58c2432563:g:IzEAAOSwBahVIFt~
p12
aVhttp://www.ebay.com/itm/BLUE-WATERBURY-PRO2-600-x-35mm-GRAB-RAIL-MOBILITY-AID-STABILITY-BAR-PULL-HANDLE-/381216301809?epid=1352058099&hash=item58c24322f1:g:nnQAAOSw34FVIFtZ
p13
a.