(lp1
Vhttp://www.ebay.com/itm/Nail-Art-Chunky-DisCo-Matte-Mixed-Neon-Hexagon-Shapes-Glitter-Spangle-Mix-Pot-/282329147216?epid=855321090&hash=item41bc20e750:g:DB8AAOSwNnRYfjNQ
p2
aVhttp://www.ebay.com/itm/Nail-Art-Chunky-Carnival-Purple-Pink-Dot-Circle-Shape-Glitter-Spangle-Mix-Pot-/272623689484?epid=855322585&hash=item3f79a35f0c:g:7GkAAOSwnF9Y6RYL
p3
aVhttp://www.ebay.com/itm/Nail-Art-Silver-Holographic-ShatteR-Myler-Flakes-Cut-Shape-Pot-Spangle-Glitter-/282488768466?epid=13003559985&hash=item41c5a487d2:g:CIYAAOSwfpVZIo5z
p4
aVhttp://www.ebay.com/itm/Nail-Art-Silver-Diamond-Colour-Changing-Holographic-Pot-Spangle-Glitter-Tip-/281560793628?hash=item418e54c21c:g:M78AAOSw2s1Uw6kD
p5
aVhttp://www.ebay.com/itm/Nail-Art-Chunky-NeoN-White-Pink-Hex-Flower-Glitter-Spangles-Mix-Pot-Decoration-/282256688838?epid=877588664&hash=item41b7cf46c6:g:j2kAAOSwal5YKuGT
p6
aVhttp://www.ebay.com/itm/Clover-Kantan-Couture-Bead-Embroidery-Tool-Spangles-Tool-Craft-Needles-Sewing-/322459016369?epid=1005213472&hash=item4b140e1cb1:g:NpYAAOSwol5Y0Uj2
p7
aVhttp://www.ebay.com/itm/Nail-Art-Sparkle-Silver-Holographic-Squares-Pot-Spangle-Glitter-Tip-Decoration-/281939190333?epid=709673513&hash=item41a4e2a23d:g:l5wAAOSwUuFWxd9-
p8
aVhttp://www.ebay.com/itm/50-x-Nail-Art-Gold-Steam-Punk-Clock-Watch-Cog-Parts-Mix-Small-Thin-Metal-Spangle-/282401719132?epid=855436032&hash=item41c074435c:g:AHMAAOSwuLZYzqv0
p9
aVhttp://www.ebay.com/itm/Nail-Art-Sparkle-Pink-Silver-Holographic-Stars-Pot-Spangle-Glitter-Decoration-/271733043039?epid=1088604185&hash=item3f448d2f5f:g:qx0AAOSw1ZBUw6uU
p10
aVhttp://www.ebay.com/itm/Nail-Art-Chunky-MardiGras-Purple-Gold-Dot-Circle-Shape-Glitter-Spangle-Mix-Pot-/272680878669?epid=26003557789&hash=item3f7d0c024d:g:GXYAAOSwtGlZIcDo
p11
aVhttp://www.ebay.com/itm/Nail-Art-Chunky-BluSh-Iridescent-Silver-Pink-Hexagon-Heart-Glitter-Spangle-Pot-/272525282856?epid=2141816991&hash=item3f73c5ce28:g:QLwAAOSwUKxYfidb
p12
aVhttp://www.ebay.com/itm/Nail-Art-Chunky-PartY-Bright-Neon-Matt-Hexagon-Shapes-Glitter-Spangle-Mix-Pot-/282485429351?epid=28003562004&hash=item41c5719467:g:GZoAAOSwhvFZHx08
p13
aVhttp://www.ebay.com/itm/Valentines-Nail-Art-Heart-Shape-Spangles-Glitter-Holographic-Candy-Pink-/302194201642?epid=631443090&hash=item465c2d942a:g:c8sAAOSwjDZYd4Eu
p14
aVhttp://www.ebay.com/itm/Clover-Kantan-Couture-Bead-and-Spangles-Embroidery-Tool-/142407992163?epid=1672642253&hash=item21282d8363:g:MxYAAOSwcB5ZOHDA
p15
aVhttp://www.ebay.com/itm/Valentines-Nail-Art-HOLLOW-HEART-Shape-Spangles-Glitter-Holographic-Candy-Pink-/112275238243?epid=895822600&hash=item1a24202d63:g:e9oAAOSw4DJYgPrq
p16
aVhttp://www.ebay.com/itm/Nail-Art-Chunky-IciCle-White-Colour-Change-Hexagon-Glitter-Spangle-Mix-Pot-Tip-/282256692791?epid=679908693&hash=item41b7cf5637:g:PgwAAOSwo4pYKuNb
p17
aVhttp://www.ebay.com/itm/Nail-Art-Chunky-Peacock-Blue-Purple-Dots-Circle-Shape-Glitter-Spangle-Mix-Pot-/282256674920?epid=540044677&hash=item41b7cf1068:g:268AAOSwal5YKty2
p18
aVhttp://www.ebay.com/itm/Nail-Art-Holographic-Valentines-Hearts-Pack-Mixed-Colour-Spangle-Glitter-Craft-/282348953249?hash=item41bd4f1ea1:g:hD0AAOSwTglYlL1r
p19
aVhttp://www.ebay.com/itm/Clover-Kantan-Couture-Bead-and-Spangles-Embroidery-Tool-/151988940324?epid=1005213472&hash=item23633f2e24:g:YBIAAOxyLN9SmGwh
p20
aVhttp://www.ebay.com/itm/Nail-Art-Chunky-MiNe-Holographic-Iridescent-Hex-Heart-Mix-Glitter-Spangle-Pot-/282329077405?epid=14002977279&hash=item41bc1fd69d:g:GXgAAOSwNnRYfiOZ
p21
aVhttp://www.ebay.com/itm/Valentines-Nail-Art-Heart-Shape-Spangles-Glitter-Holographic-Red-Craft-/302194197787?epid=513216512&hash=item465c2d851b:g:-cYAAOSwEzxYd36B
p22
aVhttp://www.ebay.com/itm/Nail-Art-Chunky-FaiRy-Xmas-Frozen-Ice-White-Hexagon-Glitter-Spangles-Dust-Pot-/272484467830?hash=item3f71570476:g:tBgAAOSwEzxYUAZw
p23
aVhttp://www.ebay.com/itm/Sparkly-Hexagon-Design-Spangles-Shape-Nail-Art-Tip-Glitter-Pack-Decoration-Craft-/272118295018?var=&hash=item3f5b83a9ea:m:mNyfr5ht0QYefOtNaGiaPkA
p24
aVhttp://www.ebay.com/itm/Nail-Art-Chunky-Heart-Shiny-Pale-Pink-Holographic-Shape-Glitter-Spangle-Pot-V5-/272623681926?epid=5003563679&hash=item3f79a34186:g:fOoAAOSw03lY6RS6
p25
aVhttp://www.ebay.com/itm/3D-Nail-Art-Rainbow-Diamond-Rhombus-Shape-Matte-Mix-Colour-Pot-Spangle-Glitter-/282290233870?epid=855318699&hash=item41b9cf220e:g:D4YAAOSwnHZYUAfy
p26
aVhttp://www.ebay.com/itm/Nail-Art-Halloween-Orange-Black-SpooKy-Bats-Mix-Pot-Spangle-Glitter-Decoration-/282166858567?hash=item41b2749347:g:8lwAAOSwknJX0TeO
p27
aVhttp://www.ebay.com/itm/Ice-Myler-Icy-Design-Spangles-Shape-Nail-Art-Tip-Glitter-Pack-Decoration-Craft-/272058248432?var=&hash=item3f57ef6cf0:m:mFyLjmPW2jel8YI_iheVqnA
p28
aVhttp://www.ebay.com/itm/Burnout-Chiffon-velvet-circles-and-spangle-glitter-fabric-50-Wide-M187-Mtex-/191822191453?var=&hash=item2ca97e5b5d:m:mtxynxQhsLwqmnSFmUfHcmA
p29
aVhttp://www.ebay.com/itm/Nail-Art-Sparkle-Clear-Iridescent-Hearts-Valentines-Pot-Spangle-Glitter-Tip-V4-/272525304931?epid=887889972&hash=item3f73c62463:g:lswAAOSwnHZYfi3E
p30
aVhttp://www.ebay.com/itm/Nail-Art-Chunky-Angel-Holographic-Silver-Hexagon-Heart-Mix-Glitter-Spangle-Pot-/272525275562?epid=2142404458&hash=item3f73c5b1aa:g:pNkAAOSwLEtYfiVw
p31
aVhttp://www.ebay.com/itm/Nail-Art-White-Holographic-ViVa-Myler-Flakes-Cut-Shatter-Pot-Spangles-Glitters-/282540152754?epid=0&hash=item41c8b497b2:g:hbsAAOSwXY5ZTTjH
p32
aVhttp://www.ebay.com/itm/TY-BEANIE-TEENY-PLUSH-SOFT-TOY-TEDDY-6-CM-MINI-TY-BRAND-NEW-WITH-TAGS-/361517508699?var=&hash=item542c1f685b:m:myvMe-MEpDkfx1BeGTlDC_A
p33
aVhttp://www.ebay.com/itm/Lovely-Silver-Leaf-Floral-Spangle-Elastic-Belt-/132220412044?var=&epid=7002614094&hash=item1ec8f3608c:m:m4NETSIMEpKki7KPs1Xivow
p34
aVhttp://www.ebay.com/itm/Nail-Art-LightNing-White-Silver-Light-Tiny-Strip-Tinsel-Bar-Glitte-Spangle-Pot-/272680926068?hash=item3f7d0cbb74:g:OLsAAOSwX61ZIcvM
p35
aVhttp://www.ebay.com/itm/Nail-Art-Chunky-JoKer-Purple-Green-Dots-Circle-Shape-Glitter-Spangle-Mix-Pot-/282487944800?hash=item41c597f660:g:0V4AAOSw42dZIbng
p36
aVhttp://www.ebay.com/itm/New-Maru-Girls-Starburst-Spangle-Sparkle-Swim-Suit-Costume-GK7053-Age-10-28-/122462174170?hash=item1c83507bda:g:~pwAAOSwtZJY~dDV
p37
aVhttp://www.ebay.com/itm/Nail-Art-Chunky-FroSt-White-Colour-Change-Hexagon-Glitter-Spangle-Mix-Pot-Tips-/272397522917?hash=item3f6c2857e5:g:~ZMAAOSwpLNX7754
p38
aVhttp://www.ebay.com/itm/100yard-Flat-Sequins-Strip-Paillettes-Sewing-Trims-Wedding-Crafts-Spangle-Cloth-/172244661281?var=&hash=item281a94f421:m:mnGZdqeJQ_ZLTKUNrHAwZPg
p39
aVhttp://www.ebay.com/itm/Nail-Art-Chunky-SnoW-White-Silver-Shine-Hexagon-Glitter-Spangle-Mix-Pot-Tips-/282202270565?hash=item41b490eb65:g:08MAAOSwpLNX770o
p40
aVhttp://www.ebay.com/itm/Nail-Art-Chunky-Sea-Blue-Green-Hexagon-Glitter-Spangles-Mix-Tip-Pot-Decoration-/281955297449?epid=1389108969&hash=item41a5d868a9:g:F4cAAOSwR5dXSXWD
p41
aVhttp://www.ebay.com/itm/Nail-Art-Sparkle-Holographic-White-Snowflakes-Pot-Spangle-Glitter-Decorations-/272363483575?hash=item3f6a20f1b7:g:X68AAOSwvzRXyvt2
p42
aVhttp://www.ebay.com/itm/Nail-Art-Chunky-Passion-Purple-Blue-Hexagon-Glitter-Spangle-Dust-Mix-Pot-Tip-/282290223941?epid=871093757&hash=item41b9cefb45:g:1PsAAOSwA3dYUARY
p43
aVhttp://www.ebay.com/itm/Nail-Art-Chunky-SalSa-Pink-Gold-Dots-Circles-Shape-Glitter-Spangles-Mix-Pot-/272680871156?epid=18003557294&hash=item3f7d0be4f4:g:684AAOSwcB5ZIb8S
p44
aVhttp://www.ebay.com/itm/12-Silver-STRIPE-iron-on-spangle-sequin-sheet-craft-/380256034590?epid=1488214620&hash=item5889069f1e:m:mVko-yXINWnww-OPCCQulcg
p45
aVhttp://www.ebay.com/itm/Nail-Art-Translucent-Pink-Diamond-Colour-Change-Holographic-Pot-Spangle-Glitter-/272138087182?hash=item3f5cb1ab0e:g:d9QAAOSwPc9WxeDi
p46
aVhttp://www.ebay.com/itm/Nail-Art-Chunky-JoKer-Purple-Green-Dots-Circle-Shape-Glitter-Spangle-Mix-Pot-/282487944800?hash=item41c597f660:g:0V4AAOSw42dZIbng
p47
aVhttp://www.ebay.com/itm/Nail-Art-Chunky-LeoPard-Black-Spots-Dots-Circle-Shape-Glitter-Spangle-Mix-Pot-/282487997860?hash=item41c598c5a4:g:CbwAAOSww9xZIcba
p48
aVhttp://www.ebay.com/itm/Nail-Art-Chunky-RouGe-Circle-Red-Black-Dot-Spot-Shape-Glitter-Spangle-Mix-Pot-/272456645722?epid=895692109&hash=item3f6fae7c5a:g:qigAAOSwImRYMdMK
p49
aVhttp://www.ebay.com/itm/Nail-Art-Chunky-Rose-Gold-Golden-Hexagon-Glitter-Spangles-Mix-Pot-Decoration-/272363459200?epid=533770965&hash=item3f6a209280:g:TmsAAOSwi0RXyvWy
p50
aVhttp://www.ebay.com/itm/Nail-Art-Playboy-Design-Pink-Bunny-Holographic-Pot-Spangle-Glitter-Decoration-/271773536641?hash=item3f46f71181:g:01MAAOSwBLlU3f7l
p51
aVhttp://www.ebay.com/itm/Nail-Art-Chunky-Fire-RoseGold-Black-Hexagon-Glitter-Spangle-Mix-Pot-Decoration-/282160351330?epid=721644849&hash=item41b2114862:g:E84AAOSw-kdXyvcb
p52
aVhttp://www.ebay.com/itm/3D-Nail-Art-Decoration-Rhinestones-Diamante-Crystals-Spangles-Bows-Flowers-Heart-/112317736616?epid=898463787&hash=item1a26a8a6a8:g:KcoAAOSwax5YtFJr
p53
aVhttp://www.ebay.com/itm/Spangle-Dalmation-Teeny-Ty-6cm-Mini-TY-Plush-Teddy-Brand-New-Soft-Toys-/152094991947?epid=1469392937&hash=item236991664b:g:aGMAAOSwOMdZUn2I
p54
aVhttp://www.ebay.com/itm/2x-HGE-UK-england-union-jack-flag-sequin-spangle-iron-on-BEAD-TSHIRT-TRANSFER-/160838015504?hash=item2572b15a10:m:myv4wThBHK2XOclzn37hjUg
p55
aVhttp://www.ebay.com/itm/50-x-Nail-Art-Silver-Rose-Gold-Valentines-Love-Hearts-Thin-Metal-Spangles-2VH-/272544767849?hash=item3f74ef1f69:g:Gm4AAOSw241YlLvc
p56
aVhttp://www.ebay.com/itm/Nail-Art-Chunky-VioLet-Champagne-Gold-Dot-Circle-Shape-Glitter-Spangle-Mix-Pot-/272680893082?hash=item3f7d0c3a9a:g:h5MAAOSwJH1ZIcUf
p57
aVhttp://www.ebay.com/itm/Nail-Art-Holographic-Silver-Xmas-Snowflakes-Trees-Pack-Spangle-Glitter-Craft-/272402100757?hash=item3f6c6e3215:g:nhkAAOSwYIxX9OO-
p58
aVhttp://www.ebay.com/itm/Nail-Art-Sparkle-Holographic-Silver-Hearts-Valentines-Pot-Spangles-Glitter-V1-/282329045204?epid=887703869&hash=item41bc1f58d4:g:8rAAAOSwnHZYfhnQ
p59
aVhttp://www.ebay.com/itm/Valentines-Nail-Art-Heart-Shape-Spangles-Glitter-Holographic-Sugared-Lilac-/112267742913?epid=875632836&hash=item1a23adcec1:g:3~cAAOSw2xRYeQkr
p60
aVhttp://www.ebay.com/itm/Easter-Nail-Art-Eggs-Shape-Spangles-Glitter-3D-Nail-Art-Decoration-Sequins-MIXED-/112299135680?hash=item1a258cd2c0:g:pfgAAOSw2gxYndMp
p61
aVhttp://www.ebay.com/itm/Nail-Art-Chunky-Jet-Midnight-Black-Hexagon-Glitter-Spangles-Mix-Pot-Decoration-/272363467787?epid=721650249&hash=item3f6a20b40b:g:qH0AAOSwFdtXyvfy
p62
aVhttp://www.ebay.com/itm/HOT-PINK-iron-on-hot-fix-spangle-sequin-sheet-crafts-/160123330174?hash=item2548181e7e:g:AQEAAOxyDEVSal6s
p63
aVhttp://www.ebay.com/itm/Nail-Art-Chunky-Blossom-Shimmer-Pink-Heart-Hexagon-Shape-Glitter-Spangle-Pot-/282426196077?hash=item41c1e9c06d:g:Q~UAAOSwTM5Y6RGr
p64
aVhttp://www.ebay.com/itm/Nail-Art-Chunky-SprinG-Pink-Green-Dots-Circles-Shape-Glitter-Spangles-Mix-Pot-/272680864598?hash=item3f7d0bcb56:g:REkAAOSwJH1ZIb0I
p65
aVhttp://www.ebay.com/itm/Nail-Art-Chunky-Loves-DreaMs-Pink-Red-Hexagons-Hearts-Glitter-Spangle-Pot-Tip-/272525302302?hash=item3f73c61a1e:g:g-4AAOSwImRYfixu
p66
aVhttp://www.ebay.com/itm/Nail-Art-Chunky-Valentines-Ruby-Red-Hexagon-Hearts-Shape-Glitter-Spangle-Pot-/282329057561?epid=709674880&hash=item41bc1f8919:g:Gs8AAOSwImRYfh5L
p67
aVhttp://www.ebay.com/itm/Nail-Art-Chunky-Jade-Dark-Green-Hexagons-Glitter-Spangles-Mix-Pot-Decorations-/282256684320?epid=877581531&hash=item41b7cf3520:g:3gMAAOSwcLxYKuA0
p68
aVhttp://www.ebay.com/itm/12-GOLD-iron-on-hot-fix-spangle-sequin-sheet-craft-art-/380256032774?hash=item5889069806:g:aJsAAOxy8HlScjyS
p69
aVhttp://www.ebay.com/itm/Nail-Art-Chunky-KiSs-White-Hexagon-Red-Hearts-Mix-Shape-Glitter-Spangle-Pot-/282329066892?hash=item41bc1fad8c:g:mK8AAOSw5cNYfh~4
p70
aVhttp://www.ebay.com/itm/Valentines-Nail-Art-Heart-Shape-Spangles-Glitter-Holographic-Bling-Bling-Gold-/302195304930?hash=item465c3e69e2:g:TX8AAOSwNnRYfKm4
p71
aVhttp://www.ebay.com/itm/Nail-Art-Pink-y-Holographic-SasSy-Myler-Flakes-Cut-Shatter-Pot-Spangle-Glitter-/282540135764?hash=item41c8b45554:g:AXcAAOSw1BlZTTZ4
p72
aVhttp://www.ebay.com/itm/Cloud9basic-Beautiful-Butterfly-Spangle-Headband-Alice-band-Shiny-Hairband-/142340370480?var=&epid=733503454&hash=item212425b030:m:mvXFwa3Kzf-RT0NyzSN3rhg
p73
aVhttp://www.ebay.com/itm/Nail-Art-Chunky-Love-Pink-Red-Hexagons-Glitter-Spangles-Mix-Tip-Pot-Decoration-/281955294320?epid=710897752&hash=item41a5d85c70:g:ZbsAAOSwQaJXSXRS
p74
aVhttp://www.ebay.com/itm/Valentines-Nail-Art-Heart-Shape-Spangles-Glitter-Holographic-Rose-Purple-/112267740466?epid=600078485&hash=item1a23adc532:g:8GgAAOSwjDZYfKle
p75
aVhttp://www.ebay.com/itm/Valentines-Nail-Art-Heart-Shape-Spangles-Glitter-Holographic-Easter-MIXED-/302218222304?epid=901973292&hash=item465d9c1ae0:g:~AwAAOSw44BYme2i
p76
aVhttp://www.ebay.com/itm/Nail-Art-Halo-Circles-Hexagon-Iridescent-Silver-Holograpic-Pot-Spangle-Glitter-/272525319912?hash=item3f73c65ee8:g:tE0AAOSwA3dYfjAG
p77
aVhttp://www.ebay.com/itm/Nail-Art-Silver-Swirl-Ring-Circle-Colour-Change-Holographic-Pot-Spangle-Glitter-/281688949807?hash=item4195f8442f:g:yJIAAOSwhwdVUIea
p78
aVhttp://www.ebay.com/itm/Clover-Kantan-Couture-Bead-Embroidery-Tool-Sequins-Spangles-Tambour-Fine-Hook-/112361013602?epid=1005213472&hash=item1a293d0162:g:a88AAOSw~CFY5t~h
p79
aVhttp://www.ebay.com/itm/Nail-Art-Chunky-LaTTe-Champagne-Coffee-Matte-Hexagon-Glitter-Spangle-Mix-Pot-/272397542597?hash=item3f6c28a4c5:g:pLwAAOSw4shX78Ov
p80
aVhttp://www.ebay.com/itm/12-light-BLUE-iron-on-hot-fix-spangle-sequin-sheet-craf-/110568095634?hash=item19be5f3f92:g:87MAAOxyYTRSaREQ
p81
aVhttp://www.ebay.com/itm/3D-Nail-Art-Flower-Petal-Gold-Leaf-Oval-Shape-Holographic-Pot-Spangles-Glitter-/272484480352?epid=871157147&hash=item3f71573560:g:4kQAAOSwa~BYUAp3
p82
aVhttp://www.ebay.com/itm/Nail-Art-Sparkle-Holographic-Pink-Hearts-Valentines-Pot-Spangle-Glitter-Tip-V3-/272525241007?hash=item3f73c52aaf:g:p2kAAOSwLEtYfhy6
p83
aVhttp://www.ebay.com/itm/Nail-Art-Play-boy-Design-Silver-Bunny-Holographic-Pot-Spangle-Glitter-Decoration-/281939195331?epid=875358800&hash=item41a4e2b5c3:g:szUAAOSwzgRWxeG4
p84
aVhttp://www.ebay.com/itm/Nail-Art-Chunky-DicE-Black-White-Dots-Circles-Shape-Glitter-Spangles-Mix-Pot-/282426218305?epid=855322618&hash=item41c1ea1741:g:4dYAAOSww3tY6RcY
p85
aVhttp://www.ebay.com/itm/Nail-Art-Chunky-BubbleGum-Shiny-Pinks-Hexagon-Shapes-Glitter-Spangle-Mix-Pot-/272623644402?hash=item3f79a2aef2:g:h6IAAOSwc-tY6Qz1
p86
aVhttp://www.ebay.com/itm/Nail-Art-Chunky-Candy-Pink-White-Black-Hexagon-Glitter-Spangle-Mix-Pot-ArtTips-/272316266560?epid=14003457177&hash=item3f67507840:g:aJEAAOSwIgNXkjkr
p87
aVhttp://www.ebay.com/itm/Nail-Art-Chunky-RuBy-Valentines-Red-Hexagon-Glitter-Spangle-Mix-Pot-Art-Tips-/272397505935?hash=item3f6c28158f:g:kPQAAOSwpLNX77sh
p88
aVhttp://www.ebay.com/itm/Nail-Art-Chunky-Candy-FloSS-Pink-Diamond-White-Hexagon-Glitter-Spangle-Mix-Pot-/272397550572?epid=862964092&hash=item3f6c28c3ec:g:788AAOSwPCVX78U~
p89
aVhttp://www.ebay.com/itm/Nail-Art-Chunky-Easter-Matte-Pink-Yellow-Neon-Hexagon-Shapes-Spangles-Mix-Pot-/282329136864?epid=863400663&hash=item41bc20bee0:g:SkoAAOSwopRYfjIM
p90
aVhttp://www.ebay.com/itm/Nail-Art-Chunky-DeVils-Black-Red-Dot-Circle-Red-Hearts-Glitter-Spangle-Pot-Tip-/282329101110?hash=item41bc203336:g:QxsAAOSw2xRYfir6
p91
aVhttp://www.ebay.com/itm/Diamond-Rhombus-Design-Spangles-Shape-Nail-Art-Tip-Glitter-Pack-Decoration-Craft-/272005002770?var=&hash=item3f54c2f612:m:mbGt-W4cB8szT1L8zoQfd7Q
p92
aVhttp://www.ebay.com/itm/RETRO-VINTAGE-1950S-ART-PRINT-30-X-40CM-SPANGLE-SWEETS-GOT-THE-BRUSH-/291681676824?hash=item43e9952e18:g:VGAAAOSwstxVUgTc
p93
aVhttp://www.ebay.com/itm/Fine-Glitter-Dust-Sparky-Powder-Small-Pack-Spangle-Nail-Art-Tip-Decoration-Craft-/281816782185?var=&hash=item419d96d569:m:mUp9aIK20qw-wl27-4Kh9Qw
p94
aVhttp://www.ebay.com/itm/Nail-Art-Sparkle-Holographic-Red-Hearts-Valentines-Pot-Spangle-Glitter-Tips-V2-/272525238300?epid=887790379&hash=item3f73c5201c:g:Pd0AAOSwnHZYfhwO
p95
aVhttp://www.ebay.com/itm/Valentines-Nail-Art-Heart-Shape-Studs-3D-Nail-Art-Decoration-Spangles-SILVER-/292003579991?hash=item43fcc50857:g:I7MAAOSwUKxYf2w-
p96
aVhttp://www.ebay.com/itm/Nail-Art-Chunky-Emerald-Deep-Green-Shine-Hexagon-Glitter-Spangles-Mix-Pot-Tips-/282202284428?hash=item41b491218c:g:5u0AAOSwTA9X78A9
p97
aVhttp://www.ebay.com/itm/GOLD-iron-on-hot-fix-spangle-sequin-sheet-crafts-arts-/160123329785?hash=item2548181cf9:g:LDEAAMXQL99Sal7e
p98
aVhttp://www.ebay.com/itm/50-x-Nail-Art-Rose-Gold-Lucky-Flower-Clover-St-Patricks-Tiny-Thin-Metal-Spangle-/271813404015?hash=item3f4957656f:g:r3MAAOSw-7RVDYcH
p99
aVhttp://www.ebay.com/itm/Nail-Art-Chunky-Princess-Pink-Lilac-Haze-Hexagon-Spangle-Glitter-Dust-Mix-Pot-/282032592207?epid=678084118&hash=item41aa73d54f:g:xYkAAOSwmLlX78h8
p100
aVhttp://www.ebay.com/itm/Nail-Art-Chunky-MiDas-Gold-Touch-Shine-Hexagon-Glitter-Spangles-Mix-Pot-Tips-/272397535926?hash=item3f6c288ab6:g:c14AAOSw4shX78JG
p101
aVhttp://www.ebay.com/itm/Nail-Art-Chunky-CupiD-Iridescent-Silver-Red-Hexagon-Hearts-Glitter-Spangle-Pot-/272525292543?hash=item3f73c5f3ff:g:UWcAAOSwopRYfinS
p102
aVhttp://www.ebay.com/itm/5-Panel-Total-Size-115x80cm-Large-PICTURES-CANVAS-WALL-ART-PRINTS-SPANGLE-Brown-/380656959268?epid=1588349037&hash=item58a0ec3f24:g:h9gAAOxy0zhTPdS-
p103
aVhttp://www.ebay.com/itm/3D-Nail-Art-Decoration-Pearl-Rhinestones-Spangles-Beads-Gel-Polish-1200-Pieces-/112317746546?epid=805921566&hash=item1a26a8cd72:g:14oAAOSwfVpYtFWT
p104
aVhttp://www.ebay.com/itm/Nail-Art-Chunky-TinSel-Xmas-Green-Gold-Red-Hexagon-Glitter-Spangles-Mixed-Pot-/282290225748?hash=item41b9cf0254:g:IdEAAOSwCEdYUAVw
p105
aVhttp://www.ebay.com/itm/Nail-Art-Gold-Diamond-Colour-Changing-Holographic-Pot-Spangle-Glitter-Deco-/271738811651?hash=item3f44e53503:g:5B8AAOSw8d9Uw6s5
p106
aVhttp://www.ebay.com/itm/Nail-Art-Sparkle-Holographic-Silver-Snowflakes-Pot-Spangle-Glitter-Decorations-/272363481616?hash=item3f6a20ea10:g:37IAAOSwFdtXyvlK
p107
aVhttp://www.ebay.com/itm/Nail-Art-Chunky-St-Patrick-Gold-Green-Hexagon-Shapes-Glitter-Spangle-Mix-Pot-/272157545617?hash=item3f5dda9491:g:8i8AAOSwmLlX78nR
p108
aVhttp://www.ebay.com/itm/50pc-Nail-Art-Sliver-Rose-Gold-Christmas-Snowflakes-Small-Thin-Metal-Spangle-SF1-/272456723016?hash=item3f6fafaa48:g:wtkAAOSwux5YMeLh
p109
aVhttp://www.ebay.com/itm/Starlite-Gymnastics-Dance-Spangle-Leotard-White-Star-Print-on-Blue-/272299665699?var=&hash=item3f66532923:m:mUGn2Sx8tZQaUsxFv-OqSnw
p110
aVhttp://www.ebay.com/itm/Dartington-Spangle-Highball-Glasses-4-Pack-/361634138930?epid=1368939261&hash=item5433130b32:g:57MAAOSwXeJXfP9Y
p111
aVhttp://www.ebay.com/itm/Nail-Art-Chunky-Plum-Mulberry-Wine-Hexagon-Glitter-Spangles-Mix-Pot-Decoration-/272450336056?hash=item3f6f4e3538:g:f~EAAOSw4GVYKt8C
p112
aVhttp://www.ebay.com/itm/Neotrims-Strung-Spangle-Sequin-6mm-Craft-Ribbon-Tape-Trimming-13-Colours-Cheap-/261358204387?var=&epid=1158541845&hash=item3cda29b5e3:m:mdvSgJgW6XKYteOh64NCWtw
p113
aVhttp://www.ebay.com/itm/Nail-Art-Chunky-Christmas-Silver-Red-Hexagon-Glitter-Spangle-Mix-Pot-Art-Tips-/272397509371?hash=item3f6c2822fb:g:qnYAAOSw4shX77wo
p114
aVhttp://www.ebay.com/itm/Valentines-Nail-Art-HOLLOW-HEART-Shape-Spangles-Glitter-Holographic-Rose-Purple-/302200799192?epid=895821814&hash=item465c923fd8:g:BSQAAOSwnHZYgPqN
p115
aVhttp://www.ebay.com/itm/Nail-Art-Chunky-Ballet-Shoes-Shiny-Pink-Hexagon-Shape-Glitter-Spangle-Mix-Pot-/272623646893?hash=item3f79a2b8ad:g:fU4AAOSwpkFY6Q5W
p116
aVhttp://www.ebay.com/itm/Me-to-You-Blue-Nose-Friends-Spangle-the-Starfish-No-115-/190916895546?epid=1705477026&hash=item2c7388a33a:g:OiMAAOSwc-tY4rqk
p117
aVhttp://www.ebay.com/itm/Glitter-Washi-Tape-Honeycomb-Spangle-Self-Adhesive-Stick-On-Sticky-Trim-/251640388766?var=&hash=item3a96ef9c9e:m:mrot1blg-CNVX2_BQP20Zcg
p118
aVhttp://www.ebay.com/itm/Nail-Art-Sparkle-Holographic-Silver-Xmas-Trees-Pot-Spangle-Glitter-Decorations-/282160381248?hash=item41b211bd40:g:9-sAAOSwdIFXyvx-
p119
aVhttp://www.ebay.com/itm/Nail-Art-Chunky-TanGo-Red-Black-Gold-Dot-Circle-Shape-Glitter-Spangle-Mix-Pot-/272680884180?hash=item3f7d0c17d4:g:Yu8AAOSwKytZIcMQ
p120
aVhttp://www.ebay.com/itm/Pearl-iron-on-hot-fix-spangle-sequin-sheet-craft-patch-/350218430354?hash=item518aa52792:m:m8ZJBk7T_pfUigwm3MQDOQg
p121
aVhttp://www.ebay.com/itm/Women-Leaf-Spangle-Head-aliceband-hairband-headband-Shiny-/131583708332?var=&epid=1541171826&hash=item1ea3000cac:m:mBBxMk3G1WdtVfgU-BTlzzA
p122
aVhttp://www.ebay.com/itm/12-SILVER-iron-on-hotfix-spangle-sequin-sheet-craft-customise-tshirt-transfer-/110778993231?hash=item19caf14a4f:g:FIcAAOxyTjNScOPS
p123
aVhttp://www.ebay.com/itm/SPANGLES-SWEETS-BUMPER-CARS-ADVERT-Framed-Poster-A4-Black-Frame-/380515878622?hash=item58988386de:m:mPKgwdbg-K3zo6unaslgTIA
p124
aVhttp://www.ebay.com/itm/Lilac-Spangle-Diamante-Dress-Net-Tulle-Sequins-Fabric-Material-Tutu-150cm-/262680686301?var=&hash=item3d28fd2edd:m:mrt7AuKsCXdLQ-JLkUP01Rg
p125
aVhttp://www.ebay.com/itm/Valentines-Nail-Art-Heart-Shape-Studs-3D-Nail-Art-Decoration-Spangles-GOLD-/292003577419?hash=item43fcc4fe4b:g:OaIAAOSwZQRYf56N
p126
aVhttp://www.ebay.com/itm/Easter-3D-Nail-Art-Decoration-Pearls-Spangles-Rhinestones-Candy-Colour-Wheel-/292028411352?epid=880731097&hash=item43fe3fedd8:g:E-cAAOSw2gxYoyZM
p127
aVhttp://www.ebay.com/itm/3D-Nail-Art-Decoration-Rhinestones-Diamante-Crystals-Spangles-Metallic-Bows-3mm-/292156659732?hash=item4405e4d814:g:GmUAAOSwd~RZR9-f
p128
aVhttp://www.ebay.com/itm/Spangles-Vintage-sweet-advert-poster-reproduction-/121655664119?var=&hash=item1c533e1df7:m:mNXLCZZR1To85vYMJBfDeCQ
p129
aVhttp://www.ebay.com/itm/SILVER-iron-on-hot-fix-spangle-sequin-sheet-crafts-arts-/160123329556?hash=item2548181c14:g:bl0AAOxyx-BSal8C
p130
aVhttp://www.ebay.com/itm/50pc-Nail-Art-Sliver-Rose-Gold-Christmas-Snowflakes-Small-Thin-Metal-Spangle-SF3-/272456726457?hash=item3f6fafb7b9:g:JhoAAOSwcUBYMeSt
p131
aVhttp://www.ebay.com/itm/Silver-STRIPE-iron-on-spangle-sequin-sheet-craft-patch-/380134020976?hash=item5881c0d770:m:mVko-yXINWnww-OPCCQulcg
p132
aVhttp://www.ebay.com/itm/Nail-Art-Chunky-FanDango-Shiny-Hot-Pink-Hexagon-Shape-Glitter-Spangle-Mix-Pot-/272623649646?hash=item3f79a2c36e:g:b0sAAOSw3utY6Q7C
p133
aVhttp://www.ebay.com/itm/RED-iron-on-hot-fix-spangle-sequin-sheet-crafts-/160123330454?hash=item2548181f96:g:7XwAAOxywXFSal57
p134
aVhttp://www.ebay.com/itm/Glitter-Hollow-Solid-Heart-Star-Flower-Sheet-12-Colors-Spangle-DIY-Nail-Art-Tool-/361978444655?hash=item544798bb6f:g:vkwAAOSwYlRZFntU
p135
aVhttp://www.ebay.com/itm/50-x-Nail-Art-Silver-Rose-Gold-Valentines-Hearts-Small-Thin-Metal-Spangles-1VH-/272544762329?hash=item3f74ef09d9:g:kscAAOSwUKxYlLrv
p136
aVhttp://www.ebay.com/itm/10-x-large-PINK-iron-on-hot-fix-FABRIC-spangle-BUTTERFLY-/160150819357?hash=item2549bb921d:g:xWMAAMXQL99Sb7QU
p137
aVhttp://www.ebay.com/itm/5-light-BLUE-iron-on-hot-fix-spangle-sequin-sheet-craft-/160463552047?hash=item255c5f7e2f:m:mSa4iIJezURlsWENbrtxI5w
p138
aVhttp://www.ebay.com/itm/10-x-small-PURPLE-iron-on-hot-fix-FABRIC-spangle-BUTTERFLY-/160150820754?hash=item2549bb9792:g:tfAAAOxygj5ScO2e
p139
aVhttp://www.ebay.com/itm/Glitter-Shaker-250g-Pots-Bottle-Spangle-Nail-Art-Craft-/291717977873?var=&hash=item43ebbf1711:m:meXsiyHYFIP9r_yR0g8H42w
p140
aVhttp://www.ebay.com/itm/ST-SPIDER-SPANGLE-BLACK-SEQUINED-NET-TULLE-DRESS-CRAFT-DECORATION-FABRIC-/400615005070?hash=item5d4683db8e:g:ME8AAOxyXDhSlIbm
p141
aVhttp://www.ebay.com/itm/5-Silver-STRIPE-iron-on-spangle-sequin-sheet-craft-patc-/380256029447?epid=1288256530&hash=item5889068b07:m:mVko-yXINWnww-OPCCQulcg
p142
aVhttp://www.ebay.com/itm/5-SILVER-iron-on-hot-fix-spangle-sequin-sheet-craft-art-/110568089977?hash=item19be5f2979:g:f6QAAOxyRNJScOeO
p143
aVhttp://www.ebay.com/itm/3D-Nail-Art-Decoration-Pearl-Rhinestones-Spangles-Beads-Bows-Kawaii-500-Pieces-/112377965219?hash=item1a2a3faaa3:g:aL4AAOSwHptY-Qiw
p144
aVhttp://www.ebay.com/itm/50g-Assorted-Spangle-Sequin-Confetti-Mix-for-Kids-Crafts-Sequins-for-Crafts-/390913460354?hash=item5b04420882:g:BBEAAOSwqu9U-P5A
p145
aVhttp://www.ebay.com/itm/10-x-large-RED-iron-on-hot-fix-FABRIC-spangle-BUTTERFLY-/160150819644?hash=item2549bb933c:m:mNNnUGgmOR2myyO308e6tug
p146
a.