(lp0
Vhttp://www.ebay.com/itm/Green-Laser-Pointer-Adjustable-Focus-1mw-Pen-532nm-Burning-Beam-Light-Lazer-DKUR-/172688475964?epid=559494731&hash=item283509073c:g:BWIAAOSw1WJZIp-r
p1
aVhttp://www.ebay.com/itm/303-Green-Pointer-Laser-Pen-Adjustable-Focus-532nm-Burning-1mw-18650-Charger-/351400537741?epid=1160705742&hash=item51d11aae8d:g:taoAAOSwUKxYdgAN
p2
aVhttp://www.ebay.com/itm/Green-Laser-Pointer-Adjustable-Focus-1mw-Pen-532nm-Burning-Beam-Light-Lazer-/172767198095?epid=506676962&hash=item2839ba3b8f:g:JX8AAOSw0j9ZXj0x
p3
aVhttp://www.ebay.com/itm/1mw-Adjustable-Focus-532nm-Green-Laser-Pointer-Burning-Match-Lazer-Pen-/222377321322?epid=1461402662&hash=item33c6b8a36a:g:nUoAAOSwt5hYgHkL
p4
aVhttp://www.ebay.com/itm/303-Pointer-Burning-Laser-Lazer-Pen-Beam-Light-Adjustable-Focus-532nm-1mw-Green-/261740269945?epid=1463833908&hash=item3cf0ef9179:g:z6QAAOSw4A5Y2it2
p5
aVhttp://www.ebay.com/itm/Powerful-G303-Green-Laser-Pointer-Pen-Adjustable-Focus-532nm-Burning-Lazer-1mw-/261740252985?epid=1261458426&hash=item3cf0ef4f39:g:~qYAAOSwax5Y2is-
p6
aVhttp://www.ebay.com/itm/Burning-Lazer-Pointer-POWERFUL-1MW-532nm-/262985198138?hash=item3d3b23aa3a:g:QFAAAOSwX9FZGHXV
p7
aVhttp://www.ebay.com/itm/Burning-Laser-Pointer-Rechargeable-Battery-301-303-305-306-307-/322512318260?hash=item4b173b6f34:g:YsUAAOSwZKBZE3~E
p8
aVhttp://www.ebay.com/itm/Burning-Desire-The-Jimi-Hendrix-Experience-Through-the-Lens-of-Ed-Caraeff-by-/302358354855?epid=235082987&hash=item4665f65ba7:g:92sAAOSwXetZTK0d
p9
aVhttp://www.ebay.com/itm/The-Last-Kingdom-Series-Bernard-Cornwell-5-Books-Collection-Box-Set-Burning-Land-/110877332654?epid=228338597&hash=item19d0cdd4ae:g:Wz4AAOSw9GhYkcRc
p10
aVhttp://www.ebay.com/itm/Horus-Heresy-Burning-of-Prospero-Mark-III-MK3-Space-Marine-Legion-Veterans-Squad-/162582387437?epid=1776843829&hash=item25daaa5aed:g:nogAAOSwmgJY7pyR
p11
aVhttp://www.ebay.com/itm/Parov-Stelar-The-Burning-Spider-NEW-CD-/391767186116?epid=716347959&hash=item5b3724dac4:g:LRsAAOSwhvFZAZ2-
p12
aVhttp://www.ebay.com/itm/Londons-Burning-The-Complete-Series-1-to-7-DVD-5027626312046-Mark-Arden-/391706420249?epid=74898877&hash=item5b3385a419:g:orMAAOSwARZXjgx4
p13
aVhttp://www.ebay.com/itm/OXFORD-1-76-DENNIS-RS-FIRE-ENGINE-LONDON-FIRE-BRIGADE-LONDONS-BURNING-76DN001-/381888064845?epid=580835267&hash=item58ea4d6d4d:g:OfsAAOSw44BYVQf~
p14
aVhttp://www.ebay.com/itm/Warhammer-30K-Horus-Heresy-Burning-of-Prospero-Space-Wolves-Geigor-Fell-Hand-/162582391284?epid=558866778&hash=item25daaa69f4:g:KgMAAOSwlndZA7n4
p15
aVhttp://www.ebay.com/itm/Turn-Up-the-Heat-Unlock-the-Fat-Burning-Power-of-Your-Metabolism-by-Philip-/231807750073?epid=179924571&hash=item35f8d18fb9:g:uSEAAOSw3mpXGWdv
p16
aVhttp://www.ebay.com/itm/The-Burning-Page-by-Genevieve-Cogman-9781447256274-Paperback-2016-/351939351555?epid=229321946&hash=item51f1385403:g:yykAAOSwImRYW7bl
p17
aVhttp://www.ebay.com/itm/WoodBurner-NEW-Cast-Iron-Log-Burner-MultiFuel-Wood-Burning-5-5-kw-Stove-JA013S-/130793856362?epid=1119384388&hash=item1e73ebdd6a:g:MoAAAOSwcu5UP4-V
p18
aVhttp://www.ebay.com/itm/Wood-Burning-Pen-30W-Soldering-Set-Pyrography-Tool-Kit-Spare-Brass-Tips-BI722-/162567370656?hash=item25d9c537a0:g:CHgAAOSwFqNZUVoN
p19
aVhttp://www.ebay.com/itm/Warhammer-40K-30k-Burning-at-Prospero-Tartaros-Terminators-Squad-5-/162582388772?epid=628966504&hash=item25daaa6024:g:F0wAAOSwrddY7p8o
p20
aVhttp://www.ebay.com/itm/Firm-Fat-Burning-Dance-Workout-DVD-NEW-/282430698608?epid=113732962&hash=item41c22e7470:g:jVsAAOSw~CFY7iOQ
p21
aVhttp://www.ebay.com/itm/YuGiOh-Dark-Burning-Attack-LDK2-ENS04-Secret-Rare-Limited-Edition-/302100274237?hash=item4656945c3d:g:i5oAAOSwNRdX-N4O
p22
aVhttp://www.ebay.com/itm/NEW-Anti-Cellulite-Calorie-Burning-Slimming-Leggings-RESULTS-IN-30-DAYS-BLACK-/222443774400?var=&hash=item33caaea1c0:m:mehAT_aiw_gUMd9qqkOhF9w
p23
aVhttp://www.ebay.com/itm/NEW-Portable-Wood-Gas-Burning-Backpacking-Camping-Picnic-Stove-Alcohol-Stove-/272708483423?hash=item3f7eb1395f:g:J9QAAOSwwvZZOZ-r
p24
aVhttp://www.ebay.com/itm/3-x-GRAFF-MALEBRANCHE-OF-THE-BURNING-ABYSS-PGL3-EN044-1st-Ed-Gold-Rare-/361513346870?epid=1383912695&hash=item542bdfe736:g:IQcAAOSwa81XSZCX
p25
aVhttp://www.ebay.com/itm/YU-GI-OH-VIRGIL-ROCK-STAR-OF-THE-BURNING-ABYSS-SECRET-RARE-MP15-EN187-1st-ED-/191694411000?epid=854987432&hash=item2ca1e094f8:g:6-AAAOSwiLdV~A13
p26
aVhttp://www.ebay.com/itm/LDK2-ENS04-DARK-BURNING-ATTACK-SECRET-RARE-ED-/182355134120?hash=item2a753686a8:g:ZK0AAOSwHMJYK1j-
p27
aVhttp://www.ebay.com/itm/NEW-Wood-Burning-21-Piece-Soldering-Tool-Set-Pyrography-Kit-Brass-Tips-Box-/351854726021?hash=item51ec2d0b85:g:qnoAAOSw~gRVsRtB
p28
aVhttp://www.ebay.com/itm/BURNING-OIL-HIGH-OIL-CONSUMPTION-AMTECH-Engine-Restorer-250ml-for-1-Ltr-engine-/351983329579?epid=1305410590&hash=item51f3d7612b:g:UagAAOSwEjFXcU5O
p29
aVhttp://www.ebay.com/itm/Tartaros-Terminator-Squad-Horus-Heresy-Burning-of-Prospero-Space-Marines-/391824065462?hash=item5b3a88c3b6:g:xn4AAOSwMVdYGLKO
p30
aVhttp://www.ebay.com/itm/EPITAPH-BURNING-HEART-Hives-Offspring-2000-promo-poster-24-x-16-original-/361758540179?hash=item543a7d4193:g:0m8AAOSwLnBX9Ovd
p31
aVhttp://www.ebay.com/itm/The-Burning-Land-by-Bernard-Cornwell-9780007315581-CD-Audio-2009-/331893176722?epid=92110295&hash=item4d465ff992:g:5sIAAOSwFwpXcX3Y
p32
aVhttp://www.ebay.com/itm/START-COLLECTING-DAEMONS-OF-TZEENTCH-BURNING-CHARIOT-OF-TZEENTCH-WITH-HERALD-/252985499530?hash=item3ae71c5f8a:g:LsgAAOSwlMFZGhbL
p33
aVhttp://www.ebay.com/itm/YuGiOh-Alich-Malebranche-of-the-Burning-Abyss-NECH-EN083-Rare-1st-Edition-x3-/262910964001?epid=585980642&hash=item3d36b6f121:g:dzMAAOSw4CFY18mL
p34
aVhttp://www.ebay.com/itm/IAMX-Everything-Is-Burning-Metanoia-Addendum-NEW-2CD-/311694026320?epid=1781809453&hash=item4892696650:g:xecAAOSwFdtX0nGM
p35
aVhttp://www.ebay.com/itm/Studio-1-T-shirt-one-marley-coxonne-reggae-dub-burning-spear-lee-perry-ska-roots-/302060016009?var=&hash=item46542e1189:m:m9yAXvQw718ftvvlTt1P_0Q
p36
aVhttp://www.ebay.com/itm/Londons-Burning-Complete-Series-1-7-20-DVD-Box-Set-NEW-SEALED-/201845707969?epid=74898877&hash=item2efef114c1:g:65QAAOxyOlhS5BDi
p37
aVhttp://www.ebay.com/itm/Original-Wood-Burning-21-Piece-Soldering-Tool-Set-Pyrography-Kit-Brass-Tips-Box-/263049229909?epid=1642403394&hash=item3d3ef4b655:g:OTwAAOSwHLNZSmoh
p38
aVhttp://www.ebay.com/itm/Cibola-Burn-Book-4-of-the-Expanse-Corey-James-S-A-New-condition-Book-/352033697956?epid=213124852&hash=item51f6d7f0a4:g:gUUAAOSwvg9XVzX7
p39
aVhttp://www.ebay.com/itm/22PC-30W-Wood-Burning-Pen-Soldering-Set-Pyrography-Kit-Brass-Tools-Tips-Box-/391531114594?epid=1780537859&hash=item5b2912b062:g:iMIAAOSwIgNXrbuc
p40
aVhttp://www.ebay.com/itm/HOW-TO-PAINT-BURNING-OF-PROSPERO-WARHAMMER-40-000-40K-GAMES-WORKSHOP-/152393317283?epid=2059007302&hash=item237b597ba3:g:mBMAAOSwHMJYC0t2
p41
aVhttp://www.ebay.com/itm/S-O-U-L-BURNING-SPEAR-DO-WHATEVER-YOU-WANT-TO-DO-VINYL-NEW-/302273184519?hash=item4660e2c307:g:4ZwAAOSwTM5Y465o
p42
aVhttp://www.ebay.com/itm/Green-Laser-Pointer-Adjustable-Focus-1mw-Pen-532nm-Burning-Beam-Light-Lazer-/291950513083?epid=559494731&hash=item43f99b4bbb:g:cQUAAOSwHMJYNDUE
p43
aVhttp://www.ebay.com/itm/Wood-Burning-Stove-1-12-Scale-for-Dolls-House-from-Dolls-House-Emporium-/141957996026?epid=1927938166&hash=item210d5b1dfa:g:CjgAAOSwYmZXDhs2
p44
aVhttp://www.ebay.com/itm/Pyro-Crafting-Pen-30W-Wood-Burning-26-Tips-Hot-Cutter-Pyrography-/152449890412?hash=item237eb8b86c:g:quQAAOSwSlBYsqR9
p45
aVhttp://www.ebay.com/itm/Warhammer-30K-Burning-of-Prospero-Horus-Heresy-SM-Tartaros-Terminator-Squad-5-/302346795496?epid=858573050&hash=item466545f9e8:g:FAoAAOSw~XpZPYCn
p46
aVhttp://www.ebay.com/itm/Frontline-20mm-1-72-Russian-GAZ-AA-Wood-Burning-Cargo-Truck-/311842237555?hash=item489b3eec73:g:TAwAAOSwuLZY6B1S
p47
aVhttp://www.ebay.com/itm/The-All-Day-Fat-Burning-Cookbook-by-Yuri-Elkaim-9781623366070-Hardback-2016-/302253427765?epid=229404440&hash=item465fb54c35:g:67YAAOSwTM5YyXNx
p48
aVhttp://www.ebay.com/itm/Horus-Heresy-Burning-of-Prospero-Game-Tiles-Rulebook-Cards-Dice-/112462390017?hash=item1a2f47e301:g:n7wAAOSw8lpZLCWL
p49
aVhttp://www.ebay.com/itm/Bukowski-Charles-Burning-In-Water-Drowning-In-Flame-BOOK-NEW-/352098124535?epid=95784209&hash=item51faaf02f7:g:I5QAAOSwq~tZUPQ6
p50
aVhttp://www.ebay.com/itm/Slimming-Leggings-In-Black-Anti-Cellulite-Calorie-Burning-Ladies-Womens-Sport-/191477984667?var=&hash=item2c94fa2d9b:m:mrxAj6covrDHl_g7pZQTsJw
p51
aVhttp://www.ebay.com/itm/The-Burning-World-by-Isaac-Marion-9781784700867-Paperback-2017-/302215141655?epid=233399968&hash=item465d6d1917:g:nasAAOSwnHZYlcwD
p52
aVhttp://www.ebay.com/itm/Prices-10-Candles-Up-To-5-Hrs-Burning-Time-2cm-Diameter-Household-Candle-/252540128921?epid=1805505287&hash=item3acc908e99:g:EpMAAOSwECZUnTer
p53
aVhttp://www.ebay.com/itm/Bon-Jovi-Burning-Bridges-2015-CD-NEW-SEALED-SPEEDYPOST-/232076436496?epid=1640617928&hash=item3608d56410:g:2CUAAOSwOVpXbAPF
p54
aVhttp://www.ebay.com/itm/VITCAS-Heat-Resistant-Spray-Paint-400ml-For-Wood-burning-Stoves-Fires-Black-/311674237396?epid=1254113384&hash=item48913b71d4:g:zW0AAOSw6n5XrHrL
p55
aVhttp://www.ebay.com/itm/Warhammer-40K-Horus-Heresy-Burning-of-Prospero-Tartaros-Terminators-5-man-/292141074605?hash=item4404f708ad:g:ZpYAAOSwsXFZNWTL
p56
aVhttp://www.ebay.com/itm/NEW-Wood-Burning-21-Piece-Soldering-Tool-Set-Pyrography-Kit-Brass-with-Tips-/141719348576?epid=621941817&hash=item20ff21a560:g:P10AAOSwBahU~e0C
p57
aVhttp://www.ebay.com/itm/YU-GI-OH-CARD-RUBIC-MALEBRANCHE-OF-THE-BURNING-ABYSS-GOLD-RARE-PGL3-EN046-1ST-ED-/111939269527?hash=item1a1019b397:g:rqsAAOSwvgdW6ryQ
p58
aVhttp://www.ebay.com/itm/The-Jim-Jones-Revue-Burning-Your-House-Down-POSTER-/200955848813?hash=item2ec9e6e86d:g:tZEAAMXQNhdSF6Ih
p59
aVhttp://www.ebay.com/itm/The-Burning-Room-Harry-Bosch-Series-Connelly-Michael-New-condition-Book-/352010067157?epid=217631010&hash=item51f56f5cd5:g:9koAAOSwOgdYz8sX
p60
aVhttp://www.ebay.com/itm/YU-GI-OH-SUPER-RARE-CARD-SILENT-BURNING-DPRP-EN005-1ST-EDITION-/112137313627?hash=item1a1be79d5b:g:vbkAAOSw8gVX2noH
p61
aVhttp://www.ebay.com/itm/The-Burning-Bluray-DVD-NEW-/401247749799?epid=1288116101&hash=item5d6c3ac6a7:g:tMMAAOSwo4pYXPVw
p62
aVhttp://www.ebay.com/itm/Wood-Burning-Pen-Kit-Set-Soldering-Iron-Carving-Pyrography-Tips-Stand-BI722-/162519574983?hash=item25d6ebe9c7:g:TsUAAOSw-K9ZHIL8
p63
aVhttp://www.ebay.com/itm/Pixie-Dress-Psy-Trance-Clothing-Clubbing-Dress-Burning-Man-Summer-Dress-/382119252734?var=&hash=item58f81512fe:m:msY5G4BV2-a3xFnxppjvbGg
p64
aVhttp://www.ebay.com/itm/Londons-Burning-Complete-Series-8-14-28-DVD-Box-Set-NEW-SEALED-/142304419367?epid=102184155&hash=item2122011e27:g:Bh4AAOSwofxUffDP
p65
aVhttp://www.ebay.com/itm/MISSISSIPPI-BURNING-GENE-HACKMAN-NEW-SEALED-DVD-/400906807010?epid=3951339&hash=item5d57e866e2:m:mXQxJniW61SAIJv6N_dCpLg
p66
aVhttp://www.ebay.com/itm/SSTART-COLLECTING-DAEMONS-OF-TZEENTCH-BURNING-CHARIOT-OF-TZEENTCH-WITH-HERALD-/152550258295?hash=item2384b43677:g:5RsAAOSwZ4dZGsIw
p67
aVhttp://www.ebay.com/itm/The-Burning-World-The-Warm-Bodies-Series-Marion-Isaac-Paperback-Book-978-/361916693405?epid=233399968&hash=item5443ea7b9d:g:oHYAAOSw3v5Ytrq0
p68
aVhttp://www.ebay.com/itm/22pc-30W-Wood-Burning-Set-Replacement-Soldering-Pyrography-Brass-Tools-Tips-Pen-/172745218024?hash=item28386ad7e8:g:eRkAAOSw~XpZTT-I
p69
aVhttp://www.ebay.com/itm/Tealights-Unscented-Candles-Night-Lights-Party-Lights-4-Hours-Long-Burning-Time-/122446919321?var=&hash=item1c8267b699:m:mKLT7LHWinOCOR39eAh6JUA
p70
aVhttp://www.ebay.com/itm/The-Burning-Time-The-Story-of-the-Smithfield-Martyrs-9780230772311-/302272600367?hash=item4660d9d92f:g:qXIAAOSwzgBY4vRF
p71
aVhttp://www.ebay.com/itm/Londons-Burning-The-Complete-Series-8-14-Box-Set-DVD-/282544291636?epid=102184155&hash=item41c8f3bf34:g:1-AAAOSw0j9ZUTq0
p72
aVhttp://www.ebay.com/itm/YuGiOh-The-Terminus-of-the-Burning-Abyss-PGL3-EN088-Gold-Rare-1st-Edition-x3-/262871142530?hash=item3d34575082:g:~hcAAOSwx6pYsubf
p73
aVhttp://www.ebay.com/itm/YU-GI-OH-RARE-CARD-CAGNA-MALEBRANCHE-OF-THE-BURNING-ABYSS-SECE-EN084-/321679774792?var=&hash=item4ae59bd448:m:mpKcOlR8eOThItyBlcpuLfg
p74
aVhttp://www.ebay.com/itm/2016-New-Design-Eco-Friendly-Heat-Powered-Wood-Burning-Mini-Stove-Top-Fan-Black-/311526190708?epid=851082661&hash=item4888686e74:g:EyIAAOSwaA5Wl66x
p75
aVhttp://www.ebay.com/itm/Farfa-Malebranche-of-the-Burning-Abyss-PGL3-EN049-1st-Ed-Gold-Rare-/391736558980?epid=682973683&hash=item5b35518584:g:Ka0AAOSwmgJY0~2K
p76
aVhttp://www.ebay.com/itm/30W-220-240V-Wood-Burning-Pen-Soldering-Set-Pyrography-Kit-Brass-Tool-Tips-BI722-/401329205932?hash=item5d7115b2ac:g:6NcAAOSwX61ZHHTP
p77
aVhttp://www.ebay.com/itm/NEW-Tesco-Small-Round-Wood-Charcoal-Burning-Fire-Pit-Black-/391780121307?hash=item5b37ea3adb:g:PqsAAOSwMvtZUWo5
p78
aVhttp://www.ebay.com/itm/The-Burning-Land-The-Warrior-Chronicles-Book-5-by-Bernard-Cornwell-Paperback-/161757582276?epid=92752123&hash=item25a980d3c4:g:F6oAAOSw-vlVnSSg
p79
aVhttp://www.ebay.com/itm/30W-PYROGRAPHY-TOOL-WOOD-BURNING-CRAFT-WOODBURNING-PEN-IRON-KIT-24-TIPS-STAND-/192080043939?epid=1746511813&hash=item2cb8dcdfa3:g:XUcAAOSwhQ5XQLMI
p80
aVhttp://www.ebay.com/itm/3-x-LIBIC-MALEBRANCHE-OF-THE-BURNING-ABYSS-PGL3-EN050-1st-Ed-Gold-Rare-/361513314671?hash=item542bdf696f:g:448AAOSwSzRZUp2Q
p81
aVhttp://www.ebay.com/itm/22PC-30W-Wood-Burning-Pen-Soldering-Set-Pyrography-Kit-Brass-Tools-Tips-Box-/152557663188?hash=item23852533d4:g:t5YAAOSwpLNYBTL~
p82
aVhttp://www.ebay.com/itm/YU-GI-OH-CARD-DANTE-PILGRIM-OF-THE-BURNING-ABYSS-GOLD-RARE-PGL3-EN058-1ST-ED-/191828990209?hash=item2ca9e61901:g:MGAAAOSwv9hW6tu~
p83
aVhttp://www.ebay.com/itm/Barbar-Malebranche-of-the-Burning-Abyss-PGL3-EN054-Gold-Rare-Yu-gi-oh-Card-1st-/361514729243?epid=682976970&hash=item542bf4ff1b:g:dkEAAOSwyjBW7Wrv
p84
aVhttp://www.ebay.com/itm/Salmon-Poaching-on-the-River-Tweed-Burning-the-Water-Antique-Print-1862-/181745272642?hash=item2a50dcc742:g:oHAAAOSwstxVVJhC
p85
aVhttp://www.ebay.com/itm/Davina-McCall-The-Power-Of-3-DVD-Keep-Fit-Exercise-Workout-Fat-Burning-Diet-/132128058186?epid=44091645&hash=item1ec3722b4a:m:mwNzX3G8PkQTItWbS-yk_yA
p86
aVhttp://www.ebay.com/itm/JUNOLUX-LED-Burning-Light-Flicker-Flame-Light-Bulb-Fire-Effect-Bulb-Decorative-/132160564501?hash=item1ec5622d15:g:C~gAAOSwSypY8rio
p87
aVhttp://www.ebay.com/itm/The-Log-Book-Getting-the-Best-from-Your-Wood-Burning-Stove-9781856231572-/252955079054?epid=176490814&hash=item3ae54c318e:g:vs8AAOSwDiBZJR2K
p88
aVhttp://www.ebay.com/itm/YuGiOh-Dark-Burning-Magic-LDK2-ENS05-Secret-Rare-Limited-Edition-/262664483719?hash=item3d2805f387:g:HqYAAOSwLF1X-N8Y
p89
aVhttp://www.ebay.com/itm/Horus-Heresy-Burning-Of-Prospero-Sisters-Of-Silence-x5-/152600525349?hash=item2387b33a25:g:q6wAAOSwRUhZAJmg
p90
aVhttp://www.ebay.com/itm/MK3-Space-Marine-Torso-x-5-Horus-Heresy-Burning-of-Prospero-/391824065474?hash=item5b3a88c3c2:g:l6QAAOSw44BYKIj-
p91
aVhttp://www.ebay.com/itm/VIRGIL-ROCK-STAR-OF-THE-BURNING-ABYSS-PGL3-EN061-1st-Ed-Gold-Rare-/361513361563?hash=item542be0209b:g:MRYAAOSwyjBW6upR
p92
aVhttp://www.ebay.com/itm/MENS-NEW-DELUXE-BURNING-DEAD-ZOMBIE-WALKING-HORROR-HALLOWEEN-FANCY-DRESS-COSTUME-/201424784295?epid=675554368&hash=item2ee5da4ba7:g:s9cAAOSw~rpZOxrZ
p93
aVhttp://www.ebay.com/itm/THE-HORUS-HERESY-BURNING-OF-PROSPERO-40K-30K-GAMES-WORKSHOP-/162480000488?hash=item25d4900de8:g:g1UAAOSwXeJYC0ry
p94
aVhttp://www.ebay.com/itm/Silent-Burning-DPRP-EN005-Super-Rare-1st-Ed-/391567874065?hash=item5b2b439811:g:SqAAAOSw8gVX4Usl
p95
aVhttp://www.ebay.com/itm/Burning-Houses-of-Lords-Commons-Turner-Giclee-Print-Canvas-or-Fine-Art-Poster-/200434715278?hash=item2eaad70a8e:g:fnUAAOxy3HJTIAeE
p96
a.