(lp1
Vhttp://www.ebay.com/itm/Slovenia-2007-Set-of-8-Euro-Coins-UNC-/152420527434?hash=item237cf8ad4a:g:EP8AAOSwTglYkx87
p2
aVhttp://www.ebay.com/itm/Slovenia-100-Tolarjev-2003-P-31-UNC-/252497853868?hash=item3aca0b7dac:g:Cl8AAOxyZzlTchqR
p3
aVhttp://www.ebay.com/itm/Slovenia-50-Tolarjev-1992-P-13-UNC-/360944978806?hash=item5409ff4b76:g:CYMAAOxycgVThKoF
p4
aVhttp://www.ebay.com/itm/DK-Eyewitness-Travel-Guide-Slovenia-2017-DK-New-Book-/152594490291?epid=237109119&hash=item23875723b3:g:iTsAAOSwjKFZSmiM
p5
aVhttp://www.ebay.com/itm/300-Different-Slovenia-Stamp-Collection-/371604480567?hash=item56855a6237:g:SVIAAOSwlfxXFg6c
p6
aVhttp://www.ebay.com/itm/Slovenia-10-20-50-100-Tolarjev-1992-2003-Set-of-4-Banknotes-4-PCS-UNC-/360944981621?hash=item5409ff5675:g:WNUAAOxy3yNThKrP
p7
aVhttp://www.ebay.com/itm/Slovenia-2008-Set-of-8-Euro-Coins-UNC-of-BU-Quality-NEW-RARE-/110348074488?hash=item19b141fdf8:m:mobW2wZSg6Fx70jIKNllc_Q
p8
aVhttp://www.ebay.com/itm/Slovenia-10-20-50-100-Tolarjev-1992-2003-Set-of-4-Banknotes-4-PCS-UNC-/360944981621?hash=item5409ff5675:g:WNUAAOxy3yNThKrP
p9
aVhttp://www.ebay.com/itm/Slovenia-20-Tolarjev-1992-P-12-First-Prefix-AA-UNC-/252908648174?hash=item3ae287b6ee:g:dmUAAOSwX61ZBb9c
p10
aVhttp://www.ebay.com/itm/SLOVENIA-PLAYERS-WHITE-JERSEY-BY-NIKE-ADULTS-SIZE-MEDIUM-BRAND-NEW-WITH-TAGS-/300754362212?hash=item46065b5f64:g:e~4AAOSwg3FUdJ75
p11
aVhttp://www.ebay.com/itm/Slovenia-20-Tolarjev-1992-P-12-UNC-/361100730678?hash=item541347e136:g:CccAAOxy7vJTchUc
p12
aVhttp://www.ebay.com/itm/Slovenia-2-Euro-Coin-2014-Commemorative-Barbara-Celi-New-BUNC-from-Roll-/172626819556?hash=item28315c39e4:g:o4wAAOSw2xRYTpgp
p13
aVhttp://www.ebay.com/itm/Slovenia-Nike-BNWT-Shirt-Jersey-Soccer-Adult-Large-Maglia-Slovenija-Trikot-Top-/331688336860?hash=item4d3a2a5ddc:g:eMEAAOSwA4dWKNhv
p14
aVhttp://www.ebay.com/itm/Slovenia-Military-Army-Camouflaged-M91-1991-Pattern-Combat-Shirt-42-or-43-/321701157572?var=&hash=item4ae6e21ac4:m:m9p6qKMBYxcN0YI-7wqmWgg
p15
aVhttp://www.ebay.com/itm/Slovenia-2007-2-Euro-Treaty-of-Rome-Commem-UNC-/110508412559?hash=item19bad08e8f:g:Q8gAAOxywOtSYAtY
p16
aVhttp://www.ebay.com/itm/Slovenia-2-Euro-Coin-2011-Commemorative-Frank-Rozman-New-BUNC-FROM-roll-/172619675547?hash=item2830ef379b:g:168AAOSwOtdYTphm
p17
aVhttp://www.ebay.com/itm/SLOVENIA-2012-13-HOME-SHIRT-BY-NIKE-ADULTS-SIZE-LARGE-BRAND-NEW-WITH-TAGS-/301009794417?epid=1112438437&hash=item461594f571:g:x9wAAOxypNtSelVv
p18
aVhttp://www.ebay.com/itm/Waterfalls-Lake-Slovenia-3D-Effect-Wall-Sticker-Art-Decal-656-/272423655545?var=&hash=item3f6db71879:m:mJLbnhcpnpvcinUB-QIs3dQ
p19
aVhttp://www.ebay.com/itm/Slovenia-2007-2-Euro-Treaty-of-Rome-Commem-UNC-/110508412559?hash=item19bad08e8f:g:Q8gAAOxywOtSYAtY
p20
aVhttp://www.ebay.com/itm/Slovenia-2-Tolarjev-1990-P-2-Mint-UNC-Uncirculated-Banknotes-/252136668585?hash=item3ab4843da9:g:J6IAAOSwEppUNnnV
p21
aVhttp://www.ebay.com/itm/Slovenia-2007-Mini-Set-of-3-Euro-Coins-UNC-/150587033782?hash=item230fafc8b6:m:mXWI87VRjvnIQ8_d1F81oIA
p22
aVhttp://www.ebay.com/itm/Slovenia-1-2-5-Tolarjev-1990-Set-of-3-Mint-UNC-Uncirculated-Banknotes-3-PCS-/361582966361?hash=item5430063659:g:nDYAAOSwDN1UNoWU
p23
aVhttp://www.ebay.com/itm/Slovenia-1-Tolar-1990-P-1-Mint-UNC-Uncirculated-Banknotes-/252128519384?hash=item3ab407e4d8:g:jaIAAOSwR0JUNnhX
p24
aVhttp://www.ebay.com/itm/Slovenia-2016-MNH-Mills-5v-Set-Watermills-Architecture-Buildings-Stamps-/282151850365?hash=item41b18f917d:g:P8UAAOSwv2JXwfhx
p25
aVhttp://www.ebay.com/itm/Slovenia-2017-MNH-Mezica-Mine-Tourism-1v-Set-Mines-Mining-Canoeing-Stamps-/282475645507?hash=item41c4dc4a43:g:pXMAAOSwX61ZFqaG
p26
aVhttp://www.ebay.com/itm/Slovenia-2016-MNH-Mills-5v-Set-Watermills-Architecture-Buildings-Stamps-/282151850365?hash=item41b18f917d:g:P8UAAOSwv2JXwfhx
p27
aVhttp://www.ebay.com/itm/Slovenia-2007-Maxi-Set-of-6-Euro-Coins-UNC-/150587033748?hash=item230fafc894:m:mNwyhDCbQQZFTprJdrwuAxA
p28
aVhttp://www.ebay.com/itm/Slovenia-2007-Maxi-Set-of-6-Euro-Coins-UNC-/150587033748?hash=item230fafc894:m:mNwyhDCbQQZFTprJdrwuAxA
p29
aVhttp://www.ebay.com/itm/Slovenia-WWF-Stone-Crayfish-Sheetlet-of-2-sets-8v-MI-904-07-/302279254640?hash=item46613f6270:g:r4IAAOSwpP9Y6707
p30
aVhttp://www.ebay.com/itm/Slovenia-2016-MNH-WWI-WW1-100th-Anniv-Anton-Kozelj-Paintings-1v-Set-Art-Stamps-/272553742392?hash=item3f75781038:g:yAQAAOSw4CFYn0Uh
p31
aVhttp://www.ebay.com/itm/Slovenia-2-Euro-Commemorative-Coin-2016-Independence-New-Bunc-From-Roll-/172669432840?hash=item2833e67408:g:GFEAAOSwA3dYTpnI
p32
aVhttp://www.ebay.com/itm/Slovenia-2016-MNH-Summer-Olympic-Games-Rio-2016-2v-Set-Cycling-Olympics-Stamps-/272352924346?hash=item3f697fd2ba:g:hUUAAOSwV0RXvxXZ
p33
a.