(lp1
Vhttp://www.ebay.com/itm/Edgar-and-the-Tattle-Tale-Heart-A-Babylit-First-Steps-Picture-Book-9781423641766-/252617236266?epid=214648195&hash=item3ad1291f2a:g:onIAAOSwx2dYGf2m
p2
aVhttp://www.ebay.com/itm/C-Thomas-Howell-Ally-Sheedy-TATTLE-TALE-1992-Romantic-Comedy-UK-DVD-/221829455385?hash=item33a610de19:g:OLsAAOSwd0BVqS7K
p3
aVhttp://www.ebay.com/itm/CHICKEN-POULTRY-HEN-PRINTS-FROM-ORIGINAL-WATERCOLOUR-PAINTINGS-BY-INGRID-WHEEL-/330887299621?var=&hash=item4d0a6b8225:m:mNN5IBiSQS-DmFnwBVSsyZA
p4
a.