(lp1
Vhttp://www.ebay.com/itm/A4-ARTIST-SKETCH-PAD-170GSM-A4-40-SHEET-SHEET-WH2-TBL6-SPR314-NEW-/232208863642?epid=1524411255&hash=item3610ba119a:g:va0AAOSw2xRYfcI~
p2
aVhttp://www.ebay.com/itm/The-Pantone-Fashion-Sketchpad-420-Figure-Templates-and-60-Pantone-Color-Palett-/361947518415?epid=1709278832&hash=item5445c0d5cf:g:4fAAAOSw0e9UrWLF
p3
aVhttp://www.ebay.com/itm/SEAWHITE-A3-Black-Spiral-Hardback-Sketchbook-140gsm-Portrait-297x420mm-Sketchpad-/201977316873?hash=item2f06c94609:g:yWAAAOSwcj5ZXR86
p4
aVhttp://www.ebay.com/itm/Premier-Stationery-Icon-A2-Size-110-gsm-30-Sheets-Spiral-Sketch-Pad-S2837273-/132097377101?epid=1086752425&hash=item1ec19e034d:g:JAgAAOSwdGFYpIFa
p5
aVhttp://www.ebay.com/itm/Smencils-Cupcake-A5-Sketch-and-Sniff-Pad-Scented-Sketch-Pad-Matching-Smencil-/262978000540?epid=1868655373&hash=item3d3ab5d69c:g:eRcAAOSwNuxXZ760
p6
aVhttp://www.ebay.com/itm/A4-Sketch-Pad-Bright-White-Paper-Artist-Sketching-Drawing-Doodling-Art-Craft-Uk-/272533509040?epid=1064145942&hash=item3f744353b0:g:sZMAAOSw9GhYh56u
p7
aVhttp://www.ebay.com/itm/A3-SKETCH-PAD-SPIRAL-BOUND-DRAWING-BOOK-ART-WORK-PAD-BLACK-110GSM-100-SHEETS-/252337799278?epid=1663913610&hash=item3ac081406e:g:rPgAAOSwoudW-9Lc
p8
aVhttp://www.ebay.com/itm/A5-Spiral-Bound-Quality-Artists-Sketch-Pad-60-Sheets-170gsm-WH2-TBL4-SP321-NEW-/222466524806?epid=1617276120&hash=item33cc09c686:g:CPsAAOSwUKxYfcVC
p9
aVhttp://www.ebay.com/itm/Daler-Rowney-Spiral-Bound-Red-Yellow-Sketch-Pad-A5-Drawing-Paper-Craft-Arts-/111850638527?epid=1605624018&hash=item1a0ad14cbf:g:-60AAOSwrfVZPkH5
p10
aVhttp://www.ebay.com/itm/WHSmith-A4-Sketch-Pad-50-Sheets-Acid-Free-Perfect-For-Drawing-And-Sketching-/302242821599?hash=item465f1375df:g:Is4AAOSw~AVYu-bz
p11
aVhttp://www.ebay.com/itm/A4-Sketch-Pad-Spiral-Bound-135gsm-30-Sheets-Artists-Drawing-Paper-Sketchpad-Page-/291946747158?epid=1458771362&hash=item43f961d516:g:swgAAOSw8w1YB5Ce
p12
aVhttp://www.ebay.com/itm/WHSmith-A3-Sketch-Pad-With-Acid-Free-White-Leaves-135-GSM-Pack-Of-30-Sheets-/291779697533?hash=item43ef6cdb7d:g:UVYAAOSw44BYkcV2
p13
aVhttp://www.ebay.com/itm/2X-A4-ARTIST-SKETCH-PAD-BOOK-PLAIN-WHITE-PAPER-SPIRAL-TOP-ART-DRAWING-SKETCHING-/260860523808?hash=item3cbc7fb520:g:XkQAAOSwGYVW-aFP
p14
aVhttp://www.ebay.com/itm/ARTISTS-A3-SKETCH-PAD-25-Sheets-70-GSM-WH1-E-PBL260-NEW-/231979909808?epid=1322817134&hash=item36031482b0:g:cs4AAOSwmtJXYSdG
p15
aVhttp://www.ebay.com/itm/A4-Spiral-Sketch-Pad-40-Sheets-90gsm-Cartridge-Paper-WH2-TBL5-SP807-NEW-/322393474915?epid=1807728898&hash=item4b10260763:g:DzsAAOSww3tY6NqR
p16
aVhttp://www.ebay.com/itm/Smencils-Donut-A5-Sketch-and-Sniff-Pad-Scented-Sketch-Pad-Matching-Smencil-/252428898043?epid=1569748946&hash=item3ac5ef4efb:g:7LkAAOSwMNxXZET2
p17
aVhttp://www.ebay.com/itm/Sketch-Pad-A3-A4-Bright-White-Paper-Artist-Sketching-Drawing-Doodling-Art-Craft-/131768469505?var=&epid=1364136474&hash=item1eae034801:m:m0lntY_UpzJyWYgGyjogIRw
p18
aVhttp://www.ebay.com/itm/Chiltern-Wove-80-Sheets-A4-Spiral-ARTIST-SKETCH-PAD-Drawing-Paper-TOP-QUALITY-/162432121749?epid=680034586&hash=item25d1b57b95:g:7xoAAOSwax5YyQvT
p19
aVhttp://www.ebay.com/itm/WHSmith-A4-Sketch-Pad-White-Spiral-Bound-135-GSM-Pack-Of-50-Acid-Free-Sheets-/301972151954?hash=item464ef15e92:g:zQcAAOSwax5YoxJo
p20
aVhttp://www.ebay.com/itm/Chiltern-Wove-3-Pack-different-sizes-Sketch-Pad-Fine-Cartridge-Paper-Drawing-/250898655521?hash=item3a6ab9a921:m:mLMXrCdbdfwgJW0OxRFaUuA
p21
aVhttp://www.ebay.com/itm/Winsor-Newton-Medium-Surface-Cartridge-Spiral-Sketch-Pad-I-25-Sheets-/151120254451?var=&epid=1705744487&hash=item232f7815f3:m:mCFQDvbuz-X4RBEJjoredag
p22
aVhttp://www.ebay.com/itm/A3-A4-SKETCHING-DRAWING-BOOKS-PADS-SPIRAL-BOUND-HARDBACK-WHITE-PAPER-/252336650041?var=&hash=item3ac06fb739:m:mZXiddPogjzZicqwy5W2aRg
p23
aVhttp://www.ebay.com/itm/Premier-Stationery-Icon-90-gsm-A3-30-Sheets-Spiral-Sketch-Pad-S2810504-/132097373414?epid=1763145824&hash=item1ec19df4e6:g:fvcAAOSw~AVYpIAT
p24
aVhttp://www.ebay.com/itm/A3-CARTRIDGE-ARTIST-SKETCH-PAD-135gsm-SKETCHING-PAPER-40-SHEETS-/252666216562?epid=2077508651&hash=item3ad4148072:g:~Q8AAOSwiDFYQweY
p25
aVhttp://www.ebay.com/itm/NEW-Premium-A4-Artist-Sketchpad-sketchbook-160GSM-30-sheets-Brunel-Franklin-BN-/172326623746?epid=1982691984&hash=item281f779a02:g:9bgAAOSwMgdXyEJ3
p26
aVhttp://www.ebay.com/itm/Local-Art-Pad-A4-Sketch-pad-190gsm-50-sheets-Spiral-Bound-Artists-sketch-book-/391827627447?hash=item5b3abf1db7:g:KRgAAOSw~y9ZFIZQ
p27
aVhttp://www.ebay.com/itm/EasyNote-A5-A4-A3-Artists-Sketch-Pad-Premium-Quality-Paper-for-Drawing-Sketching-/132013632214?var=&epid=1926471668&hash=item1ebca02ad6:m:myRGcvVhsH19pWlenUX3C1A
p28
aVhttp://www.ebay.com/itm/Artist-Brushes-Pencils-Canvas-Sketch-Pad-Watercolour-Charcoal-Metallic-UK-/291672629140?var=&hash=item43e90b1f94:m:mTVJFNrfY7xYoGBvrSWuX9A
p29
aVhttp://www.ebay.com/itm/WHSmith-Art-A5-White-Sketch-Pad-50-Sheets-90-Gsm-Top-Bound-Easy-Tear-Of-Sheets-/301972184456?hash=item464ef1dd88:g:Uu8AAOSwNnRYib~2
p30
aVhttp://www.ebay.com/itm/Sketch-pad-A4-Artists-Sketch-Pad-30-Sheets-Spiral-Bound-135gsm-/272368005751?epid=1458771362&hash=item3f6a65f277:g:X7IAAOSwcLxYENIE
p31
aVhttp://www.ebay.com/itm/Fair-Trade-Handmade-Large-Red-Sari-Notepad-Sketchpad-2nd-Quality-/171632864310?hash=item27f61dac36:g:Cu4AAOSwm8VUrUjG
p32
aVhttp://www.ebay.com/itm/Fair-Trade-Handmade-Small-Red-Sari-Notepad-Sketchpad-2nd-Quality-/171632827596?epid=1961805731&hash=item27f61d1ccc:g:Nj4AAOSw8d9UrT3E
p33
aVhttp://www.ebay.com/itm/2-X-A3-SKETCH-PAD-DRAWING-COLOURING-ART-SKETCH-PAD-60-PAGES-90gsm-/252335603638?epid=1563529965&hash=item3ac05fbfb6:g:LrQAAOSwol5Y29ys
p34
aVhttp://www.ebay.com/itm/2-X-A3-SKETCH-PAD-SPIRAL-BOUND-30-SHEETS-ART-SKETCHING-PAPER-SKETCH-BOOK-/252331128150?hash=item3ac01b7556:g:wt8AAOSw4CFYu1uj
p35
aVhttp://www.ebay.com/itm/A4-ARTIST-SKETCH-PAD-BOOK-PLAIN-WHITE-PAPER-SPIRAL-TOP-ART-DRAWING-SKETCHING-/262963518906?hash=item3d39d8ddba:g:9iAAAOSwCQZZCIFV
p36
aVhttp://www.ebay.com/itm/Wooden-Puzzle-Magnetic-Drawing-Sketchpad-Board-Toys-Animal-Letters-Numbers-/322495037095?epid=682860872&hash=item4b1633bea7:g:KMoAAOSw4CFYyOiC
p37
aVhttp://www.ebay.com/itm/Daler-Rowney-Spiral-Bound-Red-and-Yellow-Sketch-Pad-A2-Drawing-Assorted-/111781249557?epid=1423625482&hash=item1a06ae8215:g:2Y4AAOSw6ShZOY7a
p38
aVhttp://www.ebay.com/itm/Hobbycraft-Daler-Rowney-Yellow-and-Red-Sketch-Pad-A2-Drawing-Paper-Assorted-/111847697014?hash=item1a0aa46a76:g:is0AAOSw0j9ZOZTQ
p39
aVhttp://www.ebay.com/itm/Derwent-A5-Portrait-Sketch-Pad-Wirebound-Spine-30-Sheets-of-Acid-Free-165gsm-/291974112373?epid=1055534093&hash=item43fb036475:g:MX8AAOxyhXRTKGjS
p40
aVhttp://www.ebay.com/itm/Artists-sketch-pad-book-100gsm-hardbard-spiral-bound-drawing-paper-simply-a4-a3-/362029665657?var=&hash=item544aa64d79:m:mxhq5Zbc1MDRJXUIXY0BjAQ
p41
aVhttp://www.ebay.com/itm/Winsor-Newton-SMOOTH-SURFACE-CARTRIDGE-Sketch-pad-130-150-220gsm-gummed-spiral-/142067247436?var=&epid=1930540017&hash=item2113de294c:m:mk5wBNpjaDrOClkcLGIRyAA
p42
aVhttp://www.ebay.com/itm/Fair-Trade-Handmade-Medium-Red-Sari-Notepad-Sketchpad-2nd-Quality-/171632860821?epid=1661586057&hash=item27f61d9e95:g:47YAAOSw-W5UrUdL
p43
aVhttp://www.ebay.com/itm/Smencils-Lollipop-A5-Sketch-and-Sniff-Pad-Scented-Sketch-Pad-Matching-Smencil-/262491185396?epid=1372028051&hash=item3d1db1a0f4:g:RQkAAOSwepJXZ73N
p44
aVhttp://www.ebay.com/itm/Spirograph-Magic-Turtle-Rabbit-Sketchpad-Geometric-Drawing-Board-Ruler-Kids-Toys-/182382370726?hash=item2a76d61fa6:g:HDEAAOSwWiBY~O91
p45
aVhttp://www.ebay.com/itm/Magnetic-Board-Puzzle-Games-Wooden-Toy-Sketchpad-Board-for-kids-3-Years-Old-NEW-/132188594205?epid=1745543638&hash=item1ec70de01d:g:WbwAAOSw-K9ZFA-E
p46
aVhttp://www.ebay.com/itm/Daler-Rowney-Simply-Spiral-Hard-Back-Sketch-Pad-A4-or-A3-Size-Soft-White-/171860378185?var=&hash=item2803ad4249:m:mRrkqXIDzpAumvlHz078UEw
p47
aVhttp://www.ebay.com/itm/1-X-Sketch-Pad-A3-Artbox-Assorted-80-gsm-30-Sheets-WH2-R3WIN-852-NEW-/232296775272?epid=1030235298&hash=item3615f77e68:g:w3wAAOSwAANY6QaM
p48
aVhttp://www.ebay.com/itm/ANKER-A-STAR-ARTISTS-A3-SKETCH-PAD-PREMIUM-WHITE-PAPER-25-SHEETS-70-GSM-/191948065954?epid=1322817134&hash=item2cb0ff0ca2:g:OIEAAOSw65FXtEV3
p49
aVhttp://www.ebay.com/itm/A4-Artist-Sketch-Pad-Ideal-for-Pencils-Pens-Pastels-Chalks-60-Sheets-120-Pages-/252732072289?epid=1608145330&hash=item3ad8016161:g:phoAAOSw241YgUbc
p50
aVhttp://www.ebay.com/itm/Winsor-Newton-Spiral-Bound-Cartridge-Artists-Sketch-Pad-Small-A5-25-Sheets-/151211400024?epid=1243560276&hash=item2334e6db58:g:QzoAAOxyB9RS171W
p51
aVhttp://www.ebay.com/itm/Hobbycraft-Daler-Rowney-Yellow-and-Red-Sketch-Pad-A3-Drawing-Paper-Assorted-/111798401581?epid=1628840802&hash=item1a07b43a2d:g:ipUAAOSw~XpZOZQR
p52
aVhttp://www.ebay.com/itm/A4-Spiral-Sketch-Pad-40-Sheets-90gsm-Cartridge-Paper-/162151480736?epid=1807728898&hash=item25c0fb3da0:g:3W0AAOSwbYZXZ9N7
p53
aVhttp://www.ebay.com/itm/WHSmith-Art-A4-White-Sketch-Pad-50-Sheets-90-Gsm-Top-Bound-Easy-Tear-Of-Sheets-/291779736857?hash=item43ef6d7519:g:pfEAAOSwUKxYicey
p54
aVhttp://www.ebay.com/itm/40-Sheet-A4-Spiral-Bound-Artist-Sketch-Drawing-Book-Pad-90gsm-Cartridge-Pad-5682-/131803395273?var=&epid=1405401035&hash=item1eb01834c9:m:mY5mp88yJb0G3Yv0j9XCAsQ
p55
aVhttp://www.ebay.com/itm/Daler-Rowney-Red-and-Yellow-A6-A5-A4-Spiral-Sketch-Pad-150-gsm-/122025551011?var=&epid=1605624018&hash=item1c694a24a3:m:mmOu5ifMkO6vc9-EAcilbtA
p56
aVhttp://www.ebay.com/itm/Graf-It-A7-A6-A5-A3-Sketch-Books-Clairefontaine-90gsm-160-page-Sketch-Pad-/282256813450?var=&hash=item41b7d12d8a:m:m4XUTFM48RdYu12l5BRiHqw
p57
aVhttp://www.ebay.com/itm/Derwent-A4-Portrait-Sketch-Pad-Wirebound-Spine-30-Sheets-of-Acid-Free-165gsm-/291974110542?epid=1486125272&hash=item43fb035d4e:g:37UAAOxydgZTKGlD
p58
aVhttp://www.ebay.com/itm/Derwent-Academy-Sketching-Paper-A3-Spiral-Bound-Sketch-Pad-30-Sheet-/161994686121?epid=1431040586&hash=item25b7a2bea9:g:V3QAAOSwZ8ZW1sgU
p59
aVhttp://www.ebay.com/itm/2-x-A4-SKETCHING-PAD-SPIRAL-BOUND-30-SHEETS-SKETCH-PAD-ART-PAPER-DRAWING-BOOK-/252331126329?hash=item3ac01b6e39:g:oVYAAOSwZtJW88co
p60
aVhttp://www.ebay.com/itm/A4-Sketch-Pad-40-Sheets-art-drawing-carfts-cheap-bargain-book-journel-sketching-/180979593382?epid=1005743814&hash=item2a233970a6:g:4QMAAOSwXeJXekmz
p61
aVhttp://www.ebay.com/itm/EasyNote-A3-Artists-Sketch-Pad-Premium-Quality-Paper-for-Drawing-Sketching-5130-/131722214233?var=&epid=1926471668&hash=item1eab417b59:m:mU8v8poflmkKLomXj8d4xyA
p62
aVhttp://www.ebay.com/itm/Silvine-A5-Sketch-Pad-Sketch-Book-100gsm-Cartridge-Quality-Paper-Art-Drawing-/322332923914?hash=item4b0c8a180a:g:C1UAAOSwB-1Yux8t
p63
aVhttp://www.ebay.com/itm/A3-Artist-Sketch-Book-White-Cartridge-Paper-110-GSM-30-Sheets-Spiral-Sketch-pad-/152622750214?epid=27005304201&hash=item2389065a06:g:jKIAAOSwmFNZZ6VV
p64
aVhttp://www.ebay.com/itm/Set-of-2-Sketch-Pad-A3-A4-Drawing-Sketching-Pad-Blue-90gsm-Art-Work-/322080690714?var=&epid=1563529965&hash=item4afd81521a:m:m9Af0OO8r2QrtPScPCJxluQ
p65
aVhttp://www.ebay.com/itm/A4-ARTIST-SKETCH-PAD-wire-bound-60-Sheets-Sketching-Drawing-WH2-TBL8-NEW-/322589511128?epid=1105337983&hash=item4b1bd54dd8:g:ZfAAAOSwhilZZi9V
p66
aVhttp://www.ebay.com/itm/A2-Drawing-Sketch-Drawing-Board-4k-Sketch-Drawing-Board-Double-Sketchpad-Wooden-/272233898011?hash=item3f6267a01b:g:EVcAAOSwRH5XK1Ei
p67
aVhttp://www.ebay.com/itm/Daler-Rowney-Spiral-Bound-Red-And-Yellow-Sketch-Pad-A4-Drawing-Paper-Craft-Arts-/111850640404?epid=1605624018&hash=item1a0ad15414:g:kggAAOSwPWRZOYy2
p68
aVhttp://www.ebay.com/itm/A4-Royal-Langnickel-Spiral-Sketchbook-Sketchpad-Black-Hardback-Cartridge-96gsm-/201954493846?epid=1930504860&hash=item2f056d0596:g:kwIAAOSw~XpZQBn9
p69
aVhttp://www.ebay.com/itm/Disney-From-the-Sketch-Pad-Figment-Pin-New-on-Card-Pin-106678-Hard-to-Find-/222561253498?hash=item33d1af387a:g:mkQAAOSwuMZZA1Ot
p70
aVhttp://www.ebay.com/itm/DALER-ROWNEY-SIMPLY-ARTISTS-A4-GUMMED-SPIRAL-PADS-ACRYLIC-PAINTING-OR-TRACING-/161020749723?var=&epid=1437315194&hash=item257d95a79b:m:mYTPL-d-9sJLYWUTXjqPfcg
p71
aVhttp://www.ebay.com/itm/Derwent-Black-Paper-Sketch-Pad-A3-/280705062778?epid=1557388579&hash=item415b53577a:m:mKykasaY33puzNjt8Jb_CoA
p72
aVhttp://www.ebay.com/itm/Derwent-A4-Classic-Stitched-Hard-Back-Sketch-Pad-Drawing-Book-/171532167278?epid=1105856928&hash=item27f01d286e:g:mUQAAMXQCgpRuu1q
p73
aVhttp://www.ebay.com/itm/A4-Sketch-Pad-Drawing-Artist-Sketching-Paper-Writing-Kids-Crafts-Art-Draw-New-/172490073349?epid=1064145942&hash=item282935a505:g:CNEAAOSwCQZZMuJc
p74
aVhttp://www.ebay.com/itm/Icon-A4-135gsm-Wirobound-Sketch-Pad-Hardback-50-Sheets-Art-Cartridge-Paper-/272558250711?hash=item3f75bcdad7:g:ywgAAOSwfVpYpLhY
p75
aVhttp://www.ebay.com/itm/Handmade-Personalised-Leather-Notebook-120-A5-Pages-Diary-Journal-Sketchpad-/150813294165?hash=item231d2c3e55:m:mffUXy6stxpy31ydenXP82w
p76
aVhttp://www.ebay.com/itm/A4-DRAWING-PAD-SKETCH-ARTIST-PAPER-BOOKS-/201495276281?var=&hash=item2eea0deaf9:m:ml8cOTc5HXHWjPR5CGUs7CA
p77
aVhttp://www.ebay.com/itm/135GSM-A4-SPIRAL-BOUND-ARTIST-SKETCH-PAD-DRAWING-BOOK-30-SHEETS-PAINTING-PAGES-/152225554705?var=&hash=item237159a111:m:mCGSlcS_9flZadQL8VqW56w
p78
aVhttp://www.ebay.com/itm/Artist-Quality-Sketch-Cartrige-Paper-Pad-90gsm-For-Carcoal-Sketch-Paint-Pastels-/131803387631?var=&epid=1708111357&hash=item1eb01816ef:m:myo-yeQh1cYQZzfM7MDzhOQ
p79
aVhttp://www.ebay.com/itm/NEW-KIDS-EDUCATION-WHITE-BLACK-BOARD-EASEL-CREATIVE-READING-WRITING-SKETCHPAD-/281859440335?hash=item41a021becf:g:0hEAAOSwIwhWSv-F
p80
aVhttp://www.ebay.com/itm/A4-Artists-Sketch-Cartridge-Paper-Pad-90gsm-40-Sheets-A3-Artists-Sketch-20-Pad-/172679570816?var=&hash=item2834812580:m:mgDIzF31JS54YVX_YUKYZ6g
p81
aVhttp://www.ebay.com/itm/DR-DOCTOR-WHO-STATIONERY-MONSTERS-SKETCHPAD-WITH-4-COLOURING-PENCILS-/301605314897?hash=item463913e151:g:VC8AAOSwpDdVOMqz
p82
aVhttp://www.ebay.com/itm/CHILD-EDUCATION-WHITE-BLACK-BOARD-EASEL-CREATIVE-READING-WRITING-SKETCHPAD-NEW-/291711545264?hash=item43eb5cefb0:g:8gIAAOSwZ8ZW6onL
p83
aVhttp://www.ebay.com/itm/2-X-SKETCH-PADS-A3-SPIRAL-BOUND-ARTIST-DRAWING-SKETCHING-BOOK-30-SHEETS-110GSM-/252336600661?epid=1263741913&hash=item3ac06ef655:g:Pt8AAOSwB-1Yu2EV
p84
aVhttp://www.ebay.com/itm/A5-Cthulhu-Book-Notebook-or-Sketch-pad-/172677745655?hash=item2834654bf7:g:BdEAAOSwK6RZGvwG
p85
aVhttp://www.ebay.com/itm/A3-ARTIST-SKETCH-PAD-80gsm-30-Sheet-White-Cartridge-Paper-Chalks-Pencil-Pastel-/181937627361?epid=1088895819&hash=item2a5c53e0e1:g:iq4AAOSw5VFWI6po
p86
aVhttp://www.ebay.com/itm/Derwent-A3-Landscape-Sketch-Pad-Wirebound-Spine-30-Sheets-of-Acid-Free-165gsm-/230611896518?epid=576204957&hash=item35b18a48c6:g:glAAAMXQPatTKGz0
p87
aVhttp://www.ebay.com/itm/Kids-Magnetic-Wooden-Writing-Tabletop-Learning-Board-Toddler-Sketchpad-Toys-for-/331940180166?epid=1745543638&hash=item4d492d30c6:g:coAAAOSwMtxXr33~
p88
aVhttp://www.ebay.com/itm/Mini-Notepad-Notebook-A7-Jotter-Note-Paper-Scribble-Pad-Pocket-Size-Sketchpad-UK-/162173326258?var=&hash=item25c24893b2:m:mK8PKGYwg9ZQ3coqkqzRBfA
p89
aVhttp://www.ebay.com/itm/Sketch-pad-A4-Artists-Sketch-Pad-30-Sheets-Spiral-Bound-135gsm-/272533439968?epid=1458771362&hash=item3f744245e0:g:2ZUAAOSwjDZYh5AJ
p90
aVhttp://www.ebay.com/itm/Ivy-Sketch-Pad-A4-130gsm-50-Sheets-Acid-Free-Quality-Paper-Made-In-The-UK-/301049902514?var=&epid=1838345308&hash=item4617f8f5b2:m:m90xsLIdG75Ju6U7NBfJuAw
p91
aVhttp://www.ebay.com/itm/A3-SKETCH-PAD-DRAWING-CARTRIDGE-PAPER-25-sheets-160GSM-MADE-IN-THE-UK-/152071068439?epid=1989125565&hash=item2368245b17:g:MrEAAOSwAL9UgbHK
p92
aVhttp://www.ebay.com/itm/Derwent-A5-Landscape-Sketch-Pad-Wirebound-Spine-30-Sheets-of-Acid-Free-165gsm-/282293920615?epid=1357119217&hash=item41ba076367:g:JhIAAOxyf1dTKGxz
p93
aVhttp://www.ebay.com/itm/2-x-A4-Sketch-Pad-60-Pages-ART-Drawing-Colouring-Pad-90gsm-/252335637037?epid=1163484926&hash=item3ac060422d:g:GEAAAOSwWxNY29Sy
p94
aVhttp://www.ebay.com/itm/A4-LEONARDO-SKETCH-PAD-40-SHEETS-OF-QUALITY-130gsm-DRAWING-CARTRIDGE-PAPER-/321255111238?epid=733112233&hash=item4acc4bfa46:g:tLkAAMXQUmFSjNQM
p95
aVhttp://www.ebay.com/itm/a4-sketch-pad-/152299653179?epid=1447607450&hash=item2375c4483b:g:dQ4AAOSwqBJXVHx0
p96
aVhttp://www.ebay.com/itm/Sketch-Pad-30-Sheets-Drawing-Diary-A4-Gift-Memo-Travel-Pages-Artists-Craft-Kids-/372003526395?hash=item569d2356fb:g:KD0AAOSw6YtZXO33
p97
aVhttp://www.ebay.com/itm/Barbie-784222-Sketch-Pad-/322479391881?epid=1809152160&hash=item4b15450489:g:EL4AAOSwAANY687~
p98
aVhttp://www.ebay.com/itm/Pennine-A4-Artists-Sketch-Pad-Book-60-sheets-70gsm-Writing-and-sketching-/262559913428?var=&epid=1064145942&hash=item3d21ca55d4:m:mRKWAqPlL0ad7AdPN0xQR2Q
p99
aVhttp://www.ebay.com/itm/Personalised-A4-Notebook-or-sketchpad-SpongeBob-SquarePants-/171290612615?hash=item27e1b75387:g:qEgAAMXQVT9S5-HO
p100
aVhttp://www.ebay.com/itm/Daler-Rowney-Spiral-Bound-Red-and-Yellow-Sketch-Pad-A3-Drawing-Assorted-/111766372688?epid=1205263004&hash=item1a05cb8150:g:COsAAOSw~rpZQ3wR
p101
aVhttp://www.ebay.com/itm/Fair-Trade-Handmade-Small-Pink-Sari-Notepad-Sketchpad-2nd-Quality-/171632898358?hash=item27f61e3136:g:mmYAAOSwmrlUrVFg
p102
aVhttp://www.ebay.com/itm/1PC-Cute-Turtle-Rabbit-Spirograph-Sketchpad-Kids-Board-Ruler-Educational-Toys-/201583048869?epid=1889190941&hash=item2eef4938a5:g:3W4AAOSw1KxXNEXg
p103
aVhttp://www.ebay.com/itm/Winsor-Newton-Medium-Surface-Cartridge-Gummed-Sketch-Pad-I-30-Sheets-/161108699520?var=&epid=1738484196&hash=item2582d3a980:m:mzItQvETnyMtkpH-679W2og
p104
aVhttp://www.ebay.com/itm/Valuecrafts-Hobbycraft-A3-Sketch-Pad-25-Sheets-110-gsm-Art-Drawing-Artist-/111912820616?epid=1033316534&hash=item1a0e861f88:g:D2wAAOSwn-tZN-Z2
p105
aVhttp://www.ebay.com/itm/A4-Sketch-Pad-30page-90gsm-White-Cartridge-Paper-Ideal-For-Children-/282362257439?epid=565578733&hash=item41be1a201f:g:140AAOSw4A5YpLao
p106
aVhttp://www.ebay.com/itm/A4-Artist-Sketch-Pads-Pack-of-3-120-pages-of-Fine-Art-140gsm-Paper-/142119289510?epid=1785431080&hash=item2116f842a6:g:stoAAOSwLF1X28fU
p107
aVhttp://www.ebay.com/itm/Fashion-Sketchpad-420-Figure-Templates-for-Designing-Spiral-bound-0811877884-/132089261799?epid=99761712&hash=item1ec1222ee7:g:0REAAOSw4DJYme6t
p108
aVhttp://www.ebay.com/itm/EasyNote-A5-Artists-Sketch-Pad-Premium-Quality-Paper-for-Drawing-Sketching-5132-/131722220190?var=&epid=1617276120&hash=item1eab41929e:m:mjyPO9C5PWD37HD9F40fB5A
p109
aVhttp://www.ebay.com/itm/A4-Spiral-Sketch-Pad-90gsm-Paper-Sketching-Charcoal-Water-Colour-Pencils-/290574931638?hash=item43a79d96b6:g:my0AAOSwAO9ZQt3j
p110
aVhttp://www.ebay.com/itm/A3-BIZILI-SPIRAL-SKETCH-PAD-30-QUALITY-150gsm-ACID-FREE-SHEETS-297mmx210mm-/321255099669?epid=1807984574&hash=item4acc4bcd15:g:n1oAAOxy4t1SjMv1
p111
aVhttp://www.ebay.com/itm/A4-Spiral-Sketch-Pad-40-Sheets-Premium-Quality-170gsm-White-Paper-/290904798327?hash=item43bb46f477:g:788AAOxyeZNTU5n~
p112
aVhttp://www.ebay.com/itm/1PC-Cute-Turtle-Rabbit-Spirograph-Sketchpad-Kids-Board-Ruler-Educational-Toys-/201583048869?epid=1889190941&hash=item2eef4938a5:g:3W4AAOSw1KxXNEXg
p113
aVhttp://www.ebay.com/itm/Derwent-Black-Paper-Sketch-Pad-A3-Pack-of-3-Pads-/230642501397?hash=item35b35d4715:m:mKykasaY33puzNjt8Jb_CoA
p114
aVhttp://www.ebay.com/itm/A4-Artist-Sketch-Book-White-Cartridge-Paper-90-GSM-30-Sheets-Spiral-Sketch-pad-/152622677987?epid=27005304201&hash=item2389053fe3:g:VrkAAOSwhilZZ5GE
p115
aVhttp://www.ebay.com/itm/Hobbycraft-Sketch-Pad-A3-100gsm-30-Sheets-Drawing-Sketching-Paper-Craft-Arts-/112428493175?hash=item1a2d42a977:g:11MAAOSwjk9ZOWVb
p116
aVhttp://www.ebay.com/itm/Fair-Trade-Handmade-Small-Cerise-Sari-Notepad-Sketchpad-2nd-Quality-/181634508553?epid=1061893087&hash=item2a4a42a709:g:wt8AAOSw8d9UrVLe
p117
aVhttp://www.ebay.com/itm/13-PIECE-ESSENTIALS-COLOUR-PENCILS-DRAWING-SKETCH-PAD-ART-SET-RART-2103-3T-/400709072386?hash=item5d4c1f3602:g:DeMAAMXQCZ1Tcd3r
p118
aVhttp://www.ebay.com/itm/MINNIE-MOUSE-A5-BLANK-SHEETS-NOTEBOOK-DRAWING-SKETCH-PAD-BOOK-OFFICIAL-DISNEY-/281220540037?hash=item417a0ce685:g:vPEAAOSwV0RXt5To
p119
aVhttp://www.ebay.com/itm/Quality-40-Sheet-A4-Drawing-and-Sketching-Cartridge-Paper-Plain-White-Sketch-Pad-/130652822010?epid=1757501207&hash=item1e6b83d9fa:m:msfkJ7QqlyMrF5D2rgyK6zQ
p120
aVhttp://www.ebay.com/itm/A4-Wireboud-130gsm-Twin-Wire-Sketch-Pad-Sketch-Book-30-acid-free-Sheet-470-/380862287298?epid=708107139&hash=item58ad294dc2:g:DaQAAOxyeR9TIJwz
p121
aVhttp://www.ebay.com/itm/Artist-Brushes-Pencils-Canvas-Sketch-Pad-Watercolour-Charcoal-FREE-POST-/172084273154?var=&hash=item281105a002:m:mTVJFNrfY7xYoGBvrSWuX9A
p122
aVhttp://www.ebay.com/itm/5-Pennine-A4-Artists-Sketch-Pad-Book-60-sheets-70gsm-Writing-and-sketching-/201799641347?var=&epid=530417206&hash=item2efc322903:m:mL_iDYEXgQwjjQ_wLrRxwFw
p123
aVhttp://www.ebay.com/itm/Silvine-A4-Sketch-Pad-Multiple-Selections-/151171101400?var=&hash=item23327ff2d8:i:151171101400
p124
aVhttp://www.ebay.com/itm/Arduino-Colour-TFT-LCD-Screen-Display-Module-Touch-Panel-For-Arduino-Sketch-Pad-/121631905585?hash=item1c51d39731:g:omoAAMXQDnpTbOBL
p125
aVhttp://www.ebay.com/itm/Exclusive-to-Hobby-Components-The-Arduino-Sketch-Pad-Kit-/131357034599?var=&hash=item1e957d4867:m:mXh9zib64T1lAlo_P0e1ijA
p126
aVhttp://www.ebay.com/itm/Melissa-Doug-Mini-Sketch-Pad-/371536957373?epid=1153872879&hash=item5681540fbd:g:5~wAAOSwUV9Wn51N
p127
aVhttp://www.ebay.com/itm/Winsor-Newton-Pads-Acrylic-Oil-Watercolour-Pastel-Sketching-Pads-/162151061833?var=&epid=1123635464&hash=item25c0f4d949:m:m_ueYWtsdRZGaf13gUxThvw
p128
aVhttp://www.ebay.com/itm/The-Original-Fashion-Design-Sketchpad-300-Pages-600-Croquis-Joe-Dolan-/142437664999?epid=1820918201&hash=item2129f248e7:g:A4IAAOSw9~5ZXoQH
p129
aVhttp://www.ebay.com/itm/KIDS-Magnetic-Writing-Board-Doodle-Sketch-Pad-Drawing-Slate-Art-Craft-Magic-/112438143714?hash=item1a2dd5eae2:g:ia4AAOSwCkZZPAis
p130
aVhttp://www.ebay.com/itm/Teddy-Folding-Mirror-Sketch-Pad-Flip-Style-Travel-Make-Up-Girls-Portable-Easel-/162378180412?hash=item25ce7e673c:g:trAAAOSwTglYkKVN
p131
aVhttp://www.ebay.com/itm/Strathmore-Toned-Tan-Sketch-Pad-11X14-/222403572052?epid=856295553&hash=item33c8493154:g:lKUAAOSwA3dYm74O
p132
aVhttp://www.ebay.com/itm/Notepad-Notebook-Jotter-Note-Paper-Scribbling-Pad-Pocket-Size-Sketch-pad-100-UK-/162301751812?var=&hash=item25c9f03204:m:mdqNT1gAb1W9tRb7RZcMLMQ
p133
aVhttp://www.ebay.com/itm/170gsm-A4-Wireboud-Twin-Wire-Sketch-Pad-Sketch-Book-30-acid-free-Sheet-472-/171267098074?hash=item27e05085da:g:S3wAAOxydgZTIJ2t
p134
aVhttp://www.ebay.com/itm/3D-Note-Pad-Sketch-Pad-Amazing-Quality-Eye-Catching-14cm-X-10cm-Clown-Fish-/182434651026?hash=item2a79f3db92:g:X5MAAOSwImRYieP-
p135
aVhttp://www.ebay.com/itm/Rock-Girl-Portfolio-Fashion-Design-Sketch-Pad-Stickers-Stencils-Colouring-Pencil-/252980968610?epid=12002612218&hash=item3ae6d73ca2:g:2f0AAOSwDrNZOYmW
p136
aVhttp://www.ebay.com/itm/Disney-Mini-Scribbler-Toy-Doodle-Sketch-Pad-Magnetic-Drawing-Erasable-Board-NEW-/132134949719?var=&epid=1840593625&hash=item1ec3db5357:m:mtnXx71sUVrKPYN7V5zr1Ig
p137
aVhttp://www.ebay.com/itm/Princess-Magnetic-Drawing-Board-Sketch-Pad-Pen-Magic-Wipe-Kids-Tablet-UK-SELLER-/282189639977?var=&hash=item41b3d03129:m:mNmNdJZUBCLGQU674OuNPWQ
p138
a.