(lp1
Vhttp://www.ebay.com/itm/New-boxed-CAITHNESS-GLASS-Seabed-Starfish-paperweight-U14070-rock-pool-/192088137435?hash=item2cb9585edb:g:BRwAAOxyrM5TIyRa
p2
aVhttp://www.ebay.com/itm/DFX-Split-Cakes-Face-Paint-20g-32g-/232389702321?var=&hash=item361b8172b1:m:mfOo-ADlD0eIgpA0dkAXj8g
p3
aVhttp://www.ebay.com/itm/Framed-Print-Seashells-on-the-Seabed-Picture-Poster-Art-Ocean-Shell-Sea-Wave-/321968393787?hash=item4af6cfce3b:g:es0AAOSwEK9UBk5g
p4
aVhttp://www.ebay.com/itm/SEABED-ITEMS-BLUE-ON-WHITE-BY-LEWIS-IRENE-COTTON-FABRIC-FQS-/222571008164?hash=item33d24410a4:g:OLEAAOSwInxXMZgS
p5
aVhttp://www.ebay.com/itm/Living-on-the-Seabed-A-Memoir-of-Love-Life-and-Survival-Lindsay-Nicholson-P-/132127457473?epid=86674153&hash=item1ec36900c1:g:gK4AAOSwmgJY1oqe
p6
aVhttp://www.ebay.com/itm/Magnesium-Oil-Spray-200ml-Sourced-from-Ancient-Zechstein-Seabed-Glass-bottle-/222106219591?epid=1044345563&hash=item33b68ff447:g:4ksAAOSwhlZYuA-U
p7
aVhttp://www.ebay.com/itm/Vondelpark-Seabed-NEW-CD-/311010165099?epid=144301500&hash=item4869a6816b:g:N9IAAOSw9NxTwT19
p8
aVhttp://www.ebay.com/itm/Disney-Finding-Dory-Nemo-Pyjamas-2-Piece-Long-Character-Pjs-Girls-Kids-Size-/142262309940?var=&hash=item211f7e9434:m:m26Qo-2cPmYMzb1fn_WCu7A
p9
aVhttp://www.ebay.com/itm/NEW-LEGO-Atlantis-8059-Seabed-Scavenger-/161870495451?epid=149121451&hash=item25b03bbedb:g:Tx4AAOSwezVW1Q9t
p10
aVhttp://www.ebay.com/itm/Magnesium-Oil-Spray-200ml-Sourced-from-Ancient-Zechstein-Seabed-Glass-bottle-/322075535975?epid=1044345563&hash=item4afd32aa67:g:qFgAAOSw32lYuA~V
p11
aVhttp://www.ebay.com/itm/LEGO-Atlantis-7977-Seabed-Strider-Instructions-book-ONLY-/111722687986?epid=1386019587&hash=item1a0330edf2:g:sTQAAOSwT6pVrP3y
p12
aVhttp://www.ebay.com/itm/SEABED-VAMPIRE-2oz-SILVER-TOBACCO-TIN-STASH-CAN-STORAGE-TIN-/262669573718?var=&hash=item3d28539e56:m:mJgzctbDMmj6gQuDDUUayFg
p13
aVhttp://www.ebay.com/itm/Mini-Jigsaws-Puzzles-Various-Pictures-20-Pcs-Pieces-Clowns-Pirates-Party-Favours-/282180581552?var=&hash=item41b345f8b0:m:m6MEUv5vV1-0OYSpQpis5rg
p14
aVhttp://www.ebay.com/itm/Boys-Disney-Finding-Dory-Pyjamas-Nemo-Pjs-Full-Length-PJ-Set-2-Piece-Kids-Size-/182290576123?var=&hash=item2a715d72fb:m:m-_lJmNanvbthSMNg2JkQkA
p15
aVhttp://www.ebay.com/itm/2oz-SILVER-TOBACCO-TIN-STASH-CAN-STORAGE-TIN-30-DESIGNS-TO-CHOOSE-FROM-/262669576343?var=&hash=item3d2853a897:m:mjI6IU6k2gwoQbsS3e9-iKg
p16
aVhttp://www.ebay.com/itm/Lego-Atlantis-8059-Seabed-Scavenger-INSTRUCTION-Book-ONLY-NO-BRICKS-/121988714334?epid=651187416&hash=item1c67180f5e:g:LPUAAOSwxehXOgNC
p17
aVhttp://www.ebay.com/itm/NEW-Needlework-Needlepoint-Counted-Cross-Stitch-Kit-Dolphin-Seabed-World-43-43cm-/282344917062?hash=item41bd118846:g:fmwAAOSwA3dYkKaN
p18
a.