(lp0
Vhttp://www.ebay.com/itm/Troy-Abed-In-The-Morning-White-Mug-/132260963164?hash=item1ecb5e235c:g:-ysAAOSwf~9ZaLr8
p1
aVhttp://www.ebay.com/itm/Troy-Abed-In-The-Morning-White-Mug-/381710793958?var=&hash=item58dfbc7ce6:m:mDFs5GiErxI7efpkrCG7pMg
p2
aVhttp://www.ebay.com/itm/Troy-Abed-In-The-Morning-White-Mug-/142098626088?var=&hash=item2115bcf628:m:mDFs5GiErxI7efpkrCG7pMg
p3
a.