(lp1
Vhttp://www.ebay.com/itm/Prescription-for-Murder-The-True-Story-of-Harold-Shipman-Brian-Whittle-Jean-/361903414959?epid=86634765&hash=item54431fdeaf:g:py8AAOSwfVpYwbWY
p2
aVhttp://www.ebay.com/itm/Shipman-Buzzer-Fishing-Flies-18-Pack-Mixed-Colour-Size-For-Fly-Fishing-/221387054347?hash=item338bb25d0b:g:BxYAAOSwiCRUiZvc
p3
aVhttp://www.ebay.com/itm/Fun-with-Kirk-and-Spock-Star-Trek-Robb-Pearlman-Gary-Shipman-/331765851848?epid=190007800&hash=item4d3ec926c8:g:6fIAAOSwKtlWq70z
p4
aVhttp://www.ebay.com/itm/James-Bolam-James-Hazeldine-Harold-Shipman-Doctor-Death-DVD-NEW-/351900179870?epid=1907759972&hash=item51eee29d9e:g:4BkAAOSwKOJYIdTo
p5
aVhttp://www.ebay.com/itm/NEW-J-S-Jones-Shipman-Turning-Tool-Model-41-L-Lathe-Toolholder-/272024775576?hash=item3f55f0ab98:g:F5UAAOxycmBS3BWf
p6
aVhttp://www.ebay.com/itm/FRED-AND-ROSE-WEST-SHIRT-funny-humour-comedy-harold-shipman-book-ALL-SIZES-/192035242608?var=&hash=item2cb6314270:m:mwa06Xsj0BbdtkDa63GIafg
p7
aVhttp://www.ebay.com/itm/Harold-Shipman-Jim-Fixed-It-Mug-For-Me-Offensive-Comedy-Mug-Rolf-Harris-Original-/282550933050?hash=item41c959163a:g:osYAAOSwB09YCVF3
p8
aVhttp://www.ebay.com/itm/HOME-ALONE-MOVIE-SHIRT-funny-MICHAEL-JACKSON-harold-shipman-fred-and-rose-west-/192038801925?var=&hash=item2cb6679205:m:m4AoClkAnufWQyGMt9sOcGA
p9
aVhttp://www.ebay.com/itm/Framed-Print-Harold-Shipman-Dr-Death-Serial-killer-Picture-Poster-Gothic-Art-/321980167793?hash=item4af7837671:g:XpoAAOSwqrtWnPZW
p10
aVhttp://www.ebay.com/itm/Shipman-Buzzer-Trout-Fly-6-Pack-Claret-Shipman-Choice-of-Sizes-Fly-Fishing-/321506432698?var=&hash=item4adb46d6ba:m:mi9Dl83nrlWQbc3oM5zRfHQ
p11
aVhttp://www.ebay.com/itm/BORN-TO-KILL-DVD-Harold-Shipman-Brand-New-Sealed-33046-/252422376531?hash=item3ac58bcc53:g:018AAOSwQupXXVg4
p12
aVhttp://www.ebay.com/itm/Shipman-Buzzers-6-pack-Black-Shipmans-Choice-of-Sizes-For-Fly-Fishing-/321561813420?var=&hash=item4ade93e1ac:m:mVd5PHQ3fvYtI2QYNKlADyg
p13
aVhttp://www.ebay.com/itm/Buzzer-Trout-Flies-18-Pack-Shipman-Suspender-Epoxy-Buzzers-Mixed-Size-/221633712739?hash=item339a661263:g:GUkAAOSw7ThUisal
p14
aVhttp://www.ebay.com/itm/Fun-with-Kirk-and-Spock-Star-Trek-Robb-Pearlman-Gary-Shipman-/131708137606?epid=202118050&hash=item1eaa6ab086:g:mw8AAOSwLnlWomcc
p15
aVhttp://www.ebay.com/itm/Shipman-Buzzer-Trout-Fly-8-Pack-Olive-Shipmans-Mixed-Size-12-14-16-Fly-Fishing-/221896001911?hash=item33aa084977:g:YMUAAOSwHjNWBUfg
p16
aVhttp://www.ebay.com/itm/Kay-Katty-Shipman-Claire-The-Confidence-Code-BOOK-NEW-/302030697632?epid=208884391&hash=item46526eb4a0:g:uRAAAOSwdzVXoJtY
p17
aVhttp://www.ebay.com/itm/Golden-Nugget-CLARET-Shipman-buzzers-size-12-special-Salmoflies-/231197132555?hash=item35d46c470b:g:aqwAAOxylpNTPuDC
p18
aVhttp://www.ebay.com/itm/Boring-Bar-Double-Ended-Jones-Shipman-3-8-Tool-Bits-11-Long-x-1-1-4-Sq-/371495258902?hash=item567ed7cb16:g:j~4AAOSwv-NWV0AS
p19
aVhttp://www.ebay.com/itm/All-Out-War-Book-by-Shipman-Tim-Hardback-/272560036199?epid=225511992&hash=item3f75d81967:g:~u4AAOSwB-1Y1wQJ
p20
aVhttp://www.ebay.com/itm/Shipman-Buzzer-Trout-Flies-8-Black-Shipman-Mixed-Size-12-14-16-Fly-Fishing-/321875779268?hash=item4af14a9ec4:g:yHUAAOSw37tWBUct
p21
aVhttp://www.ebay.com/itm/All-Out-War-Tim-Shipman-/382143420002?epid=234141312&hash=item58f985d662:g:GdIAAOSwyltZVAku
p22
aVhttp://www.ebay.com/itm/Square-Lathe-Tool-Steel-Bit-5-16-x-2-1-2-Super-HSS-Jones-Shipman-/142056368861?hash=item2113382add:g:0IkAAOSwCU1Y1qFR
p23
aVhttp://www.ebay.com/itm/Jones-Shipman-540-Wheelhead-Spindle-Oil-Premixed-Velocite-N06-Kerosene-/221938281942?var=&hash=item33ac8d6dd6:m:mlcvPpgi-N6GKF5tCB17KKQ
p24
aVhttp://www.ebay.com/itm/James-Bolam-James-Hazeldine-Harold-Shipman-Doctor-Death-DVD-NEW-/302132699990?epid=1723924825&hash=item4658832356:g:-~8AAOSwHMJYIctF
p25
a.