(lp1
Vhttp://www.ebay.com/itm/6-x-Hot-Tamales-Cinnamon-Candy-Big-Theatre-Box-5oz-141g-American-Sweets-Bulk-Buy-/152381773262?epid=1129901344&hash=item237aa955ce:g:vgEAAOSwhdRYWGWB
p2
aVhttp://www.ebay.com/itm/Hot-Tamales-51g-American-Candy-Cinnamon-from-Candy-Junction-/251787739814?epid=1207755894&hash=item3a9fb802a6:g:h8EAAOSwd4tUEtcE
p3
aVhttp://www.ebay.com/itm/Hot-Tamales-Tropical-Heat-/252028347403?epid=1340201739&hash=item3aae0f640b:g:je0AAOSwyQtVpriT
p4
aVhttp://www.ebay.com/itm/Hot-Tamales-3-Alarm-American-Sweets-141g-/201806771213?epid=542804255&hash=item2efc9ef40d:g:WGkAAOSwImRYle7Z
p5
aVhttp://www.ebay.com/itm/REVLON-Creme-lip-gloss-in-055-hot-tamale-/110948779127?hash=item19d5100477:g:GrIAAOxy3NBSg~hv
p6
aVhttp://www.ebay.com/itm/CINNAMON-CANDY-HAMPER-BOX-JOLLY-RANCHER-ATOMIC-FIREBLAST-BIG-RED-HOT-TAMALES-/281859501342?hash=item41a022ad1e:g:jsMAAOSwT4lWSw50
p7
aVhttp://www.ebay.com/itm/REVLON-CREME-LIP-GLOSS-CREAM-TWIST-UP-BRAND-NEW-CHOOSE-SHADE-/201948780425?var=&hash=item2f0515d789:m:muwK9jS7ktuxkB8R4ppIkFw
p8
aVhttp://www.ebay.com/itm/Cinnamon-Candy-Selection-BIG-RED-HOT-TAMALES-JOLLY-RANCHER-ATOMIC-FIREBLAST-/271635963009?epid=733846678&hash=item3f3ec3dc81:g:TzMAAOSw8cNUPW6Y
p9
aVhttp://www.ebay.com/itm/Hot-Tamales-51g-American-Cinnamon-Candy-from-American-Goodies-USA-Import-/171456924412?epid=1207755894&hash=item27eba10afc:g:4vMAAOSwVFlUEs5E
p10
aVhttp://www.ebay.com/itm/CINNAMON-JAR-BIG-RED-RED-HOTS-HOT-TAMALES-ATOMIC-FIRE-BLASTS-JOLLY-RANCHER-/281939979852?hash=item41a4eeae4c:g:9iMAAOSwll1Wxxlc
p11
aVhttp://www.ebay.com/itm/Hot-Tamales-3-Alarm-Chewy-Cinnamon-Candies-4-x-5oz-Boxes-/262799918540?epid=621631794&hash=item3d301885cc:g:Z8YAAOSwUKxYc4sA
p12
aVhttp://www.ebay.com/itm/NYX-Butter-Lipstick-Brand-new-Fast-and-free-delivery-/263030421562?var=&hash=item3d3dd5b83a:m:m9muKhAboeLbL4I4aQhEjLA
p13
aVhttp://www.ebay.com/itm/3-x-Hot-Tamales-51g-American-Cinnamon-Candy-from-American-Goodies-USA-Import-/181652188268?hash=item2a4b506c6c:g:HxMAAOSwSypY~2fN
p14
aVhttp://www.ebay.com/itm/Hot-Tamales-Tropical-Heat-American-Sweets-141g-/192092749222?hash=item2cb99ebda6:g:qWYAAOSwnHZYkPrg
p15
aVhttp://www.ebay.com/itm/Hot-Tamales-Tropical-Heat-141g-/252076836753?epid=1843083085&hash=item3ab0f34791:g:fGQAAOSwTapV5dD1
p16
aVhttp://www.ebay.com/itm/3-x-Hot-Tamales-51g-American-Candy-Cinnamon-from-Candy-Junction-/261751056290?hash=item3cf19427a2:g:9XMAAOSw0e9UyOIz
p17
aVhttp://www.ebay.com/itm/Hot-tamales-22g-box-American-food-import-USA-Candy-/162563230944?hash=item25d9860ce0:g:oiAAAOSwceNZTLOR
p18
aVhttp://www.ebay.com/itm/American-Sweets-Hot-Tamales-Tropical-Heat-Candy-1-x-22g-QCP148-/332172029045?hash=item4d56feec75:g:VSAAAOSwuLZY4OzN
p19
aVhttp://www.ebay.com/itm/Awesome-Hot-Tamales-51G-Pouch-Cinnamon-Candies-/321813477459?var=&epid=1207755894&hash=item4aed93f853:m:mCvaEx8BErUVi-OKZ6G969g
p20
aVhttp://www.ebay.com/itm/American-Sweets-Hot-Tamales-Tropical-Heat-Candy-3-x-22g-QCP148-/232290622572?hash=item3615999c6c:g:VSAAAOSwuLZY4OzN
p21
aVhttp://www.ebay.com/itm/REVLON-CREME-GLOSS-LIP-GLOSS-CHOOSE-SHADE-BRAND-NEW-/191673452908?var=&hash=item2ca0a0c96c:m:mRDl1qMJOm97koo5cKkRS-g
p22
aVhttp://www.ebay.com/itm/Vegan-Mexico-Soul-Satisfying-Regional-Recipes-from-Tamales-to-T-9781941252215-/311795213139?epid=228998283&hash=item4898716353:g:5KMAAOSw9GhYldIg
p23
aVhttp://www.ebay.com/itm/Santana-Hot-Tamales-CD-2003-/291190983465?epid=4413406&hash=item43cc55cb29:g:BMYAAOSwQItUGTp~
p24
aVhttp://www.ebay.com/itm/2-x-Hot-Tamales-51g-American-Cinnamon-Candy-from-American-Goodies-USA-Import-/181636724999?epid=1207755894&hash=item2a4a647907:g:Up4AAOSwWWxZALW0
p25
aVhttp://www.ebay.com/itm/Hot-Tamale-DVD-2008-Randy-Spelling-/301997871906?epid=66164508&hash=item465079d322:g:~gUAAOSwTglYkTIa
p26
aVhttp://www.ebay.com/itm/Tacos-Tortas-and-Tamales-Flavors-from-the-Griddles-Hardcover-NEW-Santiban-/350640127901?epid=117548220&hash=item51a3c7bf9d:g:m8YAAOSwe7BWvMc8
p27
aVhttp://www.ebay.com/itm/2-x-Hot-Tamales-51g-American-Candy-Cinnamon-from-Candy-Junction-/251787745066?epid=1207755894&hash=item3a9fb8172a:g:yhEAAOSw0e9UsP~r
p28
a.