(lp1
Vhttp://www.ebay.com/itm/Yongnuo-RF-603II-C1-2-4GHz-Wireless-Remote-Flash-Receiver-Trigger-For-Canon-UK-/282000265006?hash=item41a8868f2e:g:7osAAOSwbwlXC1aT
p2
aVhttp://www.ebay.com/itm/The-Dispossessed-by-Ursula-K-Le-Guin-9781857988826-Paperback-1999-/311870186490?epid=86719796&hash=item489ce963fa:g:HIQAAOSw~y9ZFfUY
p3
aVhttp://www.ebay.com/itm/YONGNUO-RF-603-II-C3-Wireless-Flash-Trigger-For-Canon-5D-II-III-7D-6D-40D-50D-/281550596801?hash=item418db92ac1:g:xYgAAOSwbdpWbhhz
p4
a.