(lp1
Vhttp://www.ebay.com/itm/Facom-R-7PG-1-4-Drive-21pc-Metric-Socket-and-Screwdriver-Bit-Set-RL-161-Ratchet-/182457838396?epid=1364576109&hash=item2a7b55ab3c:g:vG8AAOSwPh5ZJvh-
p2
aVhttp://www.ebay.com/itm/Carolus-By-Gedore-5860-2172-172pc-1-4-3-8-1-2-DR-Socket-Set-/272694791232?hash=item3f7de04c40:g:Q-kAAOSwcgNZLoeZ
p3
aVhttp://www.ebay.com/itm/Draper-15408-1-2-Square-Drive-Metric-MM-Socket-Set-10-32mm-25-Piece-Garage-Tool-/172633099558?epid=1183236794&hash=item2831bc0d26:g:kioAAOSwzqFY95JJ
p4
aVhttp://www.ebay.com/itm/Hilka-110-Piece-Socket-Set-Metric-1-4-1-2-Drive-Pro-Craft-4-32mm-/142428941582?epid=1437333254&hash=item21296d2d0e:g:i1MAAOSwMgdX19C4
p5
aVhttp://www.ebay.com/itm/Draper-Expert-18-Piece-3-8-Square-Drive-Hi-Torq-Metric-Impact-Socket-Set-85189-/311638302193?epid=1768556881&hash=item488f171df1:g:u4oAAOSwjXRXZkyO
p6
aVhttp://www.ebay.com/itm/Teng-Tools-T3834-3-8-square-drive-34-piece-metric-socket-set-TENT3834-/251867757293?epid=2068594044&hash=item3aa47cfaed:g:~QoAAOSwqRdXMbeN
p7
aVhttp://www.ebay.com/itm/Sealey-Premier-10pc-Metric-Magnetic-Socket-Insert-Set-Standard-Deep-Sockets-/332053886354?epid=686456907&hash=item4d4ff43592:g:uy4AAOSwblZZJvUw
p8
aVhttp://www.ebay.com/itm/LASER-13-Pc-Metric-3-8-Sq-Dr-6Pt-Hex-DAMAGED-BOLT-GRIP-8mm-19mm-Socket-Set-6834-/371880939158?epid=572531478&hash=item5695d4ce96:g:oSEAAOSwWxNYuC0p
p9
aVhttp://www.ebay.com/itm/Britool-Expert-E032909-55-Piece-1-2-Drive-Metric-AF-Torx-Socket-Set-/112435618308?epid=1451201122&hash=item1a2daf6204:g:mR4AAOSwaEhZN65X
p10
aVhttp://www.ebay.com/itm/Draper-Expert-10-Piece-1-2-Sq-Dr-Hi-Torq-Metric-Deep-Impact-Socket-Set-38369-/132064927932?epid=1037413898&hash=item1ebfaee0bc:g:f1MAAOSwjDZYenNT
p11
aVhttp://www.ebay.com/itm/BERGEN-10pc-3-8-Dr-FLEXIBLE-UNIVERSAL-JOINT-SOCKET-SET-10mm-19mm-UJ-Flexi-B1102-/201693865290?epid=1330086343&hash=item2ef5e4254a:g:T-EAAOSw-CpX9Srz
p12
aVhttp://www.ebay.com/itm/Laser-Tools-6834-Socket-Set-13pc-Damaged-Undamaged-nuts-/272557863325?epid=572531478&hash=item3f75b6f19d:g:wbQAAOSw~AVYpF8k
p13
aVhttp://www.ebay.com/itm/1-2-Drive-Hex-Key-Bit-Ratchet-Socket-Set-4mm-17mm-9pc-Hex-Allen-Alan-TE739-/141504330414?epid=1052871035&hash=item20f250baae:g:4NYAAOSwFnFV~cja
p14
aVhttp://www.ebay.com/itm/KAMASA-JUNE-SALE-1-4-Drive-Ratchet-Drive-SOCKET-SCREWDRIVER-Bit-Set-Tool-Kit-/162353072545?epid=1922814357&hash=item25ccff49a1:g:88sAAOSwZQRYdKZu
p15
aVhttp://www.ebay.com/itm/3-8-Drive-Socket-Set-Metric-21-PC-Kit-Ratchet-Deep-Sockets-Extensions-HILKA-/231972878856?epid=2054409428&hash=item3602a93a08:g:8roAAOSwepJXWDZD
p16
aVhttp://www.ebay.com/itm/SP3813-Sealey-WallDrive-Socket-13mm-3-8-Sq-Drive-Fully-Polished-/311866246020?epid=1723020094&hash=item489cad4384:g:AdUAAOSwjL5ZEDlg
p17
aVhttp://www.ebay.com/itm/LASER-TOOLS-6371-14mm-3-8-DRIVE-SPARK-PLUG-WOBBLE-SOCKET-BMW-DOUBLE-CUT-/162441828539?epid=1452870200&hash=item25d24998bb:g:sTIAAOSw~bFWFm7K
p18
aVhttp://www.ebay.com/itm/deep-impact-sockets-set-long-10-11-13-14-17-18-19-21-22-24-27-30-32mm-1-2-15pc-/191992949793?hash=item2cb3abec21:g:zosAAOSwCGVX~QtC
p19
aVhttp://www.ebay.com/itm/17-Piece-deep-socket-set-with-holding-rail-3-8-DRIVE-12-point-sockets-/141916086685?epid=1630227011&hash=item210adba19d:g:xbcAAOSw2gxYphgT
p20
aVhttp://www.ebay.com/itm/Deep-Socket-Set-1-2-Square-Drive-9pc-Metric-10mm-22mm-Bluespot-01541-/182449119367?epid=650623413&hash=item2a7ad0a087:g:X84AAOSwgv5ZSFSO
p21
aVhttp://www.ebay.com/itm/43pc-Socket-Set-3-8-1-4-Metric-Drive-Screwdriver-Bits-Spark-Plug-Spinner-/332166234204?epid=1144247287&hash=item4d56a6805c:g:T90AAOSwWxNY2Q~E
p22
aVhttp://www.ebay.com/itm/TO-CLEAR-Sealey-AK2743-Socket-Set-11pc-3-8-Sq-Drive-Deep-Lock-On-6pt-Imperial-/351881575310?epid=25002386295&hash=item51edc6bb8e:g:GYcAAOSwNRdYBeS3
p23
aVhttp://www.ebay.com/itm/Bahco-S81MIX-Socket-Set-81pc-Metric-1-4-1-2-Ratchet-Pliers-Spanner-Set-/272673904865?epid=1404312461&hash=item3f7ca198e1:g:Zp8AAOSwH09ZGxOd
p24
aVhttp://www.ebay.com/itm/Bergen-9pc-1-2-Female-Torx-E-TRX-Star-Socket-Set-B1194-/201609787853?epid=2110604482&hash=item2ef0e139cd:g:pSEAAOSw8w1X9SQG
p25
aVhttp://www.ebay.com/itm/Deep-Socket-Set-3-8-Square-Drive-13pc-Metric-6mm-19mm-Bluespot-01542-/172407062290?epid=1330099162&hash=item282442ff12:g:PjcAAOSw0j9ZSFbx
p26
aVhttp://www.ebay.com/itm/AK2674-Sealey-Socket-Set-13pc-1-2-Sq-Drive-12pt-WallDrive-Imperial-/311813338866?epid=1323007445&hash=item489985f6f2:g:ueoAAOSwIgNXoRfR
p27
aVhttp://www.ebay.com/itm/LASER-TOOLS-5665-LOW-PROFILE-IMPACT-SOCKET-BIT-SET-HEX-ALLEN-6mm-19mm-1-4-3-8-/181991261862?epid=1822819947&hash=item2a5f8646a6:g:u7kAAOSwwPhWl27P
p28
aVhttp://www.ebay.com/itm/AK2673-Sealey-Socket-Set-11pc-3-8-Sq-Drive-12pt-Deep-WallDrive-Imperial-/182472536696?epid=1322899251&hash=item2a7c35f278:g:KIcAAOSw3xJXoRfL
p29
aVhttp://www.ebay.com/itm/15-Pc-1-2-Inch-Deep-Impact-Socket-Tool-Set-10-32mm-Metric-Garage-Workshop-CT456-/131808233674?epid=1868579124&hash=item1eb06208ca:g:jecAAOSw-89ZVTSo
p30
aVhttp://www.ebay.com/itm/26pc-1-2-inch-Drive-Socket-Set-Metric-Extending-Ratchet-12-18-Tool-Set-/282222057381?epid=1505892269&hash=item41b5bed7a5:g:Yy0AAOSwFe5Xz79i
p31
aVhttp://www.ebay.com/itm/Britool-Expert-19pc-Socket-Set-1-4-Square-Drive-E030700-Free-Delivery-/122516636909?epid=1352776739&hash=item1c868f84ed:g:w9UAAOSw8lpZJ~Rz
p32
aVhttp://www.ebay.com/itm/Teng-12pc-1-2in-Drive-Socket-Set-8-24mm-FRP-Ratchet-Pocket-Rail-Case-M1212N1-/252659164615?epid=2084081492&hash=item3ad3a8e5c7:g:KvQAAOSwImRYPX7Z
p33
aVhttp://www.ebay.com/itm/Draper-05586-Tools-Workshop-35-Piece-Ratchet-Screwdriver-Socket-And-Bit-Set-/172541306295?epid=1577084390&hash=item282c4365b7:g:xRwAAOSwfVpYq0QD
p34
aVhttp://www.ebay.com/itm/15-Piece-Xi-on-3-8-Drive-Super-Grap-Deep-Socket-Set-on-Holding-Rail-/142255330512?epid=1824507067&hash=item211f1414d0:g:6d0AAOSw241YhgEs
p35
aVhttp://www.ebay.com/itm/215-Piece-Professional-Socket-Set-1-2-3-8-1-2-DR-Spanners-Torx-More-/271936226526?epid=535979376&hash=item3f50a984de:g:-agAAOSw8HBZLqRP
p36
aVhttp://www.ebay.com/itm/Bergen-9pc-1-2-Female-Torx-E-TRX-Star-Socket-Set-B1130-/142026155813?epid=1107601800&hash=item21116b2725:g:YwQAAOSw8gVX9SXm
p37
aVhttp://www.ebay.com/itm/Draper-Expert-20-Piece-1-4inch-Square-Drive-Metric-Socket-Set-89731-/150723736915?epid=554636782&hash=item2317d5b553:g:ShgAAOSw4GVYUWm3
p38
aVhttp://www.ebay.com/itm/GRIP-TITE-USA-9-Piece-3-8-Dr-Socket-Set-Unique-For-Rounded-Nut-Bolt-mm-00173-/391082682776?epid=1173694981&hash=item5b0e582998:g:XLEAAOSwNuxXX9Cz
p39
aVhttp://www.ebay.com/itm/Sealey-13pc-1-4-Total-Drive-Deep-Socket-Set-4-14mm-Hex-Spline-Trx-Star-/221888703208?epid=1516579868&hash=item33a998eae8:g:BfgAAOSwn-tZLxTa
p40
aVhttp://www.ebay.com/itm/GENIUS-TOOLS-TF-316MD-16PC-3-8-INCH-DR-METRIC-DEEP-IMPACT-SOCKET-SET-/131825638868?epid=1671282102&hash=item1eb16b9dd4:g:e1oAAOSwNsdXRGrG
p41
aVhttp://www.ebay.com/itm/Sealey-AK2673-Socket-Set-11pc-3-8-Sq-Drive-12pt-Deep-WallDrive-Imperial-/111689873744?epid=1322899251&hash=item1a013c3950:g:XuEAAOSwblZZEi0O
p42
aVhttp://www.ebay.com/itm/Socket-Set-3-4-19-50mm-Drive-Metric-21pce-Nut-Socket-Heavy-duty-633663-/231763611503?epid=5003305692&hash=item35f6300f6f:g:fR0AAOSwwE5WVJFZ
p43
aVhttp://www.ebay.com/itm/JUNE-SALE-Brake-Caliper-Socket-and-Bit-Tool-Set-SOME-VW-AUDI-MERCEDES-PORSCHE-/182499071089?hash=item2a7dcad471:g:spAAAOSwax5YrwmS
p44
aVhttp://www.ebay.com/itm/Hilka-25-Piece-1-2-Drive-Metric-Socket-Set-Carbon-Steel-Heat-Treated-01202502-/262186833816?hash=item3d0b8d9798:g:VXoAAOSwXXxZUnXm
p45
aVhttp://www.ebay.com/itm/41Pc-1-2-inch-Drive-SAE-and-Metric-Socket-Garage-Tool-Set-Extendable-Ratchet-/222221327233?epid=1812704713&hash=item33bd6c5b81:g:ryIAAOSwHoFXszW7
p46
aVhttp://www.ebay.com/itm/BAHCO-34-Piece-S330-3-8-Metric-AF-Socket-Set-Ratchet-1-4-Screwdriver-Bits-/290621595319?epid=1205518029&hash=item43aa659eb7:g:-2wAAOSwbqpT5PNM
p47
aVhttp://www.ebay.com/itm/IMPACT-SOCKET-SETS-3-8-SQ-DR-STANDARD-DEEP-7-22MM-FROM-GENIUS-TOOLS-/132188645515?epid=858677103&hash=item1ec70ea88b:g:fOgAAOSww5hZFB~X
p48
aVhttp://www.ebay.com/itm/Draper-3-8-Square-Drive-8-19mm-Socket-and-Ratchet-Set-13-piece-Green-/152507703828?epid=2057671261&hash=item23822ae214:g:F7oAAOSw3utY7eO0
p49
aVhttp://www.ebay.com/itm/Sealey-AK2841SP-Socket-Set-12pc-3-8-Sq-Drive-6pt-Deep-WallDrive-Metric-/122332890500?epid=1976377197&hash=item1c7b9bc584:g:tn4AAOSw7GRZAjTe
p50
aVhttp://www.ebay.com/itm/Socket-set-8pc-triple-square-spline-M4-M16-12-point-multi-nuts-bit-tool-kit-/282432292754?hash=item41c246c792:g:NOsAAOSwpkFY53fF
p51
aVhttp://www.ebay.com/itm/Black-94pc-Socket-Set-Ratchet-Driver-Kit-Screwdriver-Bit-Tool-Torx-With-Case-/362030573645?epid=25004760271&hash=item544ab4284d:g:kSIAAOSwvjdZXkJv
p52
aVhttp://www.ebay.com/itm/Extra-Long-Deep-Socket-Set-Chrome-Vanadium-8mm-10mm-12mm-14mm-x-120mm-Deep-3-8-/182576948472?hash=item2a826f24f8:g:ZJ4AAOSwcgNZGsM8
p53
aVhttp://www.ebay.com/itm/Professional-10pc-1-2-Inch-Drive-Impact-Socket-Set-10-22mm-Chrome-Vanadium-/172534408401?epid=691138858&hash=item282bda24d1:g:JrYAAOSwWxNYpYPJ
p54
aVhttp://www.ebay.com/itm/Sealey-Heavy-Duty-Multi-Coloured-Socket-Set-10pc-1-2-WallDrive-Metric-AK288-/141575893416?epid=1823002240&hash=item20f694b1a8:g:0N0AAOSwZjJU37Wh
p55
aVhttp://www.ebay.com/itm/Rolson-Mechanics-3-8-Drive-Quick-Release-Ratchet-10pc-Workshop-Socket-Set-/252559320753?epid=1379724546&hash=item3acdb566b1:g:tB4AAOSwmfhX6oz~
p56
aVhttp://www.ebay.com/itm/VORLUX-9pc-1-4-3-4-dr-Stubby-Impact-SAE-Hex-Bit-Socket-Set-AF-Allen-B1349-/201656525614?epid=1082261843&hash=item2ef3aa632e:g:IfkAAOSw8w1X9ScO
p57
aVhttp://www.ebay.com/itm/9pc-3-8-Deep-Socket-Set-10-19mm-Mechanic-Ratchet-Long-Reach-Metric-Kit-/152395266506?epid=1405400616&hash=item237b7739ca:g:6NkAAOSwt5hYeU-j
p58
aVhttp://www.ebay.com/itm/LASER-6068-11-PIECE-TAMPERPROOF-TORX-STAR-3-8-DRIVE-BIT-SOCKET-SET-T10-T60-/161475119134?epid=1738013070&hash=item2598aac81e:g:uH4AAOSwVFlUI~aj
p59
aVhttp://www.ebay.com/itm/Deep-impact-socket-wrench-set-1-2-drive-10-32-black-metric-METAL-box-14pc-PRO-/201493269624?epid=1553294765&hash=item2ee9ef4c78:g:KqcAAOSwSdZWgnZN
p60
aVhttp://www.ebay.com/itm/219pc-large-socket-set-PROFESSIONAL-tool-spanner-metric-wrench-apprentice-kit-/401279309590?epid=1971105280&hash=item5d6e1c5716:g:NPMAAOSwMN9XQy8Q
p61
aVhttp://www.ebay.com/itm/Teng-9pc-3-8-Drive-Hex-Key-Bit-Socket-Set-Metric-Clip-Rail-Set-3-12mm-M3812-/252477521332?epid=2016945694&hash=item3ac8d53db4:g:wpwAAOSwZVlXmJct
p62
aVhttp://www.ebay.com/itm/Teng-Tools-TT1205-5-Pce-1-2-Drive-Ratchet-Socket-Extension-Tool-Kit-With-Case-/361887565816?epid=2130244142&hash=item54422e07f8:g:3CcAAOSwiQ9ZPlCN
p63
aVhttp://www.ebay.com/itm/13PC-STAR-E-Torx-Impact-Socket-Set-WELZH-WERKZEUG-LIFETIME-WARRANTY-/182536543360?hash=item2a80069c80:g:KSYAAOSw14xWONGx
p64
aVhttp://www.ebay.com/itm/LASER-6209-SOCKET-RACK-HOLDER-ORGANISER-HOLDS-DEEP-STANDARD-1-4-SOCKETS-26-/161674819510?epid=1149127879&hash=item25a491f7b6:g:CBkAAOSwBahVL9l8
p65
aVhttp://www.ebay.com/itm/Lambda-Oxygen-Sensor-Socket-22mm-x-100mm-1-2-Drive-Cr-v-Steel-/252517659149?epid=1324750764&hash=item3acb39b20d:g:9HQAAOxyLm9TEYkn
p66
aVhttp://www.ebay.com/itm/LASER-3660-DEEP-SOCKET-SET-12-POINT-BI-HEX-1-2-DRIVE-/360304864781?epid=1305114474&hash=item53e3d7ee0d:m:mc1r88j-QhtJgEA-ywWhX5A
p67
aVhttp://www.ebay.com/itm/191-Piece-Professional-Socket-Set-1-2-3-8-1-2-DR-More-/272673932685?hash=item3f7ca2058d:g:YB8AAOSwpLNX9nMZ
p68
aVhttp://www.ebay.com/itm/COLOUR-12PC-1-4-INCH-DRIVE-LONG-REACH-DEEP-RATCHET-SOCKET-SET-4-13MM-RAIL-HOLDER-/291274514338?epid=1807973514&hash=item43d1505fa2:g:BX8AAOSwT~9Wj-wc
p69
aVhttp://www.ebay.com/itm/Draper-Expert-18-Piece-3-8-Sq-Dr-Hi-Torq-Metric-Impact-Socket-Set-54714-/132064936626?epid=1207987808&hash=item1ebfaf02b2:g:2YcAAOSwopRYenZR
p70
aVhttp://www.ebay.com/itm/41Pc-1-2-inch-Drive-SAE-and-Metric-Socket-Garage-Tool-Set-Extendable-Ratchet-/222221327233?epid=1812704713&hash=item33bd6c5b81:g:ryIAAOSwHoFXszW7
p71
aVhttp://www.ebay.com/itm/7PC-OXYGEN-LAMBDA-SENSOR-SOCKET-REMOVAL-SET-TOOL-KIT-ENGINE-22MM-27MM-29MM-15-20-/221923255435?epid=1464944937&hash=item33aba8248b:g:iR4AAOSw4CFYozXs
p72
aVhttp://www.ebay.com/itm/LASER-TOOLS-6089-PIPE-FITTING-SOCKET-SET-ELBOW-CONNECTORS-FOR-TRUCK-COMMERCIAL-/361169671043?epid=1039826471&hash=item541763d383:g:0~8AAOSwr81USkZt
p73
aVhttp://www.ebay.com/itm/5pc-1-2-drive-spline-triple-square-socket-BERGEN-AT848-/262803400907?epid=1252748101&hash=item3d304da8cb:g:TcYAAOSw-0xYdmDr
p74
aVhttp://www.ebay.com/itm/13PC-STAR-E-Torx-Impact-Socket-Set-WELZH-WERKZEUG-LIFETIME-WARRANTY-/182536543360?hash=item2a80069c80:g:KSYAAOSw14xWONGx
p75
aVhttp://www.ebay.com/itm/AMTECH-27pc-1-4-DRIVE-SOCKET-AND-BIT-SET-METRIC-TORX-HEX-PHILLIPS-RATCHET-/142329185121?epid=1505668045&hash=item21237b0361:g:yI0AAOSwmgJY2sRb
p76
aVhttp://www.ebay.com/itm/LASER-TOOLS-5962-DEEP-IMPACT-SOCKET-SET-1-4-DRIVE-14-PIECES-4mm-15mm-ON-RAIL-/181913644110?epid=1730619362&hash=item2a5ae5ec4e:g:7GsAAOSwiCRUbbCp
p77
aVhttp://www.ebay.com/itm/Socket-Wrench-Set-1-4-Drive-Metric-38pce-Silverline-633493-/332135256281?epid=1677174343&hash=item4d54cdd0d9:g:eyEAAOSw-3FZHd4g
p78
aVhttp://www.ebay.com/itm/Yato-Ratchet-Socket-Set-216-pcs-1-2-1-4-3-8-YT38841-Tools-Toolbox-Driver-NEW-/142429117020?epid=2030723683&hash=item21296fda5c:g:SVUAAOSw8gVYBeJT
p79
aVhttp://www.ebay.com/itm/10PC-Deep-Socket-Set-Long-reach-Sockets-on-Rail-1-2-Drive-HILKA-or-ROLSON-/111787319876?epid=1804294450&hash=item1a070b2244:g:vI4AAOSwux5YPv-W
p80
aVhttp://www.ebay.com/itm/LASER-6210-SOCKET-RACK-HOLDER-ORGANISER-HOLDS-DEEP-STANDARD-3-8-SOCKETS-28-/181718520290?epid=1739251821&hash=item2a4f4491e2:g:JfkAAOSwstxVL9o-
p81
aVhttp://www.ebay.com/itm/New-30pc-1-4-3-8-Drive-Socket-Set-CRV-Sockets-Mechanic-Garage-Home-Ratchet-/162396711688?epid=1305414139&hash=item25cf992b08:g:TSoAAOSw~AVYpDm7
p82
aVhttp://www.ebay.com/itm/9pc-1-4-3-8-1-2-Drive-Impact-Extension-Socket-Bar-Set-/262977556678?epid=853859008&hash=item3d3aaf10c6:g:x08AAOSwcB5ZEscX
p83
aVhttp://www.ebay.com/itm/1-2-DRIVE-BIG-TORX-BIT-IMPACT-SOCKET-SET-by-VORLUX-T55-T60-T70-T80-T90-T100-/172727102760?hash=item2837566d28:g:jbIAAOSwGIRXZ9f2
p84
aVhttp://www.ebay.com/itm/5-Piece-1-4-Inch-Drive-Socket-Wobble-Extension-Bar-Set-End-Garage-Workshop-Tool-/391760691725?epid=1622053517&hash=item5b36c1c20d:g:X4UAAOSwEeFVSygZ
p85
aVhttp://www.ebay.com/itm/Extra-Long-Deep-Socket-Set-Chrome-Vanadium-8mm-10mm-12mm-14mm-x-120mm-Deep-3-8-/182576948472?hash=item2a826f24f8:g:ZJ4AAOSwcgNZGsM8
p86
aVhttp://www.ebay.com/itm/17pc-1-2-Drive-12-Point-Socket-Set-Rail-Chrome-Vanadium-PROFESSIONAL-QUALITY-/382056164338?epid=1562743138&hash=item58f4526bf2:g:5D4AAOSw0vBUYz09
p87
aVhttp://www.ebay.com/itm/LOW-PROFILE-SHORT-IMPACT-HEX-ALLEN-SOCKET-BIT-SET-6mm-19mm-ON-1-4-3-8-DRIVE-/361748783472?hash=item5439e86170:g:eTkAAOSwPCVX68UU
p88
aVhttp://www.ebay.com/itm/220pc-socket-set-tool-spanner-1-4-3-8-1-2-drive-garage-HUGE-LARGE-PROFESSIONAL-/201826524628?epid=1971105280&hash=item2efdcc5dd4:g:MqoAAOSwzaJX~RHQ
p89
aVhttp://www.ebay.com/itm/9pc-Bergen-Hex-Allen-Key-Bit-Sockets-Metric-Set-3-8-Dr-Drive-New-2mm-to-10mm-/291366775453?epid=2020314963&hash=item43d6d02a9d:g:higAAOSwmUdUW2NZ
p90
aVhttp://www.ebay.com/itm/21mm-1-2-Drive-Double-Deep-Metric-Impact-Socket-Single-Hex-By-BERGEN-AT021-/263096698868?hash=item3d41c907f4:g:vC0AAOSwfR1Zb39-
p91
aVhttp://www.ebay.com/itm/Bergen-Triple-Square-Socket-Bit-Set-XZN-Spline-M4-M18-Tamperproof-Security-/301514629681?epid=2009437149&hash=item4633ac2231:g:GUQAAOSwQItT44rf
p92
aVhttp://www.ebay.com/itm/8-PIECE-3-4-Inch-Drive-Metric-Deep-Impact-Socket-Tool-Set-24mm-38mm-NEW-4-48-/132151874118?hash=item1ec4dd9246:g:xaQAAOSwZKBZItzb
p93
aVhttp://www.ebay.com/itm/215-Piece-Professional-Socket-Set-1-2-3-8-1-2-DR-Ratchet-Spanners-Torx-/301821176335?epid=1161334475&hash=item4645f1aa0f:g:RnoAAOSwopRYa4He
p94
aVhttp://www.ebay.com/itm/BIG-SALE-RED-Socket-Storage-Rack-Tray-Holder-With-4-Fixed-Rails-for-Mix-Drives-/182170620842?epid=870094089&hash=item2a6a3713aa:g:oZoAAOSwnNBXX-Ne
p95
aVhttp://www.ebay.com/itm/Facom-9pc-1-2in-Square-Drive-Metric-Socket-Set-Rail-S-40E-/401004332467?epid=1205164858&hash=item5d5db885b3:g:~hQAAOSw0HVWDab5
p96
aVhttp://www.ebay.com/itm/Socket-set-8pc-triple-square-spline-M4-M16-12-point-multi-nuts-bit-tool-kit-/272629793872?hash=item3f7a008450:g:B7kAAOSwDmBY53k0
p97
aVhttp://www.ebay.com/itm/LASER-TOOLS-Hex-Spline-Imperial-Metric-Socket-Set-1-4-DRIVE-ALL-FITMENT-/181577149801?epid=1323555871&hash=item2a46d76d69:g:f0AAAOSw54xUWO8E
p98
aVhttp://www.ebay.com/itm/8pc-3-4-inch-Drive-Shallow-Impact-Socket-Garage-Tool-Set-24mm-38mm-Sockets-/222277039459?epid=1005881486&hash=item33c0be7563:g:iDMAAOSwZJBX-2mt
p99
aVhttp://www.ebay.com/itm/46mm-100MM-LONG-1-2-Drive-12Point-Impact-Socket-Drive-Shaft-Renault-Master-2010-/161149453178?hash=item258541837a:m:meLE0S1koQycMvoVElowMDQ
p100
aVhttp://www.ebay.com/itm/Hilka-3-8-Inch-Drive-Socket-Set-Metric-21-Piece-/201857277804?epid=1544297326&hash=item2effa19f6c:g:bs8AAOSwB-1YzIEe
p101
aVhttp://www.ebay.com/itm/Impact-Socket-Set-1-2-Drive-6-Point-Metric-Sockets-16-Pieces-10-32mm-by-Bergen-/152454430476?hash=item237efdff0c:g:ZsYAAOSwhlZYtdFo
p102
aVhttp://www.ebay.com/itm/24PC-1-4-INCH-DRIVE-STANDARD-DEEP-SOCKET-RATCHET-GARAGE-WORKSHOP-TOOL-SET-/191680486599?epid=1750226300&hash=item2ca10c1cc7:g:E4QAAOSw~gRV5w7p
p103
aVhttp://www.ebay.com/itm/Professional-10pc-1-2-Inch-Drive-Impact-Socket-Set-10-22mm-Chrome-Vanadium-/172534408401?epid=691138858&hash=item282bda24d1:g:JrYAAOSwWxNYpYPJ
p104
aVhttp://www.ebay.com/itm/Bergen-14pc-Metric-3-8-Dr-Impact-Socket-Shallow-Set-7-19mm-B1300-/381671049300?epid=1505887813&hash=item58dd5e0854:g:kmMAAOSwfVpYugW0
p105
aVhttp://www.ebay.com/itm/Big-Sale-Socket-Storage-Rack-Tray-4-Fixed-Rails-1-2-3-8-AND-1-4-DRIVE-/161429736759?hash=item2595f64d37:g:XLsAAOSwqrtWok8n
p106
aVhttp://www.ebay.com/itm/Sealey-IS1227-Impact-Socket-27mm-1-2-Sq-Drive-/131440466127?epid=1604318546&hash=item1e9a7658cf:g:oLQAAOSwPhdU74~W
p107
aVhttp://www.ebay.com/itm/Welzh-Werkzeug-Impact-T-Star-Torx-T6-T70-Socket-Set-15-Pcs-PRO-QUALITY-/172757376481?hash=item2839245de1:g:YcMAAOSwpzdWsxDD
p108
aVhttp://www.ebay.com/itm/NEILSEN-SPLIT-RIM-SOCKET-SET-10-POINT-8MM-10MM-SPLINE-3-PIECE-OZ-BBS-RH-ETC-O-Z-/192181310754?epid=562765106&hash=item2cbee61522:g:Vc8AAOSw44BYY9wl
p109
aVhttp://www.ebay.com/itm/8pc-3-4-inch-Drive-Shallow-Impact-Socket-Garage-Tool-Set-24mm-38mm-Sockets-/222277039459?epid=1005881486&hash=item33c0be7563:g:iDMAAOSwZJBX-2mt
p110
aVhttp://www.ebay.com/itm/Big-Sale-Socket-Storage-Rack-Tray-4-Fixed-Rails-1-2-3-8-AND-1-4-DRIVE-/161429736759?hash=item2595f64d37:g:XLsAAOSwqrtWok8n
p111
aVhttp://www.ebay.com/itm/11PC-DEEP-SOCKET-SET-ON-RAIL-HOLDER-1-4-INCH-RATCHET-DRIVE-4-13MM-LONG-REACH-15A-/281137697100?epid=1105388901&hash=item41751cd14c:g:hdsAAOSwEK9T9Nt1
p112
aVhttp://www.ebay.com/itm/Welzh-Werkzeug-Impact-T-Star-Torx-T6-T70-Socket-Set-15-Pcs-PRO-QUALITY-/172757376481?hash=item2839245de1:g:YcMAAOSwpzdWsxDD
p113
aVhttp://www.ebay.com/itm/SILVERLINE-225127-ALLEN-KEY-BIT-SET-3-8-Sq-Dr-7-Pce-METRIC-SOCKET-HEX-SET-ALLAN-/152631480372?epid=1230385208&hash=item23898b9034:g:PvAAAOSwf-VWau64
p114
aVhttp://www.ebay.com/itm/NEILSEN-SPLIT-RIM-SOCKET-SET-10-POINT-8MM-10MM-SPLINE-3-PIECE-OZ-BBS-RH-ETC-O-Z-/192181310754?epid=562765106&hash=item2cbee61522:g:Vc8AAOSw44BYY9wl
p115
aVhttp://www.ebay.com/itm/8PC-1-2-DRIVE-IMPACT-TORX-STAR-BITS-SOCKET-SET-T30-T40-45-50-55-60-T70-T80-4-54-/322506084325?hash=item4b16dc4fe5:g:wwYAAOSwjL5ZDJTX
p116
aVhttp://www.ebay.com/itm/JUNE-SALE-Laser-4925-IMPACT-Hub-Nut-Socket-Set-Special-FOR-SEAT-SKODA-VW-Audi-/360652198477?epid=1242757816&hash=item53f88bd24d:g:cgAAAMXQ-3NRleKH&vxp=mtr
p117
aVhttp://www.ebay.com/itm/Impact-Socket-Set-1-2-Drive-6-Point-Metric-Sockets-16-Pieces-10-32mm-by-Bergen-/152454430476?hash=item237efdff0c:g:ZsYAAOSwhlZYtdFo
p118
aVhttp://www.ebay.com/itm/Bahco-SL25-25pc-1-4-Drive-Metric-Bit-Socket-Set-with-Ratchet-Case-BAHSL25-/252650746423?epid=1454799061&hash=item3ad3287237:g:qzAAAOSwiDFYNtmP
p119
aVhttp://www.ebay.com/itm/111-pc-1-4-1-2-Drive-Metric-Socket-Set-Deep-Chrome-Vanadium-Hilka-01110002-/232138483204?epid=2106114295&hash=item360c882604:g:2eAAAOSwKOJYIyJG
p120
aVhttp://www.ebay.com/itm/HEAVY-DUTY-52PC-1-4-3-8-12-POINT-SOCKET-RATCHET-EXTENSION-BAR-BIT-SET-CASE-/282217099255?epid=1193502590&hash=item41b5732ff7:g:mk4AAOSwYIxX~hlI
p121
aVhttp://www.ebay.com/itm/BERGEN-8pc-Impact-Socket-Adaptor-Set-Convertor-Reducer-Convertor-Apaptors-B1316-/201578400093?epid=1712708672&hash=item2eef02495d:g:4aIAAOSwZ8ZXBam1
p122
aVhttp://www.ebay.com/itm/3-8-Drive-Impact-Socket-Set-Short-Deep-Extensions-UJ-26pc-Trident-T925010-/112113297866?epid=1182284734&hash=item1a1a7929ca:g:rRYAAOSwFV9XxF5j
p123
aVhttp://www.ebay.com/itm/25-Piece-1-2-Drive-Metric-Socket-Set-Carbon-Steel-Heat-Treated-Hilka-01202502-/332027128648?epid=1544304515&hash=item4d4e5beb48:g:PfYAAOSw44BYIxpm
p124
aVhttp://www.ebay.com/itm/New-25-Pc-1-4-Square-Drive-Hex-Metric-Socket-Torx-Bit-Set-with-Ratchet-Case-/262511512735?hash=item3d1ee7cc9f:g:ArAAAOSwl1hZcNcq
p125
aVhttp://www.ebay.com/itm/Laser-6496-Strut-Nut-Socket-Set-5pc-/391444276712?epid=1364930911&hash=item5b23e5a5e8:g:Xt8AAOSwaZdXIfs7
p126
aVhttp://www.ebay.com/itm/10-pc-1-2-inch-Deep-Impact-Socket-Tool-Set-10-24mm-Metric-Garage-Workshop-4-39-/221976950009?hash=item33aedb74f9:g:axAAAOSwDrNZVUC0
p127
aVhttp://www.ebay.com/itm/Cobra-3-4-Drive-Deep-Impact-Socket-Set-24-41mm-6-Point-Metric-Sockets-12-PC-447-/132177482317?hash=item1ec664524d:g:SrYAAOSw-3FZB17c
p128
aVhttp://www.ebay.com/itm/Sealey-Premier-13pc-1-2-Drive-12-Point-Impact-Socket-Set-Metric-10-24mm-AK5614M-/222178527199?epid=1072704380&hash=item33badf47df:g:yf8AAOSwDiBZLx7h
p129
aVhttp://www.ebay.com/itm/9-Piece-3-8-inch-drive-Wall-Drive-Impact-Socket-Set-10-11-13-14-15-16-17-18-19-/131865406238?hash=item1eb3ca6b1e:g:QocAAOSw-KFXdtFP
p130
aVhttp://www.ebay.com/itm/7pc-Go-Thru-72-Tooth-Socket-Ratchet-Handle-Set-Dual-Size-Sockets-19mm-Hex-Dr-/152465004264?epid=563033960&hash=item237f9f56e8:g:o4QAAOSwax5Yv~us
p131
aVhttp://www.ebay.com/itm/SEALEY-31PC-1-4-DRIVE-6pt-WallDrive-STEEL-METRIC-SOCKET-SET-4mm-13mm-CASE-/162536394733?epid=1405240459&hash=item25d7ec8fed:g:lf0AAOSww9xZOBiO
p132
aVhttp://www.ebay.com/itm/Automotive-Socket-Bit-Set-38pc-Cylinder-Head-Headlight-Air-Con-Brakes-Ball-Joint-/262704556236?epid=693375917&hash=item3d2a6968cc:g:FmYAAOSwal5YHJbp
p133
aVhttp://www.ebay.com/itm/21-Piece-3-4-Drive-Jumbo-Socket-Wrench-Ratchet-Set-Extension-Bars-T-Bar-Case-/182343753325?epid=1275773350&hash=item2a7488de6d:g:QdwAAOSwB09YHbJL
p134
aVhttp://www.ebay.com/itm/Impact-Socket-Set-by-Bergen-1-2-Drive-6-Point-Metric-Sockets-10-32mm-16-Piece-/151658014612?hash=item234f85a794:g:1TMAAOSw7GRZDK0M
p135
aVhttp://www.ebay.com/itm/Franklin-Tools-5-Piece-Socket-Adaptor-Extension-Tool-Set-1-2-Drive-50mm-375mm-/162521624808?epid=1046667940&hash=item25d70b30e8:g:eQMAAOSw42dZHsTs
p136
aVhttp://www.ebay.com/itm/BRAND-NEW-Hex-ALLEN-Bit-Socket-Set-MM-Metric-1-2-DRIVE-5pc-10-19mm-Rail-/182170664154?hash=item2a6a37bcda:g:fQwAAOSwnNBXX-~A
p137
aVhttp://www.ebay.com/itm/399-PCS-Ultimate-Tool-Kit-Socket-Set-Screw-Drivers-Ratchet-Spanners-More-/281546419935?epid=1050274905&hash=item418d796edf:g:mVYAAOSwjDZYhRq7
p138
aVhttp://www.ebay.com/itm/NEILSEN-PRO-oil-drain-plug-set-hex-triangle-key-sump-socket-bar-car-van-4x4-case-/201903850477?epid=1761412484&hash=item2f026843ed:g:jOsAAOSw9N1Vm9CA
p139
aVhttp://www.ebay.com/itm/24-Piece-1-4-Drive-standard-and-deep-socket-set-in-metal-case-/141798215447?epid=1961226069&hash=item2103d50f17:g:e~wAAOSwdGFYpiC1
p140
aVhttp://www.ebay.com/itm/SEALEY-24-Piece-Stubby-Ratchet-Metric-Socket-Set-1-4-Screwdriver-Bits-AK64906-/371498683149?epid=1343923693&hash=item567f0c0b0d:g:lrAAAOSw7FRWXafx
p141
aVhttp://www.ebay.com/itm/1-2-Drive-Socket-Set-18pce-METRIC-AF-ALLDRIVE-SET-FITS-LOTS-WHITWORTH-WW-SPLINE-/162310512617?hash=item25ca75dfe9:g:6LUAAOSwImRYRosL
p142
aVhttp://www.ebay.com/itm/30pc-1-2-3-8-Deep-Drive-Sockets-8-24mm-Cr-v-Steel-6-Point-Single-Hex-/282240493186?epid=1544949638&hash=item41b6d82682:g:C4YAAOSw37tWDgxd
p143
aVhttp://www.ebay.com/itm/7mm-HEX-BIT-SOCKET-1-2-Drive-120mm-Long-Reach-for-BRAKE-CALIPERS-/381992777253?epid=1005437145&hash=item58f08b3625:g:tqkAAOSw-4BXbVgd
p144
aVhttp://www.ebay.com/itm/Channel-Lock-no-905-Adjustable-Socket-1-4-Drive-/262072285970?hash=item3d04b9bb12:g:7~0AAOSwdvpWC8yh
p145
aVhttp://www.ebay.com/itm/BGS-1-2-Spline-XZN-M14-x-55-mm-Bit-Socket-Non-Tamper-Pro-4344-/271597296618?epid=646751091&hash=item3f3c75dbea:g:lZUAAOSweW5U55Wj
p146
aVhttp://www.ebay.com/itm/15pc-E-Star-Torx-Sockets-Rail-Female-Star-E4-to-E24-E-Torx-Set-1-4-3-8-1-2-Dr-/251931639771?hash=item3aa84bbfdb:g:otQAAOSwGYVW~CZs
p147
aVhttp://www.ebay.com/itm/HEAVY-DUTY-DRAPER-25PC-1-2-DRIVE-MM-AF-IMPERIAL-METRIC-SOCKET-RATCHET-SET-/291848570120?epid=1664691894&hash=item43f387c508:g:a4sAAOSw8w1X489T
p148
aVhttp://www.ebay.com/itm/1-4-Drive-Socket-Set-Hex-Torx-Pozi-Slt-Ph-Screwdriver-Bits-46pc-Bluespot-01530-/182437213873?epid=680346653&hash=item2a7a1af6b1:g:y6sAAOSw8GtZSFek
p149
aVhttp://www.ebay.com/itm/11PC-1-4-DRIVE-DEEP-SOCKET-SET-CHROME-VANADIUM-HEAVY-DUTY-METRIC-4-13-ON-RAIL-/252126233633?hash=item3ab3e50421:g:LeMAAOSwXYtY4esj
p150
aVhttp://www.ebay.com/itm/CT1602-11PC-1-4-Drive-SAE-Imperial-Deep-Socket-Set-On-Rail-Chrome-Vanadium-New-/371491530765?hash=item567e9ee80d:g:c4gAAOSw5VFWQMle
p151
aVhttp://www.ebay.com/itm/Shallow-Socket-Set-3-8-1-4-Dr-Metric-and-Imperial-40pc-Ratchet-Wrench-IRE-/131772657715?hash=item1eae433033:g:IUUAAOSwjwlXA81m
p152
aVhttp://www.ebay.com/itm/6-pc-Adaptor-Set-Socket-Reducers-1-4-3-8-1-2-3-4-M-F-Drive-Cr-V-Satin-HILKA-/232284680118?epid=556592191&hash=item36153eefb6:g:lR8AAOSw4CFY2RjB
p153
aVhttp://www.ebay.com/itm/Bergen-10pc-3-8-Dr-Impact-Twist-Socket-Set-10mm-19mm-Damaged-Nut-Bolt-1423-/152585725680?epid=2119448600&hash=item2386d166f0:g:yMAAAOSwopRYYqbE
p154
aVhttp://www.ebay.com/itm/Sealey-Pink-Socket-Set-33pc-1-4-Sq-Drive-WallDrive-Metric-Ladies-/122318847333?epid=508172802&hash=item1c7ac57d65:g:W~wAAOSwlndZAfHU
p155
aVhttp://www.ebay.com/itm/Sealey-Premier-12PC-3-8-Sq-Drive-6pt-Deep-Metric-Socket-Set-DIY-Garage-AK2841SP-/401152837403?epid=1976377197&hash=item5d6692871b:g:zcQAAOSw7s5XhN8j
p156
aVhttp://www.ebay.com/itm/TO-CLEAR-Sealey-AK2741-Socket-Set-12pc-3-8-Sq-Drive-Lock-On-6pt-Metric-/391598691660?epid=1358287654&hash=item5b2d19d54c:g:lZ0AAOSwCGVYBeYN
p157
aVhttp://www.ebay.com/itm/Sealey-AK2745-Socket-Set-13pc-1-2-Sq-Drive-Deep-NEW-LOCK-ON-DESIGN-6pt-Metric-/351881575403?epid=1884124213&hash=item51edc6bbeb:g:DGUAAOSwPCVYBeTO
p158
aVhttp://www.ebay.com/itm/84PC-1-4-DRIVE-SOCKET-SET-Deep-Shallow-Drive-Hex-Ratchet-Screwdriver-Complete-/222276138931?hash=item33c0b0b7b3:g:UfEAAOSwmLlX-mO5
p159
aVhttp://www.ebay.com/itm/9PC-AF-iMPERIAL-SAE-1-4-DEEP-DRIVE-SOCKETS-12-POINT-3-16-1-2-Cr-v-/282056924665?epid=1151301661&hash=item41abe71df9:g:VTYAAOSwe7BWwtLa
p160
aVhttp://www.ebay.com/itm/Britool-Stanley-Expert-73pc-Metric-Imperial-1-4-Square-Drive-Socket-Set-E030707-/182375077182?epid=1353508937&hash=item2a7666d53e:g:nnIAAOSw~OVWvSEg
p161
aVhttp://www.ebay.com/itm/PREMIUM-40-PIECE-SOCKET-SET-1-4-3-8-DRIVE-METRIC-SOCKET-SET-KIT-TOOL-KIT-/282504411525?hash=item41c6933985:g:43oAAOSwSypY~hp0
p162
aVhttp://www.ebay.com/itm/Franklin-Tools-12-Pce-Deep-Socket-Set-8-19mm-3-8-Dr-Mirror-Finish-With-Tray-/182583128329?epid=1237932426&hash=item2a82cd7109:g:qqYAAOSwlMFZHtFd
p163
aVhttp://www.ebay.com/itm/Teng-tools-T3867-3-8-square-drive-67-piece-socket-tool-set-TENT3867-/262121182416?epid=2095058497&hash=item3d07a3d4d0:g:X6QAAOSwl9BWNQ0w
p164
aVhttp://www.ebay.com/itm/Deep-Impact-Socket-Set-3-8-Drive-6-Point-Single-Hex-10-24mm-10-Piece-by-Bergen-/152078615759?hash=item23689784cf:g:1ZAAAOSw2GlXKgkO
p165
aVhttp://www.ebay.com/itm/Franklin-Tools-9-Pce-HEX-ALLEN-Socket-Driver-Bit-Set-3-8-With-Foam-Tray-4-12mm-/162521869707?epid=1838860043&hash=item25d70eed8b:g:ZesAAOSw-3FZHwy0
p166
aVhttp://www.ebay.com/itm/Laser-Tools-6693-Survivor-Socket-c-w-Handle-/272492163907?epid=1392698138&hash=item3f71cc7343:g:OSIAAOSw241YWR2n
p167
aVhttp://www.ebay.com/itm/GOODYEAR-3pc-Deep-Impact-Nut-Socket-Set-Alloy-Wheel-1-2-Drive-17-19-21mm-/251965487512?hash=item3aaa503998:g:yoMAAOSwRLZUF~SC
p168
aVhttp://www.ebay.com/itm/Propshaft-Impact-Socket-9-16-1-2-Sq-Drive-Land-Rover-SEALEY-SX0110-/371609959105?epid=1129955270&hash=item5685adfac1:g:lIkAAOSwaEhZHcRI
p169
aVhttp://www.ebay.com/itm/Sealey-Impact-Adaptor-Socket-Reducer-1-2-Drive-Female-to-3-4-Drive-Male-/221878900512?epid=1123307656&hash=item33a9035720:g:ffMAAOSwjRpZQxaX
p170
aVhttp://www.ebay.com/itm/Stahlwille-Bi-Hexagon-Socket-1-4in-Drive-8mm-/172259667609?epid=1217445672&hash=item281b79ee99:g:sMQAAOSwuLZY526S
p171
aVhttp://www.ebay.com/itm/BERGEN-15pc-1-2dr-Deep-Sockets-10-24mm-B1159-/152534811216?epid=2065000782&hash=item2383c88250:g:mggAAOSwpDdVGYlL
p172
aVhttp://www.ebay.com/itm/Britool-England-AF-Socket-Rail-3-8-Drive-14-Piece-NEW-/152480420769?epid=679188626&hash=item23808a93a1:g:4KoAAOSw32lY0TDB
p173
aVhttp://www.ebay.com/itm/5pc-Twist-Socket-Set-17-19-3-4-22mm-Damaged-Rounded-Worn-Nut-Remover-1-2-Dr-/252591504104?epid=687343528&hash=item3acfa07ae8:g:~xAAAOSwT6pV6O-7
p174
aVhttp://www.ebay.com/itm/41pc-1-2-inch-Drive-Socket-Set-SAE-and-Metric-Imperial-AF-Extending-Tool-Set-/282240493178?epid=743291952&hash=item41b6d8267a:g:ehQAAOSw-kdXznvL
p175
aVhttp://www.ebay.com/itm/14-piece-E-Torx-Socket-Set-In-a-Storage-Case-Star-Female-Sockets-1-4-3-8-1-2-/252030026992?hash=item3aae2904f0:g:dIwAAOSwCU1Y4fS1
p176
aVhttp://www.ebay.com/itm/SEALEY-CHROME-VANADIUM-SOCKET-55mm-3-4-DRIVE-12-POINT-BI-HEX-/361156901471?hash=item5416a0fa5f:g:y7gAAOxygLxSaSOM
p177
aVhttp://www.ebay.com/itm/Hilka-19-pc-1-2-Drive-Torx-TX-E-Star-Bit-Socket-Set-Male-Female-T20-E10-E24-/142287218596?epid=604698123&hash=item2120faa7a4:g:Q~MAAOSwtfhYrHh4
p178
aVhttp://www.ebay.com/itm/Deep-Impact-Hub-Nut-Sockets-by-US-PRO-1-2-Drive-12-Point-Metric-30-36mm-5-Piece-/151658060963?epid=629553241&hash=item234f865ca3:g:4doAAOSwsW9Y3k6B
p179
aVhttp://www.ebay.com/itm/Britool-Stanley-Expert-1-4in-Drive-19pc-Metric-Socket-and-Accessory-Set-E030700-/401147786119?epid=1352776739&hash=item5d66457387:g:smYAAOSwZ1BXeZHx
p180
aVhttp://www.ebay.com/itm/FACOM-FRANCE-TOOLS-1-4-DRIVE-SOCKET-SET-RATCHET-EXTENSIONS-ACCESSORY-TOOLKIT-/181609794021?epid=1488638802&hash=item2a48c989e5:g:gWAAAOSwpDdU9Csc
p181
aVhttp://www.ebay.com/itm/Franklin-Tools-17-Piece-Socket-Set-1-2-Drive-With-Foam-Storage-Tray-10mm-32mm-/162535807763?epid=1446906193&hash=item25d7e39b13:g:EHwAAOSwrhBZLpcu
p182
aVhttp://www.ebay.com/itm/CT1603-11PC-3-8-Drive-SAE-Imperial-Shallow-Socket-Set-On-Rail-Chrome-Vanadium-/371987903397?epid=1023160083&hash=item569c34f3a5:g:NdoAAOSw5cNYfg8D
p183
aVhttp://www.ebay.com/itm/BERGEN-14PC-3-8-IMPACT-SHALLOW-SOCKETS-8-19MM-B1300-/152534816570?epid=2134920796&hash=item2383c8973a:g:z1AAAOSw3QpZbh3L
p184
aVhttp://www.ebay.com/itm/DEEP-12pt-IMPACT-SOCKET-SET-30-32-34-35-36mm-BI-HEX-1-2-Drive-Thin-Wall-US-PRO-/172552571827?epid=573630647&hash=item282cef4bb3:g:zjUAAOSw32lYrDJ~
p185
aVhttp://www.ebay.com/itm/12pc-Drain-Plug-Key-Socket-Set-Axle-Oil-Sump-Spanner-3-8-Drive-Cars-Vans-Bikes-/252602321856?epid=701903773&hash=item3ad0458bc0:g:tKsAAOSwHsRYDg6U
p186
aVhttp://www.ebay.com/itm/Draper-Expert-10-piece-1-2-Drive-HI-TORQ-Metric-Deep-Impact-Socket-Set-/131724898765?epid=1037413898&hash=item1eab6a71cd:g:pDsAAOSwn-tZJHLK
p187
aVhttp://www.ebay.com/itm/Sealey-8pc-Impact-Adaptor-Socket-Reducer-1-4-3-8-1-2-3-4-1-Female-to-Male-/221988514028?epid=1105272969&hash=item33af8be8ec:g:Ys0AAOSww9xZLxb5
p188
aVhttp://www.ebay.com/itm/26pc-1-2-inch-Drive-Socket-Set-Metric-Extending-Ratchet-12-18-Socket-set-/322288128619?epid=1505892269&hash=item4b09de926b:g:0xwAAOSwOyJX-mer
p189
aVhttp://www.ebay.com/itm/CHROME-MOLYBDENUM-DEEP-AIR-Impact-Socket-46mm-3-4-Drive-WORLDWIDE-POSTAGE-/180951677657?epid=1005373066&hash=item2a218f7ad9:g:5ugAAOSw~FJZIwga
p190
aVhttp://www.ebay.com/itm/Oxygen-Sensor-Socket-22mm-7-8-20mm-Slot-Lambda-Lamda-Tool-3-8-Drive-/262599268991?epid=2024979246&hash=item3d2422da7f:g:RJIAAOSwFdtXxAIq
p191
aVhttp://www.ebay.com/itm/Sealey-Impact-Socket-36mm-Bi-Hex-Deep-1-2-Sq-Drive-Hand-Ratchet-Wrench-SX006-/311274616412?epid=1004334013&hash=item487969b65c:g:RtUAAOSwmrlUyqKs
p192
aVhttp://www.ebay.com/itm/Deep-Impact-Socket-Set-Bergen-1-2-Drive-6-Point-Metric-Sockets-13-32mm-13-Piece-/151657879734?epid=1688718805&hash=item234f8398b6:g:lCUAAOSwcwhVN60T
p193
aVhttp://www.ebay.com/itm/Bahco-S400-Socket-Set-and-Spanner-Set-of-Metric-1-2in-Drive-40-Pieces-BAHS400-/172382610120?epid=1707756325&hash=item2822cde2c8:g:ZjcAAOSwImRYkPZw
p194
aVhttp://www.ebay.com/itm/10-pc-1-2-inch-DEEP-IMPACT-SOCKET-TOOL-SET-10-24mm-Metric-Garage-Workshop-4-39-/131804990241?hash=item1eb0308b21:g:g7kAAOSwHLNZXl~1
p195
aVhttp://www.ebay.com/itm/Britool-England-AF-Socket-Rail-3-8-Drive-14-Piece-NEW-/152480420769?epid=679188626&hash=item23808a93a1:g:4KoAAOSw32lY0TDB
p196
aVhttp://www.ebay.com/itm/6pc-Socket-Convertor-Adaptor-Adapter-Reducer-Set-1-4-3-8-1-2-3-4-Up-Down-/282267334298?epid=523034208&hash=item41b871b69a:g:NEgAAOSwal5YDhVb
p197
aVhttp://www.ebay.com/itm/DRAPER-EXPERT-SOCKET-CONVERTER-1-2-F-X-3-4-M-19605-30758-/391832299059?epid=1923020594&hash=item5b3b066633:m:m_bphchrUMykK8qE5aAUTqQ
p198
aVhttp://www.ebay.com/itm/IMPACT-SOCKET-65MM-12-POINT-BI-HEX-DOUBLE-CUT-SOCKET-3-4-DRIVE-TRANSIT-/181728645166?hash=item2a4fdf102e:g:EuEAAOSwpDdVPf9T
p199
aVhttp://www.ebay.com/itm/Facom-SL-161-1-2-Square-Drive-Pear-Head-Ratchet-For-Socket-Set-/182507218996?epid=1823063670&hash=item2a7e472834:g:4aMAAOSwPc9WuSqK
p200
aVhttp://www.ebay.com/itm/CT0811-3-8-Drive-Quality-Long-Reach-Ratchet-Socket-Handle-Flexible-Swivel-Head-/152575469605?epid=1282470639&hash=item238634e825:g:ysUAAOSwaEhZNrZo
p201
aVhttp://www.ebay.com/itm/29PC-Torx-Star-Socket-Set-Bit-Male-Female-E-T-Sockets-With-Torx-Bit-Tool-Kit-/152511752357?hash=item238268a8a5:g:qqAAAOSw4CFY8gqI
p202
aVhttp://www.ebay.com/itm/Channel-Lock-no-905-Adjustable-Socket-1-4-Drive-/262072285970?hash=item3d04b9bb12:g:7~0AAOSwdvpWC8yh
p203
aVhttp://www.ebay.com/itm/3-8-Drive-Extra-Deep-Socket-13mm-80mm-Deep-Trident-T120313-Free-P-P-/122072173943?epid=1382989411&hash=item1c6c118d77:g:tssAAOSwqfNXoy6w
p204
aVhttp://www.ebay.com/itm/LASER-SPECIAL-NEW-RELEASE-GRIP-LOCKING-DAMAGED-WHEEL-NUT-REMOVAL-TOOL-SOCKET-SET-/181407875367?epid=1988446738&hash=item2a3cc08127:g:KXYAAOxyHIlTcNRL
p205
aVhttp://www.ebay.com/itm/Draper-Expert-Socket-Set-23-Piece-1-2-Square-Drive-Metric-Hi-Torq-12-Point-/161822962005?epid=1542420382&hash=item25ad667155:g:n2cAAOSwFnFV8sWB
p206
aVhttp://www.ebay.com/itm/DEEP-AIR-IMPACT-SOCKET-SET-20pce-1-2-DRIVE-12point-Double-Cut-Socket-10mm-38mm-/361912779645?hash=item5443aec37d:g:0r4AAOSw3v5YsFVn
p207
aVhttp://www.ebay.com/itm/Britool-Hallmark-Semi-Deep-Metric-Socket-Rail-3-8-Drive-NEW-/311773641303?epid=1423486441&hash=item4897283a57:g:T3sAAOSwhcJWMMoO
p208
aVhttp://www.ebay.com/itm/Bergen-10pc-1-2-Drive-Male-Torx-Trx-Star-BIT-SOCKET-SET-T20-T70-55mm-L-B1128-/201604819285?epid=1812698892&hash=item2ef0956955:g:XZkAAOSwPCVX9SdN
p209
aVhttp://www.ebay.com/itm/AF-Allen-Alan-Allan-Hex-Key-Socket-Bit-Set-3-8-Drive-IMPERIAL-TE077-/141445316986?epid=651695857&hash=item20eecc417a:g:ejwAAOSwFnFV~akk
p210
aVhttp://www.ebay.com/itm/8-Piece-Hex-Key-Set-1-2-Drive-Impact-H5-6-8-10-12-14-17-19mm-Socket-Allen-4-53-/222500562067?hash=item33ce112493:g:DuMAAOSwdjNZDInq
p211
aVhttp://www.ebay.com/itm/Franklin-LOW-PROFILE-10Pce-Torx-Star-Socket-Bit-Set-3-8-With-Foam-Tray-T10-T55-/182583424912?epid=895587940&hash=item2a82d1f790:g:0voAAOSwaeRZHxng
p212
aVhttp://www.ebay.com/itm/SP3807-Sealey-WallDrive-Socket-7mm-3-8-Sq-Drive-Fully-Polished-/311813699193?epid=1723025286&hash=item48998b7679:g:TZQAAOSw3xJXoRlv
p213
aVhttp://www.ebay.com/itm/Professional-8PC-3-4-Inch-Drive-Metric-Deep-Impact-Sockets-Set-24mm-38mm-/222210295442?epid=1805387313&hash=item33bcc40692:g:JekAAOSwdzVXpIxg
p214
aVhttp://www.ebay.com/itm/TENG-TOOL-JULY-SALE-72-PCE-1-4-DRIVE-1-2-DRIVE-SOCKET-RATCHET-BIT-SET-IN-CASE-/182172964756?epid=1007749750&hash=item2a6a5ad794:g:5skAAOSwzJ5XYloX
p215
aVhttp://www.ebay.com/itm/10pc-1-2-Drive-Metric-Impact-Socket-Set-9mm-27mm-BlueSpot-Lifetime-Guarantee-/401361505009?epid=1805080570&hash=item5d73028af1:g:jIsAAOSwhilZX7~u
p216
aVhttp://www.ebay.com/itm/1-13-16-1-2-Drive-Deep-Impact-Ball-Joint-Socket-6-Point-Suits-Metro-/112238222932?epid=2108547017&hash=item1a21eb5e54:g:ioMAAOSw44BYUtYX
p217
aVhttp://www.ebay.com/itm/CT2109-10PC-Universal-Flexi-Joint-3-8-Drive-Socket-Set-On-Socket-Rail-Flexible-/152456947479?epid=596159700&hash=item237f246717:g:n5EAAOSw4A5YuBtA
p218
aVhttp://www.ebay.com/itm/Alternator-Freewheel-Pulley-Removal-Socket-Set-6pc-For-All-Cars-Universal-Tool-/262722849871?epid=631518807&hash=item3d2b808c4f:g:32sAAOSwImRYLZ-K
p219
aVhttp://www.ebay.com/itm/Sealey-Premier-10pc-Metric-Magnetic-Socket-Insert-Set-Standard-Deep-Sockets-/122261861629?epid=686456907&hash=item1c775ff4fd:g:oTYAAOSw~FJZJWol
p220
aVhttp://www.ebay.com/itm/11-PCE-1-2-drive-impact-socket-set-10-11-13-14-17-18-19-21-22-24-mm-/130350469047?epid=1406273073&hash=item1e597e4fb7:g:hgIAAOSwbYZXfCAJ
p221
aVhttp://www.ebay.com/itm/SP1413-Sealey-WallDrive-Socket-13mm-1-4-Sq-Drive-Fully-Polished-/182507714575?epid=1422991170&hash=item2a7e4eb80f:g:vHoAAOSwbsBXogRV
p222
aVhttp://www.ebay.com/itm/Heavy-Duty-32-Piece-Socket-Set-Metric-1-2-Drive-Ratchet-Kit-Chrome-Vandium-2-8-/131811156891?hash=item1eb08ea39b:g:vo0AAOSwFqNZXK58
p223
aVhttp://www.ebay.com/itm/111pc-1-4-1-2-Drive-Metric-large-Socket-big-Set-Deep-Chrome-Vanadium-Hilka-PRO-/381919382998?epid=1437333254&hash=item58ec2b4dd6:g:kggAAOSwEzxYdPNw
p224
aVhttp://www.ebay.com/itm/LASER-TOOLS-5085-Air-Conditioning-ECU-MUST-HAVE-Tool-Socket-Set-/181886028906?epid=1970329303&hash=item2a59408c6a:g:hWgAAOSw37tWCQgK
p225
aVhttp://www.ebay.com/itm/Franklin-Tools-7-Pce-LONG-Torx-Star-Socket-Bit-Set-3-8-With-Foam-Tray-T20-T55-/182583162890?epid=1749250165&hash=item2a82cdf80a:g:ZDkAAOSwJH1ZHtod
p226
aVhttp://www.ebay.com/itm/NEW-KAMASA-TOOLS-SOCKET-DRIVER-BIT-SET-IN-STORAGE-CASE-41-PIECES-56070-/361387990915?epid=1630621022&hash=item5424671f83:g:h2MAAOxyItRTdhNI
p227
aVhttp://www.ebay.com/itm/Socket-Set-13pce-Damaged-Undamaged-Nuts-Special-Profile-8mm-19mm-SAVE-TIME-/182481732630?hash=item2a7cc24416:g:ewMAAOSw4CFYv~Dh
p228
a.