(lp1
Vhttp://www.ebay.com/itm/MtG-Magic-The-Gathering-Eldritch-Moon-Rare-And-Mythic-Cards-x4-/382116199084?var=&hash=item58f7e67aac:m:mhQHdKAdz29Njrt7ETNg_mw
p2
aVhttp://www.ebay.com/itm/Hanweir-Battlements-Hanweir-the-Writhing-Township-FOIL-MTG-NEW-/291865041077?hash=item43f48318b5:g:74sAAOSwi0RXzJci
p3
aVhttp://www.ebay.com/itm/FRIDGE-MAGNET-branch-snake-writhing-color-77065-/252945396441?hash=item3ae4b872d9:g:oPMAAOSwaEhZHd-G
p4
a.