(lp1
Vhttp://www.ebay.com/itm/Quality-plastic-JINGLE-STICK-double-row-JINGLE-sleigh-bells-tambourine-red-/112412514546?hash=item1a2c4ed8f2:g:2LkAAOSwtGlZHtKM
p2
aVhttp://www.ebay.com/itm/Atlas-10in-Tuneable-Tambourine-wooden-rim-durable-plastic-head-Hobgoblin-Music-/382083172887?epid=1058496818&hash=item58f5ee8a17:g:KtAAAOSwONBZGW9f
p3
aVhttp://www.ebay.com/itm/Atlas-6-pandereta-De-madera-borde-y-piel-cabra-cabezal-de-Hobgoblin-Musica-/382069307875?hash=item58f51af9e3:g:duMAAOSw6n5XvIvP
p4
aVhttp://www.ebay.com/itm/Stagg-TAB-D-Hihat-Tambourine-Black-/252903206791?hash=item3ae234af87:g:ioIAAOSw~y9ZAzSZ
p5
aVhttp://www.ebay.com/itm/Stagg-TAB-2-BK-Cutaway-tambourine-black-with-16-jingles-/252903206572?hash=item3ae234aeac:g:iLsAAOSw~y9ZAzSS
p6
aVhttp://www.ebay.com/itm/Mini-D-tambourine-orange-135-x-115-x-27mm-173-772UK-/262935412876?epid=1604303290&hash=item3d382c008c:g:ahoAAOSw53NY93Mf
p7
aVhttp://www.ebay.com/itm/Mini-D-tambourine-yellow-135-x-115-x-27mm-173-776UK-/262935408473?epid=1304301145&hash=item3d382bef59:g:Jm4AAOSwJ4hY93Jz
p8
aVhttp://www.ebay.com/itm/Mini-D-tambourine-red-135-x-115-x-27mm-173-777UK-/262934192830?epid=1705259200&hash=item3d381962be:g:gAQAAOSwU8hY7kf6
p9
aVhttp://www.ebay.com/itm/Meinl-TA2AB-Wood-Tambourine-2-Row-Steel-Jingles-/401300411285?epid=1451041671&hash=item5d6f5e5395:g:3moAAOSwTM5Y3l4j
p10
aVhttp://www.ebay.com/itm/Universal-Sustain-Pedal-for-Electronic-Piano-or-Keyboard-with-Polarity-Switch-/232285832916?epid=1338070201&hash=item36155086d4:g:ee0AAOSw4A5Y2pMx
p11
aVhttp://www.ebay.com/itm/Stagg-10in-Headed-Tambourine-/352012073003?epid=1020545186&hash=item51f58df82b:g:oKkAAOSwTM5Y0tlY
p12
aVhttp://www.ebay.com/itm/Meinl-Ching-Ring-/352012072911?hash=item51f58df7cf:g:4e4AAOSwWxNY0tlL
p13
aVhttp://www.ebay.com/itm/Schlagwerk-FJ20-Finger-Jingle-/352012072862?epid=1629205409&hash=item51f58df79e:g:Ej0AAOSwhQhY0tlH
p14
aVhttp://www.ebay.com/itm/Stagg-10-Inch-Headed-Tambourine-/352012069935?epid=1944255111&hash=item51f58dec2f:g:1vQAAOSwXYtY0tgz
p15
aVhttp://www.ebay.com/itm/WOODEN-TAMBOURINES-AND-HAND-DRUMS-PERCUSSION-MUSICAL-INSTRUMENTS-/122407916647?var=&hash=item1c80149467:m:mHXKnDvYBcpIqtvBE41vsgw
p16
aVhttp://www.ebay.com/itm/Tiger-TAM91-12-Wooden-Tambourine-with-Natural-Drumhead-12-Inches-/182492118895?epid=1625151805&hash=item2a7d60bf6f:g:OqwAAOSwXYtYywSH
p17
aVhttp://www.ebay.com/itm/8inch-TAMBOURINE-1ROW-JINGLES-RELIGIOUS-DOVE-by-Remo-/112328124527?epid=1120556987&hash=item1a2747286f:g:UXsAAOSw4A5YwAga
p18
aVhttp://www.ebay.com/itm/Meinl-HTT8WH-Headliner-Series-Tour-Tambourine-1-Row-White-/142299849479?epid=598336993&hash=item2121bb6307:g:bGMAAOSwSlBYuYRv
p19
aVhttp://www.ebay.com/itm/Meinl-HTT8R-Headliner-Series-Tour-Tambourine-1-Row-Red-/401285081248?epid=598360600&hash=item5d6e7468a0:g:ecUAAOSw2gxYuYPt
p20
aVhttp://www.ebay.com/itm/Professional-Tambourine-With-Bracket-Black-/132105742885?hash=item1ec21daa25:g:OEQAAOSw2gxYryBe
p21
aVhttp://www.ebay.com/itm/Mini-D-tambourine-lilac-173-774UK-/262852635284?epid=1505252107&hash=item3d333cea94:g:etQAAOSwOgdYoxQq
p22
aVhttp://www.ebay.com/itm/Hayman-HTA-40-professional-hand-tambourine-red-/152430467796?hash=item237d905ad4:g:5aUAAOSwdGFYnE~3
p23
aVhttp://www.ebay.com/itm/JINGLE-STICK-6-PAIRS-STEEL-TAMBOURINE-PLASTIC-SHAKER-STICK-GRIP-HANDLE-MUSIC-/322418135137?hash=item4b119e5061:g:S8UAAOSwB-1YnDNm
p24
aVhttp://www.ebay.com/itm/Chord-173-788-Plastic-with-Integral-Clamp-Drummer-Single-D-Tambourine-Black-/322418126560?hash=item4b119e2ee0:g:lyIAAOSwTuJYnDBf
p25
aVhttp://www.ebay.com/itm/BLACK-MUSICAL-INSTRUMENT-TAMBOURINE-SINGLE-D-WITH-PAIRED-JINGLES-AND-GRIP-/322418125393?hash=item4b119e2a51:g:Q8cAAOSwax5YnC~v
p26
aVhttp://www.ebay.com/itm/WHITE-MUSICAL-INSTRUMENT-TAMBOURINE-SINGLE-D-WITH-PAIRED-JINGLES-AND-GRIP-/322418124550?hash=item4b119e2706:g:M-YAAOSwax5YnC9g
p27
aVhttp://www.ebay.com/itm/PINK-MUSICAL-INSTRUMENT-MINIATURE-D-PLASTIC-TAMBOURINE-4-PAIRS-OF-JINGLES-/222403872638?hash=item33c84dc77e:g:aPgAAOSwTuJYnC6~
p28
aVhttp://www.ebay.com/itm/Blue-plastic-double-D-shaped-tambourine-with-2-x-10-sets-of-paired-jingles-/322418116660?hash=item4b119e0834:g:FY0AAOSw4CFYnCx4
p29
aVhttp://www.ebay.com/itm/Chord-173-795-Rich-and-Loud-Sound-High-Quality-Gloss-Finish-Wooden-Tambourine-/322418111736?hash=item4b119df4f8:g:r94AAOSwax5YnCr2
p30
aVhttp://www.ebay.com/itm/10-wooden-ring-tambourine-with-8-jingles-Musical-Instrument-/222403859287?hash=item33c84d9357:g:VO8AAOSwWxNYnCn4
p31
aVhttp://www.ebay.com/itm/Chord-triple-agogo-bell-set-with-fixing-mount-/332109517895?epid=1605620797&hash=item4d53451447:g:5fcAAOSwTglYkGCQ
p32
aVhttp://www.ebay.com/itm/1-x-FLASHING-LIGHT-UP-TAMBOURINES-HALF-MOON-FESTIVALS-PERCUSSION-/381913632919?epid=545308217&hash=item58ebd39097:g:0HQAAOSw3ydVqlVy
p33
aVhttp://www.ebay.com/itm/Stagg-STA-1108-8-/332061462329?epid=20004618149&hash=item4d5067cf39:g:Z~4AAOSwPhdVJnuv
p34
aVhttp://www.ebay.com/itm/Tambourine-Wooden-Rim-Natural-Skinned-With-Jingles-8-or-10-Tambourine-/122267181158?var=&hash=item1c77b12066:m:m_dp2mCCHkpVDcYzS4ZIEew
p35
aVhttp://www.ebay.com/itm/Frog-Bag-with-Star-Tambourine-hand-bells-and-triangle-/142200946171?hash=item211bd63dfb:g:F8cAAOSwA3dYREsg
p36
aVhttp://www.ebay.com/itm/Meinl-HTMT1BK-Headliner-Series-Handheld-ABS-Tambourine-2-Rows-Black-/401235832828?epid=2089721327&hash=item5d6b84effc:g:tm4AAOSwo4pYQE5L
p37
aVhttp://www.ebay.com/itm/Meinl-HJS1BK-Headliner-Series-Jingle-Sticks-Steel-Jingles-Black-/361843459665?epid=2089710972&hash=item543f8d0651:g:h~cAAOSwa~BYQE1S
p38
aVhttp://www.ebay.com/itm/Meinl-JG1R-Professional-Series-Jingle-Sticks-Steel-Jingles-Red-/401235829158?epid=2089709835&hash=item5d6b84e1a6:g:mFIAAOSwux5YQEyq
p39
aVhttp://www.ebay.com/itm/Meinl-TMT1A-WH-Hand-Held-ABS-Aluminium-Jingles-White-/361843418755?epid=1936713255&hash=item543f8c6683:g:gboAAOSw-0xYQD~h
p40
aVhttp://www.ebay.com/itm/New-Tiger-Half-Moon-Tambourine-Black-Musical-Tiger-Music-New-UK-SELLER-/142175583111?epid=2094411860&hash=item211a533b87:g:jQIAAOSwcLxYJC5U
p41
aVhttp://www.ebay.com/itm/Meinl-MDG-M-Drummer-Gloves-Pair-Medium-Black-Helps-Stop-Blisters-Slippage-/351884418905?epid=1853273559&hash=item51edf21f59:g:E7wAAOSwA3dYCdjM
p42
aVhttp://www.ebay.com/itm/Brasilian-Cuban-Timba-Hard-Natural-Wood-Shell-Drum-Salsa-Samba-Music-50-x-11-/262649413687?epid=1288729675&hash=item3d27200037:g:2KIAAOSwmfhX4cTO
p43
aVhttp://www.ebay.com/itm/6-ABS-Red-Case-Frame-Drum-Sticks-Beater-Tamborim-Samba-Brasil-Music-Instrument-/272395557427?epid=1688683948&hash=item3f6c0a5a33:g:KZQAAOSwLF1X7ZiJ
p44
aVhttp://www.ebay.com/itm/6-Chrome-Drum-Sticks-Beater-Tamborim-Samba-Brasil-Music-Instrument-Aluminum-Rim-/272395552134?epid=1488669883&hash=item3f6c0a4586:g:5OAAAOSwmfhX7Zcr
p45
aVhttp://www.ebay.com/itm/6-Afro-Brazilian-Leather-ku-ik-Cuica-Natural-Wood-Friction-Drum-Samba-Music-/252563051458?hash=item3acdee53c2:g:IJkAAOSwmfhX7ZEr
p46
aVhttp://www.ebay.com/itm/Stagg-10-Headless-Wooden-Tambourine-/331981736486?epid=1844663313&hash=item4d4ba74a26:g:m2oAAOSweW5VSewg
p47
aVhttp://www.ebay.com/itm/NEW-Jingle-Ring-Hi-Hat-Tambourine-Ching-Ring-FREE-UK-POST-WORLD-SHIP-/131928095835?hash=item1eb786fc5b:g:aSMAAOSwh-1W5pdz
p48
aVhttp://www.ebay.com/itm/Meinl-Percussion-CFT5-BK-Foot-Tambourine-with-Steel-Jingles-and-MDF-Frame-Black-/232066099041?epid=1340689950&hash=item360837a761:g:rMAAAOSwknJXxqma
p49
aVhttp://www.ebay.com/itm/NEW-Double-Jingle-Ring-Hi-Hat-Tambourine-Ching-Ring-FREE-UK-POST-WorldShip-/131923321449?hash=item1eb73e2269:g:SzIAAOSwSHZWcT5m
p50
aVhttp://www.ebay.com/itm/Atlas-6-TAMBOURINE-Wooden-rim-and-goat-skin-head-From-Hobgoblin-Music-/381746153177?epid=1104308239&hash=item58e1d806d9:g:duMAAOSw6n5XvIvP
p51
aVhttp://www.ebay.com/itm/Atlas-10in-Tuneable-Hand-Drum-wooden-rim-durable-plastic-head-Hobgoblin-Music-/122097246590?epid=1858033842&hash=item1c6d90217e:g:P1cAAOSwIgNXvIvF
p52
aVhttp://www.ebay.com/itm/TAMBOURINE-half-moon-plastic-tamborine-double-row-16-pr-jingles-percussion-/191948160954?var=&hash=item2cb1007fba:m:m0ftUXm8XYaDNV44biu5i_Q
p53
aVhttp://www.ebay.com/itm/Sensory-Led-Light-Up-Flashing-Tambourine-Shaking-Sensory-Toy-/272344491813?hash=item3f68ff2725:g:kHsAAOSw32lY0~Gk
p54
aVhttp://www.ebay.com/itm/Meinl-Heel-Tambourine-with-Stainless-Steel-Jingles-HTA-/142068098074?hash=item2113eb241a:g:SUQAAOSwTZ1XmdW4
p55
aVhttp://www.ebay.com/itm/Meinl-HTT8BK-Headliner-Tour-Black-Handheld-Tambourine-/142068094669?epid=1179567206&hash=item2113eb16cd:g:kXcAAOSwqfNXmdRc
p56
aVhttp://www.ebay.com/itm/Meinl-HTBK-Headliner-Handheld-ABS-Black-Tambourine-/401161390861?hash=item5d67150b0d:g:LLAAAOSwZVlXmdKG
p57
aVhttp://www.ebay.com/itm/Capoeira-Piel-Pandeiro-Tambor-Pandereta-Samba-Brasil-Madera-Instrumento-Musical-/252470927790?hash=item3ac870a1ae:g:UF0AAOxyaTxRINCS
p58
aVhttp://www.ebay.com/itm/Meinl-Percussion-CFJS2S-Foot-Tambourine-with-Steel-Jingles-and-MDF-Frame-Black-/361646262630?epid=1840635421&hash=item5433cc0966:g:0dQAAOSw7XZXh3SF
p59
aVhttp://www.ebay.com/itm/Meinl-Percussion-CAJ-PAD-Cajon-Pad-Comfortable-Non-Slip-Protects-Top-Of-Cajon-/232011506798?epid=1113319246&hash=item3604f6a46e:g:hkIAAOSwyDxXhlTx
p60
aVhttp://www.ebay.com/itm/Stagg-TAB-2-Tambourine-Cutaway-Yellow-/131869181611?epid=1205371726&hash=item1eb40406ab:g:MpIAAOSw-KFXfKXA
p61
aVhttp://www.ebay.com/itm/Chord-176-423UK-BG67-Bongos-6-5-and-7-5-Diameter-with-Tunable-Hide-Heads-Black-/122021459902?hash=item1c690bb7be:g:YOgAAOSwc1FXaAR4
p62
aVhttp://www.ebay.com/itm/Chord-176-425UK-BG67-Bongo-6-5-and-7-5-Diameter-with-Tunable-Hide-Head-Natural-/131854129848?hash=item1eb31e5ab8:g:YEkAAOSwc1FXaARy
p63
aVhttp://www.ebay.com/itm/Genuine-Stagg-Stagg-TAB2-Cutaway-Tambourine-16-Jingle-/272271903519?var=&hash=item3f64ab8b1f:m:mdoi4fJiJ55c-MN0ANkl50A
p64
aVhttp://www.ebay.com/itm/Stagg-TAB2-Half-Moon-Tambourine-/172196053006?var=&epid=12004616652&hash=item2817af400e:m:mKlHoVACbtJvojdWoaeh-zA
p65
aVhttp://www.ebay.com/itm/Stagg-Black-Half-Moon-16-Jingles-Percussion-Shaker-Tamborine-Rhythm-Drum-New-/201570907926?epid=2037624734&hash=item2eee8ff716:g:ajMAAOSwiYFXIlbo
p66
aVhttp://www.ebay.com/itm/Stagg-Red-Half-Moon-16-Jingles-Percussion-Shaker-Tamborine-Rhythm-Drum-New-/201570907916?epid=1004347056&hash=item2eee8ff70c:g:jfYAAOSwKfVXIlbm
p67
aVhttp://www.ebay.com/itm/BAT-TAMBOURINE-BLACK-by-ATLAS-Heavy-duty-ABS-Tough-with-Wooden-Handle-/381584093382?epid=1958168379&hash=item58d82f30c6:g:troAAOSwzvlW-mbU
p68
aVhttp://www.ebay.com/itm/HALF-MOON-TAMBOURINE-BLUE-by-ATLAS-Heavy-duty-ABS-Tough-headless-model-/121939304683?epid=1163620746&hash=item1c642620eb:g:ZaoAAOSwdU1W-mbL
p69
aVhttp://www.ebay.com/itm/STAR-SHAPE-TAMBOURINE-BLACK-by-ATLAS-Heavy-duty-ABS-Tough-headless-model-/381584093188?hash=item58d82f3004:g:MngAAOSwAvJW-mbK
p70
aVhttp://www.ebay.com/itm/SMALL-TAMBOURINE-MUSIC-TOY-BAND-WOODEN-INSTRUMENT-HAND-HELD-MUSICAL-/172123428699?hash=item28135b175b:g:khgAAOSwcx5ZaO1z
p71
aVhttp://www.ebay.com/itm/Meinl-HTHH2BK-Headliner-Double-Row-Steel-Hi-Hat-Tambourine-/361494287201?epid=1127566419&hash=item542abd1361:g:dzwAAOSw3xJVgC~f
p72
aVhttp://www.ebay.com/itm/Meinl-CTA2WB-Compact-Wood-Tambourine-Walnut-Brown-/141908120825?epid=1250231021&hash=item210a6214f9:g:~lsAAOSwMmBVo6PN
p73
aVhttp://www.ebay.com/itm/Tama-TJR7-Nickel-Jingle-Ring-Hi-Hat-Stand-Tambourine-/401072755135?epid=1846999389&hash=item5d61cc91bf:g:5QkAAOSw34FVEZV3
p74
aVhttp://www.ebay.com/itm/Meinl-TAH2AB-Headed-2-Row-Tambourine-African-Brown-/401072740975?epid=1825190208&hash=item5d61cc5a6f:g:2vUAAOSwNSxVWgFK
p75
aVhttp://www.ebay.com/itm/Meinl-TMT1B-BK-Hand-Held-ABS-Brass-Jingles-Black-Percussion-Tambourine-/141902715066?hash=item210a0f98ba:g:mRAAAOSwNSxVgDhq
p76
aVhttp://www.ebay.com/itm/Pro-doppelte-Halbmond-Tamburin-Hand-Schlagzeug-Jingles-Kunstoff-/301863895248?var=&hash=item46487d80d0:m:mVFkeeN7FWOjnPadb_fPzcQ
p77
aVhttp://www.ebay.com/itm/Pro-Double-demi-lune-Tambourine-PERCUSSION-A-MAIN-CLOCHETTES-plastique-/121883817418?var=&hash=item1c60d775ca:m:mVFkeeN7FWOjnPadb_fPzcQ
p78
aVhttp://www.ebay.com/itm/PRO-doppio-mezza-luna-Tamburello-mano-percussioni-batteria-Sonagli-plastica-/291676200707?var=&hash=item43e9419f03:m:mVFkeeN7FWOjnPadb_fPzcQ
p79
aVhttp://www.ebay.com/itm/PRO-DOUBLE-HALF-MOON-TAMBOURINE-hand-percussion-drum-jingles-tamborine-plastic-/121883059465?var=&epid=1844856240&hash=item1c60cbe509:m:mVFkeeN7FWOjnPadb_fPzcQ
p80
aVhttp://www.ebay.com/itm/Meinl-HTHH2B-BK-Hi-Hat-Tambourine-2-Row-Hammered-Brass-Jingles-Black-/141892105873?epid=1043502074&hash=item21096db691:g:d5AAAOSw3ydVhVdD
p81
aVhttp://www.ebay.com/itm/Meinl-TA1M-SNT-Wood-Single-Row-Tambourine-/141890555336?epid=1904184260&hash=item2109560dc8:g:yWAAAOSwwbdWQLG9
p82
aVhttp://www.ebay.com/itm/Meinl-HTHH1B-BK-Headliner-Series-Hi-Hat-Tambourine-1-Row-Brass-Jingles-Black-/141886409113?epid=1450817555&hash=item210916c999:g:Z8wAAOSwv0tVWgFM
p83
aVhttp://www.ebay.com/itm/Meinl-Percussion-MC-STBD-Standard-Steel-Bass-Drum-Cowbell-Arm-/351623084250?epid=1805156629&hash=item51de5e78da:g:66kAAOSw14xWH3kC
p84
aVhttp://www.ebay.com/itm/Stagg-TAW-081-Wooden-Hand-8-Percussion-Tambourine-/401049313768?epid=1105383029&hash=item5d6066e1e8:g:9iEAAOSw0e9UwP-q
p85
aVhttp://www.ebay.com/itm/Meinl-Plastic-Egg-Shakers-4-piece-set-Range-From-Soft-To-Extra-Loud-P-No-ES-SET-/361449337133?epid=1856578561&hash=item54280f312d:g:YX4AAOSw~gRVjR-b
p86
aVhttp://www.ebay.com/itm/Capoeira-pelle-Pandeiro-BATTERIA-TAMBURELLO-Samba-Brasil-in-legno-musicale-/252196365499?hash=item3ab81324bb:g:UF0AAOxyaTxRINCS
p87
aVhttp://www.ebay.com/itm/Meinl-TA2A-AB-Wood-Tambourine-2-Row-Aluminum-Jingles-/361425958958?epid=1930397508&hash=item5426aa782e:g:JJgAAOSw5ZBWQMJ6
p88
aVhttp://www.ebay.com/itm/Stagg-TAW-102-Wooden-10-Twin-Row-Percussion-Tambourine-/141819005075?epid=1105380627&hash=item2105124893:g:ZpMAAOSwYHxWONvb
p89
aVhttp://www.ebay.com/itm/Meinl-Percussion-CL1HW-Classic-Solid-Hardwood-Claves-Pro-Quality-/351550333176?epid=1053427635&hash=item51da0860f8:g:ySYAAOSwwbdWH3yj
p90
aVhttp://www.ebay.com/itm/Meinl-Percussion-SH45GR-Luis-Conte-Artist-Series-Shaker-Grey-Loud-Pro-Quality-/351550331107?epid=1605198652&hash=item51da0858e3:g:tvUAAOSwYHxWH3t6
p91
aVhttp://www.ebay.com/itm/Meinl-FJS1S-BK-Steel-Finger-Jingles-Black-Finish-Small-In-Size-But-Big-In-Sound-/351550327916?epid=1713446919&hash=item51da084c6c:g:BLQAAOSw-itXvD2~
p92
aVhttp://www.ebay.com/itm/Meinl-HTHH1BK-Hi-Hat-Tambourine-with-Single-Row-Jingles-Black-/361408999962?epid=1005233538&hash=item5425a7b21a:g:NlsAAOSwo0JWH3eD
p93
aVhttp://www.ebay.com/itm/Meinl-Percussion-RS1R-M-Medium-Bamboo-Rainstick-Red-/361408996107?epid=1105094215&hash=item5425a7a30b:g:pa4AAOSw5VFWH3XX
p94
aVhttp://www.ebay.com/itm/Meinl-Percussion-RS1BK-S-Black-Bamboo-Rainstick-Small-/351550296588?epid=1437672848&hash=item51da07d20c:g:EZEAAOSwI-BWH3QW
p95
aVhttp://www.ebay.com/itm/Meinl-Didgeridoo-Black-DDG1-BK-47-Length-Bamboo-Wood-/351549549009?hash=item51d9fc69d1:g:rpwAAOSw0UdXtsLg
p96
aVhttp://www.ebay.com/itm/Meinl-Artist-Series-Shaker-LUIS-CONTE-Studio-Shaker-SH4BK-Pro-Quality-/231720432843?epid=1517520552&hash=item35f39d34cb:g:EzoAAOSwAYtWHkHG
p97
aVhttp://www.ebay.com/itm/Meinl-Headliner-Series-Snare-Cajons-HCAJ1NT-Classic-Cajon-Sound-Affordable-Price-/351549428342?epid=1904182315&hash=item51d9fa9276:g:NEcAAOSwl9BWHj8l
p98
aVhttp://www.ebay.com/itm/Meinl-TA1AB-Tambourine-and-Steel-Jingles-African-Brown-/191715715334?epid=1140150945&hash=item2ca325a906:g:BfkAAOSwG-1W0jgL
p99
aVhttp://www.ebay.com/itm/GoKi-Wooden-Tambourine-with-5-Bells-/321892477233?epid=1941992217&hash=item4af2496931:g:3mEAAOSwQYZWzpKG
p100
aVhttp://www.ebay.com/itm/NEW-Percussion-Plus-8-inch-Tambourine-/151827029130?epid=1129828332&hash=item2359989c8a:g:FpIAAOSwnipWUJvq
p101
aVhttp://www.ebay.com/itm/Good-Quality-Half-Moon-Double-Row-Tambourine-Various-Colours-003-100-219-/252088290786?var=&hash=item3ab1a20de2:m:mgPAZq0H7_P8ySOM2fIDLkQ
p102
aVhttp://www.ebay.com/itm/Meinl-CFJS2S-BK-Compact-Cajon-Foot-Tambourine-with-Stainless-Steel-Jingles-/141760432385?epid=1840635421&hash=item2101948901:g:gcAAAOSwMmBV1e4w
p103
aVhttp://www.ebay.com/itm/Chord-10-holzring-tamburin-mit-8-jingles-/161806389396?epid=1007100061&hash=item25ac699094:g:QtIAAOSw0e9U0fAO
p104
aVhttp://www.ebay.com/itm/Z9V64-MUSICAL-INSTRUMENT-TAMBOURINE-JINGLE-STICK-6-SETS-ON-PLASTIC-HANDLE-PERC-/331631798676?epid=1305261866&hash=item4d36cba994:g:3QcAAOSwMmBV0wsE
p105
aVhttp://www.ebay.com/itm/Meinl-Foot-Tambourine-FJS2S-BK-Easily-mounted-on-your-foot-goes-with-any-beat-/231628932567?epid=18003301691&hash=item35ee2905d7:g:7ikAAOSwqBJXWpYL
p106
aVhttp://www.ebay.com/itm/Meinl-Mini-Cajon-Light-Brown-Natural-SCAJ1LB-NT-Built-in-snare-wires-/361340820578?epid=1838055388&hash=item5421975c62:g:FQwAAOSwu4BVo6Df
p107
aVhttp://www.ebay.com/itm/Meinl-Percussion-Studio-Shaker-Red-SH5R-Two-individual-shakers-connected-as-one-/351453228873?epid=1707913418&hash=item51d43eaf49:g:9c8AAOSw9N1Vo52E
p108
aVhttp://www.ebay.com/itm/Meinl-Wood-Claves-Pair-Redwood-CL1RW-Classic-cutting-sound-Pro-Quality-/361340807920?epid=1904182773&hash=item5421972af0:g:H9QAAOSwgQ9Vo5wR
p109
aVhttp://www.ebay.com/itm/Meinl-Foot-Shaker-FS-BK-Cutting-shaker-sound-Easy-Mountable-/361340806229?epid=1029106926&hash=item5421972455:g:SB0AAOSwPcVVo5qS
p110
aVhttp://www.ebay.com/itm/Meinl-CTA2S-BK-Compact-2-Row-Steel-Jingle-Tambourine-/400951632952?epid=1704167104&hash=item5d5a946438:g:dB4AAOSw2VJVgC~h
p111
aVhttp://www.ebay.com/itm/Meinl-TMT1M-WH-Hand-Held-ABS-Combo-Tambourine-White-/141694732612?epid=1528719288&hash=item20fdaa0944:g:5rQAAOSwBahVgDhn
p112
aVhttp://www.ebay.com/itm/Meinl-TA2M-SNT-Wood-Tambourine-2-Row-Mixed-Jingles-/141694732609?epid=1434411556&hash=item20fdaa0941:g:~r8AAOSwl8NVgDhj
p113
aVhttp://www.ebay.com/itm/Stagg-Half-Moon-Percussion-Cutaway-16-Jingles-Hand-Tambourine-Red-TAB2RD-New-/271889498630?epid=1004347056&hash=item3f4de08206:g:an8AAOSw3xJVbsoM
p114
aVhttp://www.ebay.com/itm/Stagg-Half-Moon-Percussion-Cutaway-16-Jingles-Hand-Tambourine-Blue-TAB2BL-New-/271889497423?epid=1205265988&hash=item3f4de07d4f:g:Y08AAOSwpdpVbsl5
p115
aVhttp://www.ebay.com/itm/Stagg-Half-Moon-Percussion-Cutaway-16-Jingles-Hand-Tambourine-Black-TAB2BK-New-/271889496079?epid=1604316416&hash=item3f4de0780f:g:~4oAAOSwNSxVbsdB
p116
aVhttp://www.ebay.com/itm/Capoeira-Leather-Pandeiro-Drum-Tambourine-Samba-Brasil-Wood-Music-Instrument-8-/251979795178?epid=1955529322&hash=item3aab2a8aea:g:UF0AAOxyaTxRINCS
p117
aVhttp://www.ebay.com/itm/Chord-WOODEN-TAMBOURINES-RED-10-Double-Jingle-Quality-Woods-/361310486127?hash=item541fc87e6f:g:Ko8AAOSwpdpVbEe5
p118
aVhttp://www.ebay.com/itm/Pearl-PTM-09BK-Primero-Rock-Tambourine-Black-9-Oval-/400917609236?epid=1850979588&hash=item5d588d3b14:g:jk4AAOSwpDdVUK24
p119
aVhttp://www.ebay.com/itm/Single-HALF-MOON-TAMBOURINE-PERCUSSION-20-JINGLES-Grip-Handle-Toy-Musical-Drum-/281627608475?var=&hash=item419250459b:m:mUNsUTVV1YSf2FrmC7snP4g
p120
aVhttp://www.ebay.com/itm/Double-HALF-MOON-TAMBOURINE-PERCUSSION-20-JINGLES-Grip-Handle-Toy-Musical-Drum-/281627608477?var=&hash=item419250459d:m:msUhEXXRXLvLHKt5Ld3xKHQ
p121
aVhttp://www.ebay.com/itm/Chord-double-agogo-bell-set-with-fixing-mount-/161597258013?epid=649627079&hash=item259ff2791d:g:W5UAAOSwstxU20H6
p122
aVhttp://www.ebay.com/itm/Chord-Small-Afuche-Cabasa-/400861644594?hash=item5d55374732:g:9iUAAOSwpDdU2zuO
p123
aVhttp://www.ebay.com/itm/Chord-10-wooden-ring-tambourine-with-8-jingles-/161586252830?epid=1805264275&hash=item259f4a8c1e:g:QtIAAOSw0e9U0fAO
p124
aVhttp://www.ebay.com/itm/Stagg-TAW-101-Headless-Wooden-10-Hand-Percussion-Tambourine-/141550122806?epid=1304494571&hash=item20f50b7736:g:hbMAAOSwxYxUwP-o
p125
aVhttp://www.ebay.com/itm/Wooden-HALF-MOON-TAMBOURINE-PERCUSSION-7-JINGLES-or-4-JINGLES-Grip-Handle-new-/161474220805?var=&hash=item25989d1305:m:mhaFAv9fq2yn-uR3d_J4Kew
p126
aVhttp://www.ebay.com/itm/Large-Plastic-Hi-Hat-Tambourine-Jingle-for-Hi-Hat-Stand-12-Jingles-002-104-218-/261637578171?hash=item3cead09dbb:g:WmcAAOSwEppUSolV
p127
aVhttp://www.ebay.com/itm/NEW-Tiger-Half-Moon-Tambourine-Black-/161452139327?epid=1423970033&hash=item25974c233f:g:9TcAAOSwx-9W1QH6
p128
aVhttp://www.ebay.com/itm/NEW-Percussion-Plus-10-inch-8-Jingle-Tambourine-/161452135554?epid=1629874189&hash=item25974c1482:g:0~kAAOSwll1W1LNu
p129
aVhttp://www.ebay.com/itm/Chord-double-D-tambourine-in-red-2-rows-of-5-jingles-/400775857641?epid=652751745&hash=item5d501a45e9:g:CO8AAOSwGvhUG~nO
p130
aVhttp://www.ebay.com/itm/Stagg-TAB2BL-Blue-Kids-Children-Cutaway-Plastic-Tambourine-with-16-Jingles-New-/390914338599?epid=1205265988&hash=item5b044f6f27:g:P2YAAOSwY3BZEziu
p131
aVhttp://www.ebay.com/itm/Percussion-plus-half-moon-blue-hand-tambourine-PP486-4-UK-blue-red-white-SALE-/171032751932?epid=2100064643&hash=item27d258af3c:g:9dgAAOxyThVTXmGM
p132
aVhttp://www.ebay.com/itm/Capoeira-Leather-Pandeiro-Drum-Tambourine-Samba-Brasil-Wood-Music-Instument-10-/261203199667?epid=1412664929&hash=item3cd0ec86b3:g:UF0AAOxyaTxRINCS
p133
aVhttp://www.ebay.com/itm/MOON-SHAPE-TAMBOURINE-COLOURFUL-TAMBOURINES-SHAKER-BELLS-TAMBORINE-CHURCH-ETC-/160896814494?hash=item2576328d9e:g:8q0AAOSwVFlUJVXG
p134
aVhttp://www.ebay.com/itm/RHYTHM-TECH-DST-Drum-Set-Tambourine-STAND-MOUNTED-/180677236088?var=&hash=item2a1133d578:m:mj_0t2QHYs9Bw46wfV6c4pA
p135
a.