(lp0
Vhttp://www.ebay.com/itm/First-Thousand-Words-in-English-Sticker-Book-by-Heather-Amery-9781409570400-/302287165604?epid=209486224&hash=item4661b818a4:g:LdEAAOSwIWVY9cAk
p1
aVhttp://www.ebay.com/itm/The-Hero-with-a-Thousand-Faces-Joseph-Campbell-/132214413987?epid=113943382&hash=item1ec897daa3:g:FgMAAOSwaEhZMqoC
p2
aVhttp://www.ebay.com/itm/Azhek-Ahriman-Librarian-Horus-Heresy-Thousand-Sons-Warhammer-30K-new-on-sprue-/252819577594?hash=item3add389afa:g:Gd4AAOSwal5YKN1p
p3
aVhttp://www.ebay.com/itm/Games-Workshop-W40k-THOUSAND-SONS-RUBRIC-MARINES-/132225247169?hash=item1ec93d27c1:g:VSYAAOSw53NY~fSg
p4
aVhttp://www.ebay.com/itm/3-x-YuGiOh-Rare-Thousand-Eyes-Restrict-DPRP-EN046-1st-Edition-NEW-/322508578432?hash=item4b17025e80:g:mSIAAOSw42dZD2zs
p5
aVhttp://www.ebay.com/itm/THOUSAND-SONS-EXALTED-SORCERERS-WARHAMMER-40-000-40K-GAMES-WORKSHOP-/152549429164?hash=item2384a78fac:g:7pgAAOSwK6RZGb84
p6
aVhttp://www.ebay.com/itm/THOUSAND-SONS-TZAANGORS-WARHAMMER-40-000-40K-GAMES-WORKSHOP-/162297027535?hash=item25c9a81bcf:g:AbQAAOSwA3dYOYRg
p7
aVhttp://www.ebay.com/itm/Thousand-Sons-Rubric-Marines-Warpflamer-x-5-B-40k-bits-Chaos-Marines-/391824065478?hash=item5b3a88c3c6:g:SHEAAOSw32lYpcXi
p8
aVhttp://www.ebay.com/itm/Thousand-Sons-Rubric-Marines-Sorcerer-Full-Torso-40k-bits-Chaos-Marines-/391824065453?hash=item5b3a88c3ad:g:QD0AAOSwax5Ypce-
p9
aVhttp://www.ebay.com/itm/YuGiOh-Thousand-Eyes-Restrict-DPRP-EN046-Rare-1st-Edition-/302077875359?hash=item46553e949f:g:ifgAAOSwLnBX3mJw
p10
aVhttp://www.ebay.com/itm/40K-Chaos-Space-Marines-Tzeentch-Thousand-Sons-Finecast-Front-Torsos-Set-of-5-/322273572709?epid=926811462&hash=item4b09007765:g:0OAAAOSwmfhX6PWZ
p11
aVhttp://www.ebay.com/itm/First-Thousand-Words-in-French-Sticker-Book-by-Heather-Amery-9781409580225-/311769419380?epid=213350118&hash=item4896e7ce74:g:M50AAOSw2xRYZJD-
p12
aVhttp://www.ebay.com/itm/3-x-YuGiOh-Contract-with-Don-Thousand-DUSA-EN041-Ultra-Rare-1st-Edition-NEW-/222467609462?hash=item33cc1a5376:g:x00AAOSw03lY6TMb
p13
aVhttp://www.ebay.com/itm/A-L-Lloyd-Ten-Thousand-Miles-Away-English-Australian-Folk-Songs-2008-NEW-/332139340392?epid=70970759&hash=item4d550c2268:g:jfoAAOSwdGFYoZR5
p14
aVhttp://www.ebay.com/itm/Valerian-Vol-2-The-Empire-of-a-Thousand-Planets-Paperback-Chr-9781849180870-/361977133409?epid=108477855&hash=item544784b961:g:jDAAAOSwjwlXBL2l
p15
aVhttp://www.ebay.com/itm/Games-Workshop-W40k-THOUSAND-SONS-MAGNUS-THE-RED-/132210447409?hash=item1ec85b5431:g:VIIAAOSwSypY~fP5
p16
aVhttp://www.ebay.com/itm/Azhek-Ahriman-Librarian-Horus-Heresy-Thousand-Sons-Warhammer-30K-new-unpainted-/232142848614?hash=item360ccac266:g:Gd4AAOSwal5YKN1p
p17
aVhttp://www.ebay.com/itm/Thousand-Eyes-Idol-PSV-083-PSV-E083-Common-Yugioh-Card-/282396589375?hash=item41c025fd3f:g:KG4AAOSwax5YySgr
p18
aVhttp://www.ebay.com/itm/1-x-Card-YuGiOh-WSUP-EN017-Heroic-Challenger-Thousand-Blades-Super-Rare-1st-/322165898419?hash=item4b02957cb3:g:aJUAAOSwbYZXbBV6
p19
aVhttp://www.ebay.com/itm/Warhammer-30K-Horus-Heresy-Burning-of-Prospero-Thousand-Sons-Ahzek-Ahriman-/302340947857?epid=538611707&hash=item4664ecbf91:g:2GcAAOSwaEhZNWVQ
p20
aVhttp://www.ebay.com/itm/FORGEWORLD-Horus-Heresy-THOUSAND-SONS-ACHEAN-PATTERN-HELMET-Bits-40K-/401318586576?hash=item5d7073a8d0:g:BBkAAOSwInxXOFk-
p21
aVhttp://www.ebay.com/itm/FORGEWORLD-Horus-Heresy-THOUSAND-SONS-ACHEAN-SCARAB-SHOULDER-PAD-Bits-40K-/272653092086?epid=831910876&hash=item3f7b6404f6:g:Bj4AAOSw3mpXOFi7
p22
aVhttp://www.ebay.com/itm/MARK-LANEGAN-BAND-A-THOUSAND-MILES-OF-MIDNIGHT-PHANTOM-RADIO-REMIXES-NEW-CD-/282188248608?epid=1237467107&hash=item41b3baf620:g:GGYAAOSw4shX48Mb
p23
aVhttp://www.ebay.com/itm/FORGEWORLD-Horus-Heresy-THOUSAND-SONS-TORSO-Upgrade-A-Bits-40K-/361968168833?hash=item5446fbef81:g:3gcAAOSwZG9WhWYk
p24
aVhttp://www.ebay.com/itm/Manju-of-the-Ten-Thousand-Hands-THSF-EN033-1st-Edition-Mint-Super-Rare-/201965696064?hash=item2f0617f440:g:dPwAAOSwVJhZUPol
p25
aVhttp://www.ebay.com/itm/Thousand-Sons-Rubric-Marines-Warpflamer-x-10-G581-/252985371550?hash=item3ae71a6b9e:g:nvUAAOSwux5YSQtl
p26
aVhttp://www.ebay.com/itm/THOUSAND-SONS-UPGRADE-PACK-WARHAMMER-40-000-GAMES-WORKSHOP-1st-CLASS-/162337641200?hash=item25cc13d2f0:g:igUAAOSw9GhYZQS2
p27
aVhttp://www.ebay.com/itm/Thousand-Eyes-Restrict-DPRP-EN046-Rare-1st-Ed-/391567966386?hash=item5b2b4500b2:g:RQgAAOSwNRdX4Vz2
p28
aVhttp://www.ebay.com/itm/Thousand-Sons-Rubric-Marines-Backpack-A-40k-bits-Chaos-Space-Marines-/391828631949?hash=item5b3ace718d:g:wU4AAOSwfVpYpcM4
p29
aVhttp://www.ebay.com/itm/FORGEWORLD-Horus-Heresy-THOUSAND-SONS-HELMET-Upgrade-C-Bits-40K-/272653092100?hash=item3f7b640504:g:DCgAAOSwFqJWhWfS
p30
aVhttp://www.ebay.com/itm/Thousand-Sons-Rubric-Marines-Inferno-Boltgun-x-10-G587-/311862415954?hash=item489c72d252:g:ZoAAAOSwt0FZCftg
p31
aVhttp://www.ebay.com/itm/Sara-Book-3-A-Talking-Owl-Is-Worth-A-Thousand-Words-Bk-3-Pa-9781401911607-/361981502997?epid=92011657&hash=item5447c76615:g:IQUAAOSwcwhVKCE7
p32
aVhttp://www.ebay.com/itm/A-Thousand-Sons-by-Graham-McNeill-9781849708111-Paperback-2014-/302258756113?epid=234228553&hash=item4660069a11:g:EUsAAOSwYXVY0ILg
p33
aVhttp://www.ebay.com/itm/FORGEWORLD-Horus-Heresy-THOUSAND-SONS-ACHEAN-SHOULDER-PAD-Bits-40K-/401318586575?epid=831910876&hash=item5d7073a8cf:g:iPsAAOSwcL5XOFkN
p34
aVhttp://www.ebay.com/itm/Thousand-Sons-Rubric-Marines-Legs-H-40k-bits-Chaos-Space-Marines-/391828631938?hash=item5b3ace7182:g:CdsAAOSwtfhYpcum
p35
aVhttp://www.ebay.com/itm/Disturbed-Ten-Thousand-Fists-special-Edition-Cd-Dvd-CD-NEW-/302173715815?epid=182192706&hash=item465af4fd67:g:TA0AAOSw6DtYW8qP
p36
aVhttp://www.ebay.com/itm/YuGiOh-DUELIST-SAGA-DUSA-CHOOSE-ULTRA-RARE-CARDS-DUSA-EN001-TO-DUSA-EN050-/172598471865?var=&hash=item282fabacb9:m:mPsX6dPEvsfDyWtshP071fw
p37
aVhttp://www.ebay.com/itm/Scarab-Occult-Terminator-Sorcerer-Staff-Heads-Thousand-Sons-40k-bits-/391823318962?hash=item5b3a7d5fb2:g:CZwAAOSwx6pYnca-
p38
aVhttp://www.ebay.com/itm/CRASS-THE-FEEDING-OF-THE-FIVE-THOUSAND-180G-VINYL-LP-DOWNLOAD-MINT-NEW-UNPLAYED-/252955423645?hash=item3ae551739d:g:sGMAAOSwaEhZJWsv
p39
aVhttp://www.ebay.com/itm/Thousand-Sons-Rubric-Marines-Legs-x-10-G571-/311753544941?hash=item4895f594ed:g:7GYAAOSw241YjL80
p40
aVhttp://www.ebay.com/itm/3x-Card-YuGiOh-THOUSAND-DRAGON-RARE-MIL1-EN039-1ST-EDITION-/322259762296?epid=865774041&hash=item4b082dbc78:g:xvYAAOSwFV9X1vJQ
p41
aVhttp://www.ebay.com/itm/TAEV-EN082-Thousand-Eyes-Jellyfish-Rare-Unlimited-Edition-Yugioh-Card-/172446649058?hash=item28269f0ae2:g:J6wAAOSw241YUusi
p42
aVhttp://www.ebay.com/itm/FORGEWORLD-Horus-Heresy-THOUSAND-SONS-KHENETAI-OCCULT-HELMET-Upgrade-/401338332448?hash=item5d71a0f520:g:TykAAOSwjL5ZLt2w
p43
aVhttp://www.ebay.com/itm/YuGiOh-Thousand-Eyes-Restrict-DPRP-EN046-Rare-1st-Edition-x3-/302077875898?hash=item46553e96ba:g:xDEAAOSwzaJX3mKd
p44
aVhttp://www.ebay.com/itm/NEW-Veronica-Mars-The-Thousand-Dollar-Tan-Line-Paperback-0804170703-/132089224298?epid=177176830&hash=item1ec1219c6a:g:Kz8AAOSwopRYmevS
p45
aVhttp://www.ebay.com/itm/YUGIOH-MANJU-OF-THE-TEN-THOUSAND-HANDS-SUPER-1ST-ED-GOOD-THSF-EN033-/192243796786?hash=item2cc29f8b32:g:878AAOSwLF1X9Rv8
p46
aVhttp://www.ebay.com/itm/3x-Card-YuGiOh-THOUSAND-DRAGON-RARE-MIL1-EN039-1ST-EDITION-/322259762296?epid=865774041&hash=item4b082dbc78:g:xvYAAOSwFV9X1vJQ
p47
aVhttp://www.ebay.com/itm/Thousand-Sons-Scarab-Occult-Terminators-/282333668598?epid=2093229295&hash=item41bc65e4f6:g:1ZkAAOSw5cNYg32L
p48
aVhttp://www.ebay.com/itm/Warhammer-40k-Forgeworld-Event-Only-T-shirt-Thousand-Sons-/361870843963?var=&hash=item54412ee03b:m:mMIcrk42HRQ2GfZwt-TndqQ
p49
aVhttp://www.ebay.com/itm/A-L-Lloyd-Ten-Thousand-Miles-Away-2-x-CD-English-Australian-Folk-Songs-/371989682331?epid=70970759&hash=item569c50189b:g:L9AAAOSwSzRZS7Wv
p50
aVhttp://www.ebay.com/itm/Thousand-Sons-Rubric-Marines-Backpacks-x-10-G574-/311885481109?hash=item489dd2c495:g:OAsAAOSwK6RZLuyl
p51
aVhttp://www.ebay.com/itm/TAEV-EN082-Thousand-Eyes-Jellyfish-Rare-Unlimited-Edition-Yugioh-Card-/172446649058?hash=item28269f0ae2:g:J6wAAOSw241YUusi
p52
aVhttp://www.ebay.com/itm/Twenty-Thousand-Leagues-Under-the-Sea-by-Jules-Verne-Hardback-2017-/352036792585?epid=233210684&hash=item51f7072909:g:fjwAAOSw5UZY-vxF
p53
aVhttp://www.ebay.com/itm/YU-GI-OH-RARE-DON-THOUSANDS-THRONE-PRIO-EN059-1st-EDITION-/191177787431?var=&hash=item2c83158827:m:m_EMbgb8jR8RID5A5aa0zXQ
p54
aVhttp://www.ebay.com/itm/A-Thousand-Kisses-Deep-DVD-2013-/152355757820?epid=168193889&hash=item23791c5efc:m:m92SSl-5nBBGnjpEzK13U9g
p55
aVhttp://www.ebay.com/itm/Seven-Thousand-Ways-to-Listen-Mark-Nepo-/132163138828?epid=176427575&hash=item1ec589750c:g:OD0AAOSw53NY9fJy
p56
aVhttp://www.ebay.com/itm/The-Code-Economy-A-Forty-Thousand-Year-History-by-Philip-E-Auerswald-/311850696365?epid=232669185&hash=item489bbffead:g:9-4AAOSwIWVY9~pK
p57
aVhttp://www.ebay.com/itm/Warhammer-40K-Chaos-Space-Marine-Thousand-Sons-Head-Helmet-D-Upgrade-Bits-/382099455116?hash=item58f6e6fc8c:g:LzEAAOSwn-tZJeA7
p58
aVhttp://www.ebay.com/itm/ZIMBABWE-NEW-500-000-FIVE-HUNDRED-THOUSAND-DOLLARS-NOTE-BUY-IT-NOW-ONLY-99p-/272688966442?hash=item3f7d876b2a:g:-ikAAOSwstJZTT43
p59
aVhttp://www.ebay.com/itm/3X-YU-GI-OH-CARD-THOUSAND-DRAGON-RARE-MIL1-EN039-1ST-EDITION-/322074482409?hash=item4afd2296e9:g:CUsAAOSw2GlXD4L1
p60
aVhttp://www.ebay.com/itm/Knight-Industries-Two-Thousand-KITT-Knightrider-100-Cotton-mens-T-shirt-/231742509805?var=&hash=item35f4ee12ed:m:mjMT6_qzhCC7xpGlBXh_9DA
p61
aVhttp://www.ebay.com/itm/Forge-World-Horus-Heresy-Thousand-Sons-Achean-Pattern-Shoulder-Pads-30k-40k-/302357025806?hash=item4665e2140e:g:Rv8AAOSwi8VZSpEh
p62
aVhttp://www.ebay.com/itm/999-SILVER-1000-Dollar-Bank-Note-Banknote-Bill-One-Thousand-Dollars-/301132892426?epid=1332376245&hash=item461ceb490a:g:fqYAAOSwc-tY5nJq
p63
aVhttp://www.ebay.com/itm/Usborne-My-First-Thousand-Words-in-Polish-Book-NEW-Paperback-/141453623330?epid=176672170&hash=item20ef4b0022:g:Wf0AAOSwr81UUNY7
p64
aVhttp://www.ebay.com/itm/John-French-AHRIMAN-THE-OMNIBUS-1st-Pb-MINT-Warhammer-40K-Thousand-Sons-/322534118308?hash=item4b188813a4:g:tTYAAOSwblZZKyKy
p65
aVhttp://www.ebay.com/itm/A-Thousand-Acres-DVD-/281784138685?epid=51193752&hash=item419ba4bbbd:g:zBEAAOSwHnFV3uoF
p66
aVhttp://www.ebay.com/itm/10-Thousand-Sons-Rubric-Marines-Legs-bits-/372012635930?hash=item569dae571a:g:R1UAAOSw4DJYgM5v
p67
aVhttp://www.ebay.com/itm/Thousand-Sons-Scarab-Occult-Terminators-Soulreaper-Cannon-G557-/252967148233?hash=item3ae6045ac9:g:07sAAOSwY3BZLvEh
p68
aVhttp://www.ebay.com/itm/Framed-Print-1000-ONE-Thousand-Dollar-Bill-Picture-Poster-Art-Paper-Money-/222089102601?hash=item33b58ac509:g:4soAAOSwBLlU3l8-
p69
aVhttp://www.ebay.com/itm/One-None-and-a-Hundred-Thousand-by-Professor-Luigi-Pirandello-9781162784854-/252773818212?epid=1708590537&hash=item3ada7e5f64:g:EGgAAOSw2gxYpdTi
p70
a.