(lp1
Vhttp://www.ebay.com/itm/TEND-Skin-Solution-4oz-or-8oz-Razor-Bumps-Burns-Ingrown-Hairs-/252499140405?var=&hash=item3aca1f1f35:m:mAvuJiteDaJP9Z7WMP25dew
p2
aVhttp://www.ebay.com/itm/Tend-Skin-Solution-4oz-Razor-Rash-razor-bumps-ingrown-hairs-Ingrowing-Tendskin-/231562892617?epid=1405153621&hash=item35ea395549:g:OC8AAOSw9NxTusSI
p3
aVhttp://www.ebay.com/itm/Tend-Skin-Care-Solution-4oz-8oz-16oz-Bottle-/162478832760?var=&hash=item25d47e3c78:m:mL_T9NbrpF4NAuw-4bnFlKQ
p4
aVhttp://www.ebay.com/itm/Tend-Skin-16oz-large-razor-rash-bumps-ingrown-ingrowing-hairs-tendskin-treatment-/391145245039?epid=1405189335&hash=item5b1212c96f:g:rkQAAOSwd4tTu9Ws
p5
aVhttp://www.ebay.com/itm/Tend-Skin-Ingrown-Hair-Solution-236-ml-236ml-8oz-/322550505617?epid=547078272&hash=item4b19822091:g:5A0AAOSwi8VZPLpb
p6
aVhttp://www.ebay.com/itm/TEND-Skin-Solution-4oz-118ml-Bottle-For-Razor-Bumps-Burns-Ingrown-Hairs-/222166755817?epid=632344477&hash=item33ba2ba9e9:g:P3AAAOSw7NNT-Rm0
p7
aVhttp://www.ebay.com/itm/Meat-Steak-Mallet-Hammer-With-Metal-Ends-Tend-Riser-40cm-wooden-/122126665268?hash=item1c6f510634:g:7HIAAOSwQJhUchjV
p8
aVhttp://www.ebay.com/itm/Arai-X-Tend-Dark-Tint-Motorcycle-Helmet-visors-/321636244620?var=&hash=item4ae3039c8c:m:mx5G8dYjjsYQUJcgWnmaUPQ&vxp=mtr
p9
aVhttp://www.ebay.com/itm/Caribee-College-40-X-tend-Backpack-Navy-/151895662154?epid=1649109488&hash=item235dafde4a:g:KDoAAOSwv-NWVj8d
p10
aVhttp://www.ebay.com/itm/Ladies-Ingrown-Hair-Removal-Shaving-Bikini-Rash-Treatment-Serum-Tend-your-Skin-/291871859983?hash=item43f4eb250f:g:f5IAAOSwCQZZBePf
p11
aVhttp://www.ebay.com/itm/Tend-Skin-4Oz-The-Skin-Care-Solution-For-Unsightly-Razor-Bumps-And-Ingrown-Hairs-/302355264206?epid=22003590720&hash=item4665c732ce:g:zt0AAOSwz71ZSKhC
p12
aVhttp://www.ebay.com/itm/Tend-Skin-Ingrown-Hair-Solution-236-ml-Requires-No-Mixing-Not-Tested-On-Animals-/292181686433?epid=9005268958&hash=item440762b8a1:g:JXYAAOSwEH9ZZzBG
p13
aVhttp://www.ebay.com/itm/Tend-Skin-Ingrown-Hair-Solution-236-ml-/162586214218?epid=2069900368&hash=item25dae4bf4a:g:WwYAAOSwGBtZY8Yv
p14
aVhttp://www.ebay.com/itm/Tend-Skin-Ingrown-Hair-Solution-236-ml-236ml-8oz-/322254830497?epid=547078272&hash=item4b07e27ba1:g:PSQAAOSwFdtX0H-~
p15
aVhttp://www.ebay.com/itm/TEND-Skin-Solution-8oz-236ml-Bottle-For-Razor-Bumps-Burns-Ingrown-Hairs-/322034342998?epid=1189063929&hash=item4afabe1c56:g:8VwAAOSwfcVUEMwh
p16
aVhttp://www.ebay.com/itm/Tend-Skin-razor-rash-bumps-ingrown-hairs-Tendskin-Ingrowing-Hair-Treatment-mens-/291185792463?epid=1504153136&hash=item43cc0695cf:g:Q7EAAOSwh6xTu9d-
p17
aVhttp://www.ebay.com/itm/Tend-Skin-Ingrown-Hair-Solution-236-ml-236ml-8oz-/252792949150?epid=547078272&hash=item3adba2499e:g:l7UAAOSwfVpYtr3O
p18
aVhttp://www.ebay.com/itm/Tend-Skin-Ingrown-Hair-Solution-236-ml-/112221349034?epid=2069900368&hash=item1a20e9e4aa:g:Zm4AAOSwHMJYPwTt
p19
aVhttp://www.ebay.com/itm/Arai-X-Tend-CT-X-Tend-Ram-CT-Clear-Helmet-visors-/381115409115?var=&hash=item58bc3fa2db:m:mGAhbMz1QWDSZnnzhsGMj6g&vxp=mtr
p20
aVhttp://www.ebay.com/itm/Tend-Skin-Solution-75ml-Refillable-Bottle-TEN75-/332208893038?epid=1504145993&hash=item4d59316c6e:g:bBgAAOSwSX9XA69t
p21
aVhttp://www.ebay.com/itm/Tend-Skin-Ingrown-Hair-Solution-236-ml-SAME-DAY-DISPATCH-/142252763525?epid=1742202939&hash=item211eece985:g:-NsAAOSwUKxYgtSH
p22
aVhttp://www.ebay.com/itm/Tend-Skin-Solution-Priva-Shave-Razor-Rash-razor-bumps-ingrown-hairs-Ingrowing-/391777838843?epid=1405153621&hash=item5b37c766fb:g:8jAAAOSwhvFZD8xV
p23
aVhttp://www.ebay.com/itm/Tenso-Medical-Stethoscope-Doctors-Cardiologist-CE-FDA-ISO-certs-Black-Tunable-/262532061395?epid=788717396&hash=item3d202158d3:g:bKQAAOSwpDdVSgxR
p24
aVhttp://www.ebay.com/itm/Contactor-TC16-460-Tend-415V-TC16-415-/272180671100?hash=item3f5f3b727c:g:uMUAAOSwAuNW798h
p25
aVhttp://www.ebay.com/itm/FREE-SHIPPING-TEND-SKIN-Solution-4Oz-118ml-For-Ingrown-Hair-Razor-Bumps-Burn-/332213758250?epid=1405153621&hash=item4d597ba92a:g:AgsAAOSwhvFZGwXi
p26
aVhttp://www.ebay.com/itm/Tend-Skin-Waterproof-Moisturizing-Body-Lotion-240ml-Womens-Skin-Care-/222022797365?epid=1708830895&hash=item33b1970835:g:swUAAOSwzgBY0CLT
p27
aVhttp://www.ebay.com/itm/LIFE-INSPIRATIONAL-QUOTE-POSTER-PRINT-WE-TEND-TO-FORGET-THAT-HAPPINESS-/400676672322?hash=item5d4a30d342:g:TzgAAMXQC-tS~KYc
p28
aVhttp://www.ebay.com/itm/Kelly-Rea-Roberts-Collection-Tend-to-Your-Dreams-Butterfly-33-5cm-2020160141-/132003092054?hash=item1ebbff5656:g:EMgAAOSwhQhY7maz
p29
aVhttp://www.ebay.com/itm/FRANK-TURNER-The-Way-I-Tend-To-Be-song-lyrics-poster-art-print-A1-A2-A3-/281235158690?var=&hash=item417aebf6a2:m:mQ15TGYZLe8s6qkvFxTwg2A
p30
aVhttp://www.ebay.com/itm/Tend-Skin-Body-Lotion-Moisturizer-240ml-8-floz-Bottle-TENWBL240W-/330818876535?epid=693716901&hash=item4d06577477:g:dOEAAMXQATlRZarI
p31
aVhttp://www.ebay.com/itm/Tend-Skin-Ingrown-Hair-Solution-118ml-/272444336637?epid=1894021053&hash=item3f6ef2a9fd:g:~jcAAOSw5cNYI-iQ
p32
aVhttp://www.ebay.com/itm/Tend-Skin-Air-Shave-Gel-240ml-8-floz-Bottle-TENASG240-/332225977117?epid=1504151361&hash=item4d5a361b1d:g:21MAAOSwPgxVSJPK
p33
aVhttp://www.ebay.com/itm/Tend-Skin-Solution-Power-Shave-Razor-Rash-razor-bumps-ingrown-hairs-Ingrowing-/391777858695?epid=1405153621&hash=item5b37c7b487:g:8jAAAOSwhvFZD8xV
p34
aVhttp://www.ebay.com/itm/Arai-Smoke-TD-Duct-3-Set-For-Quantum-ST-X-Tend-Tour-X-4-CT-RAM-Helmets-/152354394230?epid=2103627654&hash=item2379079076:g:Ma0AAOSwux5YSjIa&vxp=mtr
p35
aVhttp://www.ebay.com/itm/New-TEND-Skin-Solution-4oz-118ml-Bottle-For-Razor-Bumps-Burns-Ingrown-Hairs-/252885149993?epid=1405153621&hash=item3ae1212929:g:7pEAAOSwUKxYldLp
p36
aVhttp://www.ebay.com/itm/Black-Tusk-Tend-No-Wounds-EP-NEW-CD-/351109121014?epid=170351029&hash=item51bfbc03f6:g:95IAAOSwFAZTtCOt
p37
aVhttp://www.ebay.com/itm/Arai-X-Tend-Dark-Tint-Motorbike-Helmet-visors-/272430020339?var=&hash=item3f6e1836f3:m:mx5G8dYjjsYQUJcgWnmaUPQ&vxp=mtr
p38
aVhttp://www.ebay.com/itm/Kelly-Rea-Roberts-Collection-Tend-to-Your-Dreams-Butterfly-33-5cm-2020160141-/132003092054?hash=item1ebbff5656:g:EMgAAOSwhQhY7maz
p39
aVhttp://www.ebay.com/itm/Tend-Skin-Ingrown-Hair-Solution-236-ml-/362030306071?epid=2069900368&hash=item544ab01317:g:FaoAAOSwjk9ZXeC4
p40
aVhttp://www.ebay.com/itm/TEND-Skin-Solution-4oz-/262813602174?epid=21001502757&hash=item3d30e9517e:g:yC0AAOSw241Yf7q-
p41
aVhttp://www.ebay.com/itm/TFS-101-Switch-foot-1-position-SPDT-10A-250VAC-Leads1m-cable-12N-TEND-/192005146038?hash=item2cb46605b6:g:91EAAOSwUEVYDAOU
p42
a.