(lp0
Vhttps://www.amazon.co.uk/Great-Wall-Zhang-Yimou/dp/B01N9YJKQT/ref=sr_1_4/262-2535411-1110110?ie=UTF8&qid=1500133154&sr=8-4&keywords=wall
p1
aVhttps://www.amazon.co.uk/Great-Wall-digital-download-DVD/dp/B06VW6V4QL/ref=sr_1_5/262-2535411-1110110?ie=UTF8&qid=1500133154&sr=8-5&keywords=wall
p2
aVhttps://www.amazon.co.uk/d/Tapestries/Tapestry-Tapestries-Handmade-Badsheet-Bedspread-Decorative-Bhagyoday/B0101SDYX0/ref=sr_1_6/262-2535411-1110110?ie=UTF8&qid=1500133154&sr=8-6&keywords=wall
p3
aVhttps://www.amazon.co.uk/Walls-Kings-Leon-x/dp/B01LTC61EQ/ref=sr_1_7/262-2535411-1110110?ie=UTF8&qid=1500133154&sr=8-7&keywords=wall
p4
aVhttps://www.amazon.co.uk/Sakura-Flower-Removable-Sticker-EXCITES/dp/B01HR2YKL8/ref=sr_1_8/262-2535411-1110110?ie=UTF8&qid=1500133154&sr=8-8&keywords=wall
p5
aVhttps://www.amazon.co.uk/Wall-DVD-Martina-Gedeck/dp/B00DRGDKK6/ref=sr_1_9/262-2535411-1110110?ie=UTF8&qid=1500133154&sr=8-9&keywords=wall
p6
aVhttps://www.amazon.co.uk/Wall-Of-Glass/dp/B071P7HM4R/ref=sr_1_10/262-2535411-1110110?ie=UTF8&qid=1500133154&sr=8-10&keywords=wall
p7
aVhttps://www.amazon.co.uk/Wall-William-Sutcliffe/dp/1408838435/ref=sr_1_11/262-2535411-1110110?ie=UTF8&qid=1500133154&sr=8-11&keywords=wall
p8
aVhttps://www.amazon.co.uk/Wolf-Wall-Street-DVD/dp/B00DGWRX90/ref=sr_1_12/262-2535411-1110110?ie=UTF8&qid=1500133154&sr=8-12&keywords=wall
p9
aVhttps://www.amazon.co.uk/d/Amazon-Video/Perks-Being-Wallflower-Logan-Lerman/B00FGJB8UG/ref=sr_1_13/262-2535411-1110110?ie=UTF8&qid=1500133154&sr=8-13&keywords=wall
p10
aVhttps://www.amazon.co.uk/dp/B071WG1WP7/ref=sr_1_14/262-2535411-1110110?ie=UTF8&qid=1500133154&sr=8-14&keywords=wall
p11
aVhttps://www.amazon.co.uk/Revesun-Dandelion-Sticker-Stickers-Living/dp/B00M4116Q0/ref=sr_1_15/262-2535411-1110110?ie=UTF8&qid=1500133154&sr=8-15&keywords=wall
p12
aVhttps://www.amazon.co.uk/Wall-Street-Special-Charlie-Sheen/dp/B0000560Y4/ref=sr_1_16/262-2535411-1110110?ie=UTF8&qid=1500133154&sr=8-16&keywords=wall
p13
aVhttps://www.amazon.co.uk/d/Outdoor-Lighting/Long-Life-Lamp-Company-Stainless-Steel-Double/B00J5DOWHK/ref=sr_1_17/262-2535411-1110110?ie=UTF8&qid=1500133154&sr=8-17&keywords=wall
p14
aVhttps://www.amazon.co.uk/Wall-mounted-combination-black-sharing-securely-x/dp/B000JTIX3S/ref=sr_1_18/262-2535411-1110110?ie=UTF8&qid=1500133154&sr=8-18&keywords=wall
p15
aVhttps://www.amazon.co.uk/Pink-Floyd-Wall-Bob-Geldof/dp/B00004CZIZ/ref=sr_1_17/262-2535411-1110110?ie=UTF8&qid=1500133157&sr=8-17&keywords=wall
p16
aVhttps://www.amazon.co.uk/Academic-Available-laminated-unlaminated-holidays/dp/B06WP2ZHWB/ref=sr_1_18/262-2535411-1110110?ie=UTF8&qid=1500133157&sr=8-18&keywords=wall
p17
aVhttps://www.amazon.co.uk/dp/B071X71T53/ref=sr_1_19/262-2535411-1110110?ie=UTF8&qid=1500133157&sr=8-19&keywords=wall
p18
aVhttps://www.amazon.co.uk/Hozelock-Wall-Mounted-Reel-hose/dp/B000PBUESC/ref=sr_1_20/262-2535411-1110110?ie=UTF8&qid=1500133157&sr=8-20&keywords=wall
p19
aVhttps://www.amazon.co.uk/d/CDs-Vinyl/Walls/B0038YID8Q/ref=sr_1_21/262-2535411-1110110?ie=UTF8&qid=1500133157&sr=8-21&keywords=wall
p20
aVhttps://www.amazon.co.uk/Roger-Waters-Wall-DVD/dp/B015Y1BOW2/ref=sr_1_22/262-2535411-1110110?ie=UTF8&qid=1500133157&sr=8-22&keywords=wall
p21
aVhttps://www.amazon.co.uk/VonHaus-15-42-Bracket-Plasma-Screens-x/dp/B004RB7ATC/ref=sr_1_23/262-2535411-1110110?ie=UTF8&qid=1500133157&sr=8-23&keywords=wall
p22
aVhttps://www.amazon.co.uk/Writings-On-The-Wall-x/dp/B015NWLG2A/ref=sr_1_24/262-2535411-1110110?ie=UTF8&qid=1500133157&sr=8-24&keywords=wall
p23
aVhttps://www.amazon.co.uk/butterfly-sticker-wallpaper-birthday-homeking/dp/B01HR318I0/ref=sr_1_25/262-2535411-1110110?ie=UTF8&qid=1500133157&sr=8-25&keywords=wall
p24
aVhttps://www.amazon.co.uk/Ronseal-Multi-Purpose-Smooth-Finish-50Percent-x/dp/B007DHSG5Y/ref=sr_1_26/262-2535411-1110110?ie=UTF8&qid=1500133157&sr=8-26&keywords=wall
p25
aVhttps://www.amazon.co.uk/Duronic-TVB123M-Adjustable-Bracket-Plasma/dp/B001PHBZFQ/ref=sr_1_27/262-2535411-1110110?ie=UTF8&qid=1500133157&sr=8-27&keywords=wall
p26
aVhttps://www.amazon.co.uk/Roger-Waters-Wall/dp/B015SLNBBA/ref=sr_1_28/262-2535411-1110110?ie=UTF8&qid=1500133157&sr=8-28&keywords=wall
p27
aVhttps://www.amazon.co.uk/d/DVD-Blu-ray/Wall-Silence-DVD-John-Lunn/B000KAQ2OI/ref=sr_1_29/262-2535411-1110110?ie=UTF8&qid=1500133157&sr=8-29&keywords=wall
p28
aVhttps://www.amazon.co.uk/ufengke-Cartoon-Childrens-Removable-Stickers/dp/B01GOP502C/ref=sr_1_30/262-2535411-1110110?ie=UTF8&qid=1500133157&sr=8-30&keywords=wall
p29
aVhttps://www.amazon.co.uk/Epic-Modz-Star-Wars-Sticker/dp/B01IP47E4M/ref=sr_1_31/262-2535411-1110110?ie=UTF8&qid=1500133157&sr=8-31&keywords=wall
p30
aVhttps://www.amazon.co.uk/Wall-Sujeet-Kumar/dp/B06XKN9B63/ref=sr_1_32/262-2535411-1110110?ie=UTF8&qid=1500133157&sr=8-32&keywords=wall
p31
aVhttps://www.amazon.co.uk/d/ckb/Generic-18pcs-Butterfly-Wall-Stickers-Decal-Butterflies/B01AD8CARE/ref=sr_1_33/262-2535411-1110110?ie=UTF8&qid=1500133160&sr=8-33&keywords=wall
p32
aVhttps://www.amazon.co.uk/Walls-Hollie-Overton-x/dp/1780895089/ref=sr_1_34/262-2535411-1110110?ie=UTF8&qid=1500133160&sr=8-34&keywords=wall
p33
aVhttps://www.amazon.co.uk/Decowall-DW-1206-Animals-Nursery-Stickers/dp/B00FLVPYH2/ref=sr_1_35_a_it/262-2535411-1110110?ie=UTF8&qid=1500133160&sr=8-35&keywords=wall
p34
aVhttps://www.amazon.co.uk/dp/B07317FW45/ref=sr_1_36/262-2535411-1110110?ie=UTF8&qid=1500133160&sr=8-36&keywords=wall
p35
aVhttps://www.amazon.co.uk/Wall-Street-Money-Never-Sleeps/dp/B003IHUHZU/ref=sr_1_37/262-2535411-1110110?ie=UTF8&qid=1500133160&sr=8-37&keywords=wall
p36
aVhttps://www.amazon.co.uk/Wall-Glass-Liam-Gallagher/dp/B071FGD3HG/ref=sr_1_38/262-2535411-1110110?ie=UTF8&qid=1500133160&sr=8-38&keywords=wall
p37
aVhttps://www.amazon.co.uk/Cat-Mate-Wall-Liner-234/dp/B001A3PZ2O/ref=sr_1_39/262-2535411-1110110?ie=UTF8&qid=1500133160&sr=8-39&keywords=wall
p38
aVhttps://www.amazon.co.uk/d/Amazon-Video/Wolf-Wall-Street-Leonardo-DiCaprio/B00JXG57QE/ref=sr_1_40/262-2535411-1110110?ie=UTF8&qid=1500133160&sr=8-40&keywords=wall
p39
aVhttps://www.amazon.co.uk/Step2-Waterfall-Discovery-Wall-Playset-x/dp/B01ACE4EX2/ref=sr_1_41/262-2535411-1110110?ie=UTF8&qid=1500133160&sr=8-41&keywords=wall
p40
aVhttps://www.amazon.co.uk/Hercules-GSP38WB-Mountable-Guitar-Hanger/dp/B0009K9MUA/ref=sr_1_42/262-2535411-1110110?ie=UTF8&qid=1500133160&sr=8-42&keywords=wall
p41
aVhttps://www.amazon.co.uk/Butterfly-Stickrs-Decoration-Babyroom-Decoration-PURPLE/dp/B00Q2NETGK/ref=sr_1_43/262-2535411-1110110?ie=UTF8&qid=1500133160&sr=8-43&keywords=wall
p42
aVhttps://www.amazon.co.uk/d/m45/MOUNTED-Automatic-Air-Freshener-Dispenser-Refills-fresh/B0114MHU6O/ref=sr_1_44/262-2535411-1110110?ie=UTF8&qid=1500133160&sr=8-44&keywords=wall
p43
aVhttps://www.amazon.co.uk/Stewart-Adjustable-Wall-Brackets-Troughs/dp/B006WO3LPE/ref=sr_1_45/262-2535411-1110110?ie=UTF8&qid=1500133160&sr=8-45&keywords=wall
p44
aVhttps://www.amazon.co.uk/Black-Letters-Stickers-Removable-Vinyl/dp/B00HHOGWTU/ref=sr_1_46/262-2535411-1110110?ie=UTF8&qid=1500133160&sr=8-46&keywords=wall
p45
aVhttps://www.amazon.co.uk/32559-Folding-Bicycle-Wall-Rack/dp/B005XH04JC/ref=sr_1_47/262-2535411-1110110?ie=UTF8&qid=1500133160&sr=8-47&keywords=wall
p46
aVhttps://www.amazon.co.uk/Fashion-Circular-Sticker-Poster-Decoration-x/dp/B00S0VVOQK/ref=sr_1_48/262-2535411-1110110?ie=UTF8&qid=1500133160&sr=8-48&keywords=wall
p47
aVhttps://www.amazon.co.uk/d/vut/Modern-Chrome-Single-Adjustable-Ceiling-Spotlight-Practical/B014DSQTP4/ref=sr_1_49/262-2535411-1110110?ie=UTF8&qid=1500133163&sr=8-49&keywords=wall
p48
aVhttps://www.amazon.co.uk/Wall-DVD-Simone-Bitton/dp/B000EQHHDS/ref=sr_1_50/262-2535411-1110110?ie=UTF8&qid=1500133163&sr=8-50&keywords=wall
p49
aVhttps://www.amazon.co.uk/Wall-2011-Remastered-Version/dp/B005NNYL54/ref=sr_1_51/262-2535411-1110110?ie=UTF8&qid=1500133163&sr=8-51&keywords=wall
p50
aVhttps://www.amazon.co.uk/Smarty-Games-Walls/dp/B01LZQ8HDL/ref=sr_1_52/262-2535411-1110110?ie=UTF8&qid=1500133163&sr=8-52&keywords=wall
p51
aVhttps://www.amazon.co.uk/Fairy-Stars-Girls-Personalised-Sticker/dp/B01LYVP5S7/ref=sr_1_53/262-2535411-1110110?ie=UTF8&qid=1500133163&sr=8-53&keywords=wall
p52
aVhttps://www.amazon.co.uk/Academic-Unmounted-Planner-Stickers-Assorted/dp/B07282HSMS/ref=sr_1_54/262-2535411-1110110?ie=UTF8&qid=1500133163&sr=8-54&keywords=wall
p53
aVhttps://www.amazon.co.uk/Through-wall-Noa-Kooler/dp/B01MS5PWOO/ref=sr_1_55/262-2535411-1110110?ie=UTF8&qid=1500133163&sr=8-55&keywords=wall
p54
aVhttps://www.amazon.co.uk/White-Mounting-Bracket-Microwave-Ovens/dp/B00BHEXOKQ/ref=sr_1_56/262-2535411-1110110?ie=UTF8&qid=1500133163&sr=8-56&keywords=wall
p55
aVhttps://www.amazon.co.uk/MOUNTED-GARDEN-HOLDER-BRACKET-STORAGE/dp/B005T22O1W/ref=sr_1_57/262-2535411-1110110?ie=UTF8&qid=1500133163&sr=8-57&keywords=wall
p56
aVhttps://www.amazon.co.uk/TRIXES-Mounted-Spiral-Holder-Straightener/dp/B01D1SI5F4/ref=sr_1_58_a_it/262-2535411-1110110?ie=UTF8&qid=1500133163&sr=8-58&keywords=wall
p57
aVhttps://www.amazon.co.uk/Wall-Romes-Greatest-Frontier-ebook/dp/B008R6AL8U/ref=sr_1_59/262-2535411-1110110?ie=UTF8&qid=1500133163&sr=8-59&keywords=wall
p58
aVhttps://www.amazon.co.uk/Forgefix-MCAGUN-Cavity-Anchor-Fixing/dp/B009HN8U2Q/ref=sr_1_60/262-2535411-1110110?ie=UTF8&qid=1500133163&sr=8-60&keywords=wall
p59
aVhttps://www.amazon.co.uk/Shabby-Vintage-Jewellery-Hanger-Holder-x/dp/B009LHCKOW/ref=sr_1_61/262-2535411-1110110?ie=UTF8&qid=1500133163&sr=8-61&keywords=wall
p60
aVhttps://www.amazon.co.uk/Laminated-Yearly-Planner-Calendar-Sticker/dp/B0081S5RK6/ref=sr_1_62/262-2535411-1110110?ie=UTF8&qid=1500133163&sr=8-62&keywords=wall
p61
aVhttps://www.amazon.co.uk/Invision-Ultra-Swivel-Bracket-Mount-x/dp/B010G6972O/ref=sr_1_63/262-2535411-1110110?ie=UTF8&qid=1500133163&sr=8-63&keywords=wall
p62
aVhttps://www.amazon.co.uk/Wall-Live-Berlin-DVD/dp/B00008ZPBV/ref=sr_1_64/262-2535411-1110110?ie=UTF8&qid=1500133163&sr=8-64&keywords=wall
p63
aVhttps://www.amazon.co.uk/Walls-Come-Tumbling-Down-Politics-x/dp/1447272692/ref=sr_1_65/262-2535411-1110110?ie=UTF8&qid=1500133165&sr=8-65&keywords=wall
p64
aVhttps://www.amazon.co.uk/d/PC-Video-Games/YTTL-Wall-Power-Charger-Adapter-Nintendo-Wii-GamePad/B01DPPVK32/ref=sr_1_66/262-2535411-1110110?ie=UTF8&qid=1500133165&sr=8-66&keywords=wall
p65
aVhttps://www.amazon.co.uk/Walls-Apparat/dp/B00LXRPNMY/ref=sr_1_67/262-2535411-1110110?ie=UTF8&qid=1500133165&sr=8-67&keywords=wall
p66
aVhttps://www.amazon.co.uk/Karlsson-Clock-Design-White-copper/dp/B00W1MFKQE/ref=sr_1_68/262-2535411-1110110?ie=UTF8&qid=1500133165&sr=8-68&keywords=wall
p67
aVhttps://www.amazon.co.uk/d/n5s/Four-Walls-Complete-Works-Piano-Voice-Violin/B000YPWBQC/ref=sr_1_69/262-2535411-1110110?ie=UTF8&qid=1500133165&sr=8-69&keywords=wall
p68
aVhttps://www.amazon.co.uk/Retro-Mounted-Bottle-Opener-Silver/dp/B00P1A8U9W/ref=sr_1_70/262-2535411-1110110?ie=UTF8&qid=1500133165&sr=8-70&keywords=wall
p69
aVhttps://www.amazon.co.uk/Fintie-Holder-Amazon-All-New-Generation/dp/B06XBTLRJS/ref=sr_1_71/262-2535411-1110110?ie=UTF8&qid=1500133165&sr=8-71&keywords=wall
p70
aVhttps://www.amazon.co.uk/Avanquest-Software-gspdvdphotoartsilver-Photo-Master/dp/B0002Q7884/ref=sr_1_72/262-2535411-1110110?ie=UTF8&qid=1500133165&sr=8-72&keywords=wall
p71
aVhttps://www.amazon.co.uk/Walls/dp/B01LTC6880/ref=sr_1_73/262-2535411-1110110?ie=UTF8&qid=1500133165&sr=8-73&keywords=wall
p72
aVhttps://www.amazon.co.uk/Kill-Ugly-TV-Honoka-Ishibashi/dp/B071P21DT2/ref=sr_1_74/262-2535411-1110110?ie=UTF8&qid=1500133165&sr=8-74&keywords=wall
p73
aVhttps://www.amazon.co.uk/d/DVD-Blu-ray/Wall-Street-Money-Never-Sleeps-Double-Pack/B004BLIMUY/ref=sr_1_75/262-2535411-1110110?ie=UTF8&qid=1500133165&sr=8-75&keywords=wall
p74
aVhttps://www.amazon.co.uk/Golds-Gym-4ft-Wall-Bracket/dp/B00DT0YFC2/ref=sr_1_76/262-2535411-1110110?ie=UTF8&qid=1500133165&sr=8-76&keywords=wall
p75
aVhttps://www.amazon.co.uk/Logilink-HDMI-2-Port-Socket-Adapter/dp/B0077VHMJM/ref=sr_1_77/262-2535411-1110110?ie=UTF8&qid=1500133165&sr=8-77&keywords=wall
p76
aVhttps://www.amazon.co.uk/Childrens-Today-Fabric-Hanging-Chart/dp/B008LA5VM8/ref=sr_1_78/262-2535411-1110110?ie=UTF8&qid=1500133165&sr=8-78&keywords=wall
p77
aVhttps://www.amazon.co.uk/Broken-Walls-Studios-LLC-Game/dp/B06X1DPCZ3/ref=sr_1_79/262-2535411-1110110?ie=UTF8&qid=1500133165&sr=8-79&keywords=wall
p78
aVhttps://www.amazon.co.uk/Gardman-36-inch-Georgian-Wall-Trough/dp/B000NCXAY8/ref=sr_1_80/262-2535411-1110110?ie=UTF8&qid=1500133165&sr=8-80&keywords=wall
p79
aVhttps://www.amazon.co.uk/Shaped-Hanging-Bracket-First-Boxes-x/dp/B009XBIEJG/ref=sr_1_81_a_it/262-2535411-1110110?ie=UTF8&qid=1500133168&sr=8-81&keywords=wall
p80
aVhttps://www.amazon.co.uk/dp/B072R5PHX3/ref=sr_1_82/262-2535411-1110110?ie=UTF8&qid=1500133168&sr=8-82&keywords=wall
p81
aVhttps://www.amazon.co.uk/Wireless-Anywhere-Stairway-Washroom-Wardrobe/dp/B01M5AG4PH/ref=sr_1_83/262-2535411-1110110?ie=UTF8&qid=1500133168&sr=8-83&keywords=wall
p82
aVhttps://www.amazon.co.uk/These-Walls-Could-Talk-DVD/dp/B00004ZBX8/ref=sr_1_84/262-2535411-1110110?ie=UTF8&qid=1500133168&sr=8-84&keywords=wall
p83
aVhttps://www.amazon.co.uk/d/Amazon-Video/Wall-Street-Charlie-Sheen/B00FYHA9D2/ref=sr_1_85/262-2535411-1110110?ie=UTF8&qid=1500133168&sr=8-85&keywords=wall
p84
aVhttps://www.amazon.co.uk/Fun-Toys-Controlled-Climbing-Random/dp/B00C8PO14G/ref=sr_1_86/262-2535411-1110110?ie=UTF8&qid=1500133168&sr=8-86&keywords=wall
p85
aVhttps://www.amazon.co.uk/Trixie-Climbing-Step-Mounting-Cream/dp/B00Y1D68H6/ref=sr_1_87/262-2535411-1110110?ie=UTF8&qid=1500133168&sr=8-87&keywords=wall
p86
aVhttps://www.amazon.co.uk/Tiger-Guitar-Hanger-Optional-Securing/dp/B00H3HXBL8/ref=sr_1_88/262-2535411-1110110?ie=UTF8&qid=1500133168&sr=8-88&keywords=wall
p87
aVhttps://www.amazon.co.uk/Brush-Broom-Holder-Storage-Organiser/dp/B00G46VZXU/ref=sr_1_89/262-2535411-1110110?ie=UTF8&qid=1500133168&sr=8-89&keywords=wall
p88
aVhttps://www.amazon.co.uk/Colter-Wall/dp/B06WD6SN6T/ref=sr_1_90/262-2535411-1110110?ie=UTF8&qid=1500133168&sr=8-90&keywords=wall
p89
aVhttps://www.amazon.co.uk/Ronseal-RSLMPRMF100G-Smooth-Multi-Purpose-Interior/dp/B0071QNV0M/ref=sr_1_91/262-2535411-1110110?ie=UTF8&qid=1500133168&sr=8-91&keywords=wall
p90
aVhttps://www.amazon.co.uk/Sea-Wall-DVD-Isabelle-Huppert/dp/B002ZQX02W/ref=sr_1_92/262-2535411-1110110?ie=UTF8&qid=1500133168&sr=8-92&keywords=wall
p91
aVhttps://www.amazon.co.uk/2017-2018-Academic-Student-Planner-Calendar/dp/B06XD16ZN8/ref=sr_1_93/262-2535411-1110110?ie=UTF8&qid=1500133168&sr=8-93&keywords=wall
p92
aVhttps://www.amazon.co.uk/Wall-Mounted-Business-Card-Holder/dp/B00577HJ78/ref=sr_1_94/262-2535411-1110110?ie=UTF8&qid=1500133168&sr=8-94&keywords=wall
p93
aVhttps://www.amazon.co.uk/dp/B072KHK38N/ref=sr_1_95/262-2535411-1110110?ie=UTF8&qid=1500133168&sr=8-95&keywords=wall
p94
aVhttps://www.amazon.co.uk/Storage-Bracket-Suitable-Including-Doubles/dp/B00B3TG1Q4/ref=sr_1_96/262-2535411-1110110?ie=UTF8&qid=1500133168&sr=8-96&keywords=wall
p95
aVhttps://www.amazon.co.uk/Word-Wall-challenging-word-association/dp/B00AR1AUAW/ref=sr_1_97/262-2535411-1110110?ie=UTF8&qid=1500133171&sr=8-97&keywords=wall
p96
aVhttps://www.amazon.co.uk/Ouneed-Removable-Beautiful-Butterfly-Stickers/dp/B01C6L1P4U/ref=sr_1_98/262-2535411-1110110?ie=UTF8&qid=1500133171&sr=8-98&keywords=wall
p97
aVhttps://www.amazon.co.uk/Wall-holes-water-bears-Mexicans-ebook/dp/B06ZYTLZRG/ref=sr_1_99/262-2535411-1110110?ie=UTF8&qid=1500133171&sr=8-99&keywords=wall
p98
aVhttps://www.amazon.co.uk/Personal-Troubles-Wall/dp/B0194XTRKC/ref=sr_1_100/262-2535411-1110110?ie=UTF8&qid=1500133171&sr=8-100&keywords=wall
p99
aVhttps://www.amazon.co.uk/Steelbook-Exclusive-Blu-ray-Digital-Download/dp/B071LGCKQS/ref=sr_1_101/262-2535411-1110110?ie=UTF8&qid=1500133171&sr=8-101&keywords=wall
p100
aVhttps://www.amazon.co.uk/dp/B072QZCM9X/ref=sr_1_102/262-2535411-1110110?ie=UTF8&qid=1500133171&sr=8-102&keywords=wall
p101
aVhttps://www.amazon.co.uk/Brackit-Assorted-Repairing-Wallplugs-Chipboard/dp/B07232JXVL/ref=sr_1_103/262-2535411-1110110?ie=UTF8&qid=1500133171&sr=8-103&keywords=wall
p102
aVhttps://www.amazon.co.uk/d/Bottle-Openers/Orblue-Wall-Mounted-Bartenders-Set-2/B016XDII0G/ref=sr_1_104/262-2535411-1110110?ie=UTF8&qid=1500133171&sr=8-104&keywords=wall
p103
aVhttps://www.amazon.co.uk/dp/B071XD7S8F/ref=sr_1_106/262-2535411-1110110?ie=UTF8&qid=1500133171&sr=8-106&keywords=wall
p104
aVhttps://www.amazon.co.uk/AllRight-Microwave-Mounting-Holder-Brackets/dp/B01LXNL3WN/ref=sr_1_107/262-2535411-1110110?ie=UTF8&qid=1500133171&sr=8-107&keywords=wall
p105
aVhttps://www.amazon.co.uk/Creative-hallway-bedroom-industrial-lighting/dp/B01JS11Q0O/ref=sr_1_108/262-2535411-1110110?ie=UTF8&qid=1500133171&sr=8-108&keywords=wall
p106
aVhttps://www.amazon.co.uk/W7-Skinny-Lipping-Lipstick-2-5ml-Off/dp/B01MSEP5AG/ref=sr_1_109_a_it/262-2535411-1110110?ie=UTF8&qid=1500133171&sr=8-109&keywords=wall
p107
aVhttps://www.amazon.co.uk/Fence-Wall-Spikes-13-5M-BROWN/dp/B0046YJNCM/ref=sr_1_110/262-2535411-1110110?ie=UTF8&qid=1500133171&sr=8-110&keywords=wall
p108
aVhttps://www.amazon.co.uk/Roger-Waters-Wall-Live-Berlin/dp/B000FMHANI/ref=sr_1_111/262-2535411-1110110?ie=UTF8&qid=1500133171&sr=8-111&keywords=wall
p109
aVhttps://www.amazon.co.uk/USB-Plug-Charger-Ennotek-Interchangeable/dp/B01IR4J3PS/ref=sr_1_112/262-2535411-1110110?ie=UTF8&qid=1500133171&sr=8-112&keywords=wall
p110
aVhttps://www.amazon.co.uk/Arabian-Wall-Sconces-Set-2/dp/B01BGUF3B8/ref=sr_1_113/262-2535411-1110110?ie=UTF8&qid=1500133171&sr=8-113&keywords=wall
p111
aVhttps://www.amazon.co.uk/Invision-Double-Wall-Bracket-Mount/dp/B01AYB3MD6/ref=sr_1_113/262-2535411-1110110?ie=UTF8&qid=1500133173&sr=8-113&keywords=wall
p112
aVhttps://www.amazon.co.uk/dp/B06XB3PQY6/ref=sr_1_114/262-2535411-1110110?ie=UTF8&qid=1500133173&sr=8-114&keywords=wall
p113
aVhttps://www.amazon.co.uk/Mommys-Helper-Furniture-Brackets-Pack/dp/B00081MHJI/ref=sr_1_115_a_it/262-2535411-1110110?ie=UTF8&qid=1500133173&sr=8-115&keywords=wall
p114
aVhttps://www.amazon.co.uk/Double-Network-FacePlate-Ethernet-GIGABIT/dp/B00ESDVTLY/ref=sr_1_116/262-2535411-1110110?ie=UTF8&qid=1500133173&sr=8-116&keywords=wall
p115
aVhttps://www.amazon.co.uk/Not-Exactly-How-We-Planned/dp/B00KY01AZK/ref=sr_1_117/262-2535411-1110110?ie=UTF8&qid=1500133173&sr=8-117&keywords=wall
p116
aVhttps://www.amazon.co.uk/Breaking-Fourth-Boston-Opera-Blu-ray-x/dp/B00MUDYJ5W/ref=sr_1_118/262-2535411-1110110?ie=UTF8&qid=1500133173&sr=8-118&keywords=wall
p117
aVhttps://www.amazon.co.uk/Coleman-Event-Shelter-Sun-wall/dp/B00R1FJKSK/ref=sr_1_119/262-2535411-1110110?ie=UTF8&qid=1500133173&sr=8-119&keywords=wall
p118
aVhttps://www.amazon.co.uk/KITCHEN-Sticker-Cols-Decals-UK/dp/B0052UKE40/ref=sr_1_120/262-2535411-1110110?ie=UTF8&qid=1500133173&sr=8-120&keywords=wall
p119
aVhttps://www.amazon.co.uk/Last-Giants-True-Story-Roses/dp/1944713352/ref=sr_1_122/262-2535411-1110110?ie=UTF8&qid=1500133173&sr=8-122&keywords=wall
p120
aVhttps://www.amazon.co.uk/Wall-Mounted-Metal-Ash-Tray/dp/B003CM5ZV2/ref=sr_1_123/262-2535411-1110110?ie=UTF8&qid=1500133173&sr=8-123&keywords=wall
p121
aVhttps://www.amazon.co.uk/DIGITAL-MULTIFUNCTION-CLOCK-WALL-QUALITY/dp/B01BFFYO8M/ref=sr_1_124/262-2535411-1110110?ie=UTF8&qid=1500133173&sr=8-124&keywords=wall
p122
aVhttps://www.amazon.co.uk/Walls-Will-Fall-Terror/dp/B06XPH9C6Z/ref=sr_1_125/262-2535411-1110110?ie=UTF8&qid=1500133173&sr=8-125&keywords=wall
p123
aVhttps://www.amazon.co.uk/Tallon-2017-2018-Academic-Planner-Calendar/dp/B06XH4L35M/ref=sr_1_126/262-2535411-1110110?ie=UTF8&qid=1500133173&sr=8-126&keywords=wall
p124
aVhttps://www.amazon.co.uk/Philex-70435R-Single-Brushed-Faceplate/dp/B003QP46PG/ref=sr_1_127/262-2535411-1110110?ie=UTF8&qid=1500133173&sr=8-127&keywords=wall
p125
aVhttps://www.amazon.co.uk/Behind-Wall-Michael-Patrick-Kelly/dp/B00AMHFO5C/ref=sr_1_128/262-2535411-1110110?ie=UTF8&qid=1500133173&sr=8-128&keywords=wall
p126
aVhttps://www.amazon.co.uk/Remote-Control-Climber-Climbing-Vehicle/dp/B01MSAES6G/ref=sr_1_129/262-2535411-1110110?ie=UTF8&qid=1500133173&sr=8-129&keywords=wall
p127
aVhttps://www.amazon.co.uk/Mate-Elite-308-Liner-Microchip/dp/B0018248VQ/ref=sr_1_129/262-2535411-1110110?ie=UTF8&qid=1500133175&sr=8-129&keywords=wall
p128
aVhttps://www.amazon.co.uk/d/Amazon-Video/Wall-2012-Martina-Gedeck/B00KS5JCU6/ref=sr_1_130/262-2535411-1110110?ie=UTF8&qid=1500133175&sr=8-130&keywords=wall
p129
aVhttps://www.amazon.co.uk/Atlantic-Walls-Tangerine-Dream/dp/B0001B0V66/ref=sr_1_131/262-2535411-1110110?ie=UTF8&qid=1500133175&sr=8-131&keywords=wall
p130
aVhttps://www.amazon.co.uk/Mugig-Instrument-Bass-More-Automatic-Mechanism/dp/B01DP9RO3I/ref=sr_1_132/262-2535411-1110110?ie=UTF8&qid=1500133175&sr=8-132&keywords=wall
p131
aVhttps://www.amazon.co.uk/d/c7h/Dr-Meter-Backlight-Scanner-Electronic-StudSensor-Calibration-Included/B00R2C519O/ref=sr_1_133/262-2535411-1110110?ie=UTF8&qid=1500133175&sr=8-133&keywords=wall
p132
aVhttps://www.amazon.co.uk/Wall-Indoor-Outdoor-Thermometer/dp/B005TH9YMY/ref=sr_1_134/262-2535411-1110110?ie=UTF8&qid=1500133175&sr=8-134&keywords=wall
p133
aVhttps://www.amazon.co.uk/GHB-Door-Protectors-Garage-2-Piece/dp/B01CTNHE7M/ref=sr_1_135/262-2535411-1110110?ie=UTF8&qid=1500133175&sr=8-135&keywords=wall
p134
aVhttps://www.amazon.co.uk/Coracle-Walls/dp/B005DKLPGK/ref=sr_1_136/262-2535411-1110110?ie=UTF8&qid=1500133175&sr=8-136&keywords=wall
p135
aVhttps://www.amazon.co.uk/d/ft7/Perks-Being-Wallflower-DVD-Logan-Lerman/B008OPZYNQ/ref=sr_1_137/262-2535411-1110110?ie=UTF8&qid=1500133175&sr=8-137&keywords=wall
p136
aVhttps://www.amazon.co.uk/Victor-Bologan-The-Berlin-Wall/dp/3866814968/ref=sr_1_138/262-2535411-1110110?ie=UTF8&qid=1500133175&sr=8-138&keywords=wall
p137
aVhttps://www.amazon.co.uk/Powder-Coated-Wall-Mounted-Cigarette-Stainless-Outdoor/dp/B004RB5PFI/ref=sr_1_139/262-2535411-1110110?ie=UTF8&qid=1500133175&sr=8-139&keywords=wall
p138
aVhttps://www.amazon.co.uk/Good-Ideas-Bathroom-Motorhome-instantly/dp/B0040YY8JQ/ref=sr_1_140/262-2535411-1110110?ie=UTF8&qid=1500133175&sr=8-140&keywords=wall
p139
aVhttps://www.amazon.co.uk/Invision-Ultra-Strong-Bracket-Mount/dp/B01AYBLPNA/ref=sr_1_141/262-2535411-1110110?ie=UTF8&qid=1500133175&sr=8-141&keywords=wall
p140
aVhttps://www.amazon.co.uk/dp/B073L5MND6/ref=sr_1_142/262-2535411-1110110?ie=UTF8&qid=1500133175&sr=8-142&keywords=wall
p141
aVhttps://www.amazon.co.uk/Fintie-Holder-Amazon-All-New-Generation/dp/B01N4Q41LF/ref=sr_1_143/262-2535411-1110110?ie=UTF8&qid=1500133175&sr=8-143&keywords=wall
p142
aVhttps://www.amazon.co.uk/Wall-Winnipeg-Me-Mariana-Zapata/dp/0990429245/ref=sr_1_144/262-2535411-1110110?ie=UTF8&qid=1500133175&sr=8-144&keywords=wall
p143
aVhttps://www.amazon.co.uk/Xray-Wall-Scanner-HD-Prank/dp/B01N23F0FW/ref=sr_1_145/262-2535411-1110110?ie=UTF8&qid=1500133178&sr=8-145&keywords=wall
p144
aVhttps://www.amazon.co.uk/Mpow-Security-Waterproof-Powered-Outdoor/dp/B00YWWQQU0/ref=sr_1_146/262-2535411-1110110?ie=UTF8&qid=1500133178&sr=8-146&keywords=wall
p145
aVhttps://www.amazon.co.uk/London-Entertains-Climb-Wall-Calling/dp/B00TB6JUNC/ref=sr_1_147/262-2535411-1110110?ie=UTF8&qid=1500133178&sr=8-147&keywords=wall
p146
aVhttps://www.amazon.co.uk/Vans-Short-Sleeve-T-Shirt-Medium/dp/B018FJMWA8/ref=sr_1_148/262-2535411-1110110?ie=UTF8&qid=1500133178&sr=8-148&keywords=wall
p147
aVhttps://www.amazon.co.uk/MOUNTED-WELLY-WELLINGTON-RIDING-ASSEMBLED/dp/B00FRQHUUA/ref=sr_1_149/262-2535411-1110110?ie=UTF8&qid=1500133178&sr=8-149&keywords=wall
p148
aVhttps://www.amazon.co.uk/Animal-Sticker-Removable-Vinyl-Decoration/dp/B00QX0D6LG/ref=sr_1_150/262-2535411-1110110?ie=UTF8&qid=1500133178&sr=8-150&keywords=wall
p149
aVhttps://www.amazon.co.uk/Reebok-Weighted-Speed-Rope-Cyan/dp/B0086VAV54/ref=sr_1_151/262-2535411-1110110?ie=UTF8&qid=1500133178&sr=8-151&keywords=wall
p150
aVhttps://www.amazon.co.uk/Tony-Wall-Remembers-Jim-Reeves/dp/B072KDPTQL/ref=sr_1_152/262-2535411-1110110?ie=UTF8&qid=1500133178&sr=8-152&keywords=wall
p151
aVhttps://www.amazon.co.uk/dp/B071GP55MQ/ref=sr_1_153/262-2535411-1110110?ie=UTF8&qid=1500133178&sr=8-153&keywords=wall
p152
aVhttps://www.amazon.co.uk/Hozelock-Wall-Mounted-Fast-Reel/dp/B000PC2AZQ/ref=sr_1_154/262-2535411-1110110?ie=UTF8&qid=1500133178&sr=8-154&keywords=wall
p153
aVhttps://www.amazon.co.uk/Broken-Walls-Studios-LLC-History/dp/B01N9TN82Q/ref=sr_1_155/262-2535411-1110110?ie=UTF8&qid=1500133178&sr=8-155&keywords=wall
p154
aVhttps://www.amazon.co.uk/Artys-Masterpiece-Home-Bunny/dp/B00L8S6PTI/ref=sr_1_156/262-2535411-1110110?ie=UTF8&qid=1500133178&sr=8-156&keywords=wall
p155
aVhttps://www.amazon.co.uk/d/Painting-Supplies-Tools-Wall-Treatments/Ardisle-piece-Mirror-Sticker-Decal-Mosaic-Modern/6040245751/ref=sr_1_157_a_it/262-2535411-1110110?ie=UTF8&qid=1500133178&sr=8-157&keywords=wall
p156
aVhttps://www.amazon.co.uk/Football-Player-Personalised-Mural-Sticker/dp/B01LZH2Y14/ref=sr_1_158/262-2535411-1110110?ie=UTF8&qid=1500133178&sr=8-158&keywords=wall
p157
aVhttps://www.amazon.co.uk/Command-Medium-Picture-Hanging-Strips/dp/B000OF6X48/ref=sr_1_159/262-2535411-1110110?ie=UTF8&qid=1500133178&sr=8-159&keywords=wall
p158
aVhttps://www.amazon.co.uk/Aldwych-Farces-Vol-1-DVD-x/dp/B00T4K106U/ref=sr_1_160/262-2535411-1110110?ie=UTF8&qid=1500133178&sr=8-160&keywords=wall
p159
aVhttps://www.amazon.co.uk/d/Microwave-Accessories/MultiWare-Wall-Brackets-Holder-White/B017NF2RT6/ref=sr_1_161/262-2535411-1110110?ie=UTF8&qid=1500133180&sr=8-161&keywords=wall
p160
aVhttps://www.amazon.co.uk/These-Dividing-Walls-Fran-Cooper-ebook/dp/B01EG862PS/ref=sr_1_162/262-2535411-1110110?ie=UTF8&qid=1500133180&sr=8-162&keywords=wall
p161
aVhttps://www.amazon.co.uk/Single-Socket-Network-FacePlate-Ethernet/dp/B00ESDRG2A/ref=sr_1_163/262-2535411-1110110?ie=UTF8&qid=1500133180&sr=8-163&keywords=wall
p162
aVhttps://www.amazon.co.uk/Master-Anchor-Chains-Shackle-Dimensions/dp/B001MTEQV2/ref=sr_1_164/262-2535411-1110110?ie=UTF8&qid=1500133180&sr=8-164&keywords=wall
p163
aVhttps://www.amazon.co.uk/Wall-Arms-Maccabees/dp/B0026EU60W/ref=sr_1_165/262-2535411-1110110?ie=UTF8&qid=1500133180&sr=8-165&keywords=wall
p164
aVhttps://www.amazon.co.uk/d/Books/2017-Wall-Planner-BLUE-ROLLED/B01G45VF9E/ref=sr_1_166/262-2535411-1110110?ie=UTF8&qid=1500133180&sr=8-166&keywords=wall
p165
aVhttps://www.amazon.co.uk/d/Laundry-Storage-Organisation/Sass-Belle-Jewellery-Cream-wire-hooks-organiser/B004G194Q0/ref=sr_1_167/262-2535411-1110110?ie=UTF8&qid=1500133180&sr=8-167&keywords=wall
p166
aVhttps://www.amazon.co.uk/WallPicture-Wall-Sticker-Decoration-TXK-A0011QT/dp/B01H2T8VRK/ref=sr_1_168/262-2535411-1110110?ie=UTF8&qid=1500133180&sr=8-168&keywords=wall
p167
aVhttps://www.amazon.co.uk/Gardman-24-inch-Blacksmith-Trough-Co-Co-x/dp/B0017RRE6S/ref=sr_1_169/262-2535411-1110110?ie=UTF8&qid=1500133180&sr=8-169&keywords=wall
p168
aVhttps://www.amazon.co.uk/Plasterboard-Setting-Expanding-Fixings-Anchors/dp/B00BC585HM/ref=sr_1_170/262-2535411-1110110?ie=UTF8&qid=1500133180&sr=8-170&keywords=wall
p169
aVhttps://www.amazon.co.uk/d/DVD-Blu-ray/Behind-Convent-Walls-1977-Ligia-Branice/B00009P9KZ/ref=sr_1_171/262-2535411-1110110?ie=UTF8&qid=1500133180&sr=8-171&keywords=wall
p170
aVhttps://www.amazon.co.uk/Invision-Bracket-Cantilever-1-8-Inch-Profile/dp/B003W5R9P4/ref=sr_1_172/262-2535411-1110110?ie=UTF8&qid=1500133180&sr=8-172&keywords=wall
p171
aVhttps://www.amazon.co.uk/Games-Hub-R05-0045-Humpty-Dumptys/dp/B01LYO6UFJ/ref=sr_1_173/262-2535411-1110110?ie=UTF8&qid=1500133180&sr=8-173&keywords=wall
p172
aVhttps://www.amazon.co.uk/dp/B073TWDDLY/ref=sr_1_174/262-2535411-1110110?ie=UTF8&qid=1500133180&sr=8-174&keywords=wall
p173
aVhttps://www.amazon.co.uk/iTemer-Advertising-Vintage-Personality-Ornament/dp/B06XC76JM6/ref=sr_1_175/262-2535411-1110110?ie=UTF8&qid=1500133180&sr=8-175&keywords=wall
p174
aVhttps://www.amazon.co.uk/Ronseal-MPRMF12VP-Multi-Purpose-Interior-Percent/dp/B0046QCZE8/ref=sr_1_176/262-2535411-1110110?ie=UTF8&qid=1500133180&sr=8-176&keywords=wall
p175
aVhttps://www.amazon.co.uk/Mpow-Security-Waterproof-Powered-Outdoor/dp/B00YWWQQU0/ref=sr_1_177/262-2535411-1110110?ie=UTF8&qid=1500133182&sr=8-177&keywords=wall
p176
aVhttps://www.amazon.co.uk/Another-Brick-Wall-Remastered-Version/dp/B005NNYNT8/ref=sr_1_178/262-2535411-1110110?ie=UTF8&qid=1500133182&sr=8-178&keywords=wall
p177
aVhttps://www.amazon.co.uk/d/Guitars-Gear/G-i-Mall-Bracket-Mounted-Mandolin-Ukulele/B01M0HO0N4/ref=sr_1_179/262-2535411-1110110?ie=UTF8&qid=1500133182&sr=8-179&keywords=wall
p178
aVhttps://www.amazon.co.uk/d/Clocks/Seiko-Wall-QXA450G/B008LCOSSO/ref=sr_1_180/262-2535411-1110110?ie=UTF8&qid=1500133182&sr=8-180&keywords=wall
p179
aVhttps://www.amazon.co.uk/dp/B01N75L6NI/ref=sr_1_181/262-2535411-1110110?ie=UTF8&qid=1500133182&sr=8-181&keywords=wall
p180
aVhttps://www.amazon.co.uk/Walls-Gateway-Worship/dp/B0173QHVVE/ref=sr_1_182/262-2535411-1110110?ie=UTF8&qid=1500133182&sr=8-182&keywords=wall
p181
aVhttps://www.amazon.co.uk/Brute-Force-OF439-Security-Anchor/dp/B00126FWT0/ref=sr_1_183/262-2535411-1110110?ie=UTF8&qid=1500133182&sr=8-183&keywords=wall
p182
aVhttps://www.amazon.co.uk/ZaleBox-Wall-Decorating-Ideas/dp/B00G6693BE/ref=sr_1_184/262-2535411-1110110?ie=UTF8&qid=1500133182&sr=8-184&keywords=wall
p183
aVhttps://www.amazon.co.uk/BabyDan-Mounting-Black-Pentagon-System/dp/B00HRC5T78/ref=sr_1_185_a_it/262-2535411-1110110?ie=UTF8&qid=1500133182&sr=8-185&keywords=wall
p184
aVhttps://www.amazon.co.uk/d/Cleaning-Scourers-Sponges/Magic-Eraser-Chemical-Free-Stain-Mark-Removal/B003QITQC6/ref=sr_1_186/262-2535411-1110110?ie=UTF8&qid=1500133182&sr=8-186&keywords=wall
p185
aVhttps://www.amazon.co.uk/d/Amazon-Video/Artys-Aquarium-Annies-Contraption/B01K07MTTW/ref=sr_1_187/262-2535411-1110110?ie=UTF8&qid=1500133182&sr=8-187&keywords=wall
p186
aVhttps://www.amazon.co.uk/d/DVD-Blu-ray/Over-Garden-Wall-Limited-Elijah-Wood/B01E76YPXA/ref=sr_1_188/262-2535411-1110110?ie=UTF8&qid=1500133182&sr=8-188&keywords=wall
p187
aVhttps://www.amazon.co.uk/Wall-Between-Jesper-Bugge-Kold-ebook/dp/B01B3NAUFC/ref=sr_1_189/262-2535411-1110110?ie=UTF8&qid=1500133182&sr=8-189&keywords=wall
p188
aVhttps://www.amazon.co.uk/Smetana-Devils-Wall-Bedrich/dp/B00008UEEY/ref=sr_1_190/262-2535411-1110110?ie=UTF8&qid=1500133182&sr=8-190&keywords=wall
p189
aVhttps://www.amazon.co.uk/NETGEAR-Nighthawk-Extender-Booster-EX7300-100UKS/dp/B019DBR0D6/ref=sr_1_191/262-2535411-1110110?ie=UTF8&qid=1500133182&sr=8-191&keywords=wall
p190
aVhttps://www.amazon.co.uk/Kapitan-Toothbrush-Bathroom-Stainless-Polished/dp/B01FC3NQ78/ref=sr_1_192/262-2535411-1110110?ie=UTF8&qid=1500133182&sr=8-192&keywords=wall
p191
aVhttps://www.amazon.co.uk/Gardman-48-inch-Heavy-Wrought-Trough/dp/B000NNERIK/ref=sr_1_193/262-2535411-1110110?ie=UTF8&qid=1500133185&sr=8-193&keywords=wall
p192
aVhttps://www.amazon.co.uk/Somewhere-Anywhere-VINYL-Mad-Walls/dp/B072MPK8ND/ref=sr_1_194/262-2535411-1110110?ie=UTF8&qid=1500133185&sr=8-194&keywords=wall
p193
aVhttps://www.amazon.co.uk/Zeagoo-Pockets-Hanging-Organizer-Storage/dp/B010UGVMMS/ref=sr_1_195/262-2535411-1110110?ie=UTF8&qid=1500133185&sr=8-195&keywords=wall
p194
aVhttps://www.amazon.co.uk/v1rtus-Glitter-Crystal-Additive-Emulsion/dp/B01N44B50N/ref=sr_1_196/262-2535411-1110110?ie=UTF8&qid=1500133185&sr=8-196&keywords=wall
p195
aVhttps://www.amazon.co.uk/Slade-Wall-Hits-VHS/dp/B00004CLQB/ref=sr_1_197/262-2535411-1110110?ie=UTF8&qid=1500133185&sr=8-197&keywords=wall
p196
aVhttps://www.amazon.co.uk/Collins-Colplan-2017-2018-Student-Planner/dp/B06XCS15KT/ref=sr_1_198/262-2535411-1110110?ie=UTF8&qid=1500133185&sr=8-198&keywords=wall
p197
aVhttps://www.amazon.co.uk/TV-Wall-Bracket-Panasonic-Accessories/dp/B00UC32FXA/ref=sr_1_199/262-2535411-1110110?ie=UTF8&qid=1500133185&sr=8-199&keywords=wall
p198
aVhttps://www.amazon.co.uk/AMGGLOBAL%C2%AE-Charger-Adapter-Compatible-Samsung/dp/B00YHQBA1Q/ref=sr_1_200/262-2535411-1110110?ie=UTF8&qid=1500133185&sr=8-200&keywords=wall
p199
aVhttps://www.amazon.co.uk/Spaire-Magnification-Double-sided-Magnigying-Extendable/dp/B01EFLCZ3Y/ref=sr_1_201_a_it/262-2535411-1110110?ie=UTF8&qid=1500133185&sr=8-201&keywords=wall
p200
aVhttps://www.amazon.co.uk/Bone-Hunter-James-Watson/dp/B06W5FKGVC/ref=sr_1_202/262-2535411-1110110?ie=UTF8&qid=1500133185&sr=8-202&keywords=wall
p201
aVhttps://www.amazon.co.uk/Off-Wall-Michael-Jackson/dp/B00BYEK43O/ref=sr_1_203/262-2535411-1110110?ie=UTF8&qid=1500133185&sr=8-203&keywords=wall
p202
aVhttps://www.amazon.co.uk/Patriots-Day-DVD-Melissa-Benoist/dp/B06X9CWYG9/ref=sr_1_204/262-2535411-1110110?ie=UTF8&qid=1500133185&sr=8-204&keywords=wall
p203
aVhttps://www.amazon.co.uk/Connect-410mm-inch-Wall-Fan/dp/B000NMBV1W/ref=sr_1_205/262-2535411-1110110?ie=UTF8&qid=1500133185&sr=8-205&keywords=wall
p204
aVhttps://www.amazon.co.uk/Wall-Sound-Very-Spector-1961-1966-x/dp/B005BV1PQ6/ref=sr_1_206/262-2535411-1110110?ie=UTF8&qid=1500133185&sr=8-206&keywords=wall
p205
aVhttps://www.amazon.co.uk/d/he7/EA-Wall-Street-Trader/B000L2DRTS/ref=sr_1_207/262-2535411-1110110?ie=UTF8&qid=1500133185&sr=8-207&keywords=wall
p206
aVhttps://www.amazon.co.uk/VWH-Womens-Clutch-Holder-Wallet/dp/B06XQCJ3VS/ref=sr_1_208/262-2535411-1110110?ie=UTF8&qid=1500133185&sr=8-208&keywords=wall
p207
aVhttps://www.amazon.co.uk/Outlet-Single-Faceplate-Brush-Cable/dp/B003IUHOQ2/ref=sr_1_209/262-2535411-1110110?ie=UTF8&qid=1500133187&sr=8-209&keywords=wall
p208
aVhttps://www.amazon.co.uk/d/Camping-Shelters/Coleman-204503-Event-Shelter-Wall-Door-Windows/B001P80GOQ/ref=sr_1_210/262-2535411-1110110?ie=UTF8&qid=1500133187&sr=8-210&keywords=wall
p209
aVhttps://www.amazon.co.uk/Stainless-Modern-Outdoor-Lantern-Sensor/dp/B01FTAAF96/ref=sr_1_211/262-2535411-1110110?ie=UTF8&qid=1500133187&sr=8-211&keywords=wall
p210
aVhttps://www.amazon.co.uk/dp/B0731H7L1L/ref=sr_1_212/262-2535411-1110110?ie=UTF8&qid=1500133187&sr=8-212&keywords=wall
p211
aVhttps://www.amazon.co.uk/Wall-Marlen-Haushofer/dp/0704373114/ref=sr_1_213/262-2535411-1110110?ie=UTF8&qid=1500133187&sr=8-213&keywords=wall
p212
aVhttps://www.amazon.co.uk/Assault-Wall-Street-Dominic-Purcell/dp/B00ISR4XLE/ref=sr_1_214/262-2535411-1110110?ie=UTF8&qid=1500133187&sr=8-214&keywords=wall
p213
aVhttps://www.amazon.co.uk/ADE-Wall-Mounted-Roll-Out-Tape-Measure/dp/B00LE76UDY/ref=sr_1_215_a_it/262-2535411-1110110?ie=UTF8&qid=1500133187&sr=8-215&keywords=wall
p214
aVhttps://www.amazon.co.uk/d/Dryer-Parts-Accessories/Outside-Wall-Vent-Hose-Cover-Tumble-Dryer/B004FQJ21I/ref=sr_1_216/262-2535411-1110110?ie=UTF8&qid=1500133187&sr=8-216&keywords=wall
p215
aVhttps://www.amazon.co.uk/Splink-Industrial-Adjustable-Restaurants-Decoration/dp/B01DG8P43U/ref=sr_1_219/262-2535411-1110110?ie=UTF8&qid=1500133187&sr=8-219&keywords=wall
p216
aVhttps://www.amazon.co.uk/Cream-Shaped-mounted-Jewellery-holder/dp/B006WAFIRC/ref=sr_1_220/262-2535411-1110110?ie=UTF8&qid=1500133187&sr=8-220&keywords=wall
p217
aVhttps://www.amazon.co.uk/dp/B073TVMBTB/ref=sr_1_221/262-2535411-1110110?ie=UTF8&qid=1500133187&sr=8-221&keywords=wall
p218
aVhttps://www.amazon.co.uk/iTemer-Advertising-Creative-Decoration-Ornaments/dp/B06WVBR3TT/ref=sr_1_222/262-2535411-1110110?ie=UTF8&qid=1500133187&sr=8-222&keywords=wall
p219
aVhttps://www.amazon.co.uk/LARGE-OUTDOOR-GARDEN-CLOCK-NUMERALS/dp/B01M7RYBVS/ref=sr_1_223/262-2535411-1110110?ie=UTF8&qid=1500133187&sr=8-223&keywords=wall
p220
aVhttps://www.amazon.co.uk/48pcs-sticker-Nursery-Children-Sticker/dp/B00O4H3VFQ/ref=sr_1_224/262-2535411-1110110?ie=UTF8&qid=1500133187&sr=8-224&keywords=wall
p221
aVhttps://www.amazon.co.uk/Cartoon-Network-Over-Garden-Region/dp/B0119RZ67O/ref=sr_1_225/262-2535411-1110110?ie=UTF8&qid=1500133187&sr=8-225&keywords=wall
p222
aVhttps://www.amazon.co.uk/Walls-Petty-Tom/dp/B000005S5J/ref=sr_1_226/262-2535411-1110110?ie=UTF8&qid=1500133187&sr=8-226&keywords=wall
p223
aVhttps://www.amazon.co.uk/d/Digital-Music/Another-Brick-Wall-2001-Remastered-Version/B00KRDQS74/ref=sr_1_225/262-2535411-1110110?ie=UTF8&qid=1500133190&sr=8-225&keywords=wall
p224
aVhttps://www.amazon.co.uk/Walls-Petty-Tom/dp/B000005S5J/ref=sr_1_226/262-2535411-1110110?ie=UTF8&qid=1500133190&sr=8-226&keywords=wall
p225
aVhttps://www.amazon.co.uk/GUITAR-DISPLAY-BRACKET-WALL-MOUNTED/dp/B003GSPA8A/ref=sr_1_227/262-2535411-1110110?ie=UTF8&qid=1500133190&sr=8-227&keywords=wall
p226
aVhttps://www.amazon.co.uk/d/Mens-Clothing/Vans-Full-Patch-Snapbac-Black-true-black/B00CBXANPG/ref=sr_1_228/262-2535411-1110110?ie=UTF8&qid=1500133190&sr=8-228&keywords=wall
p227
aVhttps://www.amazon.co.uk/d/DIY-Tools/Ronseal-Drying-Smooth-Purpose-Interior/B0046QBRQA/ref=sr_1_229/262-2535411-1110110?ie=UTF8&qid=1500133190&sr=8-229&keywords=wall
p228
aVhttps://www.amazon.co.uk/HuaYang-Heart-Stickers-Decals-Family/dp/B00N7F3RBO/ref=sr_1_230/262-2535411-1110110?ie=UTF8&qid=1500133190&sr=8-230&keywords=wall
p229
aVhttps://www.amazon.co.uk/Mesh-literature-holder-compartments-Black/dp/B00GLSAA1E/ref=sr_1_231/262-2535411-1110110?ie=UTF8&qid=1500133190&sr=8-231&keywords=wall
p230
aVhttps://www.amazon.co.uk/Yousave-Accessories-Compact-Bracket-Televisions/dp/B00O32BOU6/ref=sr_1_232/262-2535411-1110110?ie=UTF8&qid=1500133190&sr=8-232&keywords=wall
p231
aVhttps://www.amazon.co.uk/d/DVD-Blu-ray/Within-Walls-1-Complete-1974-Googie-Withers/B001LOTXYS/ref=sr_1_235/262-2535411-1110110?ie=UTF8&qid=1500133190&sr=8-235&keywords=wall
p232
aVhttps://www.amazon.co.uk/dp/B01M6Y0IZR/ref=sr_1_236/262-2535411-1110110?ie=UTF8&qid=1500133190&sr=8-236&keywords=wall
p233
aVhttps://www.amazon.co.uk/Fintie-Holder-Amazon-All-New-Generation/dp/B071YC1KWC/ref=sr_1_237/262-2535411-1110110?ie=UTF8&qid=1500133190&sr=8-237&keywords=wall
p234
aVhttps://www.amazon.co.uk/dp/B01MR2E0JU/ref=sr_1_238/262-2535411-1110110?ie=UTF8&qid=1500133190&sr=8-238&keywords=wall
p235
aVhttps://www.amazon.co.uk/dp/B073WJZ6PN/ref=sr_1_239/262-2535411-1110110?ie=UTF8&qid=1500133190&sr=8-239&keywords=wall
p236
aVhttps://www.amazon.co.uk/FreshDigitalGroup-Wizards-Fan/dp/B06XH3NXV9/ref=sr_1_240/262-2535411-1110110?ie=UTF8&qid=1500133190&sr=8-240&keywords=wall
p237
aVhttps://www.amazon.co.uk/Organic-Chlorella-Pyrenoidosa-Powder-500g/dp/B00KIZEGMU/ref=sr_1_241_a_it/262-2535411-1110110?ie=UTF8&qid=1500133190&sr=8-241&keywords=wall
p238
aVhttps://www.amazon.co.uk/IKEA-KVART-clamp-spotlight-black/dp/B00GMM9TZW/ref=sr_1_242/262-2535411-1110110?ie=UTF8&qid=1500133190&sr=8-242&keywords=wall
p239
aVhttps://www.amazon.co.uk/d/qvf/Ahaccw-Cute-Vinyl-Swith-Sticker-Childrens-Bedroom/B012DOAY0Q/ref=sr_1_241/262-2535411-1110110?ie=UTF8&qid=1500133193&sr=8-241&keywords=wall
p240
aVhttps://www.amazon.co.uk/IKEA-KVART-clamp-spotlight-black/dp/B00GMM9TZW/ref=sr_1_242/262-2535411-1110110?ie=UTF8&qid=1500133193&sr=8-242&keywords=wall
p241
aVhttps://www.amazon.co.uk/Great-Wall-Blu-ray-Cinemas-Now/dp/B0713QHZCX/ref=sr_1_243/262-2535411-1110110?ie=UTF8&qid=1500133193&sr=8-243&keywords=wall
p242
aVhttps://www.amazon.co.uk/Pink-Floyd-T-Shirt-X-Large-White/dp/B01MUD5T3U/ref=sr_1_244/262-2535411-1110110?ie=UTF8&qid=1500133193&sr=8-244&keywords=wall
p243
aVhttps://www.amazon.co.uk/Mondaine-Quartz-Analogue-Display-A990-CLOCK-11SBC/dp/B0016QNNP6/ref=sr_1_245/262-2535411-1110110?ie=UTF8&qid=1500133193&sr=8-245&keywords=wall
p244
aVhttps://www.amazon.co.uk/corsica-wall-basket-25cm-mint/dp/B00GHDOP6E/ref=sr_1_246/262-2535411-1110110?ie=UTF8&qid=1500133193&sr=8-246&keywords=wall
p245
aVhttps://www.amazon.co.uk/d/5hp/Vintage-Industrial-Sconce-Fixtures-Perfect-Kitchen-included/B0177XVCZ4/ref=sr_1_247/262-2535411-1110110?ie=UTF8&qid=1500133193&sr=8-247&keywords=wall
p246
aVhttps://www.amazon.co.uk/99-Homes-Andrew-Garfield/dp/B016N2CSJE/ref=sr_1_248/262-2535411-1110110?ie=UTF8&qid=1500133193&sr=8-248&keywords=wall
p247
aVhttps://www.amazon.co.uk/Plate-Socket-Ethernet-Assemble-Faceplate/dp/B00C5XZSZ2/ref=sr_1_250/262-2535411-1110110?ie=UTF8&qid=1500133193&sr=8-250&keywords=wall
p248
aVhttps://www.amazon.co.uk/d/Digital-Music/Bridges-Lennon-Plastic-Nuclear-Little-Philharmanic-Orchestrange/B0042YNDYU/ref=sr_1_251/262-2535411-1110110?ie=UTF8&qid=1500133193&sr=8-251&keywords=wall
p249
aVhttps://www.amazon.co.uk/Bath-Sealing-Strip-3-35m-SupaDec/dp/B00Y3PIHA8/ref=sr_1_252/262-2535411-1110110?ie=UTF8&qid=1500133193&sr=8-252&keywords=wall
p250
aVhttps://www.amazon.co.uk/Juliana-Contemporary-Metal-Sculpture-Butterfly/dp/B0085DY8WA/ref=sr_1_253/262-2535411-1110110?ie=UTF8&qid=1500133193&sr=8-253&keywords=wall
p251
aVhttps://www.amazon.co.uk/Professional-Hairdressers-Wall-Mounted-Dryer-Holder/dp/B00PX6XQE8/ref=sr_1_254_a_it/262-2535411-1110110?ie=UTF8&qid=1500133193&sr=8-254&keywords=wall
p252
aVhttps://www.amazon.co.uk/Snoogg-Street-Ethnic-Closure-Shoulder/dp/B01MV7GN3N/ref=sr_1_255/262-2535411-1110110?ie=UTF8&qid=1500133193&sr=8-255&keywords=wall
p253
aVhttps://www.amazon.co.uk/Wall-Romes-Greatest-Frontier-Complete/dp/B001CMV1G2/ref=sr_1_256/262-2535411-1110110?ie=UTF8&qid=1500133193&sr=8-256&keywords=wall
p254
aVhttps://www.amazon.co.uk/GRIDWALL-GRID-CHROME-DISPLAY-PANEL/dp/B018R8BNRA/ref=sr_1_257/262-2535411-1110110?ie=UTF8&qid=1500133193&sr=8-257&keywords=wall
p255
aVhttps://www.amazon.co.uk/d/Digital-Music/Bridges-Lennon-Plastic-Nuclear-Little-Philharmanic-Orchestrange/B0042YNDYU/ref=sr_1_257/262-2535411-1110110?ie=UTF8&qid=1500133195&sr=8-257&keywords=wall
p256
aVhttps://www.amazon.co.uk/Handel-Elizabeth-Mendelssohn-Symphony-Orchestra/dp/B01LYN9QMW/ref=sr_1_258/262-2535411-1110110?ie=UTF8&qid=1500133195&sr=8-258&keywords=wall
p257
aVhttps://www.amazon.co.uk/Stork-Child-Care-Furniture-Straps/dp/B00QQPRNTO/ref=sr_1_259_a_it/262-2535411-1110110?ie=UTF8&qid=1500133195&sr=8-259&keywords=wall
p258
aVhttps://www.amazon.co.uk/Snoogg-Street-Ethnic-Closure-Shoulder/dp/B01MV7GN3N/ref=sr_1_260/262-2535411-1110110?ie=UTF8&qid=1500133195&sr=8-260&keywords=wall
p259
aVhttps://www.amazon.co.uk/Bathroom-Self-adhesive-Removeable-Ungfu-Mall/dp/B01KVAZ2AQ/ref=sr_1_261/262-2535411-1110110?ie=UTF8&qid=1500133195&sr=8-261&keywords=wall
p260
aVhttps://www.amazon.co.uk/Beyond-Wall-Rob-Dennis/dp/B01IX0JETQ/ref=sr_1_262/262-2535411-1110110?ie=UTF8&qid=1500133195&sr=8-262&keywords=wall
p261
aVhttps://www.amazon.co.uk/Cats-Scaredy-Mouse-Sticker-Decal/dp/B01M11MR0C/ref=sr_1_263/262-2535411-1110110?ie=UTF8&qid=1500133195&sr=8-263&keywords=wall
p262
aVhttps://www.amazon.co.uk/Collins-Colplan-2018-Yearly-Planner/dp/B06XD2CBY9/ref=sr_1_264/262-2535411-1110110?ie=UTF8&qid=1500133195&sr=8-264&keywords=wall
p263
aVhttps://www.amazon.co.uk/Fallen-Fruits-Bird-Feeder-Bracket/dp/B004MF2VLU/ref=sr_1_265/262-2535411-1110110?ie=UTF8&qid=1500133195&sr=8-265&keywords=wall
p264
aVhttps://www.amazon.co.uk/VonHaus-Bracket-Built-Spirit-Televisions/dp/B003U46SWC/ref=sr_1_266/262-2535411-1110110?ie=UTF8&qid=1500133195&sr=8-266&keywords=wall
p265
aVhttps://www.amazon.co.uk/WALL-LIVE-BERLIN-ED-ESPECIAL/dp/B000I0QG8W/ref=sr_1_267/262-2535411-1110110?ie=UTF8&qid=1500133195&sr=8-267&keywords=wall
p266
aVhttps://www.amazon.co.uk/d/ek2/iDealhere-Mounted-Bottle-Catcher-Mountable-Opener-Bronze/B01A0ENQMY/ref=sr_1_268/262-2535411-1110110?ie=UTF8&qid=1500133195&sr=8-268&keywords=wall
p267
aVhttps://www.amazon.co.uk/Charm-Buddy-moment-beyond-Sticker/dp/B00IINTE9Y/ref=sr_1_269/262-2535411-1110110?ie=UTF8&qid=1500133195&sr=8-269&keywords=wall
p268
aVhttps://www.amazon.co.uk/dp/B01NBHUEGH/ref=sr_1_270/262-2535411-1110110?ie=UTF8&qid=1500133195&sr=8-270&keywords=wall
p269
aVhttps://www.amazon.co.uk/Deckey-deckey-Lampara-HR1102-1/dp/B01IDF4AV8/ref=sr_1_271/262-2535411-1110110?ie=UTF8&qid=1500133195&sr=8-271&keywords=wall
p270
aVhttps://www.amazon.co.uk/Homdox-Folding-Microwave-Mounted-Bracket/dp/B071WK19D8/ref=sr_1_272/262-2535411-1110110?ie=UTF8&qid=1500133195&sr=8-272&keywords=wall
p271
aVhttps://www.amazon.co.uk/Display-Bracket-Mounted-Electric-Acoustic/dp/B01MSWD3MC/ref=sr_1_273/262-2535411-1110110?ie=UTF8&qid=1500133198&sr=8-273&keywords=wall
p272
aVhttps://www.amazon.co.uk/Song-Bernadette-VHS-William-Eythe/dp/B00004CK1O/ref=sr_1_274/262-2535411-1110110?ie=UTF8&qid=1500133198&sr=8-274&keywords=wall
p273
aVhttps://www.amazon.co.uk/Albeey-Womens-animal-Wallet-Handbag/dp/B073RD5B1F/ref=sr_1_275/262-2535411-1110110?ie=UTF8&qid=1500133198&sr=8-275&keywords=wall
p274
aVhttps://www.amazon.co.uk/Aerials-Satellites-Cables-single-brush-x/dp/B00OB8ORLA/ref=sr_1_276/262-2535411-1110110?ie=UTF8&qid=1500133198&sr=8-276&keywords=wall
p275
aVhttps://www.amazon.co.uk/Against-Wall-DVD-Kyle-MacLachlan/dp/B000063VBQ/ref=sr_1_277/262-2535411-1110110?ie=UTF8&qid=1500133198&sr=8-277&keywords=wall
p276
aVhttps://www.amazon.co.uk/All-Four-Walls-feat-Vaults/dp/B01CTN75Q2/ref=sr_1_278/262-2535411-1110110?ie=UTF8&qid=1500133198&sr=8-278&keywords=wall
p277
aVhttps://www.amazon.co.uk/d/Apps-Games/Busythings-Ltd-Falling-Wall/B00ES48JBG/ref=sr_1_279/262-2535411-1110110?ie=UTF8&qid=1500133198&sr=8-279&keywords=wall
p278
aVhttps://www.amazon.co.uk/Secure-Brute-Ground-Anchor-Motorcycles/dp/B003UAF92G/ref=sr_1_280/262-2535411-1110110?ie=UTF8&qid=1500133198&sr=8-280&keywords=wall
p279
aVhttps://www.amazon.co.uk/Memory-Wall-Anthony-Doerr/dp/0007367724/ref=sr_1_281/262-2535411-1110110?ie=UTF8&qid=1500133198&sr=8-281&keywords=wall
p280
aVhttps://www.amazon.co.uk/d/Security-Firewalls/Symantec-Norton-Personal-Firewall-2002/B00005OB54/ref=sr_1_282/262-2535411-1110110?ie=UTF8&qid=1500133198&sr=8-282&keywords=wall
p281
aVhttps://www.amazon.co.uk/E-cloth-Flexi-Floor-Duster-Replacement/dp/B00LEP7VNE/ref=sr_1_283/262-2535411-1110110?ie=UTF8&qid=1500133198&sr=8-283&keywords=wall
p282
aVhttps://www.amazon.co.uk/Other-Side-Wall-Gripping-Psychological-ebook/dp/B072J3DQWJ/ref=sr_1_284/262-2535411-1110110?ie=UTF8&qid=1500133198&sr=8-284&keywords=wall
p283
aVhttps://www.amazon.co.uk/Walls-Horse/dp/B004R1VY1C/ref=sr_1_285/262-2535411-1110110?ie=UTF8&qid=1500133198&sr=8-285&keywords=wall
p284
aVhttps://www.amazon.co.uk/d/DVD-Blu-ray/Within-Walls-2-Complete-1975-Jerome-Willis/B001LOTXZ2/ref=sr_1_286/262-2535411-1110110?ie=UTF8&qid=1500133198&sr=8-286&keywords=wall
p285
aVhttps://www.amazon.co.uk/Ibera-Bicycle-Horizontal-Adjustable-Storage/dp/B00MJCSBJ4/ref=sr_1_287/262-2535411-1110110?ie=UTF8&qid=1500133198&sr=8-287&keywords=wall
p286
aVhttps://www.amazon.co.uk/Big-Stan-Rob-Schneider/dp/B011DD4QCA/ref=sr_1_288/262-2535411-1110110?ie=UTF8&qid=1500133198&sr=8-288&keywords=wall
p287
aVhttps://www.amazon.co.uk/Valera-ACTION-SUPER-Mounted-Hairdryer/dp/B005COYZPU/ref=sr_1_289_a_it/262-2535411-1110110?ie=UTF8&qid=1500133200&sr=8-289&keywords=wall
p288
aVhttps://www.amazon.co.uk/Safety-Protector-ECOTRONIK-Toddlers-Pressure/dp/B06WVL2BH3/ref=sr_1_290_a_it/262-2535411-1110110?ie=UTF8&qid=1500133200&sr=8-290&keywords=wall
p289
aVhttps://www.amazon.co.uk/Decowall-DW-1202-Branch-Nursery-Stickers/dp/B002ZVI5KO/ref=sr_1_291/262-2535411-1110110?ie=UTF8&qid=1500133200&sr=8-291&keywords=wall
p290
aVhttps://www.amazon.co.uk/Large-Academic-Planner-Calendar-Stickers/dp/B00UBU5H5M/ref=sr_1_292/262-2535411-1110110?ie=UTF8&qid=1500133200&sr=8-292&keywords=wall
p291
aVhttps://www.amazon.co.uk/BPS-Bracket-Samsung-Capacity-included/dp/B00GBVC672/ref=sr_1_293/262-2535411-1110110?ie=UTF8&qid=1500133200&sr=8-293&keywords=wall
p292
aVhttps://www.amazon.co.uk/Pathson-Industrial-Vintage-Fixture-Brushed/dp/B01NA69E6J/ref=sr_1_294/262-2535411-1110110?ie=UTF8&qid=1500133200&sr=8-294&keywords=wall
p293
aVhttps://www.amazon.co.uk/Mesh-literature-holder-compartments-Silver/dp/B00GLS8E1M/ref=sr_1_295/262-2535411-1110110?ie=UTF8&qid=1500133200&sr=8-295&keywords=wall
p294
aVhttps://www.amazon.co.uk/FORSPARK-Adhesive-Wall-Hook-Transparent/dp/B06Y63D6NS/ref=sr_1_296/262-2535411-1110110?ie=UTF8&qid=1500133200&sr=8-296&keywords=wall
p295
aVhttps://www.amazon.co.uk/WALL-2015/dp/B019E5JVZG/ref=sr_1_297/262-2535411-1110110?ie=UTF8&qid=1500133200&sr=8-297&keywords=wall
p296
aVhttps://www.amazon.co.uk/Logilink-HDMI-1-Port-Socket-Adapter-x/dp/B0076R9CBI/ref=sr_1_298/262-2535411-1110110?ie=UTF8&qid=1500133200&sr=8-298&keywords=wall
p297
aVhttps://www.amazon.co.uk/Stainless-Single-Outdoor-Garden-Downlight/dp/B01EIA9JW2/ref=sr_1_299/262-2535411-1110110?ie=UTF8&qid=1500133200&sr=8-299&keywords=wall
p298
aVhttps://www.amazon.co.uk/Bluelans-Painting-Flower-Cushion-Decorative/dp/B01MQU61UN/ref=sr_1_300/262-2535411-1110110?ie=UTF8&qid=1500133200&sr=8-300&keywords=wall
p299
aVhttps://www.amazon.co.uk/Walls-Field-Harmonics/dp/B00DJB13D0/ref=sr_1_301/262-2535411-1110110?ie=UTF8&qid=1500133200&sr=8-301&keywords=wall
p300
aVhttps://www.amazon.co.uk/d/Home-Kitchen/VegTrug-VTWHSN0381-1m-Small-Wall-Hugger-Natural/B019MM4J9Y/ref=sr_1_302/262-2535411-1110110?ie=UTF8&qid=1500133200&sr=8-302&keywords=wall
p301
aVhttps://www.amazon.co.uk/Imaginary-Appalachia-Colter-Wall/dp/B06XB9F6T3/ref=sr_1_303/262-2535411-1110110?ie=UTF8&qid=1500133200&sr=8-303&keywords=wall
p302
aVhttps://www.amazon.co.uk/dp/B01MSIAKA3/ref=sr_1_304/262-2535411-1110110?ie=UTF8&qid=1500133200&sr=8-304&keywords=wall
p303
aVhttps://www.amazon.co.uk/Mesh-literature-holder-compartments-Silver/dp/B00GLS8E1M/ref=sr_1_305/262-2535411-1110110?ie=UTF8&qid=1500133202&sr=8-305&keywords=wall
p304
aVhttps://www.amazon.co.uk/dp/B06XCD4W74/ref=sr_1_306/262-2535411-1110110?ie=UTF8&qid=1500133202&sr=8-306&keywords=wall
p305
a.