(lp1
Vhttp://www.ebay.com/itm/Angela-Womens-Summer-Holiday-Anti-Crease-Beach-Short-Knee-Length-Casual-Dress-/252566804214?var=&epid=1780665272&hash=item3ace2796f6:m:movJHH1AS7xXIwkqgnKn2xA
p2
aVhttp://www.ebay.com/itm/Cheap-Sale-Short-Angela-Strapless-Dress-Bandeau-Everyday-Summer-Sun-Holiday-/262577572786?var=&epid=1780665272&hash=item3d22d7cbb2:m:m-CzkUBJXc7eGcBbT6PnGxA
p3
aVhttp://www.ebay.com/itm/Colour-Venus-Beauty-Hairdressing-SPA-Nail-Salon-Therapist-Massage-Tunic-Uniform-/131819910154?var=&hash=item1eb114340a:m:mnKDBdBTwRHk6MYGGeo7hGQ
p4
aVhttp://www.ebay.com/itm/Venus-Beauty-Hairdressing-SPA-Nail-Salon-Therapist-Massage-Tunic-Uniform-/131819910152?var=&hash=item1eb1143408:m:muh3K4it6wxcu_ZPKS66GRg
p5
aVhttp://www.ebay.com/itm/sexy-Madchen-Sailor-Moon-Venus-Uranus-Kostum-Cosplay-Outfit-Kawaii-Fancy-Dress-/272191438953?var=&hash=item3f5fdfc069:m:mzODTiVIjDUAsTRRgY4Q8nQ
p6
aVhttp://www.ebay.com/itm/Womens-Plum-Tree-Venus-Short-Sleeve-Button-Ladies-Knitted-Cardigan-Size-10-18-/322044043846?var=&epid=1961676158&hash=item4afb522246:m:mhuAapxXH61Y-3OqP2oc6fw
p7
aVhttp://www.ebay.com/itm/Famous-Painting-Socks-Starry-Night-The-Scream-Venus-Great-Waves-and-More-39-45-/262179860231?var=&hash=item3d0b232f07:m:m9X46KjYnrTZukA04LyBtdw
p8
aVhttp://www.ebay.com/itm/Pepe-Jeans-Venus-Denim-Womens-Ladies-/201477436450?var=&hash=item2ee8fdb422:m:m-hQQCfz52FBUxmJX3REaWA
p9
aVhttp://www.ebay.com/itm/Woke-Up-Like-This-Venus-T-shirt-Flawless-Instagram-Tee-Indie-Retro-Funny-Top-/111802432445?var=&hash=item1a07f1bbbd:m:mh60-1YaRlUMMw3W_YKT2WQ
p10
aVhttp://www.ebay.com/itm/Triumph-Venus-TPD-12-Black-0004-42C-/400942386371?epid=1246536849&hash=item5d5a074cc3:g:~hoAAOSwMmBVhvsQ
p11
aVhttp://www.ebay.com/itm/UK-Sailormoon-Sailor-Moon-Crystal-20th-anniversary-Cosplay-Costume-Ankle-Socks-/121671835408?var=&hash=item1c5434df10:m:mkOlrXSQJ_ap8T58JPS9Rfg
p12
aVhttp://www.ebay.com/itm/Venus-Gatta-Suspender-Sheer-Stockings-with-Sensuous-LaceTop-20-Denier-/131177352706?var=&hash=item1e8ac78e02:m:mvWncmKzYuP84QVJ8g0HjQA
p13
aVhttp://www.ebay.com/itm/New-Berlei-Lingerie-Venus-High-Waist-Full-Brief-4853-Black-Pink-VARIOUS-SIZES-/190920113867?var=&hash=item2c73b9becb:m:m8Eet5LsvG8uWrsJ_NAq7WA
p14
aVhttp://www.ebay.com/itm/VENUS-SYMBOLS-IRON-ON-T-SHIRT-TRANSFER-LESBIAN-PRIDE-/390591704984?var=&hash=item5af1146f98:m:my8gR1O0ZQmM4KYCr-12oWA
p15
aVhttp://www.ebay.com/itm/Panache-Corset-3417-Venus-Basque-in-IVORY-/140574476046?var=&hash=item20bae4470e:m:mnWmwX_Ckl2Fe9YUV38sbqQ
p16
aVhttp://www.ebay.com/itm/Panache-Corset-3417-Venus-Basque-in-BLACK-/140574470731?var=&hash=item20bae4324b:m:mkgLUMFKUKeLbCRdNj7f7jw
p17
aVhttp://www.ebay.com/itm/Panache-Venus-Balconnet-Bra-3411-Ivory-black-/170493973744?var=&epid=1454159716&hash=item27b23b94f0:m:mU5inlzw-sAZb5l-xrHJJHQ
p18
a.