(lp1
Vhttp://www.ebay.com/itm/My-Crimbo-Planner-Christmas-organiser-christmas-organizer-thanksgiving-A5-/122144977739?var=&hash=item1c7068734b:m:mojp2zhnRaLRu0kGvgM4ZdQ
p2
aVhttp://www.ebay.com/itm/USA-FLAG-PENNANT-BUNTING-BANNER-Independence-Day-Thanksgiving-American-Party-057-/231932182156?epid=1338450815&hash=item36003c3e8c:g:yy0AAOSwLs5XKLVF
p3
aVhttp://www.ebay.com/itm/Fancy-Dress-Christmas-Thanksgiving-Turkey-Xmas-Fun-Costume-/201704806206?hash=item2ef68b173e:g:UawAAOSwA3dYF41y
p4
aVhttp://www.ebay.com/itm/USA-FLAG-PENNANT-BUNTING-BANNER-Independence-Day-Thanksgiving-American-Party-057-/231932182156?epid=1338450815&hash=item36003c3e8c:g:yy0AAOSwLs5XKLVF
p5
aVhttp://www.ebay.com/itm/2-x-LED-lit-Halloween-Pumpkin-Scene-Canvas-Picture-Wall-Decorations-Thanksgiving-/401201246747?epid=1091060398&hash=item5d6975321b:g:OMkAAOSwNRdX9ee5
p6
aVhttp://www.ebay.com/itm/FUNNY-NOVELTY-FUN-TURKEY-BIRD-THANKSGIVING-CHRISTMAS-XMAS-PARTY-HAT-WITH-LEGS-BN-/352016454671?epid=894961956&hash=item51f5d0d40f:g:4I4AAOSw0vBUZd7p
p7
aVhttp://www.ebay.com/itm/THANKSGIVING-PIE-SMURFETTE-SMURF-VINTAGE-by-SCHLEICH-FROM-THE-SMURFS-20196-/170971923720?hash=item27ceb88508:g:pEEAAOxynYpST8Qf
p8
aVhttp://www.ebay.com/itm/24K-Gold-Rose-Dipped-Foil-Floral-Thanksgiving-Valentines-Day-Mother-Day-Gift-UK-/262975499754?var=&hash=item3d3a8fadea:m:mK3gozYYjbosQOx9qH6mYPQ
p9
aVhttp://www.ebay.com/itm/USA-Eye-Mask-Thanksgiving-Stars-Stripes-American-Flag-Independence-Masked-Ball-/281832297327?epid=1823165993&hash=item419e83936f:g:fOgAAOSwe7BWu8Kd
p10
aVhttp://www.ebay.com/itm/Autumn-Maple-Leaf-Decorations-Choose-Artificial-Fall-Thanksgiving-Leaves-/282146812083?var=&hash=item41b142b0b3:m:mwU5KQF2PhLxwfFewYPuD0w
p11
aVhttp://www.ebay.com/itm/ADULT-GIANT-TURKEY-COSTUME-Funny-Christmas-Thanksgiving-Fancy-Dress-Outfit-4576-/232139693286?epid=1634550031&hash=item360c9a9ce6:g:j3gAAOSwal5YJH8y
p12
aVhttp://www.ebay.com/itm/Manchester-United-Gift-Souvenir-Present-Christmas-Thanksgiving-Black-Friday-/282270234641?var=&epid=1830286562&hash=item41b89df811:m:muQrPlfWL7pCmvfTHceHL2Q
p13
aVhttp://www.ebay.com/itm/THANKSGIVING-PIE-SMURFETTE-SMURF-VINTAGE-by-SCHLEICH-FROM-THE-SMURFS-20196-/170971923720?hash=item27ceb88508:g:pEEAAOxynYpST8Qf
p14
aVhttp://www.ebay.com/itm/VINTAGE-THANKSGIVING-POSTCARDS-60-all-different-A6-ART-CARD-REPRODUCTIONS-/221642181384?epid=855419170&hash=item339ae74b08:g:PtMAAOSwkNZUmDZE
p15
aVhttp://www.ebay.com/itm/Thanksgiving-Card-Personalised-Happy-Thanksgiving-Card-Wife-Husband-Boyfriend-/122130706170?hash=item1c6f8eaefa:g:ot8AAOSwLF1X17Fn
p16
aVhttp://www.ebay.com/itm/1-25mm-PORCELAIN-CHINA-BUTTON-THANKSGIVING-TURKEY-/371191977622?epid=1931383815&hash=item566cc41696:g:opIAAMXQQQZRzpzd
p17
aVhttp://www.ebay.com/itm/4TH-JULY-Independence-CONFETTI-Table-Decoration-Star-USA-Flag-Thanksgiving-/282549982653?hash=item41c94a95bd:g:2CcAAOSwvg9XaDlU
p18
aVhttp://www.ebay.com/itm/Louisa-Harding-Amitola-Grande-shade-521-Thanksgiving-100g-balls-/401188887043?hash=item5d68b89a03:g:-~kAAOSwuxFYwoUz
p19
aVhttp://www.ebay.com/itm/Deguisement-Noel-Dinde-De-Thanksgiving-Noel-Amusant-Costume-/401220168308?hash=item5d6a95ea74:g:UawAAOSwA3dYF41y
p20
aVhttp://www.ebay.com/itm/Deguisement-Noel-Dinde-De-Thanksgiving-Noel-Amusant-Costume-/401220168308?hash=item5d6a95ea74:g:UawAAOSwA3dYF41y
p21
aVhttp://www.ebay.com/itm/Louisa-Harding-Amitola-Grande-shade-521-Thanksgiving-100g-balls-/401188887043?hash=item5d68b89a03:g:-~kAAOSwuxFYwoUz
p22
aVhttp://www.ebay.com/itm/TURKEY-HAT-CHRISTMAS-THANKSGIVING-FANCY-DRESS-ROOSTER-NOVELTY-ANIMAL-XMAS-GIFT-/191744759297?var=&hash=item2ca4e0d601:m:md420sE08LXdrF88V17DurQ
p23
aVhttp://www.ebay.com/itm/Libbys-100-Pure-Pumpkin-Pie-Filling-425-g-Pack-of-3-Halloween-Thanksgiving-/252721242888?hash=item3ad75c2308:g:~-AAAOSw4A5YtCL0
p24
a.