(lp1
Vhttp://www.ebay.com/itm/Wham-Fantastic-CD-NEW-/401219915633?hash=item5d6a920f71:g:3XgAAOSwo4pYHJfx
p2
aVhttp://www.ebay.com/itm/Wham-The-Final-2011-The-Ultimate-Wham-Collection-CD-NEW-SPEEDYPOST-/232189646990?epid=110821758&hash=item360f94d88e:m:m9rPJe4osRl5iLZjxjl52JA
p3
aVhttp://www.ebay.com/itm/The-Best-of-Wham-Wham-Album-CD-/292057764026?epid=1004984114&hash=item43ffffd0ba:g:YeAAAOSwdGFYyr8-
p4
aVhttp://www.ebay.com/itm/DMC-Wham-and-George-Michael-Vol-3-Megamixes-2-Trackers-Mixes-Remixes-DJ-CD-/352075564171?epid=932221809&hash=item51f956c48b:g:WxoAAOSw42dZME6D
p5
aVhttp://www.ebay.com/itm/DMC-Classic-Mixes-I-Love-The-80s-Vol-2-Music-CD-ft-Wham-Re-Whamed-Megamix-/351666551108?epid=912291249&hash=item51e0f5b944:g:L34AAOSwx-9W1Ugr
p6
aVhttp://www.ebay.com/itm/The-Final-Wham-Special-Album-with-DVD-CD-/281933926825?epid=1805017189&hash=item41a49251a9:g:G7oAAOSwuAVWvdji
p7
aVhttp://www.ebay.com/itm/Wham-The-Best-Of-Wham-inc-Im-Your-Man-Club-Tropicana-Wake-Me-NEW-CD-/311773951632?epid=1004984114&hash=item48972cf690:g:Pw8AAOSwnHZYbiom
p8
aVhttp://www.ebay.com/itm/George-Michael-Twenty-Five-2-x-CD-Best-Of-NEW-SEALED-Wham-/401254970426?epid=59418474&hash=item5d6ca8f43a:g:RU8AAOSw44BYbsFY
p9
aVhttp://www.ebay.com/itm/DMC-Wham-and-George-Michael-Vol-2-Megamixes-2-Trackers-Mixes-Remixes-DJ-CD-/351851900504?epid=1886658751&hash=item51ec01ee58:g:X4IAAOSw8w1X5mr7
p10
aVhttp://www.ebay.com/itm/Original-Album-Classics-Wham-Album-CD-/292057713078?epid=1837513814&hash=item43ffff09b6:g:FUIAAOSwsW9Yyq6q
p11
aVhttp://www.ebay.com/itm/DMC-Wham-and-George-Michael-Vol-1-Megamixes-2-Trackers-Mixes-Remixes-DJ-CD-/351851893312?epid=1286786522&hash=item51ec01d240:g:k7MAAOSwmfhX5mkN
p12
aVhttp://www.ebay.com/itm/WHAM-MUSIC-FROM-THE-EDGE-OF-HEAVEN-CD-sealed-/162361469336?epid=1705452601&hash=item25cd7f6998:g:eUcAAOSwAvJW~794
p13
aVhttp://www.ebay.com/itm/The-Final-Wham-Album-CD-/272512522097?epid=1904189227&hash=item3f73031771:g:wlgAAOSwUKxYb8TE
p14
aVhttp://www.ebay.com/itm/WHAM-GEORGE-MICHAEL-THE-BEST-OF-IF-YOU-WERE-THERE-CD-YOUNG-GUNS-CLUB-TROPICANA-/352016243848?epid=4024527&hash=item51f5cd9c88:g:j2IAAOSwmgJY2hJ1
p15
aVhttp://www.ebay.com/itm/Wham-Original-Album-Classics-Fantastic-Make-It-Big-Edge-Of-Hea-NEW-CD-/391097623580?epid=1837513814&hash=item5b0f3c241c:g:8Z0AAOSwNSxVFst-
p16
aVhttp://www.ebay.com/itm/Wham-The-Final-25th-Anniversary-Edition-Greatest-Hits-Best-Of-CD-NEW-/132136636678?epid=1904189227&hash=item1ec3f51106:g:1TMAAOSwo4pYjJ0X
p17
aVhttp://www.ebay.com/itm/WHAM-MAKE-IT-BIG-CD-New-Sealed-IN-STOCK-/162339439892?epid=1905023979&hash=item25cc2f4514:g:irkAAOSwUKxYZqZ4
p18
aVhttp://www.ebay.com/itm/Wham-The-Final-CD-NEU-/352028307299?epid=152781492&hash=item51f685af63:g:XWgAAOSw~CFY7Smt
p19
aVhttp://www.ebay.com/itm/Wham-Final-NEW-CD-/390903151723?epid=110821758&hash=item5b03a4bc6b:g:LW0AAOSwnDZT4PIH
p20
aVhttp://www.ebay.com/itm/Best-Greatest-Hits-80s-3CD-Erasure-Queen-Wham-David-Bowie-Madness-REM-Blondie-/232390998333?hash=item361b95393d:g:uAwAAOSw5cNYFHYp
p21
aVhttp://www.ebay.com/itm/Wham-Final-Deluxe-Edition-NEW-CD-/390903151777?epid=110808583&hash=item5b03a4bca1:g:QeUAAOSwxH1T4PIL
p22
aVhttp://www.ebay.com/itm/Wham-The-Final-CD-NEW-/401219926650?epid=1904189227&hash=item5d6a923a7a:g:M5oAAOSwMVdYHJ1A
p23
aVhttp://www.ebay.com/itm/Wham-George-Michael-Album-Cover-Drinks-COASTER-Set-/282384406671?epid=880875572&hash=item41bf6c188f:g:iFsAAOSwXYtYvCzw
p24
aVhttp://www.ebay.com/itm/Wham-Make-It-Big-Feat-Wake-Me-Up-Careless-Whisper-etc-NEW-CD-/351137740056?epid=4060597&hash=item51c170b518:g:MnYAAOSwRLZT4O~S
p25
aVhttp://www.ebay.com/itm/WHAM-Best-Of-WHAM-CD-NEW-George-Michael-/232201014631?epid=1004984114&hash=item3610424d67:g:bnEAAOSwZQRYc7B~
p26
aVhttp://www.ebay.com/itm/WHAM-Original-Album-Classics-CD-Set-NEW-George-Michael-/381919590680?epid=1837513814&hash=item58ec2e7918:g:xiUAAOSwnHZYdS9a
p27
aVhttp://www.ebay.com/itm/Wham-The-Final-CD-NEW-George-Michael-Remastered-/381918158482?epid=1904189227&hash=item58ec189e92:g:FGcAAOSwZjJU--qd
p28
aVhttp://www.ebay.com/itm/Wham-The-Final-25th-Anniversary-Edition-Greatest-Hits-Best-Of-CD-Album-/172768985839?epid=3981521&hash=item2839d582ef:g:iZQAAOSwdGFY1k26
p29
aVhttp://www.ebay.com/itm/George-Michael-Wham-Stunning-POSTER-/261297257477?hash=item3cd687bc05:g:UPMAAOxy2FZSSC0H
p30
aVhttp://www.ebay.com/itm/George-Michael-Twenty-Five-2-x-CD-Best-Of-NEW-SEALED-Wham-/311774315934?epid=178675600&hash=item489732859e:g:VRMAAOSw44BYbsHZ
p31
aVhttp://www.ebay.com/itm/Wham-Fantastic-Club-Tropicana-Wham-Rap-etc-NEW-CD-/311039295161?epid=3953212&hash=item486b62feb9:g:rS8AAOSwbqpT4PA1
p32
aVhttp://www.ebay.com/itm/Wham-The-Final-25th-Anniversary-Best-Of-NEW-SEALED-CD-/332127528620?hash=item4d5457e6ac:g:~SoAAOSwTuJYpE6x
p33
aVhttp://www.ebay.com/itm/Wham-The-Final-Best-Of-BRAND-NEW-CD-DVD-/222377306675?hash=item33c6b86a33:g:8PQAAOSwjDZYeXZP
p34
aVhttp://www.ebay.com/itm/WHAM-THE-FINAL-collection-CD-DVD-New-Sealed-IN-STOCK-/162339439182?epid=1805017189&hash=item25cc2f424e:g:a5MAAOSwopRYZqYr
p35
aVhttp://www.ebay.com/itm/GEORGE-MICHAEL-wham-FATHER-FIGURE-song-lyrics-poster-art-edition-print-21-/282346150995?var=&hash=item41bd245c53:m:mw7uKpl6YPzokyXpW5ECNqw
p36
aVhttp://www.ebay.com/itm/GEORGE-MICHAEL-wham-Careless-Whisper-song-lyrics-poster-art-ltd-ed-print-8-/282346036684?var=&hash=item41bd229dcc:m:mk8Nab3GvZecADtElIhRg-A
p37
aVhttp://www.ebay.com/itm/The-Best-of-Wham-Wham-CD-/122306227175?hash=item1c7a04ebe7:g:j4IAAOSw44BYdPHg
p38
aVhttp://www.ebay.com/itm/WHAM-Make-It-Big-CD-NEW-George-Michael-/381918148134?epid=1905023979&hash=item58ec187626:g:rWoAAOSwZd1VXh9p
p39
aVhttp://www.ebay.com/itm/GEORGE-MICHAEL-WHAM-Collectors-Signed-Photo-FREE-WORLDWIDE-SHIPPING-/172669291152?hash=item2833e44a90:g:5rcAAOSwcB5ZE4U2
p40
aVhttp://www.ebay.com/itm/Wham-The-Final-CD-NEW-/302280340009?epid=182189556&hash=item46614ff229:g:iS0AAOSwrddY7Ssp
p41
aVhttp://www.ebay.com/itm/Wham-The-Final-CD-ALBUM-/201215897929?hash=item2ed966f149:g:hkkAAOSwKtlWnjbI
p42
aVhttp://www.ebay.com/itm/Wham-The-Final-25th-Anniversary-Edition-Greatest-Hits-Best-Of-New-CD-/272609057096?epid=1904189227&hash=item3f78c41948:g:6qoAAOSw9GhYfU0Y
p43
aVhttp://www.ebay.com/itm/Wham-The-Best-of-If-You-Were-There-CD-/142339319632?epid=4024527&hash=item212415a750:m:mluuG-CU7cjtLvt8GA4NblQ
p44
aVhttp://www.ebay.com/itm/Wham-The-Final-CD-/371840961764?epid=3981521&hash=item569372cce4:m:meMfysZKgJbt9a1zvZwZvcg
p45
aVhttp://www.ebay.com/itm/GEORGE-MICHAEL-wham-FREEEDOM-90-song-lyrics-poster-art-edition-print-23-/282346183328?var=&hash=item41bd24daa0:m:mlp-Glgh4TMx7sT1hoAw3MQ
p46
aVhttp://www.ebay.com/itm/NOW-THATS-WHAT-I-CALL-MUSIC-DECADES-The-Best-of-80s-90s-2000s-3-CD-Wham-Bowie-/382151193936?hash=item58f9fc7550:g:ukUAAOSwDrNZW8l5
p47
aVhttp://www.ebay.com/itm/GEORGE-MICHAEL-wham-Careless-Whisper-song-lyrics-poster-art-print-2-/282344921619?var=&hash=item41bd119a13:m:mr4SZMec-bK5FGlHyqhUigA
p48
aVhttp://www.ebay.com/itm/Ultimate-80S-Whitney-Houston-Journey-Rick-Astley-Wham-CD-/122306408453?hash=item1c7a07b005:g:z0oAAOSwEzxYdQUt
p49
aVhttp://www.ebay.com/itm/GEORGE-MICHAEL-wham-FATHER-FIGURE-song-lyrics-poster-art-edition-print-19-/272542172844?var=&hash=item3f74c786ac:m:mEtGj3Ow4GgejB6iQlOAR8Q
p50
aVhttp://www.ebay.com/itm/GEORGE-MICHAEL-wham-CHOOSE-LIFE-song-lyrics-poster-art-ltd-ed-print-9-/272542096933?var=&hash=item3f74c65e25:m:mEpbdWBq884W-TvahkuwFxQ
p51
aVhttp://www.ebay.com/itm/Wham-The-Final-CD-Album-1986-14-Great-Tracks-George-Michael-/361929911101?epid=3981521&hash=item5444b42b3d:g:VsIAAOSw4A5YyvWp
p52
aVhttp://www.ebay.com/itm/GEORGE-MICHAEL-wham-FAITH-song-lyrics-poster-art-limited-edition-print-16-/282346135518?var=&hash=item41bd241fde:m:ml38SuwG4GfJiBd1bAsOB2g
p53
aVhttp://www.ebay.com/itm/GEORGE-MICHAEL-WHAM-x-2-sew-on-photo-patches-vintage-ANDREW-RIDGELEY-set-4-/311918301797?hash=item489fc79265:g:smwAAOSwx6pYnLXS
p54
aVhttp://www.ebay.com/itm/Noir-Paranoiac-WHAM-Art-Print-Typography-Album-Song-Lyrics-Signed-Pop-Poster-/222422445214?epid=587979578&hash=item33c9692c9e:g:i2QAAOSwGJlZEWXP
p55
aVhttp://www.ebay.com/itm/GEORGE-MICHAEL-Wham-Rap-86-wham-lyrics-poster-art-print-35-/272542336119?var=&hash=item3f74ca0477:m:m-sro6RM5spIpylAQLmK7qQ
p56
aVhttp://www.ebay.com/itm/WHAM-GEORGE-MICHAEL-10-promotional-posters-collectable-postcard-set-1-/372014378723?hash=item569dc8eee3:g:UvYAAOSwf~9Za0ly
p57
aVhttp://www.ebay.com/itm/George-Michael-WHAM-Careless-Whisper-FAITH-Older-Patience-Band-Aid-/272499737204?var=&hash=item3f72400274:m:mFRNHnUJPUOTiB2-g6ru1Tw
p58
aVhttp://www.ebay.com/itm/Wham-Make-It-Big-CD-ALBUM-/381049824702?hash=item58b856e5be:g:jVAAAOSwX~dWojks
p59
a.