(lp0
Vhttps://www.amazon.co.uk/Fiesta-Crafts-White-Moving-Puppet/dp/B001UJRZWG/ref=sr_1_4/261-0256579-2075468?ie=UTF8&qid=1500121574&sr=8-4&keywords=puppet
p1
aVhttps://www.amazon.co.uk/Melissa-Doug-12551-Police-Officer/dp/B00272N8MQ/ref=sr_1_5/261-0256579-2075468?ie=UTF8&qid=1500121574&sr=8-5&keywords=puppet
p2
aVhttps://www.amazon.co.uk/d/Puppets-Puppet-Theatres/Melissa-Doug-Friends-Hand-Standalone-Multi-Colour/B00U3GA97K/ref=sr_1_6/261-0256579-2075468?ie=UTF8&qid=1500121574&sr=8-6&keywords=puppet
p3
aVhttps://www.amazon.co.uk/Melissa-Doug-12552-Firefighter-Puppet/dp/B00272N8N0/ref=sr_1_7/261-0256579-2075468?ie=UTF8&qid=1500121574&sr=8-7&keywords=puppet
p4
aVhttps://www.amazon.co.uk/Puppet-Company-Sockettes-Scorch-Hand/dp/B0012GJI36/ref=sr_1_8/261-0256579-2075468?ie=UTF8&qid=1500121574&sr=8-8&keywords=puppet
p5
aVhttps://www.amazon.co.uk/Melissa-Doug-13908-Dragon-Puppet/dp/B004KPKWI6/ref=sr_1_9/261-0256579-2075468?ie=UTF8&qid=1500121574&sr=8-9&keywords=puppet
p6
aVhttps://www.amazon.co.uk/d/Puppets-Puppet-Theatres/Gruffalo-12616-Hand/B003YC2VR6/ref=sr_1_10/261-0256579-2075468?ie=UTF8&qid=1500121574&sr=8-10&keywords=puppet
p7
aVhttps://www.amazon.co.uk/Melissa-Doug-19080-Friends-Puppets/dp/B00TO6FJYS/ref=sr_1_11/261-0256579-2075468?ie=UTF8&qid=1500121574&sr=8-11&keywords=puppet
p8
aVhttps://www.amazon.co.uk/Puppet-4-10-Beginners-Guide-Second/dp/1787124002/ref=sr_1_12/261-0256579-2075468?ie=UTF8&qid=1500121574&sr=8-12&keywords=puppet
p9
aVhttps://www.amazon.co.uk/Melissa-Doug-13895-Ballerina-Puppet/dp/B0026ZPSK4/ref=sr_1_13/261-0256579-2075468?ie=UTF8&qid=1500121574&sr=8-13&keywords=puppet
p10
aVhttps://www.amazon.co.uk/Fiesta-T-2343-Monkey-Hand-Puppet/dp/B000NP2WO4/ref=sr_1_14/261-0256579-2075468?ie=UTF8&qid=1500121574&sr=8-14&keywords=puppet
p11
aVhttps://www.amazon.co.uk/Fiesta-Crafts-White-Moving-Puppet/dp/B001UJU4IS/ref=sr_1_15/261-0256579-2075468?ie=UTF8&qid=1500121574&sr=8-15&keywords=puppet
p12
aVhttps://www.amazon.co.uk/Different-Cartoon-Animal-Finger-Puppets/dp/B01HNTGF40/ref=sr_1_16/261-0256579-2075468?ie=UTF8&qid=1500121574&sr=8-16&keywords=puppet
p13
aVhttps://www.amazon.co.uk/Hacker-T-Dog-Hand-Puppet/dp/B010D2LV5M/ref=sr_1_17/261-0256579-2075468?ie=UTF8&qid=1500121574&sr=8-17&keywords=puppet
p14
aVhttps://www.amazon.co.uk/Finger-Animal-Puppet-childrens-Learn/dp/B00DVAG942/ref=sr_1_18_a_it/261-0256579-2075468?ie=UTF8&qid=1500121574&sr=8-18&keywords=puppet
p15
aVhttps://www.amazon.co.uk/Childrens-Puppet-Theatre-Goldilocks-Three/dp/B000N6MFPY/ref=sr_1_17/261-0256579-2075468?ie=UTF8&qid=1500121577&sr=8-17&keywords=puppet
p16
aVhttps://www.amazon.co.uk/Melissa-Doug-2553-Detachable-Animated/dp/B00272N8NA/ref=sr_1_18/261-0256579-2075468?ie=UTF8&qid=1500121577&sr=8-18&keywords=puppet
p17
aVhttps://www.amazon.co.uk/Sooty-Show-Sweep-Puppet-Set/dp/B00IZG38MI/ref=sr_1_19/261-0256579-2075468?ie=UTF8&qid=1500121577&sr=8-19&keywords=puppet
p18
aVhttps://www.amazon.co.uk/Puppet-AWS-Quick-Start-ebook/dp/B01MFCYQXE/ref=sr_1_20/261-0256579-2075468?ie=UTF8&qid=1500121577&sr=8-20&keywords=puppet
p19
aVhttps://www.amazon.co.uk/Denis-ventriloquist-stories-educational-delivery/dp/B0093LIPP4/ref=sr_1_21/261-0256579-2075468?ie=UTF8&qid=1500121577&sr=8-21&keywords=puppet
p20
aVhttps://www.amazon.co.uk/d/DVD-Blu-ray/Puppet-Master-DVD-Paul-Mat/B000055Z8S/ref=sr_1_22/261-0256579-2075468?ie=UTF8&qid=1500121577&sr=8-22&keywords=puppet
p21
aVhttps://www.amazon.co.uk/The-Gruffalos-Child-Finger-Puppets/dp/B0060L2538/ref=sr_1_23/261-0256579-2075468?ie=UTF8&qid=1500121577&sr=8-23&keywords=puppet
p22
aVhttps://www.amazon.co.uk/Puppet-Company-Sockettes-Dylan-Hand/dp/B00OQKHAGW/ref=sr_1_24/261-0256579-2075468?ie=UTF8&qid=1500121577&sr=8-24&keywords=puppet
p23
aVhttps://www.amazon.co.uk/Puppet-Company-Large-Birds-Scarlet/dp/B000Z89XU0/ref=sr_1_27/261-0256579-2075468?ie=UTF8&qid=1500121577&sr=8-27&keywords=puppet
p24
aVhttps://www.amazon.co.uk/dp/B0731PCQJN/ref=sr_1_28/261-0256579-2075468?ie=UTF8&qid=1500121577&sr=8-28&keywords=puppet
p25
aVhttps://www.amazon.co.uk/Puppet-Company-Long-Sleeves-Giraffe/dp/B000KK2152/ref=sr_1_29/261-0256579-2075468?ie=UTF8&qid=1500121577&sr=8-29&keywords=puppet
p26
aVhttps://www.amazon.co.uk/Tinksky-Cartoon-Animal-Puppets-Pattern/dp/B00ST6NM84/ref=sr_1_30/261-0256579-2075468?ie=UTF8&qid=1500121577&sr=8-30&keywords=puppet
p27
aVhttps://www.amazon.co.uk/Puppet-Company-Traditional-Nursery-Rhymes/dp/B0099RKCNU/ref=sr_1_31/261-0256579-2075468?ie=UTF8&qid=1500121577&sr=8-31&keywords=puppet
p28
aVhttps://www.amazon.co.uk/Puppet-Football-Spain-CCG-TCG/dp/B06XZ1WT5C/ref=sr_1_32/261-0256579-2075468?ie=UTF8&qid=1500121577&sr=8-32&keywords=puppet
p29
aVhttps://www.amazon.co.uk/Benross-Group-Moving-Singing-Puppet/dp/B009GZIXK4/ref=sr_1_33/261-0256579-2075468?ie=UTF8&qid=1500121577&sr=8-33&keywords=puppet
p30
aVhttps://www.amazon.co.uk/Clarks-Puppet-Womens-Loafers-Leather/dp/B015CIM53O/ref=sr_1_34/261-0256579-2075468?ie=UTF8&qid=1500121577&sr=8-34&keywords=puppet
p31
a.