(lp1
Vhttp://www.ebay.com/itm/100-Code-Breaking-Books-on-DVD-Cryptography-Ciphers-Cryptology-Enigma-Turing-F9-/201948882598?hash=item2f051766a6:g:mdsAAOSw1~JZN~6T
p2
aVhttp://www.ebay.com/itm/ALAN-TURING-ART-QUOTE-PRINT-PHOTO-POSTER-GIFT-MATHEMATICS-CODEBREAKING-SCIENCE-/221263023133?epid=875953866&hash=item33844dcc1d:g:A3kAAOxyhSBR~ADb
p3
aVhttp://www.ebay.com/itm/ALAN-TURING-PHOTO-PRINT-POSTER-GIFT-OBAMA-HOPE-/321713564919?hash=item4ae79f6cf7:g:9HMAAOSw34FVHTw-
p4
aVhttp://www.ebay.com/itm/ALAN-TURING-POSTER-Unique-Photo-Art-Print-Gift-/221732442686?hash=item33a048923e:g:KecAAOSwNSxVHUD3
p5
aVhttp://www.ebay.com/itm/Alan-Turing-The-Enigma-Andrew-Hodges-/371937081517?epid=87377177&hash=item56992d78ad:g:BV4AAOSwt0FZCDep
p6
aVhttp://www.ebay.com/itm/2hp-Turing-Machine-Eurorack-Module-TM-/162406603629?hash=item25d0301b6d:g:95wAAOSw4A5YrwcC
p7
aVhttp://www.ebay.com/itm/100-Code-Breaking-Books-on-DVD-Cryptography-Ciphers-Cryptology-Enigma-Turing-F9-/132156964184?epid=749354973&hash=item1ec52b3d58:g:2YkAAOSwpkFY7goh
p8
aVhttp://www.ebay.com/itm/Automatic-Digital-Incubator-brooder-poultry-Chicken-Quail-Duck-Goose-24-48-eggs-/191163562869?var=&hash=item2c823c7b75:m:mc7tiOnEB1jBoPgowVJ2sfg
p9
aVhttp://www.ebay.com/itm/GREAT-BRITAIN-2015-INVENTIVE-BRITAIN-ALAN-TURING-PANE-2-UNMOUNTED-MINT-/301534956949?hash=item4634e24d95:g:hY8AAOSwrklU5QG8
p10
aVhttp://www.ebay.com/itm/12-24-48-96-Fully-Automatic-Egg-Incubator-Poultry-Chicken-Quail-Thermostat-/332113051250?var=&hash=item4d537afe72:m:mNtktTCKuIwAIsfcMQxb_vQ
p11
aVhttp://www.ebay.com/itm/Turing-and-the-Universal-Machine-The-Making-of-the-Modern-Computer-Revolutio-/381941160315?epid=87640977&hash=item58ed77997b:g:ThoAAOSwNnRYjCCP
p12
aVhttp://www.ebay.com/itm/Alan-Turing-The-Enigma-Andrew-Hodges-/331024603388?epid=94800477&hash=item4d129a98fc:g:CVoAAOSwoBtW2q3p
p13
aVhttp://www.ebay.com/itm/Benedict-Cumberbatch-IMITATION-GAME-2014-Alan-Turing-Enigma-Code-Drama-UK-DVD-/222412854351?hash=item33c8d6d44f:g:LPsAAOSwdGFYpu-S
p14
aVhttp://www.ebay.com/itm/GREAT-BRITAIN-1999-WORLD-CHANGERS-ALAN-TURING-LIFE-PANE-UNMOUNTED-MINT-MNH-/381754024303?hash=item58e250216f:g:msMAAOSwxg5XxoQS
p15
aVhttp://www.ebay.com/itm/GREAT-BRITAIN-2015-INVENTIVE-BRITAIN-ALAN-TURING-PANE-2-FINE-USED-/301571043797?hash=item463708f1d5:g:2WwAAOSwEeFU5QEW
p16
aVhttp://www.ebay.com/itm/Alan-Turing-CODE-CRACKER-EGNIMA-CODE-Leather-Key-Ring-FREE-STICKER-/111544505804?hash=item19f89215cc:g:nT4AAOSwqu9U1rEh
p17
aVhttp://www.ebay.com/itm/Mini-Fully-Automatic-Advanced-Incubator-Hatcher-Breeding-Machine-10-12-24-48-Egg-/371881039861?var=&hash=item5695d657f5:m:mlGt7zEHVAplEtMKbIw-fdQ
p18
aVhttp://www.ebay.com/itm/Automatic-Egg-Turning-Incubator-Hatcher-Poultry-Bird-Chicken-Temperature-Control-/282380504504?var=&hash=item41bf308db8:m:mQQC_PNjyxXerSoUUl9oGpg
p19
aVhttp://www.ebay.com/itm/Alan-Turing-The-Enigma-The-Book-That-Inspired-the-Film-The-Imitation-Game-Pa-/351497065775?epid=209380952&hash=item51d6db952f:g:1VEAAOSwjVVV4vXz
p20
aVhttp://www.ebay.com/itm/HODGES-ANDREW-ALAN-TURING-THE-ENIGMA-TIE-IN-BOOK-NEW-/351559555368?epid=208912372&hash=item51da951928:g:HpcAAOSwFnFWEhLr
p21
aVhttp://www.ebay.com/itm/Alan-Turing-The-Enigma-Man-Cawthorne-Nigel-Very-Good-Book-mon0000067531-/162002948803?epid=213105276&hash=item25b820d2c3:g:nh4AAOSwiDFYP9cP
p22
aVhttp://www.ebay.com/itm/GREAT-BRITAIN-1999-WORLD-CHANGERS-ALAN-TURING-LIFE-PANE-FINE-USED-/300776282274?hash=item4607a9d8a2:m:mn7ppb-9m-WvAL5WBrmCEEg
p23
aVhttp://www.ebay.com/itm/The-Great-Philosophers-From-Socrates-to-Turing-by-Orion-Publishing-Co-/252299763018?epid=89695538&hash=item3abe3cdd4a:g:fikAAOSw~oFXGIP5
p24
aVhttp://www.ebay.com/itm/Farm-Home-Automatic-Digital-Chicken-Egg-Incubator-10-12-24-48-Poultry-Hatcher-/332272831180?var=&hash=item4d5d010acc:m:mkG7TatE0H-4yCnvrZBMUjQ
p25
aVhttp://www.ebay.com/itm/New-Turing-Omnibus-DEWDNEY-/381412883446?epid=87697149&hash=item58cdfabbf6:g:gFsAAOSwsB9WAY9D
p26
aVhttp://www.ebay.com/itm/Alan-Turing-The-Enigma-Andrew-Hodges-/130725526985?epid=87377177&hash=item1e6fd93dc9:m:mC0jlnDkumRZTk0FVfWBncw
p27
aVhttp://www.ebay.com/itm/The-Man-Who-Knew-Too-Much-Alan-Turing-and-the-invention-of-computers-Alan-Tu-/371873816567?epid=90229691&hash=item5695681ff7:g:PSAAAOSw4A5YrSqJ
p28
aVhttp://www.ebay.com/itm/Alan-Turing-The-Enigma-Man-by-Nigel-Cawthorne-9781784045357-Paperback-2014-/231883069129?epid=213105276&hash=item35fd4ed6c9:g:E5cAAOSwvFZW7W13
p29
aVhttp://www.ebay.com/itm/10-12-24-48-96-Fully-Automatic-Egg-Incubator-Poultry-Chicken-Quail-Thermostat-UK-/191854448599?var=&hash=item2cab6a8fd7:m:mFwTWZqKCE_US5GK6adIy5w
p30
aVhttp://www.ebay.com/itm/Geek-Alan-Turing-He-cracked-the-code-T-Shirt-/201663018001?var=&hash=item2ef40d7411:m:mU2NYSvlnqqq0hlJ5Kgn_tA
p31
aVhttp://www.ebay.com/itm/Alan-Turing-9781841657561-/252989948176?epid=233289463&hash=item3ae7604110:g:-eoAAOSwlXhZZzUT
p32
aVhttp://www.ebay.com/itm/The-Great-Philosophers-From-Socrates-to-Turing-Frederic-Raphael-Ray-Monk-/131683886755?epid=89695538&hash=item1ea8f8a6a3:g:6ewAAOSwJcZWe4Do
p33
aVhttp://www.ebay.com/itm/ALAN-TURING-25mm-1-Button-Badge-Cute-Novelty-Imitation-Game-Enigma-Pride-/232382636818?hash=item361b15a312:g:sk0AAOSwP~tW3HxU
p34
aVhttp://www.ebay.com/itm/Farm-Automatic-Digital-Chicken-Egg-Incubator-10-12-24-48-96-Egg-Poultry-Hatcher-/181905807804?var=&hash=item2a5a6e59bc:m:mlsq6ohw5ijhMDJ5ZoP26mA
p35
aVhttp://www.ebay.com/itm/HODGES-ANDREW-ALAN-TURING-RE-ISSUE-BOOK-NEW-/282068015446?epid=94800477&hash=item41ac905956:g:70QAAOSwTuJYp8hI
p36
aVhttp://www.ebay.com/itm/Turings-Cathedral-The-Origins-of-the-Digital-Universe-by-George-Dyson-2012-/371446718827?epid=200310700&hash=item567bf3216b:g:VQIAAOSwVL1WAXFK
p37
aVhttp://www.ebay.com/itm/Automatic-Digital-Incubator-Hatcher-12-24-48Eggs-Hatcher-Breeding-4-Styles-Sale-/122433636830?var=&hash=item1c819d09de:m:meDLpYIOd93qEPpWWdrlsrw
p38
aVhttp://www.ebay.com/itm/Farm-Digital-Fully-Automatic-Egg-Turning-Incubator-Poultry-Chicken-Duck-Brooder-/302239900676?var=&hash=item465ee6e404:m:mmCOXe0sq29ZdxJJTcEWc7w
p39
aVhttp://www.ebay.com/itm/Alan-Turing-The-Enigma-The-Book-That-Inspired-the-Film-The-Imitation-Game-Andr-/381437949124?epid=209380952&hash=item58cf7934c4:g:2rwAAOSwwbdWHrhx
p40
aVhttp://www.ebay.com/itm/Man-Who-Cracked-the-Nazi-Code-The-Story-of-Alan-Turing-DVD-NEW-/351914361016?epid=1038217029&hash=item51efbb00b8:g:KpIAAOSw44BYNu26
p41
aVhttp://www.ebay.com/itm/Digital-Egg-Turning-Incubator-Fully-Automatic-Breeding-Hatcher-Temperature-Alarm-/162415723987?var=&hash=item25d0bb45d3:m:mM799GNqUIpxalCm9WnDz6w
p42
a.