(lp1
Vhttp://www.ebay.com/itm/Werner-Utility-Bucket-Your-Tools-Materials-and-Equipment-Are-Easily-Reachable-/112488651110?epid=1518735353&hash=item1a30d89966:g:EJEAAOSwNdBZcJt0
p2
aVhttp://www.ebay.com/itm/Abru-Werner-ALadder-Loft-hatch-door-catch-latch-twist-for-wood-board-25mm-/201990017320?hash=item2f078b1128:m:mcDMtgj2fk9J2IX3YoLyKPw
p3
aVhttp://www.ebay.com/itm/NEW-WERNER-71698-Swingback-Ladder-Fibreglass-8-Tread-2-23m-OUR-SALE-ITEM-/122609981534?hash=item1c8c1fd85e:g:o8MAAOSwr~lYoHx2
p4
aVhttp://www.ebay.com/itm/Werner-37003-3-Section-Easy-Stow-Aluminium-Loft-Ladder-Spring-Assisted-System-/262908977705?epid=3004174308&hash=item3d3698a229:g:3AwAAOSwVctY5OqH
p5
aVhttp://www.ebay.com/itm/NEW-WERNER-71696-Swingback-Ladder-Fibreglass-6-Tread-1-67m-OUR-SALE-ITEM-/112490102215?hash=item1a30eebdc7:g:CzIAAOSwfVpYnuQK
p6
aVhttp://www.ebay.com/itm/Werner-Extension-Plus-X4-Reform-Ladder-2-96m-Closed-Height-/182476739672?hash=item2a7c761458:g:u-wAAOSwB-1YuwFT
p7
aVhttp://www.ebay.com/itm/Werner-Extension-Plus-X4-Reform-Ladder-2-40m-Closed-Height-/182601230354?hash=item2a83e1a812:g:aV8AAOSwlMFZL7zy
p8
aVhttp://www.ebay.com/itm/NEW-BOXED-werner-fibreglass-stepladder-8-tread-OUR-SALE-ITEM-/122607145608?hash=item1c8bf49288:g:i-sAAOSwMvtZSPBq
p9
aVhttp://www.ebay.com/itm/WERNER-ABRU-12-RUNG-3-5m-PROMASTER-REFORM-COMBINATION-LADDER-/150803514374?epid=1063092028&hash=item231c970406:g:L7AAAOSwkNZUkuek
p10
aVhttp://www.ebay.com/itm/ABRU-WERNER-ALUMINIUM-PLATFORM-STEP-7-TREAD-NEW-70507-/360415649088?epid=1237451496&hash=item53ea725d40:g:BSUAAOSwg3FUkt1K
p11
aVhttp://www.ebay.com/itm/ABRU-WERNER-ALUMINIUM-PLATFORM-STEP-5-TREAD-NEW-70505-/360174987212?epid=1737481670&hash=item53dc1a27cc:g:vrQAAMXQuCdTiIvL
p12
aVhttp://www.ebay.com/itm/ABRU-WERNER-ALUMINIUM-PLATFORM-STEP-3-TREAD-NEW-70503-/160351860653?epid=1763144012&hash=item2555b737ad:g:i6cAAOxyaURTiIy9
p13
aVhttp://www.ebay.com/itm/ABRU-WERNER-ALUMINIUM-PLATFORM-STEP-4-TREAD-NEW-70504-/160351861205?epid=1437433354&hash=item2555b739d5:g:lgYAAOxyaURTiI0p
p14
aVhttp://www.ebay.com/itm/ABRU-WERNER-ALUMINIUM-PLATFORM-STEP-6-TREAD-NEW-70506-/360174990284?epid=1537444411&hash=item53dc1a33cc:g:pVYAAOSwiCRUhaUy
p15
aVhttp://www.ebay.com/itm/BATTLE-OF-BRITAIN-WERNER-MOLDERS-BF109-POSTCARD-LUFTWAFFE-ACE-PRINT-JG51-KC-/131782740819?hash=item1eaedd0b53:g:Rt0AAOxyY3ZRtOzH
p16
aVhttp://www.ebay.com/itm/Physical-Principles-of-the-Quantum-Theory-by-Werner-Heisenberg-9780486601137-/232306129139?epid=88414248&hash=item36168638f3:g:68gAAOSwkShY9m51
p17
aVhttp://www.ebay.com/itm/WERNER-HERZOG-ART-PHOTO-POSTER-GIFT-CHICKEN-QUOTE-/321211649008?hash=item4ac9b4cbf0:g:IN0AAOxyFjNSOvsc
p18
aVhttp://www.ebay.com/itm/Bruno-Schleinstein-Josef-B-Werner-Herzog-Collection-Blu-ray-NEW-/302287699570?epid=1330301888&hash=item4661c03e72:g:L0YAAOSwSypY9jY8
p19
aVhttp://www.ebay.com/itm/The-Wonders-of-Nature-Jane-Werner-Watson-Eloise-Wilkin-/110725282782?epid=93039298&hash=item19c7bdbbde:m:mJJHHP8yCrt37xSH-MSJUmg
p20
aVhttp://www.ebay.com/itm/Boxers-Start-up-Beginners-Guide-to-Boxing-Doug-Werner-/380676552189?epid=90830565&hash=item58a21735fd:g:wwYAAOxyOeBR3vXf
p21
aVhttp://www.ebay.com/itm/2-8-Tread-Abru-Blue-Seal-Industrial-Platform-Step-Ladders-BS2037-Class-1-/301979060193?var=&hash=item464f5ac7e1:m:mdHBtBkNrNTWwGpHBvh9tfg
p22
aVhttp://www.ebay.com/itm/First-Special-Service-Force-1942-1944-by-Brett-Werner-9781841769684-/231934211675?epid=89653876&hash=item36005b365b:g:xdwAAOSwRH5XKyHd
p23
aVhttp://www.ebay.com/itm/WERNER-HERZOG-ART-PHOTO-PRINT-OBAMA-HOPE-PARODY-POSTER-GIFT-/321445676014?hash=item4ad7a7c3ee:g:bxMAAOSw9NxTrf7c
p24
aVhttp://www.ebay.com/itm/WERNER-HERZOG-POSTER-Unique-Photo-Art-Print-Gift-/221603025555?hash=item339891d293:g:wwsAAOSwcldUYphj
p25
aVhttp://www.ebay.com/itm/Cockatoos-Complete-Pet-Owners-Manual-by-Werner-Lantermann-9780764143465-/253031012460?epid=92908975&hash=item3ae9d2d86c:g:h4YAAOSw3YJZXgKM
p26
a.