(lp1
Vhttp://www.ebay.com/itm/Teenage-Mutant-Ninja-Turtles-Half-Shell-Hero-Squeeze-Ems-Leo-/201970921685?epid=1091609290&hash=item2f0667b0d5:g:tmgAAOSwyltZVpf1
p2
aVhttp://www.ebay.com/itm/TEENAGE-MUTANT-NINJA-TURTLES-OUT-OF-THE-SHADOWS-5-ACTION-FIGURES-TOYS-/302365400009?var=&epid=929720014&hash=item466661dbc9:m:mE-3AWKvwGS9r6bf8dwqUWQ
p3
aVhttp://www.ebay.com/itm/4-PCS-Lot-5-Teenage-Mutant-Ninja-Turtles-Movie-Action-Figures-UK-SELLER-/262863631099?hash=item3d33e4b2fb:g:0poAAOSwWxNYrGg6
p4
aVhttp://www.ebay.com/itm/Teenage-Mutant-Ninja-Turtles-Super-Shredder-Turtles-Action-Figures-/222457330913?hash=item33cb7d7ce1:g:60MAAOSwzgBY3WU0
p5
aVhttp://www.ebay.com/itm/Teenage-Mutant-Ninja-Turtles-2012-Limited-Edition-Night-Shadow-Leonardo-TMNT-New-/132179583583?epid=1909205108&hash=item1ec684625f:g:XiwAAOSwhvFZCdCv
p6
aVhttp://www.ebay.com/itm/Nickelodeon-Teenage-Mutant-Ninja-Turtles-Action-Figure-80s-Rocksteady-NEW-/311918755564?epid=1082070652&hash=item489fce7eec:g:t84AAOSwTApZbhkG
p7
aVhttp://www.ebay.com/itm/Nickelodeon-Teenage-Mutant-Ninja-Turtles-Action-Figure-80s-Bebop-NEW-/311918756078?epid=1379232932&hash=item489fce80ee:g:aMwAAOSwEBxZbhlj
p8
aVhttp://www.ebay.com/itm/Star-Ace-Harry-Potter-The-Prisoner-of-Azkaban-Teenage-Grey-Hoodie-1-6th-scale-/122534368727?hash=item1c879e15d7:g:dtAAAOSw8HBZNanK
p9
aVhttp://www.ebay.com/itm/TEENAGE-MUTANT-NINJA-TURTLES-ROCKSTEADY-CLASSIC-COLLECTION-ACTION-FIGURE-/332309222993?epid=1725093770&hash=item4d5f2c5651:g:4SwAAOSwf~ZZbiLr
p10
aVhttp://www.ebay.com/itm/Teenage-Mutant-Ninja-Turtles-Super-Shredder-Super-Ninja-Leo-Action-Figure-/311900781265?hash=item489ebc3ad1:g:XJIAAOSwLsBZSnF~
p11
aVhttp://www.ebay.com/itm/Star-Ace-Harry-Potter-The-Prisoner-of-Azkaban-Teenage-Blue-T-Shirt-1-6th-scale-/122534369972?hash=item1c879e1ab4:g:vYgAAOSw-K9ZNaoR
p12
aVhttp://www.ebay.com/itm/TEENAGE-MUTANT-NINJA-TURTLES-LEONARDO-FUNKO-POP-VINYL-FIGURE-063-/142398078510?epid=1807813483&hash=item2127963e2e:g:BcMAAOSw9OFZLCh8
p13
aVhttp://www.ebay.com/itm/New-Teenage-Mutant-Ninja-Turtles-Turtle-Tactical-Truck-Leo-Figure-Official-/292181918649?hash=item44076643b9:g:SC0AAOSwJq1ZZ4AJ
p14
aVhttp://www.ebay.com/itm/NEW-Teenage-Mutant-Ninja-Turtles-Classic-1990-Movie-Collection-Donatello-Figure-/391787609086?epid=1842007439&hash=item5b385c7bfe:g:x9MAAOSwDrNZUX7e
p15
aVhttp://www.ebay.com/itm/Star-Ace-Harry-Potter-The-Prisoner-of-Azkaban-Teenage-Tan-Pants-1-6th-scale-/112432446806?hash=item1a2d7efd56:g:WWwAAOSwfRdZNapU
p16
aVhttp://www.ebay.com/itm/Star-Ace-Harry-Potter-The-Prisoner-of-Azkaban-Teenage-Wand-1-6th-scale-/122534378701?hash=item1c879e3ccd:g:D1QAAOSwrhBZNavg
p17
aVhttp://www.ebay.com/itm/Teenage-Mutant-Ninja-Turtles-TMNT-Action-Figure-Stands-vintage-1988-1997-/131666735796?var=&hash=item1ea7f2f2b4:m:m8hTIdgAdzDj4h6RshOgZ8A
p18
aVhttp://www.ebay.com/itm/New-Teenage-Mutant-Ninja-Turtles-Limited-Edition-Leonardo-Figure-TMNT-Official-/292071580574?epid=1909205108&hash=item4400d2a39e:g:JloAAOSwmgJY3Sja
p19
aVhttp://www.ebay.com/itm/New-Teenage-Mutant-Ninja-Turtles-Limited-Edition-Leonardo-Figure-TMNT-Official-/292071580718?epid=717385943&hash=item4400d2a42e:g:J8oAAOSwXYtY3Sjr
p20
aVhttp://www.ebay.com/itm/Star-Ace-Harry-Potter-The-Prisoner-of-Azkaban-Teenage-Black-Shoes-1-6th-scale-/112432449940?hash=item1a2d7f0994:g:7H0AAOSwX9FZNari
p21
aVhttp://www.ebay.com/itm/REAL-Teenage-Mutant-Ninja-Turtles-Weapons-Kids-toys-gift-Sword-Mask-Combat-Gear-/152505461007?var=&hash=item238208a90f:m:mqhRT8Bly-M7kOa_30eOIvg
p22
aVhttp://www.ebay.com/itm/12pcs-Half-Shell-Heroes-Teenage-Mutant-Ninja-Turtles-TMNT-Movie-Figures-Boy-Toys-/162479420635?epid=749888268&hash=item25d48734db:g:7-AAAOSw32lYoB7r
p23
aVhttp://www.ebay.com/itm/Teenage-Mutant-Ninja-Turtles-Half-Shell-Heroes-Dojo-Leo-with-Foot-Soldier-Dummy-/201754704779?epid=1058021293&hash=item2ef9847b8b:g:f-MAAOSwZ8ZW6W1~
p24
aVhttp://www.ebay.com/itm/TEENAGE-MUTANT-NINJA-TURTLES-MEGA-BLOKS-LAIR-HIDEOUT-FIGURE-BUILDING-PLAYSET-TOY-/371837489247?epid=2014108780&hash=item56933dd05f:g:TwEAAOSwmgJY52Zx
p25
aVhttp://www.ebay.com/itm/Star-Ace-Harry-Potter-The-Prisoner-of-Azkaban-Teenage-Figure-Stand-1-6th-scale-/122534380976?hash=item1c879e45b0:g:A~UAAOSwX9FZNax8
p26
aVhttp://www.ebay.com/itm/Playmates-92061-Teenage-Mutant-Ninja-Turtles-Leonardos-Electronic-Stealth-Sword-/112406864031?epid=1528638604&hash=item1a2bf8a09f:g:aIUAAOSwtGlZGEAq
p27
aVhttp://www.ebay.com/itm/NEW-Teenage-Mutant-Ninja-Turtles-Classic-1990-Movie-Collection-Donatello-Figure-/391787609086?epid=1842007439&hash=item5b385c7bfe:g:x9MAAOSwDrNZUX7e
p28
aVhttp://www.ebay.com/itm/New-Teenage-Mutant-Ninja-Turtles-Donatello-Large-11-Figure-Movie-TMNT-Official-/292056705591?epid=675534404&hash=item43ffefaa37:g:qFYAAOSwWxNYyW6A
p29
aVhttp://www.ebay.com/itm/Star-Ace-Harry-Potter-The-Prisoner-of-Azkaban-Teenage-Nude-Body-1-6th-scale-/112432438910?hash=item1a2d7ede7e:g:QMIAAOSwIQdZNaev
p30
aVhttp://www.ebay.com/itm/Funko-Pop-Teenage-Mutant-Ninja-Turtles-Pop-Vinyl-Figure-NEW-IN-STOCK-NOW-/321919344475?var=&hash=item4af3e35f5b:m:mfYNhJXOkLIkTtQtP89Nk4w
p31
aVhttp://www.ebay.com/itm/Star-Ace-Harry-Potter-The-Prisoner-of-Azkaban-Teenage-Black-Pants-1-6th-scale-/112432443731?hash=item1a2d7ef153:g:adUAAOSwq1JZNamT
p32
aVhttp://www.ebay.com/itm/Star-Ace-Harry-Potter-The-Prisoner-of-Azkaban-Teenage-Red-Tie-1-6th-scale-/112432448162?hash=item1a2d7f02a2:g:wBcAAOSwi7RZNaqJ
p33
aVhttp://www.ebay.com/itm/TMNT-Teenage-Mutant-Ninja-Turtles-KARAI-Tanto-Sword-Master-2016-NEW-/192230298227?hash=item2cc1d19273:g:8h8AAOSwPWRZUp6w
p34
aVhttp://www.ebay.com/itm/Teenage-Mutant-Ninja-Turtles-Karai-figure-New-in-stock-/332189821696?epid=2081604683&hash=item4d580e6b00:g:Ev8AAOSwSlBY2rWJ
p35
aVhttp://www.ebay.com/itm/Teenage-Mutant-Ninja-Turtles-Movie-2-Out-Of-The-Shadows-Figures-RRP-17-99-/222534519961?var=&hash=item33d0174c99:m:mv0cEfdeIKNzMtsKJOH_hdQ
p36
aVhttp://www.ebay.com/itm/Teenage-Mutant-Ninja-Turtles-Out-of-The-Shadows-Movie-Turtle-Tactical-Truck-NEW-/361564722915?hash=item542eefd6e3:g:QioAAOSwXBFXPvys
p37
aVhttp://www.ebay.com/itm/METALS-DIE-CAST-TEENAGE-MUTANT-NINJA-TURTLES-DONATELLO-4-FIGURE-M38-NEW-/262932656887?epid=1379838284&hash=item3d3801f2f7:g:XCoAAOSwpP9Y7PAo
p38
aVhttp://www.ebay.com/itm/Shredder-Teenage-Mutant-Ninja-Turtles-Movie-2014-TMNT-Figure-Villain-/332281186872?hash=item4d5d808a38:g:JqEAAOSwnF9Y8InN
p39
aVhttp://www.ebay.com/itm/Vintage-PIZZA-FACE-TEENAGE-MUTANT-NINJA-TURTLES-Action-Figure-Carded-TMNT-/272694858710?hash=item3f7de153d6:g:K-cAAOSwX61ZLpVO
p40
a.