(lp0
Vhttp://www.ebay.com/itm/Hazeldines-British-Matured-Mixed-Beef-Steak-Pack-Food-Hamper-Meat-Box-/231658000274?hash=item35efe48f92:g:6j0AAOSw7XZXhhpy
p1
aVhttp://www.ebay.com/itm/Kirkland-Premium-Thick-Cut-Cured-Dried-Natural-Beef-Steak-Strips-/162450085801?epid=716874326&hash=item25d2c797a9:g:kT0AAOSww3tY3OcF
p2
aVhttp://www.ebay.com/itm/Hazeldines-Steak-Meat-Pack-Combi-Wrap-3-/231962728933?epid=1673869944&hash=item36020e59e5:g:at8AAOSwKOJYHJJr
p3
aVhttp://www.ebay.com/itm/28-Day-Matured-Dry-Aged-Sirloin-Steak-Deal-/232152721826?var=&epid=2079584342&hash=item360d6169a2:m:mNtswdmOwIMcjnB6aqtCLkw
p4
aVhttp://www.ebay.com/itm/LAGUIOLE-6-Steak-knives-cutlery-set-dinner-knives-kitchen-knives-1-piece-shaft-B-/162498599070?hash=item25d5abd89e:g:5KIAAOSw~y9ZBxps
p5
aVhttp://www.ebay.com/itm/Hazeldines-Black-Label-Dry-Aged-Deluxe-Steak-Wrap-/231854876990?epid=1963384747&hash=item35fba0a93e:g:uIMAAOSw3ihXTYxa
p6
aVhttp://www.ebay.com/itm/Hazeldines-Black-Label-Dry-Aged-Ultimate-Steak-Wrap-/231857858143?epid=1863314494&hash=item35fbce265f:g:GKMAAOSw2zlXhhlD
p7
aVhttp://www.ebay.com/itm/Hazeldines-Black-Label-Individual-Dry-Aged-Steaks-/231963999814?var=&epid=502261385&hash=item360221be46:m:mC-smfeI8ic28t94EQGa2_Q
p8
aVhttp://www.ebay.com/itm/Sirloin-Steaks-Pack-of-5-/231827398202?hash=item35f9fd5e3a:g:HfMAAOSw--1WqL~V
p9
aVhttp://www.ebay.com/itm/Hazeldines-Black-Label-Dry-Aged-Steak-Wrap-/231821179813?hash=item35f99e7ba5:g:LVYAAOSw6btXTYx2
p10
aVhttp://www.ebay.com/itm/Eddingtons-Steak-Thermometer-Instant-Read-Stainless-Steel-Rare-Medium-Well-Done-/171856974834?epid=1737749830&hash=item28037953f2:g:81sAAOSw37tWDAfd
p11
aVhttp://www.ebay.com/itm/SteakChamp-3A-Colour-The-Ultimate-Steak-Thermometer-Small-/122512705696?epid=1076820826&hash=item1c865388a0:g:WdYAAOSwfpVZJKUB
p12
aVhttp://www.ebay.com/itm/Pack-Of-4-x-170g-Fillet-Steaks-Matured-Beef-Steak-/232216969500?epid=520190207&hash=item361135c11c:g:uIAAAOSw241YiK9e
p13
aVhttp://www.ebay.com/itm/Hazeldines-Fillet-Steak-Tail-Ends-350g-Pack-/232240058099?epid=562870702&hash=item3612960ef3:g:I4wAAOSw2gxYow3d
p14
aVhttp://www.ebay.com/itm/COALPORT-COUNTRYWARE-OVAL-STEAK-DINNER-PLATE-SERVING-MEAT-PLATTER-WHITE-WEDGWOOD-/222459458012?hash=item33cb9df1dc:g:WawAAOSwTM5Y39vR
p15
aVhttp://www.ebay.com/itm/Villeroy-and-Boch-GOURMET-6-steak-knives-cutlery-NEW-BOXED-/132001320497?hash=item1ebbe44e31:g:-DgAAOSwI-BWPx~S
p16
aVhttp://www.ebay.com/itm/Fray-Bentos-Boozy-Steak-Ale-475g-Will-Ship-Worldwide-/221374877641?hash=item338af88fc9:g:ltwAAMXQC-tS~-N1
p17
aVhttp://www.ebay.com/itm/Villeroy-and-Boch-BOTANICA-box-of-6-steak-knives-cutlery-/121792098917?hash=item1c5b5ff265:g:xZsAAOSw14xWJRjj
p18
aVhttp://www.ebay.com/itm/Kirkland-Signature-STEAK-STRIPS-extra-thick-cut-300g-best-before-15-06-17-/222577848657?hash=item33d2ac7151:g:Kq0AAOSwEAtZZMQL
p19
aVhttp://www.ebay.com/itm/Hazeldines-Diced-Steak-Chopped-Cubed-Cut-Beef-/232219270245?var=&hash=item361158dc65:m:mWen6f_DRxB_DiLQWGgkqXQ
p20
aVhttp://www.ebay.com/itm/1kg-Pack-of-Rump-Steaks-Matured-Beef-Steak-/231827400966?hash=item35f9fd6906:g:SXoAAOSwY0lXTYxj
p21
aVhttp://www.ebay.com/itm/CDN-Pack-Of-4-Steak-Thermometers-Rare-Medium-Well-Done-/231663236007?epid=1609998204&hash=item35f03473a7:g:uv8AAOSwKtlWp4Nq
p22
aVhttp://www.ebay.com/itm/Global-4-Piece-Steak-Knife-Set-with-Holder-G-88-4001-/371687373544?hash=item568a4b3ae8:g:NAIAAOSwzJ5XWrMo
p23
aVhttp://www.ebay.com/itm/Six-Stag-Antler-Handle-Steak-Grill-Knives-Boxed-Made-In-Sheffield-England-/162236756659?hash=item25c61072b3:g:hqMAAOSwxKtX~mjV
p24
aVhttp://www.ebay.com/itm/Tefal-Optigrill-XL-Health-Grill-BNIB-BBQ-Healthy-Food-Griddle-Burger-Steak-New-/162572046397?hash=item25da0c903d:g:DVsAAOSwVJhZVjG~
p25
aVhttp://www.ebay.com/itm/SteakChamp-3-Colour-The-Ultimate-Steak-Thermometer-Small-Free-Delivery-/282360435096?epid=1076820826&hash=item41bdfe5198:g:HvQAAOSw4CFYoqOc
p26
aVhttp://www.ebay.com/itm/Hazeldines-Pork-Loin-Steak-Meat-Pack-8-x-170g-Steaks-/231484877524?epid=1566298660&hash=item35e592ead4:g:YGkAAOSwygJXhhpy
p27
aVhttp://www.ebay.com/itm/Steak-Burger-Complete-Mix-500g-10kg-Batch-/321034438064?hash=item4abf24c5b0:m:mhOwAmQAT4cwr7bmWQIsGoQ
p28
aVhttp://www.ebay.com/itm/Hazeldines-Matured-Sirloin-Steaks-2-x-170g-FREE-Steak-Sauce-/231917453139?epid=1373972115&hash=item35ff5b7f53:g:6ssAAOSwMHdXTYxf
p29
aVhttp://www.ebay.com/itm/Hazeldines-170g-Individual-Matured-Fillet-Steak-/231827401756?epid=520199239&hash=item35f9fd6c1c:g:25wAAOSwHMJYHJNE
p30
aVhttp://www.ebay.com/itm/Fillet-Steak-in-Spicy-Thai-Plum-Sauce-Stir-Fry-Pack-2-x-500g-Tubs-Tortilla-/231963999870?hash=item360221be7e:g:lx4AAOSwnNBXTtby
p31
aVhttp://www.ebay.com/itm/Eddingtons-Steak-Button-Thermometer-Rare-Medium-Well-Done-/231682362470?epid=1737749830&hash=item35f1584c66:g:qu4AAOSwpRRWp4L-
p32
aVhttp://www.ebay.com/itm/Fray-Bentos-Steak-Kidney-Pie-425g-Will-Ship-Worldwide-/321324685363?hash=item4ad0719833:g:72gAAOxyni9S~-OS
p33
aVhttp://www.ebay.com/itm/CDN-4er-Packung-Steak-Thermometer-Selten-Mittlere-Gut-Fertig-/232234358272?hash=item36123f1600:g:uv8AAOSwKtlWp4Nq
p34
aVhttp://www.ebay.com/itm/Victorinox-Genuine-Stainless-Steel-Steak-knives-Kitchen-knife-ULTRA-SHARP-/322499186668?var=&hash=item4b16730fec:m:mApZ03FxSWSSnA5h2C_myUA
p35
aVhttp://www.ebay.com/itm/Hazeldines-Matured-Ribeye-Steaks-2-x-225g-FREE-Steak-Sauce-/231963998977?epid=527597094&hash=item360221bb01:g:DacAAOSwTM5Y0kwl
p36
aVhttp://www.ebay.com/itm/Six-Stag-Antler-Handle-Steak-Grill-Knives-Cased-Made-In-Sheffield-England-/162236751734?hash=item25c6105f76:g:fkQAAOSw8w1X~mOy
p37
aVhttp://www.ebay.com/itm/Digital-probe-thermometer-food-cooking-bbq-meat-steak-turkey-wine-kitchen-UK-EW3-/262801187627?epid=1379717860&hash=item3d302be32b:g:AhMAAOSwImRYdJwj
p38
aVhttp://www.ebay.com/itm/Hazeldines-Diced-Steak-Chopped-Cubed-Cut-Beef-/231464484006?var=&epid=1073863674&hash=item35e45bbca6:m:mWen6f_DRxB_DiLQWGgkqXQ
p39
aVhttp://www.ebay.com/itm/Hot-Stone-Cooking-Steak-Dinner-Black-Rock-Grill-Set-Lava-Sizzling-Plate-HO-09P-/321918231688?var=&hash=item4af3d26488:m:mVndYFVsF2IZ7wN-G3TWkWg
p40
aVhttp://www.ebay.com/itm/Hot-Stone-Cooking-Steak-Dinner-Black-Rock-Grill-Set-Lava-Sizzling-Plate-HO-19-/321477827836?epid=1011010754&hash=item4ad9925cfc:g:gSEAAOSwVFlUE1F2
p41
aVhttp://www.ebay.com/itm/SteakChamp-3-Colour-The-Ultimate-Steak-Thermometer-Small-/302262653256?epid=1076820826&hash=item4660421148:g:ww4AAOSwsW9Y1ZHD
p42
aVhttp://www.ebay.com/itm/6122-Laguiole-dinner-knife-dinner-knives-steak-knives-steak-knife-cutlery-set-/371918381491?hash=item56981021b3:g:R1sAAOSwls5Y7kaY
p43
aVhttp://www.ebay.com/itm/PRE-SEASONED-CAST-IRON-GRILL-PLATE-Sq-GRILL-PAN-STEAK-PRESS-GRILL-PRESS-BLACK-/331661193885?var=&epid=1442016655&hash=item4d388c329d:m:mrbRfYY-FwofsD0JyFle8eA
p44
aVhttp://www.ebay.com/itm/4x-Boxed-Cast-Iron-Oval-fajita-Steak-Tapas-Sizzler-Base-Sizzler-Handle-23cm-/142168499377?hash=item2119e724b1:g:HE4AAOSw6YtZS8bm
p45
aVhttp://www.ebay.com/itm/Stellar-Winchester-Stainless-Steel-12-Piece-Steak-Knife-Fork-Set-BW36-/401218105430?epid=1812655472&hash=item5d6a767056:g:FogAAOxyyrRR9gZq
p46
aVhttp://www.ebay.com/itm/5914-Laguiole-dinner-knife-dinner-knives-steak-knives-steak-knife-cutlery-set-/162410414922?hash=item25d06a434a:g:P0gAAOSwuxFYuDps
p47
aVhttp://www.ebay.com/itm/Fray-Bentos-Deep-Fill-Just-Steak-475g-Will-Ship-Worldwide-/221374877704?hash=item338af89008:g:sWcAAOxywh1S~-N8
p48
aVhttp://www.ebay.com/itm/SteakChamp-3-Colour-The-Ultimate-Steak-Thermometer-Small-/302262653256?epid=1076820826&hash=item4660421148:g:ww4AAOSwsW9Y1ZHD
p49
aVhttp://www.ebay.com/itm/MEAT-THERMOMETER-DIAL-LEAVE-IN-OVEN-ROASTING-BEEF-LAMB-TURKEY-STEAK-IN-063-/122547127683?epid=4003038501&hash=item1c8860c583:g:2yIAAOSwVctY5fk-
p50
aVhttp://www.ebay.com/itm/Rare-Aynsley-Imperial-Onyx-Black-Large-Dinner-Steak-Plate-10-5-/192017570152?hash=item2cb5239968:g:M~AAAOSwKOJYGzi~
p51
aVhttp://www.ebay.com/itm/Pine-Wooden-Chopping-Serving-Boards-x-6-New-Steak-Food-Serve-Plates-Artema-/162569838590?hash=item25d9eadffe:g:IYEAAOSwwzhZVBKV
p52
aVhttp://www.ebay.com/itm/New-Digital-Kitchen-Food-Probe-Thermometer-for-Cooking-BBQ-Meat-Steak-Turkey-UK-/292172147783?hash=item4406d12c47:g:PDUAAOSwTf9ZW1nx
p53
aVhttp://www.ebay.com/itm/Villeroy-and-Boch-Oscar-6pc-Steak-Knife-Set-in-Wooden-Box-/172431357995?hash=item2825b5b82b:g:JicAAOSwA3dYQtl1
p54
aVhttp://www.ebay.com/itm/NEW-Restaurant-Quality-6-Ultra-Sharp-STEAK-KNIVES-with-Rivetted-Wooden-Handles-/222027671420?epid=1413478606&hash=item33b1e1677c:g:EvYAAOSw~OVWxcCR
p55
aVhttp://www.ebay.com/itm/Six-Genuine-Stag-Antler-Handle-Steak-Knives-Boxed-Made-In-Sheffield-England-/162235545894?epid=1993161595&hash=item25c5fdf926:g:WT8AAOSwNRdX~Q~v
p56
aVhttp://www.ebay.com/itm/Digital-probe-thermometer-food-cooking-bbq-meat-steak-turkey-wine-kitchen-UK-S-3-/292003351200?epid=1379717860&hash=item43fcc18aa0:g:MZoAAOSw5cNYfxCN
p57
aVhttp://www.ebay.com/itm/Hot-Stone-Cooking-Steak-Set-Dinner-Black-Rock-Grill-Lava-Sizzling-Plate-HO-3627-/222340699427?var=&epid=2100386391&hash=item33c489d523:m:m3qcUxPRwT-N1aPsdhr0qfQ
p58
aVhttp://www.ebay.com/itm/Heiss-Stein-Kochen-Steak-Set-Abendessen-Black-Rock-Grill-Lava-Knisternde-Platte-/322232263600?var=&hash=item4b068a23b0:m:me0-Mx2I-r_YLhJZcpfvz8A
p59
aVhttp://www.ebay.com/itm/NEW-Laguiole-6pc-Steak-Knife-Set-In-Block-Mushroom-Deluxe-New-Release-/172336958228?epid=1484158844&hash=item2820154b14:g:pXQAAOSwGtRX0ovl
p60
aVhttp://www.ebay.com/itm/Redmond-Smart-Multi-Cooker-900W-Mobile-App-RMC-M800S-E-Steak-Pies-Soup-Yoghurt-/262922972328?hash=item3d376e2ca8:g:jhkAAOSw03lY41k7
p61
aVhttp://www.ebay.com/itm/Four-Genuine-Stag-Antler-Handle-Steak-Grill-Knives-Made-In-Sheffield-England-/162236755581?epid=857339142&hash=item25c6106e7d:g:caMAAOSwPCVX~mUC
p62
aVhttp://www.ebay.com/itm/Hot-Stone-Cooking-Steak-Dinner-Black-Rock-Grill-Set-4-Lava-Sizzling-Plate-HO-09-/321592539836?epid=1804682898&hash=item4ae068babc:g:X90AAOSw7NNUEzOI
p63
aVhttp://www.ebay.com/itm/DIGITAL-PROBE-THERMOMETER-MEAT-COOKING-STEAK-FOOD-CHICKEN-BBQ-31-155-0-/221988370045?hash=item33af89b67d:g:RQkAAOxyYANTXjGo
p64
aVhttp://www.ebay.com/itm/Villeroy-and-Boch-GOURMET-6-steak-knives-and-forks-cutlery-NEW-BOXED-/122010704004?hash=item1c68679884:g:DmIAAOSwI-BWPnEb
p65
aVhttp://www.ebay.com/itm/Hot-Stone-Cooking-Sharing-Steak-Set-Dinner-Black-Rock-Grill-Sizzling-Plate-HO66-/222340713742?var=&epid=2100399107&hash=item33c48a0d0e:m:mPYtsFV3zo7IA7ginxQU8ag
p66
aVhttp://www.ebay.com/itm/Cast-Iron-Sizzler-Hot-Serving-Steak-Plate-Pan-Grill-Platter-Dish-and-Wooden-Tray-/142243127566?var=&epid=1541973965&hash=item211e59e10e:m:mRsynlZTGbqbP9janJb4uTQ
p67
aVhttp://www.ebay.com/itm/Olive-Wood-Handle-Laguiole-Steel-Steak-Forks-Set-of-6-/152020285269?hash=item23651d7755:g:0QUAAOSwZ8ZW7DMx
p68
aVhttp://www.ebay.com/itm/6040B-Laguiole-dinner-knife-dinner-knives-steak-knives-steak-knife-cutlery-set-/371665753619?hash=item5689015613:g:7CYAAOSwPh5ZEFDk
p69
aVhttp://www.ebay.com/itm/Pierres-Chaudes-Cuisson-Steak-Diner-Black-Rock-Grill-Jeu-De-6-Lava-Gresillement-/222223081914?hash=item33bd8721ba:g:oKoAAOSw-jhUE0GC
p70
aVhttp://www.ebay.com/itm/6-X-Quality-STEAK-KNIVE-STAINLESS-STEEL-SERRATED-KNIVES-KITCHEN-UTENSIL-New-/400507615132?epid=1371245985&hash=item5d401d379c:g:IecAAOxyV85R3obN
p71
aVhttp://www.ebay.com/itm/611-Laguiole-dinner-knife-dinner-knives-steak-knives-steak-knife-cutlery-set-/371665746001?hash=item5689013851:g:HlYAAOSwjXRXbqRX
p72
aVhttp://www.ebay.com/itm/DIGITAL-POCKET-PROBE-THERMOMETER-MEAT-BBQ-TURKEY-STEAK-COOKING-31-161-0-/221988228476?epid=1613514801&hash=item33af878d7c:g:OKIAAMXQNo5TWr96
p73
aVhttp://www.ebay.com/itm/DIGITAL-LCD-KITCHEN-PROBE-THERMOMETER-FOOD-COOKING-BBQ-MEAT-STEAK-TURKEY-ALARM-/282362896504?hash=item41be23e078:g:mScAAOSwr~lYpZRW
p74
aVhttp://www.ebay.com/itm/Heis-Stein-Kochen-Steak-Dinner-Black-Rock-Grill-4er-Set-Lava-Knisternde-Platte-/322232265900?hash=item4b068a2cac:g:X90AAOSw7NNUEzOI
p75
aVhttp://www.ebay.com/itm/Wood-Sons-Jacks-Farm-12-Oval-Steak-Plate-Platter-/262583627834?hash=item3d2334303a:g:DtEAAOSwU-pXtXyA
p76
aVhttp://www.ebay.com/itm/6-Master-Class-22cm-Polished-Stainless-Steel-Serrated-Table-Steak-Knives-Knife-/371828740065?epid=1737647868&hash=item5692b84fe1:g:MN8AAOSwqu9U5dL1
p77
aVhttp://www.ebay.com/itm/Laguiole-Set-of-6-Steak-Knives-and-Block-Set-Multi-Colour-Black-or-Ivory-/371706855798?var=&epid=1512545724&hash=item568b748176:m:mcuHy9TMWmLHZ5HonY8c1Ow
p78
aVhttp://www.ebay.com/itm/SOLID-OLVIVE-WOODEN-STEAK-BOARDS-BURGER-BBQ-WEDDING-CHEESE-CARVING-JUICE-GROOVE-/152601399529?hash=item2387c090e9:g:0~AAAOSwceNZOvrf
p79
aVhttp://www.ebay.com/itm/Olympia-Large-Acacia-Steak-Board-x6-/112261869375?epid=1594330115&hash=item1a23542f3f:g:IREAAOSwnHZYcUXy
p80
aVhttp://www.ebay.com/itm/6043-Laguiole-dinner-knife-dinner-knives-steak-knives-steak-knife-cutlery-set-/371751517468?hash=item568e1dfd1c:g:IWUAAOSwLnBX8PFu
p81
aVhttp://www.ebay.com/itm/Rosle-4-Steak-and-Meat-Thermometer-for-Poultry-Beef-Pork-Lamb-Rosle-25067-/172484221459?epid=1530330617&hash=item2828dc5a13:g:fMIAAOSwUFtZaWUA
p82
aVhttp://www.ebay.com/itm/NEW-Laguiole-6pc-Steak-Knife-Set-In-Block-Pearlised-Multicoulored-ORIGINAL-/172336958314?epid=1984098501&hash=item2820154b6a:g:NqcAAOSwgmJX0oy3
p83
aVhttp://www.ebay.com/itm/LONG-DIGITAL-PROBE-MEAT-THERMOMETER-KITCHEN-BBQ-TURKEY-STEAK-COOKING-31-156-0-/322190013976?hash=item4b04057618:g:K2sAAOxyc2pTXjK3
p84
aVhttp://www.ebay.com/itm/Eddingtons-Steak-Thermometer-Instant-Read-Stainless-Steel-Rare-Medium-Well-Done-/351891706263?epid=918363863&hash=item51ee615197:g:6xkAAOSw44BYEjyk
p85
aVhttp://www.ebay.com/itm/6050-Laguiole-dinner-knife-dinner-knives-steak-knives-steak-knife-cutlery-set-/371665749983?hash=item56890147df:g:S1gAAOSwNuxXbqYt
p86
aVhttp://www.ebay.com/itm/Four-Genuine-Stag-Antler-Handle-Steak-Knife-Made-In-Sheffield-England-/162235552847?epid=1993161595&hash=item25c5fe144f:g:~4wAAOSw4shX~RGB
p87
aVhttp://www.ebay.com/itm/Hot-Stone-Cooking-Steak-Dinner-Black-Rock-Grill-Set-Lava-Sizzling-Plate-HO-09-/321799281631?var=&epid=1804682898&hash=item4aecbb5bdf:m:mC1T24dZiFqyG17qh__l-sg
p88
aVhttp://www.ebay.com/itm/Digital-probe-thermometer-food-cooking-bbq-meat-steak-turkey-wine-kitchen-UK-3A3-/142240317229?epid=1379717860&hash=item211e2eff2d:g:~SAAAOSwA3dYdJw-
p89
aVhttp://www.ebay.com/itm/Pyrex-Expert-Touch-Grill-Pan-28cm-INDUCTION-Steak-Pan-/172675972678?hash=item28344a3e46:g:AaIAAOSwlMFZGckq
p90
aVhttp://www.ebay.com/itm/603M-Laguiole-dinner-knife-dinner-knives-steak-knives-steak-knife-cutlery-set-/162116634393?hash=item25bee78719:g:JUIAAOSw-4BXbqCT
p91
aVhttp://www.ebay.com/itm/FOOD-FUN-FANCY-DRESS-COSTUME-BACON-FRIEDEGG-HOTDOG-CARROT-STEAK-ADULT-ONE-SIZE-/310703057110?var=&epid=560543178&hash=item48575868d6:m:mQXIcTgnqX9wfr46NUhF7xQ
p92
aVhttp://www.ebay.com/itm/Virgule-Steak-Knife-x-12-Black-handle-Serrated-Tableware-Catering-restaurant-/252290475607?epid=1105248726&hash=item3abdaf2657:g:6~gAAOSwnDZT1ina
p93
aVhttp://www.ebay.com/itm/Perfect-Steak-Square-Non-Stick-Grill-Pan-Griddle-Frying-Pan-Extras-TOP-QUALITY-/122484053859?epid=846120800&hash=item1c849e5763:g:aJcAAOSww9xZD1Mz
p94
aVhttp://www.ebay.com/itm/Hot-Stone-Cooking-Steak-Dinner-Black-Rock-Grill-Set-4-Lava-Sizzling-Plate-HO-19-/321477840488?epid=1011010754&hash=item4ad9928e68:g:FloAAOSwGvhUE1Sx
p95
aVhttp://www.ebay.com/itm/2-CAST-IRON-STEAK-SIZZLE-SIZZLING-SERVING-PLATTER-PLATE-DISH-WOODEN-BASE-BOTTOM-/311844996122?hash=item489b69041a:g:n0YAAOSwsXFZF1g2
p96
aVhttp://www.ebay.com/itm/611BK-Laguiole-dinner-knife-dinner-knives-steak-knives-steak-knife-cutlery-set-/162116646186?hash=item25bee7b52a:g:w88AAOSwGIRXbqT3
p97
aVhttp://www.ebay.com/itm/Unusual-Birthday-Gift-Hot-Stone-Cooking-Grill-Sharing-Steak-Set-Black-Rock-/221955401120?var=&epid=1337998335&hash=item33ad92a5a0:m:mxTpgDPkT0ucGQI9XxeaNEA
p98
aVhttp://www.ebay.com/itm/Hazeldines-Diced-Steak-Chopped-Cubed-Cut-Beef-/231464484006?var=&epid=1073863674&hash=item35e45bbca6:m:mWen6f_DRxB_DiLQWGgkqXQ
p99
aVhttp://www.ebay.com/itm/Solid-Olive-Wooden-Chop-Board-Serving-Board-Restaurant-Burger-Steak-BBQ-Wedding-/152621140603?hash=item2388edca7b:g:0~AAAOSwceNZOvrf
p100
aVhttp://www.ebay.com/itm/48-Piece-Stainless-Steel-cutlery-Set-In-White-Black-Red-Steak-Knives-Included-/192027823162?var=&hash=item2cb5c00c3a:m:m_67oGKwfIWyTR0Hkxt7wTw
p101
aVhttp://www.ebay.com/itm/Inkbird-IBT-6X-black-Wireless-Bluetooth-Thermometer-BBQ-Grill-steak-6-probes-UK-/112411243509?hash=item1a2c3b73f5:g:qDMAAOSwlMFZHVvP
p102
aVhttp://www.ebay.com/itm/Unusual-Birthday-Gift-Hot-Stone-Cooking-Grill-Steak-Set-Black-Rock-HO-19GS-/221955401119?var=&epid=1011010754&hash=item33ad92a59f:m:m6k03pvToA8c4KTvAQ2rtkQ
p103
a.