(lp0
Vhttp://www.ebay.com/itm/Prime-Suspect-Complete-Collection-2008-DVD-Helen-Mirren-Tom-Bell-Brand-New-/281690522122?epid=59540596&hash=item419610420a:g:DAQAAOSwEetV9HOE
p1
aVhttp://www.ebay.com/itm/Prime-Suspect-1973-New-DVD-/401291654030?epid=596133021&hash=item5d6ed8b38e:g:vXwAAOSwXYtY3mG2
p2
aVhttp://www.ebay.com/itm/Prime-Suspect-Complete-Collection-New-DVD-/311454482712?epid=69723727&hash=item4884224118:g:pioAAOSw4CFY3j1P
p3
aVhttp://www.ebay.com/itm/Prime-Suspect-1973-DVD-NEW-/401304195833?epid=596133021&hash=item5d6f9812f9:g:l20AAOSwB-1Y5mTC
p4
aVhttp://www.ebay.com/itm/Prime-Suspect-Complete-Collection-DVD-10-Disc-Set-Box-Set-NEW-SEALED-/132125219924?epid=69723727&hash=item1ec346dc54:g:xJ8AAOSwB-1YuHbF
p5
aVhttp://www.ebay.com/itm/Clare-Hope-Ashitey-Phoenix-Suspects-Series-2-DVD-NEW-/302059167351?epid=1837140501&hash=item4654211e77:g:9IQAAOSw9IpXyG5f
p6
aVhttp://www.ebay.com/itm/Helen-Mirren-Tom-Bell-Peter-Capaldi-PRIME-SUSPECT-3-TV-Movie-Thriller-UK-DVD-/222027825743?epid=3960099&hash=item33b1e3c24f:g:QroAAOSwkShY9438
p7
aVhttp://www.ebay.com/itm/Suspects-series-1-DVD-NEW-/291519151617?epid=1330538319&hash=item43dfe53e01:g:1MQAAOSwol5Yvrnr
p8
aVhttp://www.ebay.com/itm/PRIME-SUSPECT-COMPLETE-COLLECTION-BRAND-NEW-DVD-BOXSET-/150564159427?hash=item230e52bfc3:g:RuIAAOSwwpdW3pHX
p9
aVhttp://www.ebay.com/itm/Suspects-Series-2-DVD-5030697029607-Fay-Ripley-Damien-Molony-Clare-Hope-A-/351825987081?epid=1837140501&hash=item51ea768609:g:bnEAAOSwbsBXjhF7
p10
aVhttp://www.ebay.com/itm/Prime-Suspect-Complete-Collection-Box-Set-2006-Brand-New-DVD-/271779414588?hash=item3f4750c23c:g:dPcAAOSwBLlU5GRF
p11
aVhttp://www.ebay.com/itm/Cher-Dennis-Quaid-Liam-Neeson-SUSPECT-1987-Murder-Mystery-Thriller-UK-DVD-/222427222712?epid=44092916&hash=item33c9b212b8:g:Lw8AAOSwTM5YuFo9
p12
aVhttp://www.ebay.com/itm/CRIMINAL-MINDS-SUSPECT-BEHAVIOR-DVD-Region-1-Sealed-/162416286692?epid=1009936057&hash=item25d0c3dbe4:g:JmcAAOSwTuJYuHgP
p13
aVhttp://www.ebay.com/itm/Suspects-Series-Three-To-Five-DVD-NEW-/282397484832?epid=601141563&hash=item41c033a720:g:c3gAAOSwdGFYyg9B
p14
aVhttp://www.ebay.com/itm/Suspects-Series-Three-To-Five-DVD-NEW-/352006466232?epid=570332873&hash=item51f5386ab8:g:TXwAAOSwol5YygZy
p15
aVhttp://www.ebay.com/itm/Prime-Suspect-The-Complete-TV-Series-Collection-Box-Set-New-Sealed-DVD-/360619840283?epid=69723727&hash=item53f69e131b:g:FwYAAOSw9N1V1FYS
p16
aVhttp://www.ebay.com/itm/Helen-Mirren-PRIME-SUSPECT-4-Inner-Circle-Linda-La-Plante-TV-Movie-UK-DVD-/221291957986?epid=3957637&hash=item3386074ee2:g:ofUAAOSwHHFY9mOV
p17
aVhttp://www.ebay.com/itm/BLU-RAY-THE-USUAL-SUSPECTS-BRAND-NEW-SEALED-UK-STOCK-/162099695413?epid=72541102&hash=item25bde50f35:g:9mwAAOxy0zhTLsRi
p18
aVhttp://www.ebay.com/itm/The-Usual-Suspects-Blu-ray-/331644437264?epid=72541102&hash=item4d378c8310:g:IYAAAOSw5ZBWMQlR
p19
aVhttp://www.ebay.com/itm/Prime-Suspect-The-Complete-Collection-DVD-Boxset-Region-2-Europe-New-/361380849831?epid=1205436006&hash=item5423fa28a7:g:25QAAOSwu4BV6Xay
p20
aVhttp://www.ebay.com/itm/Norman-Bird-Mervyn-Johns-80-000-Suspects-DVD-NEW-/281841651436?epid=1842120837&hash=item419f124eec:g:MjAAAOSw5VFWMSYi
p21
aVhttp://www.ebay.com/itm/Prime-Suspect-2-DVD-Helen-Mirren-John-Benfield-Stephen-Boxer-et-al-/301150999513?epid=1031703013&hash=item461dff93d9:g:d68AAMXQyY1TSGjp
p22
aVhttp://www.ebay.com/itm/Prime-Suspect-2-DVD-Helen-Mirren-John-Benfield-Stephen-Boxer-et-al-/301150999513?epid=1031703013&hash=item461dff93d9:g:d68AAMXQyY1TSGjp
p23
aVhttp://www.ebay.com/itm/Da-in-Yoo-Jae-yun-Jo-Suspect-DVD-NEW-/301877009103?epid=1934349449&hash=item4649459acf:g:q3sAAOSwQYZWx~pX
p24
aVhttp://www.ebay.com/itm/Prime-Suspect-Complete-Collection-Box-Set-Helen-Mirren-New-DVD-/182537645093?epid=69723727&hash=item2a80176c25:g:~50AAOSwhQhYxXfv
p25
aVhttp://www.ebay.com/itm/Prime-Suspect-3-DVD-Region-2-Helen-Mirren-Tom-Bell-Peter-Capaldi-David-Thewli-/201215866723?hash=item2ed9667763:g:hfAAAOSwq7JUH-u0
p26
aVhttp://www.ebay.com/itm/Prime-Suspect-6-The-Last-Witness-DVD-2003-/301150997190?epid=1531258512&hash=item461dff8ac6:g:EMMAAOxyBvZTSGjb
p27
aVhttp://www.ebay.com/itm/Aaron-Eckhart-Ben-Kingsley-SUSPECT-ZERO-2004-Serial-Killer-Thriller-UK-DVD-/221204870174?epid=45359305&hash=item3380d6741e:g:K5QAAOxyQj9RTHdQ
p28
aVhttp://www.ebay.com/itm/THE-USUAL-SUSPECTS-DVD-NEW-SEALED-/400944645182?epid=72557569&hash=item5d5a29c43e:m:mpEFsdI_YkVdRH0cos9U5Hw
p29
aVhttp://www.ebay.com/itm/PRIME-SUSPECT-COMPLETE-COLLECTION-DVD-REGION-2-UK-/162224462122?epid=69723727&hash=item25c554d92a:g:9eIAAOSwx6pYqvqD
p30
aVhttp://www.ebay.com/itm/Prime-Suspect-1-DVD-1991-Region-2-/301148042040?epid=1231301709&hash=item461dd27338:g:CtkAAOxyBjBTRDn0
p31
aVhttp://www.ebay.com/itm/Prime-Suspect-5-Errors-Of-Judgement-DVD-Region-2-Helen-Mirren-John-McArdle-/201258426181?hash=item2edbefdf45:g:ByAAAOSwGotWoP3R
p32
aVhttp://www.ebay.com/itm/Prime-Suspect-Complete-Collection-2008-DVD-Helen-Mirren-Tom-Bell-Brand-New-/281696127556?epid=69723727&hash=item419665ca44:g:vdoAAOSwHnFVxF1o
p33
aVhttp://www.ebay.com/itm/Prime-Suspect-7-The-Final-Act-DVD-Region-2-Helen-Mirren-Tom-Bell-Stephen-To-/381049793267?hash=item58b8566af3:g:8KEAAOSwL7VWojjT
p34
aVhttp://www.ebay.com/itm/Prime-Suspect-4-The-Lost-Child-DVD-/301150999907?hash=item461dff9563:g:tOAAAOxySoJTSGkS
p35
aVhttp://www.ebay.com/itm/The-Usual-Suspects-1995-DVD-/291277872993?hash=item43d1839f61:g:BgcAAOSwajVUTN8k
p36
aVhttp://www.ebay.com/itm/Da-in-Yoo-Jae-yun-Jo-Suspect-DVD-NEW-/301877009103?epid=1934349449&hash=item4649459acf:g:q3sAAOSwQYZWx~pX
p37
aVhttp://www.ebay.com/itm/TV-ICONS-HELEN-MIRREN-PRIME-SUSPECT-PRIME-SUSPECT-1-SUN-PROMO-DVD-/371989678640?hash=item569c500a30:g:el4AAOSwgv5ZS7U0
p38
a.