(lp1
Vhttp://www.ebay.com/itm/Sci-Fi-Miniatures-Sedition-Wars-Exo-Form-Mutant-Stalkers-x-4-Plastic-25mm-/121711464795?hash=item1c5691915b:g:0WkAAOSwDNdVjE4r
p2
aVhttp://www.ebay.com/itm/Sci-Fi-Scenery-Sedition-Wars-Tokens-useful-for-any-Sci-fi-game-/111725173341?hash=item1a0356da5d:g:gvkAAOSwu4BVjFyj
p3
a.