(lp1
Vhttp://www.ebay.com/itm/Stretchy-Soft-Silicone-Testicle-Ballsack-Keychain-Keyring-Rear-View-Mirror-Toy-/112483772576?hash=item1a308e28a0:g:HPoAAOSwo4pYfUBM
p2
aVhttp://www.ebay.com/itm/Testicle-Keyring-Novelty-Scrotum-Pair-Of-Balls-Gift-Secret-Santa-Joke-/262902684888?hash=item3d36389cd8:g:k0kAAOSwTM5Yz8ZQ
p3
aVhttp://www.ebay.com/itm/ELECTROSTIM-TENS-STEEL-BALL-TESTICLE-STRETCHER-ENLARGER-WITH-2MM-FEMALE-PLUG-/322092858111?var=&hash=item4afe3afaff:m:mJ5afCqY3YAPXWGmRY7-rQg
p4
aVhttp://www.ebay.com/itm/ELECTROSEX-TENS-STEEL-BALL-TESTICLE-STRETCHER-ENLARGER-WITH-2MM-FEMALE-PLUG-/322090157683?hash=item4afe11c673:g:oH0AAOSwWTRWztoq
p5
aVhttp://www.ebay.com/itm/Mens-Fashion-Testicle-Ball-Bag-Scrotum-Posing-Pouch-with-Tie-Strings-UK-POST-/162546153074?hash=item25d8817672:g:rYgAAOSwqYBWphgh
p6
aVhttp://www.ebay.com/itm/Testicle-Shaped-Stress-Balls-Reliever-Prank-Joke-Fun-Secret-Santa-Xmas-Adult-Toy-/272722558057?hash=item3f7f87fc69:g:BHYAAOSw-89ZRTgE
p7
aVhttp://www.ebay.com/itm/STRESSTICLES-TESTICLE-STRESS-BALLS-ADULT-HEN-STAG-NOVELTY-RUDE-OFFICE-FIDGET-TOY-/371899880838?epid=699621357&hash=item5696f5d586:g:y7kAAOSwax5Y0otm
p8
aVhttp://www.ebay.com/itm/ELECTRO-ESTIM-TENS-STEEL-BALL-TESTICLE-STRETCHER-ENLARGER-WITH-2MM-FEMALE-PLUG-/222102824034?hash=item33b65c2462:g:kj8AAOSwuAVWztpT
p9
aVhttp://www.ebay.com/itm/Mens-Adjustable-Leather-Bound-Cock-Ball-Testicle-Stretcher-DISCREET-UK-POST-/152559336866?var=&hash=item23853ebda2:m:mlMEwy3U2I52rgCjNF6Jkwg
p10
aVhttp://www.ebay.com/itm/Testicle-Balls-Scrotum-Keyring-Key-Chain-joke-gift-Xmas-secret-Santa-61-2740-/352102618672?hash=item51faf39630:g:xWEAAOSw6n5Xpysc
p11
aVhttp://www.ebay.com/itm/ROUND-2-PIECE-BALL-STRETCH-WEIGHS-200G-STAINLESS-STEEL-TESTICLE-SCROTUM-WEIGHT-/252505703704?hash=item3aca834518:g:z6kAAOSwaB5Xrjab
p12
aVhttp://www.ebay.com/itm/ELECTROSEX-TENS-E-STIM-STEEL-BALL-TESTICLE-STRETCHER-WITH-2MM-FEMALE-PLUG-UK-/322522807838?hash=item4b17db7e1e:g:0q0AAOSwYlRZIAbX
p13
aVhttp://www.ebay.com/itm/THE-BIG-ONE-STAINLESS-STEEL-BALL-WEIGHT-TESTICLE-STRETCHER-935G-CBT-/201654407907?hash=item2ef38a12e3:g:P8QAAOSwFc5XwEnF
p14
aVhttp://www.ebay.com/itm/Adjustable-Ball-Stretcher-Chastity-Extreme-CBT-testicle-Stretcher-Ball-weight-/291350054766?hash=item43d5d1076e:g:GUEAAOSw-W5Ur~hM
p15
aVhttp://www.ebay.com/itm/Stress-Balls-Testicle-Shaped-Stress-Reliever-/161914726090?epid=1609932978&hash=item25b2dea6ca:g:o8UAAOSwFNZW1EH5
p16
aVhttp://www.ebay.com/itm/ELECTROSEX-TENS-STEEL-BALL-TESTICLE-STRETCHER-ENLARGER-WITH-2MM-FEMALE-PLUG-/222103940544?var=&hash=item33b66d2dc0:m:mPBTlc_6QrfybZ6nBWI8MYA
p17
aVhttp://www.ebay.com/itm/SAGGY-BALL-WASHER-FLANNEL-TESTICLE-WASH-CLOTH-ADULT-FUNNY-NOVELTY-GIFT-FOR-HIM-/222345646617?hash=item33c4d55219:g:2NEAAOSw9mFWLjiO
p18
aVhttp://www.ebay.com/itm/Stressticles-novelty-stress-balls-testicle-rudge-office-gifts-/332261306664?epid=699621357&hash=item4d5c513128:i:332261306664
p19
aVhttp://www.ebay.com/itm/MAX-MAN-PERFOMANCE-PENIS-AND-TESTICLE-3-RING-CAGE-ERECTILE-AID-UK-SELLER-/222138914665?var=&hash=item33b882d769:m:msTvIOwsZu02gzTv7hF_1ug
p20
aVhttp://www.ebay.com/itm/Magnetic-Ball-Stretcher-Testicle-stretcher-Bondage-Ball-weight-/301696002676?var=&hash=item463e7baa74:m:mP07At7JxyqjhUzg_nT670Q
p21
aVhttp://www.ebay.com/itm/Mens-Leather-Fetish-Adjustable-Ball-Testicle-Scrotum-Stretcher-FAST-FREE-UK-POST-/162441703637?var=&hash=item25d247b0d5:m:m_kXU-JfLco5HFUqUuhfcZA
p22
aVhttp://www.ebay.com/itm/DONUT-BALL-STRETCHER-STAINLESS-STEEL-TESTICLE-BONDAGE-BALL-WEIGHT-NEW-2016-/261507194102?hash=item3ce30b1cf6:g:wIwAAOSwIgNXrjaX
p23
aVhttp://www.ebay.com/itm/Armour-Up-Male-Bulge-Enhancer-Ring-Sex-y-Enhancement-Bag-Cage-Device-Enhancing-/122568530787?var=&hash=item1c89a75b63:m:mM-0pjo9i2xhx5r04WF8Fcg
p24
aVhttp://www.ebay.com/itm/Testicle-Weights-Chromed-Steel-Impotence-Aid-Ball-Stretcher-Bondage-Fetish-Large-/152404440493?hash=item237c0335ad:g:C1MAAOSwopRYgojU
p25
aVhttp://www.ebay.com/itm/TheSexShopOnline-Wooden-Multiple-Use-Spiked-Testicle-General-Bondage-Clamp-/401331804742?hash=item5d713d5a46:g:cqcAAOSwcB5ZIhUW
p26
aVhttp://www.ebay.com/itm/Testicle-Weights-Set-Chromed-Steel-Impotence-Aid-Ball-Stretcher-Bondage-Fetish-/152404447490?hash=item237c035102:g:6ekAAOSwLEtYgomE
p27
aVhttp://www.ebay.com/itm/Funky-Tri-Cage-Triple-Male-Erection-Enhancer-Ring-Sex-y-Enhancement-Device-/122564794653?var=&hash=item1c896e591d:m:mPtB0MeFslEXeUm-HIQV9Yw
p28
aVhttp://www.ebay.com/itm/Testicle-Weights-Chromed-Steel-Impotence-Aid-Ball-Stretcher-Bondage-Fetish-Small-/152404439130?hash=item237c03305a:g:OBMAAOSwNnRYgohO
p29
aVhttp://www.ebay.com/itm/Testicle-Weights-Chromed-Steel-Impotence-Aid-Ball-Stretcher-Bondage-Fetish-Med-/151905452635?hash=item235e45425b:g:G1wAAOSwUKxYgorb
p30
aVhttp://www.ebay.com/itm/PENIS-AND-TESTICLE-STEEL-3-RING-CAGE-ERECTION-IMPOTENCE-AID-UK-SELLER-/222242370682?var=&hash=item33bead747a:m:mEJ-_5khm9OIwDxq0Bq-Q6w
p31
aVhttp://www.ebay.com/itm/Oval-Ball-Stretcher-30-40-60-x-35mm-Bondage-Ball-Weights-testicle-stretcher-/301218884186?var=&hash=item46220b6a5a:m:mJvHKjOAdVSFQzZZA-Ofomg
p32
aVhttp://www.ebay.com/itm/One-Piece-Soft-Stretcy-Silicone-Dual-Erection-Enhancer-Ring-Set-Impotence-Aid-/122591138534?var=&hash=item1c8b0052e6:m:mEh2xmBSoXYt7JimSqH1ftQ
p33
aVhttp://www.ebay.com/itm/MAX-IMPOTENCE-STEEL-PENIS-AND-TESTICLE-3-RING-TIER-CAGE-ERECTION-AID-UK-SELLER-/322252523380?var=&hash=item4b07bf4774:m:msTvIOwsZu02gzTv7hF_1ug
p34
aVhttp://www.ebay.com/itm/Oval-Ball-Stretcher-Bondage-Ball-Weights-testicle-stretcher-Donut-stretcher-/301676139843?var=&hash=item463d4c9543:m:mBI05Z6dE70p5lXhSWduF4Q
p35
aVhttp://www.ebay.com/itm/Realistic-Testicle-Shaped-Keychain-Keyring-Funny-Novelty-Hen-Stag-/131863291670?epid=1875348367&hash=item1eb3aa2716:g:MXwAAOSwjL5ZMDO0
p36
aVhttp://www.ebay.com/itm/ELECTROSEX-TENS-E-STIM-STEEL-BALL-TESTICLE-STRETCHER-WITH-2MM-FEMALE-PLUG-UK-/222382762336?hash=item33c70ba960:g:lj8AAOSwfpVZIAfu
p37
aVhttp://www.ebay.com/itm/HIGH-QUALITY-STAINLESS-STEEL-METAL-TESTICLE-BALL-STRETCHER-BONDAGE-BALL-WEIGHT-/262575278352?hash=item3d22b4c910:g:wIwAAOSwIgNXrjaX
p38
a.