(lp1
Vhttp://www.ebay.com/itm/Serenade-Blue-Soothing-Cooling-or-Heating-Gel-Eye-Face-Mask-/172276462838?epid=1237651027&hash=item281c7a34f6:g:peEAAOSw-4BXYlyL
p2
aVhttp://www.ebay.com/itm/CARLY-SIMON-MOONLIGHT-SERENADE-ON-THE-QUEEN-MARY-II-DVD-UK-Compatible-/162416297898?epid=1504946580&hash=item25d0c407aa:g:w8oAAOSwax5YuHqA
p3
aVhttp://www.ebay.com/itm/Moonlight-Serenade-DVD-2011-/152366275336?epid=102222950&hash=item2379bcdb08:m:mw_XyYeg_QVoWLnwqgzuaYw
p4
aVhttp://www.ebay.com/itm/Sambucus-nigra-Serenade-in-9cm-pot-cut-leaf-elderberry-/162445811297?hash=item25d2865e61:g:i2gAAOSwhQhY2Bf~
p5
aVhttp://www.ebay.com/itm/Katherine-Jenkins-Serenade-Deluxe-Edition-DVD-/262839995202?epid=73047427&hash=item3d327c0b42:m:mPIBZE_Nn1yyh78R9Kdh5ng
p6
aVhttp://www.ebay.com/itm/Serenade-Pink-Soothing-Cooling-or-Heating-Gel-Eye-Face-Mask-/172276822326?epid=1237651027&hash=item281c7fb136:g:duEAAOSwMr1XPWtt
p7
aVhttp://www.ebay.com/itm/RHYTHM-SERENADE-THE-VERA-LYNN-COLLECTIONDVD-BRAND-NEW-SEALED-/282165488646?epid=109266523&hash=item41b25fac06:g:i4EAAOSwFe5Xz-8w
p8
aVhttp://www.ebay.com/itm/A-DENBY-SERENADE-10-DINNER-PLATE-/171667166935?hash=item27f82916d7:g:rT0AAOSwPhdU0L-N
p9
aVhttp://www.ebay.com/itm/Serenade-Premium-Polished-Wood-Gents-Military-Hair-and-Beard-Brush-/172276973856?epid=1670489299&hash=item281c820120:g:UjUAAOSwi4lXPakA
p10
aVhttp://www.ebay.com/itm/EDINBURGH-Crystal-SERENADE-Cut-Wine-Glass-Glasses-6-3-4-/400411904513?hash=item5d3a68ca01:g:RCUAAOxy-1lRGheK
p11
aVhttp://www.ebay.com/itm/Roberto-Cardinali-Italian-Serenade-2003-CD-New-Sealed-/390670702461?epid=59445865&hash=item5af5c9d77d:g:id4AAOSwd4tT-hSR
p12
aVhttp://www.ebay.com/itm/David-Hughes-Serenade-The-Best-Of-NEW-CD-/390881140405?epid=111071595&hash=item5b0254deb5:g:r0YAAOSw9NxTu7H2
p13
aVhttp://www.ebay.com/itm/Andre-Rieu-Moonlight-Serenade-CD-DVD-/142140484254?epid=93717271&hash=item21183baa9e:m:m1tdkhN7UVHM9FFe3cah8gA
p14
aVhttp://www.ebay.com/itm/Rice-Paper-for-Decoupage-Decopatch-Scrapbook-Craft-Sheet-Vintage-Love-Serenade-/201813325773?hash=item2efd02f7cd:g:n8MAAOSw4CFYnM25
p15
aVhttp://www.ebay.com/itm/TRUE-IMAGE-ADRENALIN-SERENADE-LOVEMAN-RONNIE-STOKES-Unlimited-Love-6-12-/182491610399?hash=item2a7d58fd1f:g:-68AAOSwEPtZYt3B
p16
aVhttp://www.ebay.com/itm/Serenade-Jewelry-Temperament-Violin-Guitar-Long-Trendy-1Pcs-Necklace-Music-/272666964003?var=&hash=item3f7c37b023:m:mNuiuDkCB_QhysopmQkSiPw
p17
aVhttp://www.ebay.com/itm/Serenade-2-Wide-Tooth-Double-Tail-Pin-Combs-Pink-White-/172291122221?epid=1508033382&hash=item281d59e42d:g:4ZYAAOSwARZXn0m6
p18
aVhttp://www.ebay.com/itm/Brahms-Serenade-No-1-2-Scottish-Chamber-Orc-Mackerras-NEW-CD-/311447522271?epid=114658027&hash=item4883b80bdf:g:CocAAOSwQTVV-9nT
p19
aVhttp://www.ebay.com/itm/Anne-Akiko-Meyers-Serenade-CD-NEW-/281872407293?epid=215486763&hash=item41a0e79afd:g:Bf0AAOSwv-NWXZri
p20
aVhttp://www.ebay.com/itm/Serenade-Black-Plastic-Compact-Folding-Pocket-Mirror-/172276822321?epid=1631017924&hash=item281c7fb131:g:-YgAAOSw41xXPXES
p21
aVhttp://www.ebay.com/itm/Ralph-Vaughan-Williams-A-London-Symphony-Serenade-to-Music-SACD-NEW-/352010315964?epid=114641540&hash=item51f57328bc:g:6AgAAOSwTM5Y0DLf
p22
aVhttp://www.ebay.com/itm/Katherine-Jenkins-Serenade-CD-NEW-/351563896254?epid=110844858&hash=item51dad755be:m:mbdWg8GUo7ut9eVMEdYzqDA
p23
aVhttp://www.ebay.com/itm/Serenade-1974-Neil-Diamond-CD-/400805109235?hash=item5d51d89df3:g:k7QAAOSw5dNWpk4a
p24
aVhttp://www.ebay.com/itm/Serenade-by-James-M-Cain-Paperback-2011-/252071769664?epid=108427425&hash=item3ab0a5f640:g:BZkAAOSwd3dXFjue
p25
aVhttp://www.ebay.com/itm/EDINBURGH-Crystal-SERENADE-Cut-Champagne-Flute-Glass-Glasses-8-1-4-/280947164436?hash=item4169c18514:m:mfbSlBlVBj0Ll6lyJkByixQ
p26
aVhttp://www.ebay.com/itm/Anne-Akiko-Meyers-Serenade-The-Love-Album-NEW-CD-/391312419505?epid=216103186&hash=item5b1c09aab1:g:~~UAAOSw5ZBWOyZM
p27
aVhttp://www.ebay.com/itm/EDINBURGH-Crystal-SERENADE-Cut-OF-Tumbler-Glass-Glasses-3-1-2-/280948404750?hash=item4169d4720e:m:mCWQBRJI-h2K9woj3RfyrIA
p28
aVhttp://www.ebay.com/itm/Joshua-Kadison-Painted-Desert-Serenade-CD-ALBUM-/400805129275?epid=1277894464&hash=item5d51d8ec3b:g:vygAAOSwoydWpk5s
p29
aVhttp://www.ebay.com/itm/Brunner-Quality-Dinner-Set-16-Piece-Melamine-Antislip-Caravan-Crockery-Serenade-/182440943841?hash=item2a7a53e0e1:g:DW4AAOSwg3FUfc7Y
p30
aVhttp://www.ebay.com/itm/Sambucus-nigra-Serenade-Elder-Plant-in-3-5-Pot-/162398274393?hash=item25cfb10359:g:UwYAAOSw4CFYpd3S
p31
aVhttp://www.ebay.com/itm/Andre-Rieu-Moonlight-Serenade-CD-NEW-/401220104103?epid=129526690&hash=item5d6a94efa7:g:N1sAAOSwcLxYHPhN
p32
aVhttp://www.ebay.com/itm/Secondhand-Serenade-A-Twist-in-My-Story-CD-NEW-/351593777494?epid=195305298&hash=item51dc9f4956:g:TgkAAOSwHQ9WXczG
p33
a.