(lp1
Vhttp://www.ebay.com/itm/DARK-LOVELY-AU-NATURALE-ANTI-SHRINKAGE-HAIR-PRODUCTS-/322027318772?var=&epid=1420511146&hash=item4afa52edf4:m:mDbHkSfg-tpyFghxvIUl1Kw
p2
aVhttp://www.ebay.com/itm/Pack-Of-2-x-1-Mtr-Heatshrink-Tubing-Black-2-4mm-2-1-Shrinkage-/272097211025?hash=item3f5a41f291:g:uu4AAOSwx~JWE7we
p3
aVhttp://www.ebay.com/itm/Pack-Of-2-x-1-Mtr-Heatshrink-Tubing-Blue-10mm-2-1-Shrinkage-/272083660691?hash=item3f59732f93:g:c7QAAOSwu4BV0y52
p4
aVhttp://www.ebay.com/itm/Pack-Of-2-x-1-Mtr-Heatshrink-Tubing-Green-6mm-2-1-Shrinkage-/272083660546?hash=item3f59732f02:g:M4wAAOSwjVVV0y~F
p5
aVhttp://www.ebay.com/itm/Pack-Of-2-x-1-Mtr-Heatshrink-Tubing-Blue-7mm-2-1-Shrinkage-/281891190150?hash=item41a2063586:g:pyUAAOSwu4BV0zBB
p6
aVhttp://www.ebay.com/itm/Dark-And-Lovely-Au-Naturale-Anti-Shrinkage-Sheen-Sealing-Nectar-170ml-/262062339149?hash=item3d0421f44d:g:STsAAOSwEetWAo--
p7
aVhttp://www.ebay.com/itm/Dark-And-Lovely-Au-Naturale-Anti-Shrinkage-Curl-Defining-Creme-Glaze-397g-/281807924681?hash=item419d0fadc9:g:GRkAAOSwFnFWAo7R
p8
aVhttp://www.ebay.com/itm/dark-and-lovely-au-naturale-anti-shrinkage-coil-moisturizing-souffle-397G-/252101206907?hash=item3ab267237b:g:AeQAAOSwWnFWAo35
p9
aVhttp://www.ebay.com/itm/Dark-and-Lovely-Au-Naturale-Anti-Shrinkage-10-in-1-Styles-Gelee-152g-/252101204184?epid=1420287518&hash=item3ab26718d8:g:7~oAAOSwEetWAo0r
p10
aVhttp://www.ebay.com/itm/200-pack-of-Angle-brackets-steel-stretcher-shrinkage-plate-25mm-x-28mm-x-35mm-/181862390004?hash=item2a57d7d8f4:g:30QAAOxyFPNSIewz
p11
aVhttp://www.ebay.com/itm/Sealey-Coloured-Heat-Shrink-Shrinkage-Tubing-Case-Set-171pc-BHS171-/311356320975?epid=1005275462&hash=item487e486ccf:g:8CAAAOSwrklVTcYJ
p12
aVhttp://www.ebay.com/itm/SHRINKAGE-BRACKET-PACK-20-27-X-25MM-/331347928369?hash=item4d25e02531:g:E3EAAOSwF1dUP5-S
p13
aVhttp://www.ebay.com/itm/Angle-brackets-steel-stretcher-shrinkage-plate-pack-of-40-/181463123593?hash=item2a400b8689:g:30QAAOxyFPNSIewz
p14
aVhttp://www.ebay.com/itm/ADFIL-Fibrin-XT-Ultra-Concrete-Shrinkage-Control-Fibre-890g-/351106627353?epid=1947810927&hash=item51bf95f719:g:ICMAAOSwEK9Tr-7i
p15
aVhttp://www.ebay.com/itm/Expansion-Joint-Wood-Shrinkage-Plates-90-degree-angle-Brackets-/131094993522?var=&hash=item1e85deda72:m:m2v1Wzam2Y9DQLBrt9aek4A
p16
aVhttp://www.ebay.com/itm/ADFIL-Fibrin-XT-Ultra-Concrete-Shrinkage-Control-Fibre-80g-to-8-90Kgs-/350747533761?var=&epid=1947810927&hash=item51aa2ea1c1:m:mxTnLx8IYPxle7sH678YPGg
p17
aVhttp://www.ebay.com/itm/Heat-Shrink-Plastic-Tubing-3mm-Diameter-Black-3-1-Shrinkage-1-Metre-Free-Postage-/110956354905?epid=1388300777&hash=item19d5839d59:m:mWJtO9OmoA5BWmpKf6CXzyw
p18
aVhttp://www.ebay.com/itm/DARK-LOVELY-AU-NATURALE-ANTI-SHRINKAGE-HAIR-PRODUCTS-/322027318772?var=&epid=1420511146&hash=item4afa52edf4:m:mDbHkSfg-tpyFghxvIUl1Kw
p19
aVhttp://www.ebay.com/itm/Pack-Of-2-x-1-Mtr-Heatshrink-Tubing-Black-2-4mm-2-1-Shrinkage-/272097211025?hash=item3f5a41f291:g:uu4AAOSwx~JWE7we
p20
aVhttp://www.ebay.com/itm/Pack-Of-2-x-1-Mtr-Heatshrink-Tubing-Blue-10mm-2-1-Shrinkage-/272083660691?hash=item3f59732f93:g:c7QAAOSwu4BV0y52
p21
aVhttp://www.ebay.com/itm/Pack-Of-2-x-1-Mtr-Heatshrink-Tubing-Green-6mm-2-1-Shrinkage-/272083660546?hash=item3f59732f02:g:M4wAAOSwjVVV0y~F
p22
aVhttp://www.ebay.com/itm/Pack-Of-2-x-1-Mtr-Heatshrink-Tubing-Blue-7mm-2-1-Shrinkage-/281891190150?hash=item41a2063586:g:pyUAAOSwu4BV0zBB
p23
aVhttp://www.ebay.com/itm/Dark-And-Lovely-Au-Naturale-Anti-Shrinkage-Sheen-Sealing-Nectar-170ml-/262062339149?hash=item3d0421f44d:g:STsAAOSwEetWAo--
p24
aVhttp://www.ebay.com/itm/Dark-And-Lovely-Au-Naturale-Anti-Shrinkage-Curl-Defining-Creme-Glaze-397g-/281807924681?hash=item419d0fadc9:g:GRkAAOSwFnFWAo7R
p25
aVhttp://www.ebay.com/itm/dark-and-lovely-au-naturale-anti-shrinkage-coil-moisturizing-souffle-397G-/252101206907?hash=item3ab267237b:g:AeQAAOSwWnFWAo35
p26
aVhttp://www.ebay.com/itm/Dark-and-Lovely-Au-Naturale-Anti-Shrinkage-10-in-1-Styles-Gelee-152g-/252101204184?epid=1420287518&hash=item3ab26718d8:g:7~oAAOSwEetWAo0r
p27
aVhttp://www.ebay.com/itm/200-pack-of-Angle-brackets-steel-stretcher-shrinkage-plate-25mm-x-28mm-x-35mm-/181862390004?hash=item2a57d7d8f4:g:30QAAOxyFPNSIewz
p28
aVhttp://www.ebay.com/itm/Sealey-Coloured-Heat-Shrink-Shrinkage-Tubing-Case-Set-171pc-BHS171-/311356320975?epid=1005275462&hash=item487e486ccf:g:8CAAAOSwrklVTcYJ
p29
aVhttp://www.ebay.com/itm/SHRINKAGE-BRACKET-PACK-20-27-X-25MM-/331347928369?hash=item4d25e02531:g:E3EAAOSwF1dUP5-S
p30
aVhttp://www.ebay.com/itm/Angle-brackets-steel-stretcher-shrinkage-plate-pack-of-40-/181463123593?hash=item2a400b8689:g:30QAAOxyFPNSIewz
p31
aVhttp://www.ebay.com/itm/ADFIL-Fibrin-XT-Ultra-Concrete-Shrinkage-Control-Fibre-890g-/351106627353?epid=1947810927&hash=item51bf95f719:g:ICMAAOSwEK9Tr-7i
p32
aVhttp://www.ebay.com/itm/Expansion-Joint-Wood-Shrinkage-Plates-90-degree-angle-Brackets-/131094993522?var=&hash=item1e85deda72:m:m2v1Wzam2Y9DQLBrt9aek4A
p33
aVhttp://www.ebay.com/itm/ADFIL-Fibrin-XT-Ultra-Concrete-Shrinkage-Control-Fibre-80g-to-8-90Kgs-/350747533761?var=&epid=1947810927&hash=item51aa2ea1c1:m:mxTnLx8IYPxle7sH678YPGg
p34
aVhttp://www.ebay.com/itm/Heat-Shrink-Plastic-Tubing-3mm-Diameter-Black-3-1-Shrinkage-1-Metre-Free-Postage-/110956354905?epid=1388300777&hash=item19d5839d59:m:mWJtO9OmoA5BWmpKf6CXzyw
p35
aVhttp://www.ebay.com/itm/DARK-LOVELY-AU-NATURALE-ANTI-SHRINKAGE-HAIR-PRODUCTS-/322027318772?var=&epid=1420511146&hash=item4afa52edf4:m:mDbHkSfg-tpyFghxvIUl1Kw
p36
aVhttp://www.ebay.com/itm/Pack-Of-2-x-1-Mtr-Heatshrink-Tubing-Black-2-4mm-2-1-Shrinkage-/272097211025?hash=item3f5a41f291:g:uu4AAOSwx~JWE7we
p37
aVhttp://www.ebay.com/itm/Pack-Of-2-x-1-Mtr-Heatshrink-Tubing-Blue-10mm-2-1-Shrinkage-/272083660691?hash=item3f59732f93:g:c7QAAOSwu4BV0y52
p38
aVhttp://www.ebay.com/itm/Pack-Of-2-x-1-Mtr-Heatshrink-Tubing-Green-6mm-2-1-Shrinkage-/272083660546?hash=item3f59732f02:g:M4wAAOSwjVVV0y~F
p39
aVhttp://www.ebay.com/itm/Pack-Of-2-x-1-Mtr-Heatshrink-Tubing-Blue-7mm-2-1-Shrinkage-/281891190150?hash=item41a2063586:g:pyUAAOSwu4BV0zBB
p40
aVhttp://www.ebay.com/itm/Dark-And-Lovely-Au-Naturale-Anti-Shrinkage-Sheen-Sealing-Nectar-170ml-/262062339149?hash=item3d0421f44d:g:STsAAOSwEetWAo--
p41
aVhttp://www.ebay.com/itm/Dark-And-Lovely-Au-Naturale-Anti-Shrinkage-Curl-Defining-Creme-Glaze-397g-/281807924681?hash=item419d0fadc9:g:GRkAAOSwFnFWAo7R
p42
aVhttp://www.ebay.com/itm/dark-and-lovely-au-naturale-anti-shrinkage-coil-moisturizing-souffle-397G-/252101206907?hash=item3ab267237b:g:AeQAAOSwWnFWAo35
p43
aVhttp://www.ebay.com/itm/Dark-and-Lovely-Au-Naturale-Anti-Shrinkage-10-in-1-Styles-Gelee-152g-/252101204184?epid=1420287518&hash=item3ab26718d8:g:7~oAAOSwEetWAo0r
p44
aVhttp://www.ebay.com/itm/200-pack-of-Angle-brackets-steel-stretcher-shrinkage-plate-25mm-x-28mm-x-35mm-/181862390004?hash=item2a57d7d8f4:g:30QAAOxyFPNSIewz
p45
aVhttp://www.ebay.com/itm/Sealey-Coloured-Heat-Shrink-Shrinkage-Tubing-Case-Set-171pc-BHS171-/311356320975?epid=1005275462&hash=item487e486ccf:g:8CAAAOSwrklVTcYJ
p46
aVhttp://www.ebay.com/itm/SHRINKAGE-BRACKET-PACK-20-27-X-25MM-/331347928369?hash=item4d25e02531:g:E3EAAOSwF1dUP5-S
p47
aVhttp://www.ebay.com/itm/Angle-brackets-steel-stretcher-shrinkage-plate-pack-of-40-/181463123593?hash=item2a400b8689:g:30QAAOxyFPNSIewz
p48
aVhttp://www.ebay.com/itm/ADFIL-Fibrin-XT-Ultra-Concrete-Shrinkage-Control-Fibre-890g-/351106627353?epid=1947810927&hash=item51bf95f719:g:ICMAAOSwEK9Tr-7i
p49
aVhttp://www.ebay.com/itm/Expansion-Joint-Wood-Shrinkage-Plates-90-degree-angle-Brackets-/131094993522?var=&hash=item1e85deda72:m:m2v1Wzam2Y9DQLBrt9aek4A
p50
aVhttp://www.ebay.com/itm/ADFIL-Fibrin-XT-Ultra-Concrete-Shrinkage-Control-Fibre-80g-to-8-90Kgs-/350747533761?var=&epid=1947810927&hash=item51aa2ea1c1:m:mxTnLx8IYPxle7sH678YPGg
p51
aVhttp://www.ebay.com/itm/Heat-Shrink-Plastic-Tubing-3mm-Diameter-Black-3-1-Shrinkage-1-Metre-Free-Postage-/110956354905?epid=1388300777&hash=item19d5839d59:m:mWJtO9OmoA5BWmpKf6CXzyw
p52
aVhttp://www.ebay.com/itm/DARK-LOVELY-AU-NATURALE-ANTI-SHRINKAGE-HAIR-PRODUCTS-/322027318772?var=&epid=1420511146&hash=item4afa52edf4:m:mDbHkSfg-tpyFghxvIUl1Kw
p53
aVhttp://www.ebay.com/itm/Pack-Of-2-x-1-Mtr-Heatshrink-Tubing-Black-2-4mm-2-1-Shrinkage-/272097211025?hash=item3f5a41f291:g:uu4AAOSwx~JWE7we
p54
aVhttp://www.ebay.com/itm/Pack-Of-2-x-1-Mtr-Heatshrink-Tubing-Blue-10mm-2-1-Shrinkage-/272083660691?hash=item3f59732f93:g:c7QAAOSwu4BV0y52
p55
aVhttp://www.ebay.com/itm/Pack-Of-2-x-1-Mtr-Heatshrink-Tubing-Green-6mm-2-1-Shrinkage-/272083660546?hash=item3f59732f02:g:M4wAAOSwjVVV0y~F
p56
aVhttp://www.ebay.com/itm/Pack-Of-2-x-1-Mtr-Heatshrink-Tubing-Blue-7mm-2-1-Shrinkage-/281891190150?hash=item41a2063586:g:pyUAAOSwu4BV0zBB
p57
aVhttp://www.ebay.com/itm/Dark-And-Lovely-Au-Naturale-Anti-Shrinkage-Sheen-Sealing-Nectar-170ml-/262062339149?hash=item3d0421f44d:g:STsAAOSwEetWAo--
p58
aVhttp://www.ebay.com/itm/Dark-And-Lovely-Au-Naturale-Anti-Shrinkage-Curl-Defining-Creme-Glaze-397g-/281807924681?hash=item419d0fadc9:g:GRkAAOSwFnFWAo7R
p59
aVhttp://www.ebay.com/itm/dark-and-lovely-au-naturale-anti-shrinkage-coil-moisturizing-souffle-397G-/252101206907?hash=item3ab267237b:g:AeQAAOSwWnFWAo35
p60
aVhttp://www.ebay.com/itm/Dark-and-Lovely-Au-Naturale-Anti-Shrinkage-10-in-1-Styles-Gelee-152g-/252101204184?epid=1420287518&hash=item3ab26718d8:g:7~oAAOSwEetWAo0r
p61
aVhttp://www.ebay.com/itm/200-pack-of-Angle-brackets-steel-stretcher-shrinkage-plate-25mm-x-28mm-x-35mm-/181862390004?hash=item2a57d7d8f4:g:30QAAOxyFPNSIewz
p62
aVhttp://www.ebay.com/itm/Sealey-Coloured-Heat-Shrink-Shrinkage-Tubing-Case-Set-171pc-BHS171-/311356320975?epid=1005275462&hash=item487e486ccf:g:8CAAAOSwrklVTcYJ
p63
aVhttp://www.ebay.com/itm/SHRINKAGE-BRACKET-PACK-20-27-X-25MM-/331347928369?hash=item4d25e02531:g:E3EAAOSwF1dUP5-S
p64
aVhttp://www.ebay.com/itm/Angle-brackets-steel-stretcher-shrinkage-plate-pack-of-40-/181463123593?hash=item2a400b8689:g:30QAAOxyFPNSIewz
p65
aVhttp://www.ebay.com/itm/ADFIL-Fibrin-XT-Ultra-Concrete-Shrinkage-Control-Fibre-890g-/351106627353?epid=1947810927&hash=item51bf95f719:g:ICMAAOSwEK9Tr-7i
p66
aVhttp://www.ebay.com/itm/Expansion-Joint-Wood-Shrinkage-Plates-90-degree-angle-Brackets-/131094993522?var=&hash=item1e85deda72:m:m2v1Wzam2Y9DQLBrt9aek4A
p67
aVhttp://www.ebay.com/itm/ADFIL-Fibrin-XT-Ultra-Concrete-Shrinkage-Control-Fibre-80g-to-8-90Kgs-/350747533761?var=&epid=1947810927&hash=item51aa2ea1c1:m:mxTnLx8IYPxle7sH678YPGg
p68
aVhttp://www.ebay.com/itm/Heat-Shrink-Plastic-Tubing-3mm-Diameter-Black-3-1-Shrinkage-1-Metre-Free-Postage-/110956354905?epid=1388300777&hash=item19d5839d59:m:mWJtO9OmoA5BWmpKf6CXzyw
p69
a.