(lp1
Vhttp://www.ebay.com/itm/Large-Realistic-Owl-Decoy-With-Rotating-Head-Bird-Pigeon-Crow-Scarer-Scarecrow-/111936774256?epid=1678783230&hash=item1a0ff3a070:g:GdEAAOSwv9hW53zf
p2
aVhttp://www.ebay.com/itm/Batman-The-Animated-Series-New-Adventures-Action-Figures-6-DC-Collectibles-/112309898316?var=&hash=item1a26310c4c:m:mrdp4oDn6rJ03QcUbiu34Ew
p3
aVhttp://www.ebay.com/itm/Large-Realistic-Owl-Decoy-With-Rotating-Head-Bird-Pigeon-Crow-Scarer-Scarecrow-/381555225504?epid=734823833&hash=item58d676b3a0:g:YLMAAOSw3h1ZWvzr
p4
aVhttp://www.ebay.com/itm/DC-Batman-Hush-Action-Figure-Box-Set-Scarecrow-Nightwing-Poison-Ivy-3-pack-/111846730865?epid=1320535484&hash=item1a0a95ac71:g:9yYAAOSw2XFUdcbc
p5
aVhttp://www.ebay.com/itm/Home-Defence-Scarecrow-Motion-Activated-Animal-Garden-and-Pond-Deterrent-/162559160911?epid=739108967&hash=item25d947f24f:g:8vUAAOSwi8VZR89b
p6
aVhttp://www.ebay.com/itm/Large-Realistic-Owl-Decoy-With-Rotating-Head-Bird-Pigeon-Crow-Scarer-Scarecrow-/401262095039?hash=item5d6d15aabf:g:H3kAAOSw2xRYgKDH
p7
aVhttp://www.ebay.com/itm/Garden-Decorative-Scarecrow-Deter-Birds-Pigeons-Pest-Control-Lawn-Nursing-New-/222473327133?var=&hash=item33cc71921d:m:mLpB2ihGJXLUexKUphN4cRg
p8
aVhttp://www.ebay.com/itm/LARGE-REALISTIC-DECOY-OWL-GARDEN-POND-PEST-PROTECTION-BIRD-SCARER-SCARECROW-/381725411374?epid=1162547611&hash=item58e09b882e:g:oUIAAOSwdzVXo2DU
p9
aVhttp://www.ebay.com/itm/Batman-The-Animated-Series-Action-Figure-5-6-5-Inch-New-Carded-DC-Collectibles-/222315783176?var=&hash=item33c30da408:m:meAvfZpGapnC3wWjWQn3__A
p10
aVhttp://www.ebay.com/itm/Realistic-Owl-Decoy-Rotating-Head-Bird-Pigeon-Crow-Scarer-Scarecrow-Action-Fake-/292033504934?epid=1539827998&hash=item43fe8da6a6:g:SSUAAOSwFdtXyVC8
p11
aVhttp://www.ebay.com/itm/75cm-Scarecrow-On-Sick-Birds-Garden-Deterrent-Natural-Pest-Control-3-Assrtd-New-/222469599027?hash=item33cc38af33:g:y5cAAOSwU8hY63lb
p12
aVhttp://www.ebay.com/itm/2-X-Realistic-Owl-Decoy-With-Rotating-Head-Bird-Pigeon-Crow-Scarer-Scarecrow-/182393614738?epid=1754142320&hash=item2a7781b192:g:cEcAAOSw5ZBWHxs2
p13
aVhttp://www.ebay.com/itm/Large-Realistic-Owl-Decoy-With-Rotating-Head-Bird-Pigeon-Crow-Scarer-Scarecrow-/142438318343?hash=item2129fc4107:g:qb0AAOSw~bFWINe~
p14
aVhttp://www.ebay.com/itm/TWIN-PACK-REALISTIC-DECOY-OWL-GARDEN-POND-PEST-BIRD-SCARER-PROTECTION-SCARECROW-/282393956032?hash=item41bffdcec0:g:K70AAOSwCU1YxtHX
p15
aVhttp://www.ebay.com/itm/LEGO-DC-UNIVERSE-76054-BATMANS-SCARECROW-HARVEST-OF-FEAR-FARMER-MINIFIGURE-INC-/391645414595?epid=230567049&hash=item5b2fe2c4c3:g:rPcAAOSwnKFYRfCm
p16
aVhttp://www.ebay.com/itm/Batman-action-force-figures-1989-Joker-Bob-Penguin-Mr-Freeze-Scarecrow-Bane-/261532669501?var=&hash=item3ce48fd63d:m:m2XFwz889Wc7IHEfJ_W5jTQ
p17
aVhttp://www.ebay.com/itm/Large-Realistic-Owl-Decoy-Bird-Pigeon-Crow-Scarer-Scarecrow-/182165095190?epid=1037710271&hash=item2a69e2c316:g:RRMAAOSwpdpVd1KA
p18
aVhttp://www.ebay.com/itm/Large-Realistic-Owl-Decoy-Rotating-Head-Weed-Pest-Control-Crow-Scarecrow-ED-2-/382124930148?hash=item58f86bb464:g:6CcAAOSw-3FZNhoc
p19
aVhttp://www.ebay.com/itm/80cm-x-1-Decorative-Scarecrow-Stick-Scare-Crow-Bird-Garden-Greenhouse-Ornament-/302309775529?hash=item46631118a9:g:sywAAOSw-K9ZEHh7
p20
aVhttp://www.ebay.com/itm/8-MINI-FIGURES-FITS-WITH-LEGO-DC-UNIVERSE-TWO-FACE-POISON-IVY-DEADSHOT-SCARECROW-/112287874762?hash=item1a24e0feca:g:EhUAAOSw9GhYkNz-
p21
aVhttp://www.ebay.com/itm/45cm-Scarecrow-On-Sick-Birds-Garden-Deterrent-Natural-Pest-Control-3-Assrtd-New-/222469591802?hash=item33cc3892fa:g:zMAAAOSw3utY63es
p22
aVhttp://www.ebay.com/itm/Imaginext-batman-dc-super-friends-justice-league-spongebob-woodland-knights-/122362094438?var=&hash=item1c7d596366:m:mVN22IfDYGZydDpY6gyNwHg
p23
aVhttp://www.ebay.com/itm/120cm-Frabric-Flower-Scarecrow-On-Stick-Garden-Decor-Bird-Pest-Control-Asortd-/322479119372?hash=item4b1540dc0c:g:6tkAAOSwB-1Y6344
p24
aVhttp://www.ebay.com/itm/70910-LEGO-Batman-Movie-Scarecrow-Special-Delivery-204-Pieces-Age-7-14-New-2017-/311850969862?epid=232099615&hash=item489bc42b06:g:-ZUAAOSwIWVY9zMk
p25
aVhttp://www.ebay.com/itm/Large-Realistic-Garden-outdoor-Owl-Decoy-Bird-Pigeon-Crow-Scarer-Scarecrow-/231995369349?epid=1305441060&hash=item3604006785:g:MNkAAOSwOVpXc8Rv
p26
aVhttp://www.ebay.com/itm/2-x-Large-Realistic-Plastic-Owl-Decoy-Bird-Pigeon-Crow-Scarer-Scarecrow-/172205434037?epid=1037710271&hash=item28183e64b5:g:RRMAAOSwpdpVd1KA
p27
aVhttp://www.ebay.com/itm/Lego-The-Batman-Movie-Scarecrow-Fearful-Face-Off-70913-NEW-/362001869587?epid=831178738&hash=item5448fe2b13:g:CxkAAOSwlY1ZOB7c
p28
aVhttp://www.ebay.com/itm/Scarecrow-Custom-Vampire-Fangs-Small-Perfect-For-Halloween-/252856955786?epid=1105750418&hash=item3adf72f38a:g:JOQAAOSwUKxYkCKa
p29
aVhttp://www.ebay.com/itm/70913-LEGO-Batman-Movie-Scarecrow-Fearful-Face-off-141-Pieces-Age-6-12-New-2017-/311880305462?epid=920889165&hash=item489d83cb36:g:qscAAOSw-3FZJaja
p30
aVhttp://www.ebay.com/itm/Knight-Models-BNIB-Scarecrow-Militia-35DC062-/351548503838?epid=1842382983&hash=item51d9ec771e:g:yJUAAOSwwbdWHQPC
p31
aVhttp://www.ebay.com/itm/OFFICIAL-DOCTOR-WHO-FIGURINE-COLLECTION-26-SCARECROW-EAGLEMOSS-24-25-/351126943270?hash=item51c0cbf626:g:cxkAAOSwbqpT0XUJ
p32
aVhttp://www.ebay.com/itm/Lego-The-Batman-Movie-Scarecrow-Special-Delivery-70910-NEW-/361896709210?epid=541225316&hash=item5442b98c5a:g:~hkAAOSw4DJYlJlH
p33
aVhttp://www.ebay.com/itm/Adult-Scarecrow-Love-Bites-Vampire-Dracula-Teeth-Fangs-Fancy-Dress-Accessory-New-/262295338509?epid=1005093242&hash=item3d12053e0d:g:Zg4AAOSw8lpZJIi-
p34
aVhttp://www.ebay.com/itm/LEGO-THE-LEGO-BATMAN-MOVIE-Scarecrow-Special-Delivery-70910-/391676448633?epid=2117462340&hash=item5b31bc4f79:g:h-UAAOSw2xRYeVFe
p35
aVhttp://www.ebay.com/itm/Doctor-Who-Series-3-Scarecrow-/311666179168?hash=item4890c07c60:g:xgIAAOSwENxXm11p
p36
aVhttp://www.ebay.com/itm/Scarecrow-and-Mrs-King-Season-2-Two-DVD-Box-Set-NEW-SEALED-/201861837504?epid=1322449843&hash=item2effe732c0:m:m-WyBhO28L7xKA3qE3ESVKA
p37
aVhttp://www.ebay.com/itm/Fisher-Price-Imaginext-DC-Super-Friends-Scarecrow-and-Poison-Ivy-/162258968195?hash=item25c7635e83:g:fOEAAOSwnbZYExr7
p38
aVhttp://www.ebay.com/itm/Set-Of-3-SCARE-CROW-STICK-40-45-75Cm-Asst-Design-Green-Orange-Brown-Hat-New-/281978620219?var=&hash=item41a73c493b:m:m9mkdMiXG4EG9B2L9Xs4o7g
p39
aVhttp://www.ebay.com/itm/LEGO-THE-LEGO-BATMAN-MOVIE-Scarecrow-Special-Delivery-70910-/332091489033?epid=2117462340&hash=item4d5231fb09:g:94oAAOSwUKxYeVrg
p40
aVhttp://www.ebay.com/itm/BATMAN-ARKHAM-SCARECROW-GRAPHIC-NOVEL-New-Paperback-Scarecrow-Best-Of-Collection-/231837730002?epid=221142694&hash=item35fa9b04d2:g:4gQAAOSwJb9WtiLk
p41
aVhttp://www.ebay.com/itm/Adult-Scarecrow-Villain-Halloween-Horror-Chinless-Chin-Strap-Head-Latex-Mask-/191921298179?hash=item2caf669b03:g:AlsAAOSwjqVZCuSM
p42
aVhttp://www.ebay.com/itm/Scarecrow-and-Mrs-King-Season-3-Three-DVD-Box-Set-NEW-SEALED-/141962941736?epid=1405375284&hash=item210da69528:g:zOQAAOxy79JSZawA
p43
aVhttp://www.ebay.com/itm/Messengers-2-The-Scarecrow-DVD-NEW-/291677683299?epid=72949102&hash=item43e9583e63:g:6YsAAOSw~y9ZCENg
p44
aVhttp://www.ebay.com/itm/Mens-Scarecrow-Costume-Fancy-Dress-Adult-World-Book-Week-Day-Worzel-Gummidge-/401269083844?var=&hash=item5d6d804ec4:m:mb5IOP5jDedH8gmsMRDbc5Q
p45
aVhttp://www.ebay.com/itm/120cm-Decorative-Scarecrow-On-Stick-Birds-Pest-Control-Plant-Decor-Flower-Bed-/231885256204?hash=item35fd70360c:g:vKwAAOSwQjNW-oVt
p46
aVhttp://www.ebay.com/itm/Scarecrow-Militia-Knight-Models-Batman-Miniatures-Game-DC-Comics-New-/222367366309?epid=1142271335&hash=item33c620bca5:g:~rYAAOSw44BYbQwH
p47
aVhttp://www.ebay.com/itm/Dark-Knight-Costume-Accessory-Mens-Scarecrow-3-4-Mask-/192087247557?hash=item2cb94acac5:m:moC4FNvoxfs5f6bhvgYca3g
p48
aVhttp://www.ebay.com/itm/DC-Arkham-Asylum-Joker-Harley-Batman-Scarecrow-4-Action-Figures-Pack-UK-Seller-/112212050247?epid=1041338604&hash=item1a205c0147:g:2vgAAOSwHMJYM2og
p49
aVhttp://www.ebay.com/itm/75cm-Decorative-Scarecrow-On-Stick-Birds-Pest-Control-Plant-Decor-Flower-Bed-/331603399271?hash=item4d351a5267:g:CSUAAOSwgQ9VoWw8
p50
aVhttp://www.ebay.com/itm/Adult-Scarecrow-Fancy-Dress-Costume-Wizard-of-Oz-Mens-Outfit-Book-Week-/171845950219?var=&hash=item2802d11b0b:m:mjHNS_9rwANXP2xo6vZh34A
p51
aVhttp://www.ebay.com/itm/LEGO-Batman-Movie-70910-Scarecrow-Special-Delivery-Vehicle-Brand-New-/272546554026?epid=2117462340&hash=item3f750a60aa:g:3mgAAOSw5cNYlw--
p52
aVhttp://www.ebay.com/itm/Scarecrow-Hat-Ladies-Fancy-Dress-Halloween-Book-Day-Week-Womens-Costume-Outfit-/401004573851?var=&hash=item5d5dbc349b:m:mAZbhLFn0bU1muphOWHyqoA
p53
aVhttp://www.ebay.com/itm/Large-Owl-Realistic-Garden-outdoor-Owl-Decoy-Bird-Pigeon-Crow-Scarer-Scarecrow-/272158900390?epid=1305441060&hash=item3f5def40a6:g:7osAAOSwwpdW4u2M
p54
aVhttp://www.ebay.com/itm/Mens-Mr-Scarecrow-Fancy-Dress-Costume-/112109489935?var=&hash=item1a1a3f0f0f:m:mb5PMwoPweVglXXYZPUawnw
p55
aVhttp://www.ebay.com/itm/Scarecrow-The-Dark-Knight-Rises-Knight-Models-Batman-Miniatures-Game-DC-New-/222367367231?epid=1942083946&hash=item33c620c03f:g:afQAAOSwt5hYbQvY
p56
aVhttp://www.ebay.com/itm/Vintage-Antique-Dictionary-Page-Art-Print-Wizard-of-Oz-Scarecrow-Quote-Wall-Art-/271323474849?hash=item3f2c23aba1:g:UgYAAOxy4t1Sh9CE
p57
aVhttp://www.ebay.com/itm/Adult-Deluxe-Halloween-Zombie-Scarecrow-Costume-/192070913522?var=&hash=item2cb8518df2:m:myNzDLrLN1dM8hRTs93HMGQ
p58
aVhttp://www.ebay.com/itm/LEGO-Batman-Movie-SCARECROW-FEARFUL-FACE-OFF-2017-Set-70913-New-Minifigures-/192197139849?epid=831178738&hash=item2cbfd79d89:g:N0MAAOSwCkZZOuAo
p59
aVhttp://www.ebay.com/itm/DC-Arkham-Asylum-Joker-Harley-Batman-Scarecrow-4-Action-Figures-Pack-UK-Seller-/112212050247?epid=1041338604&hash=item1a205c0147:g:2vgAAOSwHMJYM2og
p60
aVhttp://www.ebay.com/itm/Mens-Wizard-of-Oz-Official-Licensed-Costumes-Cowardly-Lion-Tin-Man-Scarecrow-/171772117003?var=&hash=item27fe6a800b:m:mBfqpcqkCTY7JsrCiQCkLUg
p61
aVhttp://www.ebay.com/itm/Scarecrow-Custom-Small-Vampire-Fangs-Halloween-Fancy-Dress-Accessory-/222470408458?epid=1020536278&hash=item33cc45090a:g:cHMAAOSw4CFY7Gwa
p62
aVhttp://www.ebay.com/itm/Scarecrow-and-Mrs-King-Season-1-One-Complete-5-DVD-Box-Set-NEW-SEALED-/201530047111?epid=1805021820&hash=item2eec207a87:g:ZkAAAOSwj0NUcO-G
p63
aVhttp://www.ebay.com/itm/Genuine-Lego-The-Batman-Movie-SCARECROW-Minifigure-from-Bat-Man-70913-Set-/201941636207?epid=831178738&hash=item2f04a8d46f:g:0VUAAOSw6YtZOt0J
p64
aVhttp://www.ebay.com/itm/Lego-Super-Heroes-Batman-Scarecrow-Harvest-of-Fear-76054-NEW-/361588310149?epid=806890263&hash=item543057c085:g:qA8AAOSwOVpXWEh5
p65
aVhttp://www.ebay.com/itm/Scarecrow-and-Mrs-King-Season-2-Two-DVD-Box-Set-NEW-SEALED-Region-2-/201057329818?epid=1405375000&hash=item2ecff3629a:g:1JMAAMXQeKNTLKw3
p66
aVhttp://www.ebay.com/itm/Scarecrow-Returns-by-Matthew-Reilly-9781416577607-Paperback-2012-/252972460920?epid=176803882&hash=item3ae6556b78:g:IxMAAOSwAPVZMsZb
p67
aVhttp://www.ebay.com/itm/Wizard-Of-Oz-Scarecrow-Quote-Vintage-Dictionary-Page-Print-Picture-Wall-Art-/401187582159?hash=item5d68a4b0cf:g:xYkAAOSwGtRX1ynE
p68
aVhttp://www.ebay.com/itm/Mens-Scarecrow-Costume-Hat-Fancy-Dress-Fairytale-World-Book-Day-Week-Halloween-/201854372432?var=&hash=item2eff754a50:m:mK0qguoGzd6HC-fCSv7RsBw
p69
aVhttp://www.ebay.com/itm/SCARECROW-LARGE-CLASSIC-DELUXE-FANGS-CUSTOM-FIT-DELUXE-HALLOWEEN-FANCY-DRESS-/191326558438?hash=item2c8bf398e6:g:fVIAAOSwfcVUEw28
p70
aVhttp://www.ebay.com/itm/Adult-Halloween-Horror-Chinless-Chin-Strap-Head-Fancy-Dress-Costume-Latex-Mask-/351774959372?var=&hash=item51e76be70c:m:msXrBxKTQdnzDhLHvu4GOew
p71
aVhttp://www.ebay.com/itm/FUNKO-POP-SUPER-HEROES-BATMAN-IMPOPSTER-SCARECROW-VINYL-FIGURE-125-IN-STOCK-/142263425739?hash=item211f8f9acb:g:WaoAAOSwjDZYkHsT
p72
a.