(lp1
Vhttp://www.ebay.com/itm/Adonit-Jot-Pro-Flip-Fine-Point-Stylus-for-most-Touch-screens-stylus-pen-combo-/162568019623?epid=1140554902&hash=item25d9cf1ea7:g:mt8AAOSwLnBX3kot
p2
aVhttp://www.ebay.com/itm/Adonit-Jot-Mini-Silver-V2-for-all-Touch-Screen-Devices-ADJM2S-/162594841629?epid=1139598153&hash=item25db68641d:g:YQsAAOSwpDdU7Hyi
p3
aVhttp://www.ebay.com/itm/CRAYOLA-COLOR-STUDIO-HD-iMarker-DIGITAL-STYLUS-CRAYOLA-ColorStudio-HD-APP-/272602907438?epid=1504145901&hash=item3f7866432e:g:KG0AAOSwTM5Y1O-B
p4
aVhttp://www.ebay.com/itm/Adobe-Ink-Slide-Creative-Cloud-Stylus-Digital-Sketching-Pen-And-Ruler-For-iPad-/272501317014?epid=1237746631&hash=item3f72581d96:g:XVkAAOSwo4pYZBgb
p5
aVhttp://www.ebay.com/itm/Adonit-Jot-Pro-Fine-Point-Stylus-for-Touch-Screen-devices-RED-/152631011253?epid=1039597448&hash=item23898467b5:g:wgoAAOSw~1FUXjLy
p6
aVhttp://www.ebay.com/itm/MEKO-the-Most-Responsive-Stylus-Pens-2PCS-2-in-1-Universal-Capacitive-4-2-14N-/361848049874?epid=1679862910&hash=item543fd310d2:g:JUAAAOSwEzxYR~6x
p7
aVhttp://www.ebay.com/itm/Kensington-Virtuoso-DUO-Touch-Screen-PEN-STYLUS-Tablet-Smartphone-iPad-Android-/352034468071?epid=1617265764&hash=item51f6e3b0e7:g:B~8AAOSwqrtWmsfZ
p8
aVhttp://www.ebay.com/itm/2-in-1-Precision-Fine-Thin-Capacitive-Touch-Screen-Stylus-Pen-For-Phone-Tablet-/232152749786?epid=840250369&hash=item360d61d6da:g:ak4AAOSw5cNYNZrc
p9
aVhttp://www.ebay.com/itm/Wacom-Bamboo-Duo-2-in-1-Universal-Touchscreen-Digital-Stylus-Ballpen-/172042116399?hash=item280e825d2f:g:s-0AAOSwX~dWhRhe
p10
aVhttp://www.ebay.com/itm/Adonit-Mark-Stylus-Pen-All-iOS-Android-devices-with-Captive-touchscreens-Silver-/162592818768?epid=1862529968&hash=item25db498650:g:rGsAAOSwu1VW780p
p11
aVhttp://www.ebay.com/itm/Genuine-Original-Dell-Latitude-Tablet-10-ST2-Stylus-Pen-Kit-with-6-Tips-V86GG-/350823812981?epid=1445000917&hash=item51aeba8f75:g:xzoAAMXQWzNSeMT9
p12
aVhttp://www.ebay.com/itm/HP-ACTIVE-PEN-STYLUS-SUNWODA-MS-Designed-for-Spectre-x360-acXXX-blXXX-Laptops-/332292785940?epid=7004666824&hash=item4d5e318714:g:sSwAAOSw6ShZXKCb
p13
aVhttp://www.ebay.com/itm/Griffin-Stylus-Pen-For-iPad-iPhone-6-6s-5s-SE-iPod-Touch-Black-GC35027-/131958706887?epid=1604690435&hash=item1eb95a12c7:g:FVgAAOSw8oFXyFDw
p14
aVhttp://www.ebay.com/itm/WACOM-Bamboo-Solo-Tablet-Smartphone-Touch-Screen-Stylus-Pen-BLACK-CS-100-/351103585425?epid=1488577079&hash=item51bf678c91:g:0BMAAOSwEK9T9QLO
p15
aVhttp://www.ebay.com/itm/Dual-Silver-Touchscreen-Stylus-Ball-Point-Pen-For-ASUS-ZenPad-10-Z300C-/191813007900?epid=1370494272&hash=item2ca8f23a1c:g:hwQAAOSwuAVWzc7v
p16
aVhttp://www.ebay.com/itm/Adonit-Jot-Pro-2015-Fine-Point-Stylus-for-iPad-iPhone-Android-Windows-SILVER-/162573627275?epid=1937901616&hash=item25da24af8b:g:ioIAAOSwBLlU7IEF
p17
aVhttp://www.ebay.com/itm/5-x-MICRO-FIBRE-STYLUS-BALL-POINT-PEN-TIP-FOR-IPHONE-IPAD-TABLET-SAMSUNG-HTC-ETC-/222180174803?epid=1973126349&hash=item33baf86bd3:g:rOsAAOSwZKBZE0ok
p18
aVhttp://www.ebay.com/itm/Adonit-Jot-Flip-Ink-Cartridges-for-Adonit-Jot-Flip-Stylus-Pen-2-Pack-/152601860752?hash=item2387c79a90:g:1vMAAOSwCU1Y1tNs
p19
aVhttp://www.ebay.com/itm/MEKO-the-Most-Responsive-Stylus-Pens-2PCS-2-in-1-Universal-Capacitive-Pre-/252679147172?epid=1477923033&hash=item3ad4d9cea4:g:tnQAAOSw-0xYTs9w
p20
aVhttp://www.ebay.com/itm/MEKO-the-Most-Responsive-Stylus-Pens-2PCS-2-in-1-Universal-Capacitive-Pre-/252679147172?epid=1477923033&hash=item3ad4d9cea4:g:tnQAAOSw-0xYTs9w
p21
aVhttp://www.ebay.com/itm/Belkin-Tablet-Stylus-and-Pen-Wand-for-iPad-Galaxy-Tab-Kindle-Touch-Screens-/322480154159?epid=1704686870&hash=item4b1550a62f:g:wzkAAOSwAuZX2~31
p22
aVhttp://www.ebay.com/itm/Kensington-Virtuoso-Executive-METALLIC-2-in-1-Stylus-Pen-for-Touchscreens-/351628922974?hash=item51deb7905e:g:B~8AAOSwqrtWmsfZ
p23
aVhttp://www.ebay.com/itm/Aluminium-Black-Mini-Stylus-Pen-For-Samsung-Galaxy-Tab-A-10-1-2016-Tablet-/191875494421?hash=item2cacabb215:g:cKcAAOSwH71XPHix
p24
aVhttp://www.ebay.com/itm/Adonit-Jot-Pro-2015-Fine-Point-Stylus-Rose-Gold-iPad-iPhone-Android-Windows-/152596904281?epid=1550323888&hash=item23877bf959:g:F8UAAOSwhcJWNzk-
p25
aVhttp://www.ebay.com/itm/Sleek-Silver-Stylus-Ball-Point-Pen-for-Lenovo-Yoga-10-8-w-Soft-Rubber-Tip-/221351377322?hash=item338991f9aa:g:CEIAAOxyVaBSxpQB
p26
aVhttp://www.ebay.com/itm/Stylus-Apple-Pencil-holder-with-USB-Adapter-pocket-for-9-7-iPad-Pro-Black-/182612739506?epid=565863134&hash=item2a849145b2:g:S4sAAOSwSzRZOahj
p27
aVhttp://www.ebay.com/itm/PENCILUPNOSE-10-x-BLACK-QUALITY-STYLUS-PENS-for-IPAD-TABLET-IPHONE-SAMSUNG-/282070885807?epid=1454203345&hash=item41acbc25af:g:0B8AAOxyHIlTWiQp
p28
aVhttp://www.ebay.com/itm/Stylish-Slim-2-in-1-Ballpoint-Pen-Capacitive-Stylus-For-iPhone-iPad-Tablets-/301701031336?epid=1163335031&hash=item463ec865a8:g:0gIAAOSwgQ9Vu004
p29
aVhttp://www.ebay.com/itm/5-x-STYLUS-WITH-BALL-POINT-PEN-TIP-FOR-IPHONE-IPAD-TABLET-SAMSUNG-HTC-SONY-LG-/222506704235?epid=1973126349&hash=item33ce6edd6b:g:H8AAAOSw539ZbPS8
p30
aVhttp://www.ebay.com/itm/Dual-Silver-Stylus-Ball-Point-Pen-For-Samsung-Galaxy-Tab-S2-8-9-7-/141599102094?hash=item20f7f6d48e:g:svQAAOSwBLlU~dJ-
p31
aVhttp://www.ebay.com/itm/Precision-Fine-Thin-Point-Capacitive-Touch-Screen-Stylus-Pen-For-iPhone-iPad-/232152776172?hash=item360d623dec:g:J4oAAOSwj85YNaKU
p32
aVhttp://www.ebay.com/itm/6X-2-in-1-Tablet-NEW-Smartphone-Stylus-Ballpoint-Pen-Touch-Screen-iPad-iPhone-/252493480066?epid=555994127&hash=item3ac9c8c082:g:cVwAAOSwaB5XqUZl
p33
aVhttp://www.ebay.com/itm/5-x-Touch-Screen-Stylus-Pen-for-iPad-iPhone-Samsung-Galaxy-Nexus-Kindle-Tablet-/391148756871?epid=1190011314&hash=item5b12485f87:g:S-UAAOSwl8NVWuSS
p34
aVhttp://www.ebay.com/itm/Precision-Thin-Point-Disc-Fine-Tip-Stylus-Pen-for-iPhone-Samsung-Galaxy-iPad-/222316772319?hash=item33c31cbbdf:g:Xn8AAOSwqVBZaOqe
p35
aVhttp://www.ebay.com/itm/Genuine-Original-Dell-Active-Pen-Bluetooth-Stylus-PN556W-750-AALT-NEW-/351738915024?epid=22003888562&hash=item51e545e8d0:g:KtcAAOSwuR5XPw-K
p36
aVhttp://www.ebay.com/itm/Silver-Stylus-Pen-for-Microsoft-Surface-Pro-Surface-Pro-2-3-4-w-Soft-Tip-/221688889441?hash=item339db00061:g:PLsAAOxyUgtTNATm
p37
aVhttp://www.ebay.com/itm/Stylus-New-iPod-Color-Universal-for-iPad-PC-Tablet-Phone-Touch-Screen-Pen-/272289059435?hash=item3f65b1526b:g:N3IAAOSwZ1BXciBz
p38
aVhttp://www.ebay.com/itm/DAGi-P506-S-Capacitive-Stylus-Styli-Pen-Stylet-Griffel-iPad-Eee-Pad-Galaxy-/121214978486?epid=649259733&hash=item1c38f9c9b6:g:V4sAAOSwd4tT1a6A
p39
aVhttp://www.ebay.com/itm/Just-Mobile-AluPen-Large-2-in-1-Twist-Designer-Stylus-for-Apple-iPad-Black-/131976909302?epid=1281369504&hash=item1eba6fd1f6:g:l5YAAOSw44BYCMzv
p40
aVhttp://www.ebay.com/itm/6X-2-in-1-Tablet-NEW-Smartphone-Stylus-Ballpoint-Pen-Touch-Screen-iPad-iPhone-/272290173142?epid=578080682&hash=item3f65c250d6:g:pW8AAOSwXeJXc1-E
p41
aVhttp://www.ebay.com/itm/NEW-Adonit-Pixel-Pixelpoint-Stylus-iPad-iPad-Air-iPad-Mini-iPhone-Black-/162588431007?hash=item25db06929f:g:pssAAOSwIzNXOt-O
p42
aVhttp://www.ebay.com/itm/10x-Pack-Slim-2-in-1-Ballpoint-Pen-Capacitive-Stylus-For-iPhone-iPad-Tablets-/301557889331?epid=1556497498&hash=item4636403933:g:sYwAAOSweW5U~k4D
p43
aVhttp://www.ebay.com/itm/Suck-UK-Touch-Screen-Stylus-Real-Pencil-/301478595928?epid=1222453391&hash=item4631864d58:g:FaQAAOSwPYZU9PAA
p44
aVhttp://www.ebay.com/itm/Multi-function-Touch-Screen-Stylus-Ballpoint-Pen-Spirit-Level-Ruler-Screwdriver-/252246433416?hash=item3abb0f1e88:g:nFoAAOSwwPhWk9Pa
p45
aVhttp://www.ebay.com/itm/PENCILUPNOSE-10-x-SILVER-QUALITY-STYLUS-PENS-for-IPAD-TABLET-IPHONE-SAMSUNG-/262487705852?hash=item3d1d7c88fc:g:ZPUAAOxyBjBTUOr4
p46
aVhttp://www.ebay.com/itm/2-Black-PRO-Stylus-with-Ball-Point-Pen-ULTRA-SMOOTH-Micro-Fibre-Tip-Tablets-iPad-/291064484713?epid=1739790462&hash=item43c4cb9369:g:C2MAAOSwn51Uacpk
p47
aVhttp://www.ebay.com/itm/5-x-MICRO-FIBRE-fiber-STYLUS-PENS-for-iPADS-TABLETS-iPHONE-SAMSUNG-ANY-DEVICE-/282070885801?epid=1354193095&hash=item41acbc25a9:g:LTYAAOSw-W5Ur7Uz
p48
aVhttp://www.ebay.com/itm/6-1-Function-Touch-Screen-Stylus-Pen-Spirit-Level-Ruler-Screwdriver-Gadget-Gift-/252246437412?hash=item3abb0f2e24:g:Q1AAAOSwYIhWk9QL
p49
aVhttp://www.ebay.com/itm/DAGi-P702-Capacitive-Stylus-Styli-Pen-Griffel-Windows-Surface-2-Surface-Pro-2-/121226882029?hash=item1c39af6bed:g:lvAAAOSwNSxVTwkF
p50
aVhttp://www.ebay.com/itm/Stylus-Pen-Ciscle-Active-Stylus-Electronic-Stylus-With-1-8mm-Ultra-Fine-Tip-/253023926434?hash=item3ae966b8a2:g:5DAAAOSwnK9ZWReE
p51
aVhttp://www.ebay.com/itm/Bamboo-Smart-CS-320AK-Stylus-suitable-only-for-compatible-tablet-Free-Delivery-/282386242659?epid=1080952715&hash=item41bf881c63:g:HhoAAOSw4CFYvlX6
p52
aVhttp://www.ebay.com/itm/2-PRO-Stylus-Noir-stylo-a-bille-pointe-Microfibre-ultra-lisse-tablettes-iPad-/391363974631?hash=item5b1f1c55e7:g:aUcAAOSww9xZC1r4
p53
aVhttp://www.ebay.com/itm/10-Black-PRO-Stylus-with-Ball-Point-Pen-ULTRA-SMOOTH-MicroFibre-Tip-Tablets-iPad-/291957356511?epid=1040359138&hash=item43fa03b7df:g:AMQAAOSwKrxUZcaf
p54
aVhttp://www.ebay.com/itm/Maglus-Stylus-Black-Edition-Applydea-/191736129763?epid=1542940060&hash=item2ca45d28e3:g:zFkAAOxyedRTehIV
p55
aVhttp://www.ebay.com/itm/10-X-Pro-Stylus-With-Ball-Point-Pen-Tip-Capacitive-Touch-For-iPhone-iPad-Tablet-/361910810918?epid=1842407308&hash=item544390b926:g:w1kAAOSwiQ9ZUfgB
p56
aVhttp://www.ebay.com/itm/Hellfire-Trading-2x-Black-Capacative-Stylus-Pen-Tablets-Smartphone-Universal-/291006703245?epid=1539739389&hash=item43c159e68d:g:t5UAAOSw2XFUadJz
p57
aVhttp://www.ebay.com/itm/5-x-CRYSTAL-DIAMOND-BLING-STYLUS-PEN-FOR-IPHONE-IPAD-TABLET-SAMSUNG-HTC-ETC-/222506729958?epid=1973126349&hash=item33ce6f41e6:g:GQMAAOSwhvFZE03y
p58
aVhttp://www.ebay.com/itm/Olixar-HexStyli-6-in-1-Stylus-Pen-Silver-/192151196463?epid=1237284440&hash=item2cbd1a932f:g:mkEAAOSwAANY54T3
p59
aVhttp://www.ebay.com/itm/WACOM-Bamboo-Solo-Tablet-Smartphone-Touch-Screen-Stylus-Pen-WHITE-CS-100W-/351103585440?epid=1404672196&hash=item51bf678ca0:g:JMIAAOxyIPNTdN9x
p60
aVhttp://www.ebay.com/itm/Kensington-GummyGrip-Chunky-Childrens-Stylus-Pen-for-Touchscreen-Tablets-Laptops-/172049191593?epid=1326500158&hash=item280eee52a9:g:X1oAAOSwZG9WiGQv
p61
aVhttp://www.ebay.com/itm/DAGi-P602-Capacitive-Stylus-Styli-Pen-Stylet-Griffel-New-iPad-4-3-2-iPad-Mini-/111058336457?hash=item19db97bac9:g:QhIAAOSwEeFVTv4p
p62
aVhttp://www.ebay.com/itm/Red-Touchscreen-Mini-Stylus-Pen-For-Vtech-InnoTab-Max-7-/191521304206?epid=680558853&hash=item2c978f2e8e:g:FjkAAOSwPe1ULmpH
p63
aVhttp://www.ebay.com/itm/Multifunction-Touch-Screen-Pen-Multi-Tool-Stylus-Spirit-Level-Ruler-Screwdriver-/302217504391?hash=item465d912687:g:rQMAAOSw9GhYmQK6
p64
aVhttp://www.ebay.com/itm/Large-Easy-Hold-Stylus-Pen-For-Samsung-Galaxy-Kids-Tablet-In-Red-/191496199708?epid=647339103&hash=item2c96101e1c:g:UCIAAOxyCepSbixi
p65
aVhttp://www.ebay.com/itm/Genuine-Microsoft-Surface-3-Surface-Pro-3-Stylus-Replacement-Spare-Pen-Nib-Tip-/381982952818?hash=item58eff54d72:g:AkAAAOSw2gxYs1w1
p66
aVhttp://www.ebay.com/itm/5-x-MICRO-FIBER-fibre-STYLUS-PENS-for-iPADS-TABLETS-iPHONE-SAMSUNG-ANY-DEVICE-/282070885800?epid=1054204838&hash=item41acbc25a8:g:bDIAAOSwGvhUDXD8
p67
aVhttp://www.ebay.com/itm/Mini-Touchscreen-Stylus-Pen-For-Vtech-Innotab-2-Baby-in-Pink-/221329418284?epid=653106577&hash=item338842e82c:g:I3EAAOxyTjNSnLJI
p68
aVhttp://www.ebay.com/itm/Maglus-Stylus-Mini-Applydea-/262138516704?hash=item3d08ac54e0:g:h1UAAMXQtUxTehH8
p69
aVhttp://www.ebay.com/itm/10-x-PURPLE-QUALITY-STYLUS-PENS-for-IPAD-TABLET-IPHONE-SAMSUNG-HTC-SONY-/252428458878?epid=0&hash=item3ac5e89b7e:g:vPsAAOxyeZNTUOs8
p70
aVhttp://www.ebay.com/itm/Children-Stylus-SuperStylus-for-iPad-2-3-4-Kindle-Fire-child-arthritic-/272547900433?epid=1007988648&hash=item3f751eec11:g:tvIAAOxy3zNSi36N
p71
aVhttp://www.ebay.com/itm/NEW-Replacement-HP-Active-Stylus-Pen-Designed-for-Spectre-x2-Laptops-/332272466829?epid=2062304173&hash=item4d5cfb7b8d:g:q~EAAOSwwzhZSRTX
p72
aVhttp://www.ebay.com/itm/BLACK-TWIN-PACK-STYLUS-PEN-FOR-LENOVO-YOGA-TABLET-MIIX-A10-A7-A8-/381698251623?hash=item58defd1b67:g:JeUAAOSwabhUW~Ys
p73
aVhttp://www.ebay.com/itm/Yousave-For-The-Microsoft-Surface-Pro-2-10-6-Red-Capacitive-Touch-Stylus-Pen-UK-/301016031592?epid=1887403278&hash=item4615f42168:g:YQ4AAOxy3NBSgjMf
p74
aVhttp://www.ebay.com/itm/Aluminium-Pink-Mini-Stylus-Pen-For-Samsung-Galaxy-Tab-A-10-1-2016-Tablet-/191875492849?hash=item2cacababf1:g:0uUAAOSwZetXPHgF
p75
aVhttp://www.ebay.com/itm/Dual-Black-Touchscreen-Stylus-Ball-Point-Pen-For-Apple-iPad-Pro-9-7-inch-Tablet-/141937194636?hash=item210c1db68c:g:XfMAAOSwxvxW8X5b
p76
aVhttp://www.ebay.com/itm/NEW-Adonit-Pixel-Pixelpoint-Stylus-iPad-iPad-Air-iPad-Mini-iPhone-Bronze-/162589946559?hash=item25db1db2bf:g:8OgAAOSw9VZXOuIE
p77
aVhttp://www.ebay.com/itm/Adonit-Snap-Fine-Point-Stylus-for-Apple-iPhone-White-/292067572792?epid=1694525124&hash=item4400957c38:g:Q58AAOSwSlBY16Vq
p78
aVhttp://www.ebay.com/itm/NEW-10-Pcs-Metal-Universal-Stylus-Touch-Pens-for-Android-Ipad-Tablet-Iphone-PC-/252451205443?epid=506437437&hash=item3ac743b143:g:9rwAAOSwZ1BXfKmJ
p79
aVhttp://www.ebay.com/itm/Wacom-Bamboo-Stylus-Fineline-2-Pen-for-iPad-Mini-iPad-3-4-Air-Air-2-/112271427840?epid=2056345169&hash=item1a23e60900:g:pj0AAOSwA3dYfScd
p80
aVhttp://www.ebay.com/itm/Pink-Mini-Touchscreen-Stylus-Pen-For-LeapFrog-LeapPad-3-3x-/191393720165?hash=item2c8ff46765:g:t4kAAOSwnDZULmm6
p81
aVhttp://www.ebay.com/itm/Mini-Compact-Stylus-For-Leapfrog-Leappad-Power-2-w-Attachable-Cord-Rubber-Tip-/221688886410?hash=item339daff48a:g:RrgAAOSwHgVW8CWr
p82
aVhttp://www.ebay.com/itm/Ibiopen-SENSE-Touch-Capacitivo-Touch-Stylus-Fine-2-5mm-Punte-iOS-Android-/122422202645?hash=item1c80ee9115:g:B5UAAOSwAKxWXIcq
p83
aVhttp://www.ebay.com/itm/10-Pcs-Metal-Universal-Stylus-Touch-Pens-for-Android-Ipad-Tablet-Iphone-PC-2016-/272492209980?epid=504098294&hash=item3f71cd273c:g:BVsAAOSwhdRYWSoq
p84
aVhttp://www.ebay.com/itm/Touchscreen-Mini-Stylus-Pen-For-Vtech-Innotab-2-Baby-in-Red-/221329418318?epid=646470016&hash=item338842e84e:g:6yQAAOxy63FSnLJI
p85
aVhttp://www.ebay.com/itm/10-Pcs-Metal-Universal-Stylus-Touch-Pens-for-Android-Ipad-Tablet-Iphone-PC-2016-/272492209980?epid=504098294&hash=item3f71cd273c:g:BVsAAOSwhdRYWSoq
p86
aVhttp://www.ebay.com/itm/Touchscreen-Mini-Stylus-Pen-For-Vtech-Innotab-2-Baby-in-Red-/221329418318?epid=646470016&hash=item338842e84e:g:6yQAAOxy63FSnLJI
p87
aVhttp://www.ebay.com/itm/Silver-2-Way-Pen-Stylus-With-Soft-Rubber-Tip-For-Touchscreen-Tablets-Phones-/221293225952?hash=item33861aa7e0:g:ZZYAAOxy0QBSTh42
p88
aVhttp://www.ebay.com/itm/B-And-D-Universal-Capacities-Stylus-Touch-Screen-Pen-2-In-1-for-Apple-iPad-NEW-/302218974851?epid=1276287050&hash=item465da79683:g:egAAAOSwjDZYmv8x
p89
aVhttp://www.ebay.com/itm/Red-Touchscreen-Mini-Stylus-Pen-For-LeapFrog-LeapPad-3-3x-/221589015594?hash=item3397bc0c2a:g:hPgAAOSw7NNULmgG
p90
aVhttp://www.ebay.com/itm/Genuine-Lunatik-Polymer-Premium-Touch-Stylus-Writing-Pen-White-/161588772125?epid=1744212000&hash=item259f70fd1d:g:KpoAAOSwhgJZYREk
p91
aVhttp://www.ebay.com/itm/The-Friendly-Swede-4-in-1-Stylus-Pen-with-Replaceable-Brush-Black-/112391060711?epid=753430164&hash=item1a2b077ce7:g:894AAOSw~y9ZBrKn
p92
aVhttp://www.ebay.com/itm/MEKO-The-Most-Responsive-Stylus-Pens-2PCS-2-In-1-Universal-Capacitive-Disc-/132256446327?epid=526493141&hash=item1ecb193777:g:440AAOSwRMtZY2pd
p93
aVhttp://www.ebay.com/itm/Ibiopen-Active-SENSE-3-0-Capacitive-Touch-Stylus-Fine-2mm-Tip-iOS-Android-/112174047223?hash=item1a1e181ff7:g:PcIAAOSwUEVYCKnH
p94
aVhttp://www.ebay.com/itm/Genuine-Dell-Active-Stylus-Pen-Venue-Pro-8-11-Tablet-7DMHT-TCHDP-750-AAHC-REF-/352025073488?epid=1142055571&hash=item51f6545750:g:XNUAAOSwxYxU1H8R
p95
aVhttp://www.ebay.com/itm/5-Black-PRO-Stylus-with-Ball-Point-Pen-ULTRA-SMOOTH-Micro-Fibre-Tip-Tablets-iPad-/291064484700?hash=item43c4cb935c:g:gYkAAOSwMKpUZcal
p96
aVhttp://www.ebay.com/itm/Yousave-For-Microsoft-Surface-Pro-2-10-6-Silver-Capacitive-Touch-Stylus-Pen-UK-/390700423715?epid=1887404645&hash=item5af78f5a23:g:4fsAAOxye2lSWBa9
p97
aVhttp://www.ebay.com/itm/Premium-Touchscreen-Stylus-Pen-Duo-for-HP-Elitebook-Revolve-801-G1-in-Silver-/221688887002?epid=647767465&hash=item339daff6da:g:1CIAAOxy039TLDX2
p98
aVhttp://www.ebay.com/itm/Microsoft-SURFACE-PEN-Pro-3-4-SILVER-Bluetooth-Wireless-Stylus-Genuine-Official-/182667975366?epid=27004848703&hash=item2a87dc1ac6:g:JRsAAOSwgu9ZX7Mo
p99
aVhttp://www.ebay.com/itm/Genuine-Lunatik-Metal-Alloy-Premium-Touch-Stylus-Writing-Pen-Black-/161588771698?epid=1240277994&hash=item259f70fb72:g:t7MAAOSwgu9ZYREP
p100
aVhttp://www.ebay.com/itm/3-Light-Blue-PRO-Stylus-with-Ball-Point-Pen-ULTRA-SMOOTH-Micro-Fibre-Tip-Tablets-/131269545792?hash=item1e90464f40:g:dP4AAOSwewJToW4C
p101
aVhttp://www.ebay.com/itm/2-Brown-PRO-Stylus-with-Ball-Point-Pen-ULTRA-SMOOTH-Micro-Fibre-Tip-Tablets-/131180217406?hash=item1e8af3443e:g:2DEAAOSw~FNUacCL
p102
aVhttp://www.ebay.com/itm/Slim-Waist-Stylus-By-Dimples-Excel-1pc-Black-/292067473991?epid=599977251&hash=item440093fa47:g:mSAAAOSwB-1Y13rf
p103
aVhttp://www.ebay.com/itm/5-x-TELESCOPIC-RETRACTABLE-STYLUS-PEN-FOR-IPHONE-IPAD-TABLET-SAMSUNG-HTC-ETC-/222506743070?epid=1973126349&hash=item33ce6f751e:g:WfcAAOSwX61ZE1DW
p104
aVhttp://www.ebay.com/itm/WACOM-Bamboo-Solo-Tablet-Smartphone-Touch-Screen-Stylus-Pen-WHITE-CS-100W-/172518092320?epid=1404672196&hash=item282ae12e20:g:JMIAAOxyIPNTdN9x
p105
aVhttp://www.ebay.com/itm/Ibiopen-SENSE-Touch-Capacitive-Touch-Stylus-Fine-2-5mm-Tip-iOS-Android-/142137347317?hash=item21180bccf5:g:B5UAAOSwAKxWXIcq
p106
aVhttp://www.ebay.com/itm/2-Schwarz-PRO-Stylus-Kugelschreiber-glatte-Mikrofaser-Spitze-Tablet-iPad-/131700141003?hash=item1ea9f0abcb:g:WGIAAOSw0j9ZP-E8
p107
aVhttp://www.ebay.com/itm/B-D-Universal-Capacitive-Stylus-Pen-2-in-1-Styli-Touch-Screen-Pen-with-20Pcs-/172513377116?hash=item282a993b5c:g:gqsAAOSw-0xYlEoO
p108
aVhttp://www.ebay.com/itm/SAMSUNG-Digitizer-Stylus-Pen-for-500T1c-AA-DP2N65W-E-ATIV-Smart-PC-Smart-PcPro-/371909979841?epid=1705648908&hash=item56978feec1:g:xj0AAOxyCGNTMb7p
p109
aVhttp://www.ebay.com/itm/Universal-Stylus-Touch-Screen-Pen-20Pc-Rubber-Tips-Smartphone-Tablet-Black-5-5-i-/262904872660?epid=1276287050&hash=item3d3659fed4:g:21oAAOSw4A5Y0aWJ
p110
aVhttp://www.ebay.com/itm/Dimples-Excel-2-in-1-Precision-Stylus-Styli-with-Fine-Point-Tip-Disc-and-Micro-/252815472024?epid=2077913367&hash=item3adcf9f598:g:Pt8AAOSw2gxYyncG
p111
aVhttp://www.ebay.com/itm/5-x-MICRO-FIBER-STYLUS-PEN-FOR-iPAD-iPHONE-SAMSUNG-GALAXY-NEXUS-KINDLE-TABLET-/281259363901?epid=1163107184&hash=item417c5d4e3d:g:ZwIAAOxygPtS97nM
p112
aVhttp://www.ebay.com/itm/Hellfire-Trading-5x-Black-Capacative-Stylus-Pen-Tablets-Smartphone-Universal-/391618198116?epid=1939668176&hash=item5b2e437a64:g:btwAAOSwIBBUadms
p113
aVhttp://www.ebay.com/itm/Aluminium-Silver-Touchscreen-Mini-Stylus-Pen-For-Apple-iPad-Pro-9-7-inch-Tablet-/222061833888?hash=item33b3eaaea0:g:ztYAAOSwwpdW8X4x
p114
aVhttp://www.ebay.com/itm/Wacom-Bamboo-Stylus-Fineline-2-Case-For-Ipad-3-Ipad-Mini-Black-Digital-Stylus-/282564859947?epid=2056345169&hash=item41ca2d982b:g:Vb0AAOSwY4pZYpeH
p115
aVhttp://www.ebay.com/itm/Ibiopen-Compact-SENSE-Capacitive-Touch-Stylus-Fine-2-5mm-Tip-iOS-Android-/112156509472?hash=item1a1d0c8520:g:vYsAAOSwgyxWXIM9
p116
aVhttp://www.ebay.com/itm/Emartbuy-Mesh-Fibre-Touchscreen-Stylus-Pen-for-Amazon-Kindle-Fire-HDX-Pack-of-5-/262755024238?epid=1669990684&hash=item3d2d6b7d6e:g:k-IAAOSw2xRYSlUR
p117
aVhttp://www.ebay.com/itm/B-D-Stylus-Pen-2-in-1-Styli-Touch-Screen-Pen-iPad-iPhone-Tablet-Galaxy-/332230258927?epid=1683623539&hash=item4d5a7770ef:g:fVcAAOSwBt5ZIdwg
p118
aVhttp://www.ebay.com/itm/PenPower-Q-Pen-Unique-Stylus-Pen-For-iPad-Air-Mini-4-3-2-Pro-Black-Drawing-NEW-/131392131886?epid=1304771256&hash=item1e9794d32e:g:SQAAAOxywh1TGGyj
p119
aVhttp://www.ebay.com/itm/HOT-5Pcs-Metal-Stylus-Touch-Screen-Pen-For-iPad-iPhone-Samsung-Tablet-PC-iPod-/292128175924?epid=1389073802&hash=item4404323734:g:DtAAAOSwIaFZJU3L
p120
aVhttp://www.ebay.com/itm/Mfuse-Pencil-Shaped-Stylus-Great-For-Drawing-Apps-/360774346319?epid=1949332584&hash=item53ffd3a64f:g:UAIAAOSwPcVVisl~
p121
aVhttp://www.ebay.com/itm/Dimples-Excel-Stylus-Pen-Replacement-Thin-Fiber-Tips-for-iPad-Tablet-Kindle-Touc-/292177697424?epid=694316496&hash=item440725da90:g:rwMAAOSwjiFZYqgS
p122
aVhttp://www.ebay.com/itm/Tablet-Touchscreen-Stylus-Pen-w-Rubber-Tip-For-Samsung-Galaxy-Kids-Tablet-/191509884903?hash=item2c96e0efe7:g:CukAAOSw2ENW8CSz
p123
aVhttp://www.ebay.com/itm/FiftyThree-53-53PW01-Pencil-Bluetooth-Digital-Stylus-for-iPad-3-Mini-Walnut-/322577701002?epid=1237788930&hash=item4b1b21188a:g:DAcAAOSw~e5ZRv-1
p124
aVhttp://www.ebay.com/itm/BELKIN-MIXIT-STYLUS-PEN-CAPACITIVE-TOUCH-FOR-IPAD-4-3-2-1-PRO-AIR-MINI-PURPLE-/152331617793?hash=item2377ac0601:g:z-kAAOSwNuxXYVnj
p125
aVhttp://www.ebay.com/itm/ORIGINAL-Microsoft-Pro-Pen-Digitizer-Stylus-for-Surface-Pro-Pro-2-5PT-00006-/351811234432?epid=1658414469&hash=item51e9956a80:g:3q8AAOSwZVlXsj0j
p126
aVhttp://www.ebay.com/itm/Kikkerland-Set-Of-2-White-Pen-Cap-Touch-Screen-Mobile-Phone-Tablet-Stylus-US68BK-/371367940155?epid=1939664550&hash=item567741103b:g:y5oAAOSwu4BVkm10
p127
aVhttp://www.ebay.com/itm/Dual-Red-Touchscreen-Stylus-Ball-Point-Pen-For-Apple-iPad-Pro-9-7-inch-Tablet-/222061833852?hash=item33b3eaae7c:g:UhoAAOSwAuNW8X4t
p128
aVhttp://www.ebay.com/itm/B-D-Universal-Capacitive-Stylus-Pen-2-in-1-Styli-Touch-Screen-Pen-with-20Pcs-Rep-/222389649808?epid=1276287050&hash=item33c774c190:g:5SYAAOSw5cNYifym
p129
aVhttp://www.ebay.com/itm/Wacom-Bamboo-Stylus-Pen-Solo-2-YELLOW-for-iPad-Air-Mini-1-2-Tablets-BRAND-NEW-/361353591127?epid=1317947760&hash=item54225a3957:g:o1wAAOSwMmBVuMTm
p130
aVhttp://www.ebay.com/itm/DAGi-P507-Capacitive-Stylus-Styli-Pen-Samsung-Galaxy-Tab-2-7-0-8-9-10-1-11-6-/120957495705?epid=10003083017&hash=item1c29a0e999:g:rJIAAOSwEeFVJVcs
p131
aVhttp://www.ebay.com/itm/DAGi-P604-Capacitive-Stylus-Styli-Pen-Stylet-Samsung-Galaxy-Tab-3-7-0-8-0-10-1-/111264048947?epid=671057073&hash=item19e7daa733:g:nd4AAOxyRhBS2VC-
p132
aVhttp://www.ebay.com/itm/Dual-Silver-Touchscreen-Stylus-Ball-Point-Pen-For-Apple-iPad-Pro-9-7-inch-Tablet-/141937195320?hash=item210c1db938:g:QpIAAOSwdGFYuYrh
p133
aVhttp://www.ebay.com/itm/DAGi-P507-LB-Capacitive-Stylus-iPad-Galaxy-Kindle-Nexus-Iconia-Xperia-Slate-/111179109964?hash=item19e2ca964c:g:Ao0AAOSweW5VJYsf
p134
aVhttp://www.ebay.com/itm/Zed-Labz-pro-blue-ultra-smooth-micro-fibre-tip-stylus-pen-iPad-iphone-samsung-/271412836781?epid=1337262769&hash=item3f317739ad:g:b6gAAOSwmLlX9kX2
p135
aVhttp://www.ebay.com/itm/Aluminium-Black-Touchscreen-Mini-Stylus-Pen-For-Apple-iPad-Pro-9-7-inch-Tablet-/222061835175?hash=item33b3eab3a7:g:m5IAAOSwHgVW8X6G
p136
aVhttp://www.ebay.com/itm/Genuine-Samsung-HM5100-Mono-Bluetooth-S-Pen-Stylus-for-Galaxy-Note-Series-/370964415461?epid=1823920973&hash=item565f33c3e5:g:VosAAOxy4dNSrG9Z
p137
aVhttp://www.ebay.com/itm/JUPPA-KRISTALL-STYLUS-MIT-BALLPOINT-STIFT-FUR-TOUCH-SCREEN-KAPAZITIV-GERATE-/361077537548?hash=item5411e5fb0c:g:FxQAAOxyWmxSZmQ1
p138
aVhttp://www.ebay.com/itm/B-D-2PCS-Universal-Capacitive-Stylus-Pen-2-in-1-Touch-Screen-Styli-Styluses-Pen-/282285124513?epid=1079504923&hash=item41b9812ba1:g:CHMAAOSwEzxYSkvM
p139
aVhttp://www.ebay.com/itm/5-x-BULLET-STYLUS-PEN-FOR-IPHONE-IPAD-TABLET-SAMSUNG-HTC-ETC-/222506734083?epid=1973126349&hash=item33ce6f5203:g:zSgAAOSwK6RZE08n
p140
aVhttp://www.ebay.com/itm/PENCILUPNOSE-10-x-STYLUS-PENS-for-SMALL-TABLETS-MOBILE-PHONES-SAMSUNG-ETC-/252428458889?epid=1854133996&hash=item3ac5e89b89:g:RqUAAOxynwlTehUa
p141
aVhttp://www.ebay.com/itm/10-x-Multi-Coloured-Tablet-Smartphone-iPad-Note-Touch-Screen-Stylus-Pens-/351928361092?epid=863220892&hash=item51f090a084:g:LsUAAOSwPhdU~ZqO
p142
aVhttp://www.ebay.com/itm/Zed-Labz-pro-red-ultra-smooth-micro-fibre-tip-stylus-pen-for-iPad-iphone-samsung-/331105274478?epid=1923711363&hash=item4d17698a6e:g:xrsAAOSw8gVX9jy4
p143
aVhttp://www.ebay.com/itm/Hellfire-Trading-5-Orangene-Stylus-mit-Kugelschreiber-f-Tablets-iPad-Smartphone-/291603511220?hash=item43e4ec77b4:g:BF4AAOSw~y9ZCzKu
p144
aVhttp://www.ebay.com/itm/Aluminium-Blue-Mini-Stylus-Pen-For-Samsung-Galaxy-Tab-A-10-1-2016-Tablet-/222121888545?hash=item33b77f0b21:g:6tUAAOSwB9xXPHh5
p145
aVhttp://www.ebay.com/itm/DAGi-P507-Capacitive-Stylus-Styli-Pen-Griffel-Windows-Surface-2-Surface-Pro-2-/121226875629?epid=10003083017&hash=item1c39af52ed:g:ij8AAOSwEeFVJVX1
p146
aVhttp://www.ebay.com/itm/Ibiopen-SENSE-Touch-Capacitive-Touch-Stylus-Fine-2-5mm-Tip-iOS-Android-/121828460698?hash=item1c5d8ac89a:g:L2gAAOSwNphWXIjd
p147
aVhttp://www.ebay.com/itm/2-X-NEW-Portable-Modern-Stylus-Touch-Pen-For-Apple-iPad-iPhone-iPod-Tablets-/262454095239?hash=item3d1b7bad87:g:vR4AAOSw2xRYcnYD
p148
aVhttp://www.ebay.com/itm/DAGi-M001-8GB-Capacitive-Stylus-Asus-Eee-Pad-Transformer-Infinity-Prime-Slate-/110979578349?hash=item19d6e5f9ed:g:s6AAAOxyMKNSKfqY
p149
aVhttp://www.ebay.com/itm/Genuine-Microsoft-Surface-Pro-4-Stylus-Replacement-Pen-Nib-Tip-Kit-2H-H-HB-B-/262965907846?epid=841894914&hash=item3d39fd5186:g:T9AAAOSwnONZCkKM
p150
aVhttp://www.ebay.com/itm/B-D-Universal-Capacitive-Stylus-Pen-2-in-1-Styli-Touch-Screen-Pen-Rose-Gold-/292138013046?epid=535469812&hash=item4404c85176:g:4EMAAOSwCQZZMWZg
p151
aVhttp://www.ebay.com/itm/DAGi-P507-Capacitive-Stylus-Styli-Pen-Stylet-Griffel-Apple-New-iPad-iPad-2-/110918637979?epid=20003170232&hash=item19d344199b:g:PiUAAOSwNSxVJVgd
p152
aVhttp://www.ebay.com/itm/Dell-Active-Stylus-Pen-for-Venue-Pro-8-11-Tablet-7DMHT-TCHDP-750-AAHC-/301682251117?epid=1142055571&hash=item463da9d56d:g:XNUAAOSwxYxU1H8R
p153
aVhttp://www.ebay.com/itm/Universal-High-Precision-series-2-in-1-Mini-Jot-Fiber-Mesh-Disc-Stylus-Styli-Pen-/222418618830?epid=579390528&hash=item33c92ec9ce:g:Q~4AAOSw~AVYri0P
p154
aVhttp://www.ebay.com/itm/DAGi-P702-Capacitive-Stylus-Styli-Pen-Stylet-Griffel-iPad-Eee-Pad-Galaxy-/121213752491?epid=500347317&hash=item1c38e714ab:g:vu8AAOSweW5VTw-W
p155
aVhttp://www.ebay.com/itm/Dimples-Excel-Stylus-Pen-Replacement-Thin-Fiber-Tips-for-iPad-Tablet-Kindle-Touc-/292177697424?epid=694316496&hash=item440725da90:g:rwMAAOSwjiFZYqgS
p156
aVhttp://www.ebay.com/itm/DAGi-P603-Capacitive-Stylus-Styli-Pen-Samsung-Galaxy-Tab-2-7-0-8-9-10-1-11-6-/111169791886?hash=item19e23c678e:g:epoAAOxykYtSKfaD
p157
aVhttp://www.ebay.com/itm/Caseflex-Accessories-For-Tesco-Hudl-7-Dark-Blue-Micro-Fibre-Tip-Stylus-Pen-UK-/301017680114?epid=1988340819&hash=item46160d48f2:g:p5QAAOxypNtSehDr
p158
aVhttp://www.ebay.com/itm/Tablet-Accessories-Universal-Capacitive-Stylus-Styli-Touch-Screen-Pen-Black-NEW-/232151963381?hash=item360d55d6f5:g:kiUAAOSwiONYNKXP
p159
aVhttp://www.ebay.com/itm/Ibiopen-Compact-SENSE-2-In-1-Capacitive-Stylus-Fine-2-5mm-Tip-iOS-Android-/141841370247?hash=item2106678c87:g:BLcAAOSw8-tWXIGD
p160
aVhttp://www.ebay.com/itm/Groov-e-GV-CP2-GVCP2-Capacitive-Stylus-2pk-Kindle-Fire-Nexus-7-Nook-HD-/121112295548?hash=item1c32daf87c:g:T00AAOxyVh5SLO0j
p161
aVhttp://www.ebay.com/itm/DAGi-M001-8GB-Capacitive-Stylus-Styli-Pen-Stylet-Microsoft-Windows-Surface-Pro-/121099661691?hash=item1c321a317b:g:-H4AAMXQtRxSKfrP
p162
aVhttp://www.ebay.com/itm/DAGi-P507-Capacitive-Stylus-Styli-Pen-Stylet-Samsung-Galaxy-Tab-3-7-0-8-0-10-1-/121185354633?epid=10003083017&hash=item1c3735c389:g:Q2QAAOSwBahVJVZY
p163
aVhttp://www.ebay.com/itm/Adonit-Jot-Pro-Fine-Point-Stylus-Black-mainland-Europe-warranty-only-not-UK-/182608324998?epid=1237746846&hash=item2a844de986:g:fN4AAOSwKytZNbxV
p164
aVhttp://www.ebay.com/itm/Slimline-Silver-Stylus-for-Lenovo-A3000-w-Ball-Point-Pen-/191509885493?hash=item2c96e0f235:g:plQAAOxycmBSqwET
p165
aVhttp://www.ebay.com/itm/Adonit-Jot-Mini-Black-V2-for-allTouch-Screen-Devices-ADJM2B-/152622674608?hash=item23890532b0:g:P2sAAOSwrklU7HtH
p166
aVhttp://www.ebay.com/itm/DAGi-P603-Capacitive-Stylus-Styli-Pen-Griffel-Windows-Surface-2-Surface-Pro-2-/121226878964?hash=item1c39af5ff4:g:roUAAOxy7AxSKfa~
p167
aVhttp://www.ebay.com/itm/DAGi-P507-Capacitive-Stylus-Styli-Pen-Stylet-Griffel-Apple-iPhone-5S-5C-5-4S-4-/121179513741?epid=20003170232&hash=item1c36dca38d:g:or8AAOSwEeFVJVbP
p168
aVhttp://www.ebay.com/itm/Black-Touch-Screen-Stylus-topped-with-Fuchsia-Swarvoski-Elements-/381730428356?epid=1683718304&hash=item58e0e815c4:g:ArgAAOSwAANY71bb
p169
aVhttp://www.ebay.com/itm/Ibiopen-Smart-SENSE-Capacitive-Touch-Stylus-Ultra-Fine-2mm-Tip-iOS-Android-/142155236383?hash=item21191cc41f:g:mfIAAOSw4f5YCLlq
p170
aVhttp://www.ebay.com/itm/2x-White-Pro-Stylus-with-BallPoint-Pen-ULTRA-SMOOTH-Rubber-Tip-for-Tablets-iPad-/391820683368?epid=1039265893&hash=item5b3a552868:g:H64AAOSwzOxUWMNG
p171
aVhttp://www.ebay.com/itm/DAGi-P702-Capacitive-Stylus-Styli-Asus-Transformer-Pad-TF701T-TF300-Infinity-/111229962202?hash=item19e5d287da:g:lY8AAOSwBahVTxBR
p172
aVhttp://www.ebay.com/itm/DAGi-P507-Capacitive-Stylus-Styli-Pen-Stylet-Samsung-Galaxy-Tab-3-7-0-8-0-10-1-/121185354633?epid=10003083017&hash=item1c3735c389:g:Q2QAAOSwBahVJVZY
p173
aVhttp://www.ebay.com/itm/1x-Black-Stylus-with-Ball-Point-Pen-ULTRA-SMOOTH-Rubber-Tip-Tablets-iPad-/291031988270?epid=1339272037&hash=item43c2dbb82e:g:ztQAAOSwIBBUacgX
p174
aVhttp://www.ebay.com/itm/MEKO-The-Most-Responsive-Stylus-Pens-2PCS-2-In-1-Universal-Capacitive-Disc-/222318540859?epid=1584377023&hash=item33c337b83b:g:~xEAAOSwcLxYLpYP
p175
aVhttp://www.ebay.com/itm/DAGi-P506-S-Kapazitiver-Eingabestift-Stylus-stifte-Stift-Satec-Griffel-iPad-Eee-/141826244633?hash=item210580c019:g:V4sAAOSwd4tT1a6A
p176
aVhttp://www.ebay.com/itm/2-X-Universal-Stylus-Portable-Touch-Pens-For-Apple-iPad-iPhone-iPod-Tablets-/262489304329?hash=item3d1d94ed09:g:fjgAAOSwImRYcn28
p177
aVhttp://www.ebay.com/itm/Adonit-Jot-Pro-Fine-Point-Stylus-Black-mainland-Europe-warranty-only-not-UK-/182608324998?epid=1237746846&hash=item2a844de986:g:fN4AAOSwKytZNbxV
p178
aVhttp://www.ebay.com/itm/Dual-Silver-Stylus-Ball-Point-Pen-For-Dragon-Touch-7-/141423840327?hash=item20ed848c47:g:tV0AAOSw7NNULmmj
p179
aVhttp://www.ebay.com/itm/Adonit-Jot-Mini-Black-V2-for-allTouch-Screen-Devices-ADJM2B-/152622674608?hash=item23890532b0:g:P2sAAOSwrklU7HtH
p180
aVhttp://www.ebay.com/itm/DAGi-P603-Capacitive-Stylus-Styli-Pen-Griffel-Windows-Surface-2-Surface-Pro-2-/121226878964?hash=item1c39af5ff4:g:roUAAOxy7AxSKfa~
p181
aVhttp://www.ebay.com/itm/5-White-PRO-Stylus-with-Ball-Point-Pen-ULTRA-SMOOTH-Micro-Fibre-Tip-Tablets-/291217638347?hash=item43cdec83cb:g:37QAAOSw1-RUZctN
p182
aVhttp://www.ebay.com/itm/Black-Orb-Scribbler-2-in-1-Stylus-Ballpoint-Pen-Ipad-Iphones-Touchscreens-NEW-/150936639988?epid=1904826466&hash=item23248659f4:g:ZLIAAOSws5pZLXOH
p183
aVhttp://www.ebay.com/itm/DAGi-P602-Capacitive-Stylus-Styli-Pen-Stylet-Samsung-Galaxy-Tab-3-7-0-8-0-10-1-/111178523595?epid=27003080307&hash=item19e2c1a3cb:g:bbUAAOSwstxVTv2v
p184
aVhttp://www.ebay.com/itm/DAGi-P604-Capacitive-Stylus-Styli-Pen-Stylet-Griffel-iPad-Eee-Pad-Galaxy-/121256246441?epid=671057073&hash=item1c3b6f7ca9:g:nd4AAOxyRhBS2VC-
p185
aVhttp://www.ebay.com/itm/4in1-Red-LED-Touch-Screen-Torch-Laser-Pointer-Stylus-Ball-Pen-for-iPhone-iPad-/302062423684?epid=1683225799&hash=item465452ce84:g:NgcAAOSwfcVUDsfr
p186
aVhttp://www.ebay.com/itm/B-and-D-Universal-Capacitive-Stylus-Pen-2-in-1-Touch-Screen-Pen-and-20Pcs-Rubber-/162339118125?epid=1276287050&hash=item25cc2a5c2d:g:0XMAAOSw44BYZlvu
p187
aVhttp://www.ebay.com/itm/Wacom-Bamboo-Stylus-Fineline-2-Case-for-iPad-3-iPad-Mini-/292060634643?epid=2056345169&hash=item44002b9e13:g:05AAAOSwTM5Yzlu2
p188
aVhttp://www.ebay.com/itm/NEW-GENUINE-Targus-Stylus-For-iPad-Android-Tablets-and-Smartphones-Black-/182378401058?hash=item2a76998d22:g:tqMAAOSw5cNYRbPa
p189
aVhttp://www.ebay.com/itm/5-Baby-Pink-PRO-Stylus-with-Ball-Point-Pen-ULTRA-SMOOTH-Micro-Fibre-Tip-Tablets-/131180213898?hash=item1e8af3368a:g:Ph8AAOSwn51Uadc4
p190
aVhttp://www.ebay.com/itm/Yousave-Accessories-For-The-Tesco-Hudl-7-Purple-Capacitive-Touch-Stylus-Pen-UK-/370943806643?epid=1788445520&hash=item565df94cb3:g:n8kAAOxyEoFSWBRa
p191
aVhttp://www.ebay.com/itm/DAGi-M001-4GB-Capacitive-Stylus-Styli-Pen-Samsung-Galaxy-Tab-3-7-0-8-0-10-1-/121185356470?hash=item1c3735cab6:g:9oEAAMXQtRxSKfpY
p192
aVhttp://www.ebay.com/itm/Microfibre-Replacement-Tips-for-The-Maglus-Stylus-Applydea-/262138516703?epid=1540181113&hash=item3d08ac54df:g:7rQAAOxy7vJTeiMC
p193
aVhttp://www.ebay.com/itm/DAGi-P507-GY-Capacitive-Stylus-iPad-Galaxy-Kindle-Nexus-Iconia-Xperia-Slate-/121185979842?epid=10003083017&hash=item1c373f4dc2:g:j0YAAOSwymxVJW9~
p194
aVhttp://www.ebay.com/itm/DAGi-P701-R-Capacitive-Stylus-Styli-Pen-Stylet-iPad-HTC-Kindle-HDX-Galaxy-/121213737781?epid=652595978&hash=item1c38e6db35:g:NeAAAOxyTjNSgjV9
p195
aVhttp://www.ebay.com/itm/Yousave-For-Microsoft-Surface-Pro-2-10-6-Black-Capacitive-Touch-Stylus-Pen-UK-/390700419419?epid=1087443738&hash=item5af78f495b:m:m-UEc1vUxYDt_gE0P6eqrCw
p196
aVhttp://www.ebay.com/itm/Stylus-for-Vtech-InnoTab-Max-7-Kids-Tablet-2014-Release-/142296063097?hash=item2121819c79:g:FocAAOSwB-1YtT0Q
p197
aVhttp://www.ebay.com/itm/DAGi-P508-Capacitive-Stylus-Styli-Pen-Stylet-Griffel-Apple-New-iPad-iPad-2-/110918637304?hash=item19d34416f8:g:vxkAAOSwQItT13W4
p198
aVhttp://www.ebay.com/itm/DAGi-P702-Capacitive-Stylus-Styli-Pen-Stylet-Samsung-Galaxy-Tab-3-7-0-8-0-10-1-/121226340331?epid=500347317&hash=item1c39a727eb:g:25gAAOSwqu9VTw8H
p199
aVhttp://www.ebay.com/itm/DAGi-P602-Capacitive-Stylus-Styli-Pen-Stylet-Griffel-iPad-Eee-Pad-Galaxy-/120964885885?epid=27003080307&hash=item1c2a11ad7d:g:~FgAAOSwpDdVTvyc
p200
a.