(lp1
Vhttp://www.ebay.com/itm/3-Pcs-Set-2-x-Sinusoidal-Stakes-S-M-9-Nylon-Tips-Heads-Hammers-Jewelry-Tools-/252624100460?hash=item3ad191dc6c:g:PsAAAOSwA3dYH4Aq
p2
aVhttp://www.ebay.com/itm/Jewellery-Sinusoidal-Forming-Mandrel-Stake-Anticlastic-Multi-Curved-J1096-/292142967550?epid=1858665656&hash=item440513eafe:g:m-sAAOSwezVWxc1H
p3
aVhttp://www.ebay.com/itm/Linic-WHITE-Nylon-Wedge-Hammer-Curved-Sinusoidal-Forming-Stake-Set-J1422-/291852769315?epid=1881078427&hash=item43f3c7d823:g:JVUAAOSwU-pXusW8
p4
aVhttp://www.ebay.com/itm/Heavy-Duty-Highly-Polished-Small-Jewellery-Making-Forming-Sinusoidal-Stake-9-/252228138029?hash=item3ab9f7f42d:g:QfYAAOSwJcZWgD8l
p5
aVhttp://www.ebay.com/itm/6pc-Giro-sinusoidal-Danada-Tornillos-Tuercas-Extractor-se-afloja-/262537462649?hash=item3d2073c379:g:euoAAOSwe7BWwyWM
p6
aVhttp://www.ebay.com/itm/Polished-Sinusoidal-Stake-9-With-9-Tips-Nylon-Head-Face-Hammers-Jewelry-Making-/262707834055?hash=item3d2a9b6cc7:g:gxMAAOSwB09YH2v7
p7
aVhttp://www.ebay.com/itm/Set-of-2-Heavy-Duty-Highly-Polished-Jewelry-Sinusoidal-Stakes-2-Sizes-S-M-/262242705960?hash=item3d0ee22228:g:JIUAAOSw5dNWmWtn
p8
aVhttp://www.ebay.com/itm/Linic-BLACK-Nylon-Wedge-Hammer-Curved-Sinusoidal-Forming-Stake-Set-J1423-/291852773669?epid=1781202721&hash=item43f3c7e925:g:JYMAAOSwaB5Xusa8
p9
aVhttp://www.ebay.com/itm/Set-of-3-Heavy-Duty-Highly-Polished-Jewelry-Sinusoidal-Stakes-3-Sizes-S-M-L-/262211792705?hash=item3d0d0a6f41:g:OoMAAOSwk1JWgEl-
p10
aVhttp://www.ebay.com/itm/Linic-PINK-Nylon-Wedge-Hammer-Curved-Sinusoidal-Forming-Stake-Set-J1421-/112105058191?epid=1181113427&hash=item1a19fb6f8f:g:2jkAAOSwZVlXusET
p11
aVhttp://www.ebay.com/itm/Multi-Curved-Anticlastic-Sinusoidal-Forming-Stake-Repouse-Forming-Hammer-J1353-/112022202961?epid=1173134457&hash=item1a150b2a51:g:4QsAAOSwepJXaQfQ
p12
aVhttp://www.ebay.com/itm/Heavy-Duty-Highly-Polished-Medium-Jewelry-Making-Forming-Sinusoidal-Stake-11-5-/252228161451?hash=item3ab9f84fab:g:bTQAAOSwSdZWgEPP
p13
aVhttp://www.ebay.com/itm/Heavy-Duty-Highly-Polished-Large-Jewelry-Making-Forming-Sinusoidal-Stake-16-/252228168380?hash=item3ab9f86abc:g:ghMAAOSw~otWgEcg
p14
aVhttp://www.ebay.com/itm/4-Pcs-Set-2x-Sinusoidal-Steel-Stakes-Nylon-Flat-Chasing-Hammers-Jewelry-Tools-/262707976091?var=&hash=item3d2a9d979b:m:mvL-z49S5iWslsXANqeluIw
p15
aVhttp://www.ebay.com/itm/Polished-Sinusoidal-Poste-9-Con-9-Puntas-Nailon-Cabeza-Cara-Martillos-/262996461709?hash=item3d3bcf888d:g:gxMAAOSwB09YH2v7
p16
aVhttp://www.ebay.com/itm/Proops-Multi-Curved-Anticlastic-Sinusoidal-Forming-Stake-UK-Mde-Designed-J1096-/350818786815?epid=1858665656&hash=item51ae6dddff:g:LqkAAOSwQYZW1Fou
p17
a.