(lp1
Vhttp://www.ebay.com/itm/SOCIAL-DISTORTION-SKELLY-HALLOWEEN-OFFICIAL-MENS-T-SHIRT-/172241345729?var=&hash=item281a625cc1:m:miS3UOeYeQHWzfgtjQZrnyA
p2
aVhttp://www.ebay.com/itm/Official-Social-Distortion-Vintage-1979-Mens-T-Shirt-/172106333008?var=&epid=1358582121&hash=item2812563b50:m:meXoo4V4GGxDr5x7oqNPGdw
p3
aVhttp://www.ebay.com/itm/Social-Distortion-Skelly-Logo-T-Shirt-NEW-OFFICIAL-/112179171534?var=&hash=item1a1e6650ce:m:m1sRs4-gPfURyReGN56oQnw
p4
aVhttp://www.ebay.com/itm/ANTI-SOCIAL-SOCIAL-CLUB-t-shirt-black-super-rare-sold-out-everywhere-/322285883758?var=&hash=item4b09bc516e:m:mquL_fsf683juWlprLK0g1w
p5
aVhttp://www.ebay.com/itm/Social-Distortion-Splatter-red-t-shirt-size-XXL-/321809183230?var=&hash=item4aed5271fe:m:mPogt3t76MmPN7x7g6EN17Q
p6
aVhttp://www.ebay.com/itm/SOCIAL-DISTORTION-HOLIDAY-PIN-UP-OFFICIAL-MENS-T-SHIRT-/171357555885?var=&hash=item27e5b4ccad:m:mdrsYgKMlzFgvXbvEvkplXg
p7
aVhttp://www.ebay.com/itm/ANTI-SOCIAL-SOCIAL-CLUB-Mens-T-Shirt-Super-Rare-Sold-Out-Everywhere-Top-T-Shirt-/272536508691?var=&hash=item3f74711913:m:mM4SZznMxWlaFHJHt7njVzg
p8
aVhttp://www.ebay.com/itm/Social-Distortion-Skelly-Logo-NEW-MENS-T-SHIRT-/351897002539?var=&hash=item51eeb2222b:m:mutstwi9xtz-8aD_bCzbpMA
p9
aVhttp://www.ebay.com/itm/EW-PEOPLE-T-SHIRT-FASHION-TUMBLR-ANTI-SOCIAL-FUNNY-JOKE-PRESENT-SWAG-DOPE-UNISEX-/112191816105?var=&hash=item1a1f2741a9:m:mS-FWR6GVE3MQYVIJWg5B7Q
p10
aVhttp://www.ebay.com/itm/Free-Hugs-T-Shirt-Funny-Social-Freindly-Open-Person-Love-Party-Homies-Zoella-/121799302564?var=&hash=item1c5bcddda4:m:mcXyZf5Lur4HSwP9xEu8pZQ
p11
aVhttp://www.ebay.com/itm/Social-Distortion-Winged-Wheel-T-Shirt-NEW-OFFICIAL-/131947318161?var=&hash=item1eb8ac4b91:m:m6yAoHbGWosaszdOrHQy5eg
p12
aVhttp://www.ebay.com/itm/You-Read-My-T-Shirt-Thats-Enough-Social-Interaction-For-One-Day-Mens-Ladies-U-/371478624181?var=&hash=item567dd9f7b5:m:mqEGc9CLWf9PNuh_XNXbaAw
p13
aVhttp://www.ebay.com/itm/Selective-Social-Funny-Sarcastic-Mens-T-shirt-Tee-Top-T-shirt-/391753924820?var=&hash=item5b365a80d4:m:m9t6CC82Lj8k2jJIP-mwbaw
p14
aVhttp://www.ebay.com/itm/Official-Social-Distortion-Vintage-1979-T-Shirt-Party-Skeleton-Mike-Ness-Machine-/121754686926?var=&hash=item1c592515ce:m:mE1FjPbghowDv5mYzR1nvuw
p15
aVhttp://www.ebay.com/itm/SOCIAL-DISTORTION-LETTERMAN-LETTER-SKELLIE-OFFICIAL-MENS-T-SHIRT-/181785020348?var=&hash=item2a533b47bc:m:mSQt4cEzwt7Dch7HCFlA6cQ
p16
aVhttp://www.ebay.com/itm/You-Read-My-T-Shirt-Anti-Social-New-Mens-Cotton-Funny-Tee-Shirt-/191718002873?var=&hash=item2ca34890b9:m:mz6Lklpqkd06lWFLnV7wYww
p17
aVhttp://www.ebay.com/itm/Wheeltappers-Shunters-Social-Club-T-Shirt-Bernard-Manning-Colin-Crompton-/111655804214?var=&hash=item19ff345d36:m:mJPvS0lGSZHl5KQqb5cVwFg
p18
aVhttp://www.ebay.com/itm/Social-Distortion-Skelly-Logo-T-Shirt-NEU-UND-OFFIZIELL-/112420338062?var=&hash=item1a2cc6398e:m:m1sRs4-gPfURyReGN56oQnw
p19
aVhttp://www.ebay.com/itm/FUNNY-PEOPLE-PERSON-SLOGAN-PRINTED-MENS-TSHIRT-NOVELTY-JOKE-GIFT-ANTI-SOCIAL-TEE-/121781283212?var=&hash=item1c5abae98c:m:mp4WmoFJYXD0w8A1CoMS9MQ
p20
aVhttp://www.ebay.com/itm/You-Read-My-T-Shirt-Thats-Enought-Social-Interaction-Big-Bang-Mens-T-Shirt-/181786080409?var=&hash=item2a534b7499:m:mHmvIK65M_tiMYvqCNNtcSg
p21
aVhttp://www.ebay.com/itm/T080-ANTI-SOCIAL-FUNNY-PRINTED-MENS-SLOGAN-TSHIRT-NOVELTY-GIFT-IDEA-TEE-/291797608080?var=&hash=item43f07e2690:m:mODNUzp8_J7ldxIROPVsq2w
p22
aVhttp://www.ebay.com/itm/Im-Not-Anti-Social-T-Shirt-Mens-Funny-S-5XL-AS2-/252566746885?var=&hash=item3ace26b705:m:m5bJIYz1J_j34ozU1VamWNw
p23
aVhttp://www.ebay.com/itm/ABRACADABRA-NOPE-STILL-BITCH-T-SHIRT-VOGUE-SWAG-SOCIAL-CELINE-MEOW-TUMBLR-NEW-/152105371627?var=&hash=item236a2fc7eb:m:mM3zF91eV6vXF0_6HxlxRfg
p24
aVhttp://www.ebay.com/itm/Non-Drole-Anti-Social-Geek-Nerd-Slogan-Humoristique-T-Shirt-hommes-coton-ample-/311746647570?var=&hash=item48958c5612:m:m-IaB4F5nc3PJE9YA-5PObw
p25
aVhttp://www.ebay.com/itm/SOCIAL-DISTORTION-LONG-SLEEVED-SHIRT-nofx-punk-rancid-vinyl-cd-poster-/192028476278?var=&hash=item2cb5ca0376:m:m8fUEcBF9MGjIAicm3xJe3A
p26
aVhttp://www.ebay.com/itm/You-Wont-Find-Me-On-Facebook-Geeky-T-Shirt-Anti-Social-Networking-/150690214477?var=&hash=item2315d6324d:m:mXImMY5HuztPWBwdLCP9IWg
p27
aVhttp://www.ebay.com/itm/SOCIAL-DISTORTION-LETTERMAN-LETTER-SKELLIE-OFFICIAL-MENS-T-SHIRT-/172228311306?var=&hash=item28199b790a:m:mSQt4cEzwt7Dch7HCFlA6cQ
p28
aVhttp://www.ebay.com/itm/Walk-Up-to-the-Club-T-Shirt-Funny-t-shirt-anxiety-joke-social-fashion-clubbing-/391038991972?var=&hash=item5b0bbd7e64:m:maMMH0vlphxxqoFkHIhLuMg
p29
aVhttp://www.ebay.com/itm/No-Social-Media-Funny-Humour-Graphic-T-Shirt-Great-Gift-Idea-Tumblr-Insta-/141789801091?var=&hash=item210354aa83:m:mVPrF4OwYobHS7PNgvq-ynw
p30
aVhttp://www.ebay.com/itm/Chance-the-Rapper-t-shirt-The-Social-Experiment-/231346309735?var=&hash=item35dd508a67:m:mKbYgvWMeyLeBwMFSrxZ3FA
p31
aVhttp://www.ebay.com/itm/No-Funny-New-Anti-Social-Nerd-Geek-Slogan-Funny-Mens-Loose-Fit-Cotton-T-Shirt-/310346770515?var=&hash=item48421be853:m:m-IaB4F5nc3PJE9YA-5PObw
p32
aVhttp://www.ebay.com/itm/Karl-Marx-Without-a-Beard-Youre-Nothing-T-shirt-Philosopher-Social-Scientist-/150698921776?var=&hash=item23165b0f30:m:mJiA39D5BcCfvTrDfUn1sAQ
p33
aVhttp://www.ebay.com/itm/IN-MEMORY-OF-MY-SOCIAL-LIFE-JUMPER-FUNNY-SLOGAN-SWEATER-COLLEGE-UNIVERSTIY-/262040009879?var=&hash=item3d02cd3c97:m:mvlJcSzxLVAOO-US27XrqEA
p34
aVhttp://www.ebay.com/itm/FUNNY-PEOPLE-PERSON-PRINTED-SLOGAN-MENS-TSHIRT-NOVELTY-JOKE-GIFT-ANTI-SOCIAL-TEE-/282333670579?var=&hash=item41bc65ecb3:m:m3xnyGvsrpPIwSBEg3TNZcQ
p35
aVhttp://www.ebay.com/itm/Official-TNA-Impact-Wrestling-Social-Media-T-Shirt-Large-wwe-wwf-wcw-ecw-/261756967244?hash=item3cf1ee594c:g:mwkAAOSwNSxUz8Yx
p36
aVhttp://www.ebay.com/itm/You-Read-My-T-Shirt-Thats-Enough-Social-Interaction-For-One-Day-Mens-Ladies-U-/391311757429?var=&hash=item5b1bff9075:m:mqEGc9CLWf9PNuh_XNXbaAw
p37
aVhttp://www.ebay.com/itm/IN-MEMORY-OF-MY-SOCIAL-LIFE-T-SHIRT-FUNNY-SLOGAN-T-SHIRT-COLLEGE-UNIVERSITY-/262040005666?var=&hash=item3d02cd2c22:m:m33xFvHH8C1Po381tf9tROA
p38
aVhttp://www.ebay.com/itm/UNFOLLOW-Funny-Slogan-Tshirt-Facebook-Social-Media-Slang-Statement-Clothing-/282108307520?var=&hash=item41aef72840:m:mvQJy6anx2zeI4hT3FjToNw
p39
aVhttp://www.ebay.com/itm/YOU-READ-MY-T-SHIRT-THATS-ENOUGH-SOCIAL-INTERACTION-FOR-ONE-DAY-Men-T-Shirts-UK-/121787926885?var=&hash=item1c5b204965:m:mimINsL93N8By1P98AbqnqQ
p40
aVhttp://www.ebay.com/itm/Turn-On-Tune-In-Log-Out-T-Shirt-Play-on-1960s-Phrase-Social-Media-Protest-/261466638053?var=&hash=item3ce0a046e5:m:mAcwcuN5ym2nfdGEOCcNUgw
p41
aVhttp://www.ebay.com/itm/SORRY-IM-LATE-QUALITY-FUNNY-TSHIRT-MENS-T-SHIRT-GIFT-T-SHIRT-SOCIAL-PRESENT-/231348434915?var=&hash=item35dd70f7e3:m:ml1jCao2s_YAd_63bYdYo7w
p42
aVhttp://www.ebay.com/itm/Hi-Im-Awkward-T-Shirt-Anti-Social-Funny-Tumblr-Dope-Swag-Urban-Fashion-/322342841994?var=&hash=item4b0d216e8a:m:mTgzmbHdpo9uIj99ECWKW4g
p43
aVhttp://www.ebay.com/itm/YOU-READ-MY-T-SHIRT-THATS-ENOUGH-SOCIAL-INTERACTION-FOR-ONE-DAY-Mens-T-Shirts-/121787924384?var=&hash=item1c5b203fa0:m:mfjJdk16PzUP4W628NoG_Pw
p44
aVhttp://www.ebay.com/itm/Mens-Novelty-T-Shirt-Im-not-Anti-Social-Im-just-not-user-friendly-/271581133678?var=&hash=item3f3b7f3b6e:m:mo7u4jGTfxZ9pRoPuvX9yJw
p45
aVhttp://www.ebay.com/itm/ANTI-SOCIAL-MENS-T-SHIRT-S-XXL-FUNNY-SLOGAN-TUMBLR-GEEK-NERD-TOP-BIG-BANG-THEORY-/272170337267?var=&hash=item3f5e9dc3f3:m:m7amd-7W-JMmEMDL8YTv37w
p46
a.