(lp1
Vhttp://www.ebay.com/itm/Warlords-Of-Atlantis-1978-DVD-Movie-Sci-Fi-Fantasy-Doug-McClure-Brand-New-/371863665931?epid=114474751&hash=item5694cd3d0b:g:UkYAAOSwBLlU~ALN
p2
aVhttp://www.ebay.com/itm/Spectreman-1971-Japanese-Action-Sci-Fi-TV-Series-10-x-DVD-Collection-/182384339136?hash=item2a76f428c0:g:sZoAAOSwnHZYTAmz
p3
aVhttp://www.ebay.com/itm/Gorath-1962-Japanese-Action-Sci-Fi-Thriller-Movie-on-DVD-/182436672672?hash=item2a7a12b4a0:g:7dQAAOSw4shX4gJk
p4
aVhttp://www.ebay.com/itm/Battle-of-the-Worlds-1961-Sci-Fi-Movie-Film-on-DVD-/172707001530?hash=item283623b4ba:g:kTgAAOSwlY1ZL3jk
p5
aVhttp://www.ebay.com/itm/Spectreman-1971-Japanese-Action-Sci-Fi-TV-Series-10-x-DVD-Collection-/172414987924?hash=item2824bbee94:g:ATAAAOSw5cNYMXil
p6
aVhttp://www.ebay.com/itm/Forbidden-Planet-1956-Action-Adventure-Sci-Fi-Movie-Film-on-DVD-/182610094632?hash=item2a8468ea28:g:0m8AAOSwax5Yq6JB
p7
aVhttp://www.ebay.com/itm/Sci-Fi-Classics-50-Science-Fiction-Movies-DVD-Box-Set-Hercules-Kong-Blood-Tide-/201850664996?hash=item2eff3cb824:g:nIQAAOSwg3FUoBJP
p8
aVhttp://www.ebay.com/itm/Logans-Run-1976-Action-Sci-Fi-Film-Movie-on-DVD-/172514348373?hash=item282aa80d55:g:A7MAAOSwo4pYlSaP
p9
aVhttp://www.ebay.com/itm/Spectreman-1971-Japanese-Action-Sci-Fi-TV-Series-10-x-DVD-Collection-/182336110254?hash=item2a74143eae:g:tFYAAOSwcUBYFacz
p10
aVhttp://www.ebay.com/itm/Nineteen-Eighty-Four-1984-George-Orwell-Drama-Sci-Fi-Movie-Film-on-DVD-/182585278827?hash=item2a82ee416b:g:LLsAAOSww5hZITeG
p11
aVhttp://www.ebay.com/itm/Sci-Fi-Film-Movie-Collection-Plan-9-from-Outer-Space-Zontar-Cosmos-Killers-/172424089309?hash=item282546cedd:g:5O4AAOSwcUBYO2pz
p12
aVhttp://www.ebay.com/itm/Things-to-Come-1936-H-G-Wells-Drama-Sci-Fi-Movie-on-DVD-/172202164241?hash=item28180c8011:g:1~cAAOSwInxXMrzU
p13
aVhttp://www.ebay.com/itm/Graham-Skipper-ALMOST-HUMAN-2013-Gory-Sci-Fi-Horror-UK-DVD-/222551567648?hash=item33d11b6d20:g:GjwAAOSw-89ZSB~c
p14
aVhttp://www.ebay.com/itm/Doctor-Who-The-New-Series-Complete-Season-5-Blu-Ray-Sci-Fi-TV-Series-Region-B-/371866710939?epid=102230410&hash=item5694fbb39b:g:R2oAAOSwstxU-smM
p15
aVhttp://www.ebay.com/itm/Transatlantic-Tunnel-1935-Drama-Sci-Fi-Movie-on-DVD-/182336204223?hash=item2a7415adbf:g:bxEAAOSwXeJYFbsh
p16
aVhttp://www.ebay.com/itm/Sci-FI-Invasion-50-Science-Fiction-Movies-DVD-Box-Set-NEW-SEALED-/201559689907?epid=1305747368&hash=item2eede4cab3:g:jb8AAOSwrklVIUco
p17
aVhttp://www.ebay.com/itm/20000-Leagues-Under-the-Sea-1954-Sci-Fi-Adventure-DVD-Twenty-Thousand-20000-/172330499275?hash=item281fb2bccb:g:jNIAAOSw9IpXzM7p
p18
aVhttp://www.ebay.com/itm/Invaders-from-Mars-1953-Horror-Sci-Fi-Movie-Film-on-DVD-/172521215125?hash=item282b10d495:g:DuoAAOSwnHZYmvpn
p19
aVhttp://www.ebay.com/itm/Nemesis-Now-Terminator-2-Head-Goblet-19cm-Drinks-Cup-Challice-Sci-Fi-/301862363319?epid=1042160640&hash=item46486620b7:g:od8AAOSwoydWry3J
p20
aVhttp://www.ebay.com/itm/Specter-NEW-DVD-HFR0360-new-sealed-sci-fi-2015-/152468633557?epid=1740434802&hash=item237fd6b7d5:g:YT4AAOSwWxNYxDqC
p21
aVhttp://www.ebay.com/itm/TTCombat-Sci-Fi-Scenics-Gothic-Ruin-Sector-Great-for-40k-/351528341302?hash=item51d8b8cf36:g:Q28AAOSw0HVWBUio
p22
aVhttp://www.ebay.com/itm/20000-Leagues-Under-the-Sea-1954-Sci-Fi-Adventure-DVD-Twenty-Thousand-20000-/172330499275?hash=item281fb2bccb:g:jNIAAOSw9IpXzM7p
p23
aVhttp://www.ebay.com/itm/Fiend-Without-a-Face-1958-Horror-Sci-Fi-Movie-Film-on-DVD-/182600987733?hash=item2a83ddf455:g:w~cAAOSwaeRZL3q4
p24
aVhttp://www.ebay.com/itm/Robert-Englund-Marc-Singer-V-THE-FINAL-BATTLE-1984-Sci-Fi-Mini-Series-UK-DVD-/221994069773?epid=883651998&hash=item33afe0af0d:g:ApEAAOSw5cNYSWLw
p25
aVhttp://www.ebay.com/itm/Black-Oxen-1923-Drama-Romance-Sci-Fi-Movie-Film-on-DVD-/172553638585?hash=item282cff92b9:g:~sYAAOSwWxNYtQeJ
p26
aVhttp://www.ebay.com/itm/THE-LAST-STARFIGHTER-Nick-Castle-Robert-Preston-1980s-Teen-Sci-Fi-Blu-Ray-NEW-/271857554018?hash=item3f4bf91262:g:yDQAAOSwymxVRMYD
p27
aVhttp://www.ebay.com/itm/Revenge-of-the-Creature-1955-Sci-Fi-Horror-Movie-on-DVD-/172707177061?hash=item2836266265:g:TnYAAOSwZKBZL57p
p28
aVhttp://www.ebay.com/itm/Robert-Englund-Marc-Singer-V-THE-COMPLETE-SERIES-1984-Sci-Fi-Classic-UK-DVD-/231896771433?epid=3950693&hash=item35fe1feb69:g:YiwAAOSw44BYi1Ss
p29
aVhttp://www.ebay.com/itm/Sci-Fi-Now-Magazine-134-Valerian-Cara-Delevingne-Dane-DeHaan-Spider-Man-/222532547495?hash=item33cff933a7:g:OXkAAOSw8GtZVkF8
p30
aVhttp://www.ebay.com/itm/The-Astro-Zombies-1968-Sci-Fi-Horror-Movie-on-DVD-/182601119541?hash=item2a83dff735:g:rREAAOSwfRdZL5~k
p31
aVhttp://www.ebay.com/itm/Metropolis-1927-Sci-Fi-Movie-Film-on-DVD-Fritz-Lang-With-English-Subtitles-/182132405269?hash=item2a67eff415:g:xckAAOSweW5VKy8j
p32
aVhttp://www.ebay.com/itm/Evil-Brain-from-Outer-Space-1965-Action-Sci-Fi-TV-Movie-on-DVD-/182428843631?hash=item2a799b3e6f:g:C9EAAOSw2xRYgpwb
p33
aVhttp://www.ebay.com/itm/THE-OUTER-LIMITS-ALIENS-AMONG-US-COLLECTION-2-DVD-SCI-FI-EPISODES-FROM-SERIES-/272570561392?epid=44612420&hash=item3f7678b370:m:mcgCg_4X0jcktPT0pU-3ezw
p34
aVhttp://www.ebay.com/itm/Space-Amoeba-1970-Sci-Fi-Adventure-Movie-on-DVD-English-Dubbed-/172566557936?hash=item282dc4b4f0:g:vnUAAOSwmfhX6Le0
p35
aVhttp://www.ebay.com/itm/Doctor-Who-Tardis-Dr-Who-TV-Sci-Fi-Door-Poster-Print-53x158cm-21x36-inches-/152618560394?hash=item2388c66b8a:g:VFAAAOSw4UtWTJp4
p36
aVhttp://www.ebay.com/itm/Island-of-Lost-Souls-1932-Horror-Sci-Fi-Movie-Film-on-DVD-/182298401069?hash=item2a71d4d92d:g:HVsAAOSw4shX7rUb
p37
aVhttp://www.ebay.com/itm/Revenge-of-the-Creature-1955-Sci-Fi-Horror-Movie-on-DVD-/182601114991?hash=item2a83dfe56f:g:HscAAOSwJH1ZL552
p38
aVhttp://www.ebay.com/itm/Bruce-Dern-SILENT-RUNNING-1972-Cult-Space-Travel-Sci-Fi-Classic-UK-DVD-/361573063691?epid=3948297&hash=item542f6f1c0b:g:qDkAAOSwsW9Yyp7h
p39
aVhttp://www.ebay.com/itm/TTCombat-Sci-Fi-Scenics-Gothic-Corner-Ruins-B-Great-for-40k-/311882415863?hash=item489da3fef7:g:pJoAAOSwfpVZKUsE
p40
aVhttp://www.ebay.com/itm/Space-Amoeba-1970-Sci-Fi-Adventure-Movie-on-DVD-/172566556123?hash=item282dc4addb:g:wwgAAOSwTA9X6LkY
p41
aVhttp://www.ebay.com/itm/Latitude-Zero-1969-Ido-zero-daisakusen-Action-Adventure-Sci-Fi-Movie-DVD-/172328491171?hash=item281f9418a3:g:IPEAAOSwgmJXylYV
p42
aVhttp://www.ebay.com/itm/The-Ghost-of-Frankenstein-1942-Sci-Fi-Horror-Drama-Movie-Film-on-DVD-/172717423968?hash=item2836c2bd60:g:yAAAAOSwY3BZNymt
p43
aVhttp://www.ebay.com/itm/Forbidden-Planet-1956-Action-Adventure-Sci-Fi-Movie-on-DVD-/182462202777?hash=item2a7b984399:g:P-sAAOSwr~lYq6Vu
p44
aVhttp://www.ebay.com/itm/Dr-Jekyll-and-Mr-Hyde-1931-Horror-Sci-Fi-Film-Movie-on-DVD-/182475610208?hash=item2a7c64d860:g:jQgAAOSwdGFYubx0
p45
aVhttp://www.ebay.com/itm/TTCombat-Sci-Fi-Scenics-Gothic-Corner-Ruins-B-Great-for-40k-/311882415863?hash=item489da3fef7:g:pJoAAOSwfpVZKUsE
p46
aVhttp://www.ebay.com/itm/Latitude-Zero-1969-Ido-zero-daisakusen-Action-Adventure-Sci-Fi-Movie-DVD-/172328491171?hash=item281f9418a3:g:IPEAAOSwgmJXylYV
p47
aVhttp://www.ebay.com/itm/House-of-Frankenstein-1944-Boris-Karloff-Fantasy-Horror-Sci-Fi-Movie-on-DVD-/172686736182?hash=item2834ee7b36:g:VGoAAOSw5cRZIThe
p48
aVhttp://www.ebay.com/itm/THE-OUTER-LIMITS-ALIENS-AMONG-US-COLLECTION-2-DVD-SCI-FI-EPISODES-FROM-SERIES-/272570561392?epid=44612420&hash=item3f7678b370:m:mcgCg_4X0jcktPT0pU-3ezw
p49
aVhttp://www.ebay.com/itm/Son-of-Frankenstein-1939-Sci-Fi-Horror-Drama-Movie-Film-on-DVD-/172717223059?hash=item2836bfac93:g:h0oAAOSwi7RZNw2H
p50
aVhttp://www.ebay.com/itm/Evil-Brain-from-Outer-Space-1965-Action-Sci-Fi-TV-Movie-on-DVD-/182428843631?hash=item2a799b3e6f:g:C9EAAOSw2xRYgpwb
p51
aVhttp://www.ebay.com/itm/Night-of-the-Blood-Beast-1958-Sci-Fi-Horror-Movie-on-DVD-/182601110984?hash=item2a83dfd5c8:g:QyIAAOSwn-tZL52m
p52
aVhttp://www.ebay.com/itm/Island-of-Lost-Souls-1932-Horror-Sci-Fi-Movie-Film-on-DVD-/172541505706?hash=item282c4670aa:g:PncAAOSwr~lYq2Ki
p53
aVhttp://www.ebay.com/itm/Fritz-Langs-Metropolis-1927-Sci-Fi-Movie-Film-on-DVD-/182060247962?hash=item2a63a2eb9a:g:-j8AAOSwEeFVKzPQ
p54
aVhttp://www.ebay.com/itm/Space-Master-X-7-1958-Horror-Sci-Fi-Thriller-Movie-Film-on-DVD-/182600948879?hash=item2a83dd5c8f:g:QmUAAOSwDiBZL3b7
p55
aVhttp://www.ebay.com/itm/TTCombat-Sci-Fi-Scenics-Gothic-Corner-Ruins-A-Great-for-40k-/352070482012?hash=item51f909385c:g:Y64AAOSwrhBZKUlX
p56
aVhttp://www.ebay.com/itm/Plan-9-From-Outer-Space-DVD-1959-Horror-Sci-Fi-Movie-Film-Excellent-Quality-/172471511871?hash=item28281a6b3f:g:kIEAAOSwv0tVPFvF
p57
aVhttp://www.ebay.com/itm/Son-of-Frankenstein-1939-Sci-Fi-Horror-Drama-Movie-Film-on-DVD-/172717239404?hash=item2836bfec6c:g:AQ4AAOSw9OFZNxBN
p58
aVhttp://www.ebay.com/itm/Evolution-of-Alien-Funny-Mens-Sci-Fi-T-Shirt-/181161867483?var=&hash=item2a2e16b8db:m:mvbCqIvtfMkZx2XKfh2P8xw
p59
aVhttp://www.ebay.com/itm/Teenagers-from-Outer-Space-1959-Horror-Sci-Fi-Movie-on-DVD-/182434386212?hash=item2a79efd124:g:GfkAAOSw44BYiZf2
p60
aVhttp://www.ebay.com/itm/Scarlett-Johansson-UNDER-THE-SKIN-2013-Jonathan-Glazer-Sci-Fi-Horror-UK-DVD-/361877196084?hash=item54418fcd34:g:OgMAAOSwgv5ZW4bX
p61
aVhttp://www.ebay.com/itm/Sex-Maniac-1934-Horror-Sci-Fi-Movie-Film-on-DVD-/172521239541?hash=item282b1133f5:g:YTsAAOSwLEtYmvvg
p62
aVhttp://www.ebay.com/itm/Metamorphosis-Alpha-Collectors-Edition-Sci-Fi-RPG-9780997259001-/252780116975?epid=233244955&hash=item3adade7bef:g:~jAAAOSwWxNYq2xa
p63
aVhttp://www.ebay.com/itm/The-Quiet-Earth-DVD-Cult-Sci-Fi-Film-OOP-RARE-UK-RELEASE-FREE-1ST-CLASS-/282145197837?epid=3965888&hash=item41b12a0f0d:g:TnAAAOSwHoFXulOR
p64
aVhttp://www.ebay.com/itm/TTCombat-Sci-Fi-Scenics-Gothic-Bunker-Great-for-40k-/311454354565?hash=item4884204c85:g:3A0AAOSw4HVWCSLd
p65
aVhttp://www.ebay.com/itm/Industry-of-War-Defensive-Cover-Kit-by-WWS-28mm-Sci-Fi-Wargaming-Tabletop-/172716499702?hash=item2836b4a2f6:g:OBYAAOSwBt5ZNqMQ
p66
aVhttp://www.ebay.com/itm/Sci-Fi-Film-Movie-Collection-Plan-9-from-Outer-Space-Zontar-Cosmos-Killers-/172424089309?hash=item282546cedd:g:5O4AAOSwcUBYO2pz
p67
aVhttp://www.ebay.com/itm/TTCombat-Sci-Fi-Scenics-Gothic-Ruined-Officium-Great-for-40k-/391796575424?hash=item5b38e54cc0:g:DecAAOSwBt5ZKUi6
p68
aVhttp://www.ebay.com/itm/Invaders-from-Mars-1953-Horror-Sci-Fi-Movie-Film-on-DVD-/172740910298?hash=item2838291cda:g:QmUAAOSw8GtZSYHF
p69
aVhttp://www.ebay.com/itm/James-Franco-RISE-OF-THE-PLANET-OF-THE-APES-2011-Sci-Fi-UK-Blu-ray-/361638033519?epid=111119272&hash=item54334e786f:g:skEAAOSwbopZXjdL
p70
aVhttp://www.ebay.com/itm/Afrofuturism-The-World-of-Black-Sci-Fi-and-Fantasy-Culture-9781613747964-/252757563168?epid=176751987&hash=item3ad9865720:g:sc4AAOSw5cNYmC2L
p71
aVhttp://www.ebay.com/itm/Unknown-World-1951-Bruce-Kellogg-Adventure-Sci-Fi-Film-Movie-on-DVD-/172519272836?hash=item282af33184:g:nJgAAOSwUKxYmW9G
p72
aVhttp://www.ebay.com/itm/The-Invisible-Ray-1936-Horror-Sci-Fi-Thriller-Movie-Film-on-DVD-/172396384252?hash=item2823a00ffc:g:dAMAAOSwKOJYGl--
p73
aVhttp://www.ebay.com/itm/Mens-Answer-is-42-T-Shirt-Inspired-by-Hitchhikers-Guide-to-the-Galaxy-Sci-Fi-/252308878811?var=&epid=1064556224&hash=item3abec7f5db:m:mh4xgbl8ZXovppEIGDKLepw
p74
aVhttp://www.ebay.com/itm/Invasion-USA-1952-Sci-Fi-Movie-on-DVD-/172139853011?hash=item281455b4d3:g:AZ4AAOSwbdpWYdys
p75
aVhttp://www.ebay.com/itm/Invasion-of-the-Bee-Girls-1973-Horror-Sci-Fi-Movie-on-DVD-/182059350178?hash=item2a639538a2:g:nuYAAOSwHxVW7NPW
p76
aVhttp://www.ebay.com/itm/The-Sci-Fi-Movie-Guide-The-Universe-of-Film-from-Alien-to-Zardoz-9781578595037-/253016653553?epid=209588803&hash=item3ae8f7bef1:g:tBgAAOSwwvZZU9tg
p77
aVhttp://www.ebay.com/itm/Undersea-Kingdom-1936-Complete-12-Chapter-Sci-Fi-TV-Movie-Serial-on-DVD-/172421933642?hash=item282525ea4a:g:QTgAAOSw-0xYOPsw
p78
aVhttp://www.ebay.com/itm/Battle-of-the-Worlds-1961-Sci-Fi-Movie-Film-on-DVD-/172707000849?hash=item283623b211:g:tqAAAOSwcgNZL3h4
p79
aVhttp://www.ebay.com/itm/80S-SCI-FI-DOUBLE-FEATURE-KRULL-SPACEHUNTER-DVD-Sealed-Region-1-/162067455123?hash=item25bbf91c93:g:IT4AAOSwmtJXUTfV
p80
aVhttp://www.ebay.com/itm/Alien-Sci-Fi-Iron-Sew-On-Patch-Applique-Badge-Motif-Science-Fiction-UFO-Space-/252987377480?epid=10003319554&hash=item3ae7390748:g:CAkAAOSwlMFZFvUy
p81
aVhttp://www.ebay.com/itm/Killers-from-Space-1954-Sci-Fi-Movie-Science-Fiction-Film-on-DVD-/172138833172?hash=item2814462514:g:3qcAAOSwAuNW7Kpt
p82
aVhttp://www.ebay.com/itm/Resident-Evil-2002-Sci-Fi-Action-Horror-Film-Blu-ray-Brand-New-/371881138885?epid=70314497&hash=item5695d7dac5:g:iPIAAOSwqu9U-~1Q
p83
aVhttp://www.ebay.com/itm/THE-WAR-OF-THE-WORLDS-Original-1953-HG-Wells-Alien-Invasion-Sci-Fi-UK-DVD-/232304964090?epid=47627280&hash=item36167471fa:g:RZwAAOSwHHFY9O5z
p84
aVhttp://www.ebay.com/itm/Sputnik-T-Shirt-Satellite-Japanese-Soviet-Japan-Kawaii-Sci-Fi-Space-Science-Geek-/152235472322?var=&hash=item2371f0f5c2:m:mnexqC5Gt-UdFuNJ1cBRN2Q
p85
aVhttp://www.ebay.com/itm/Dogora-1964-Classic-Japanese-Crime-Sci-Fi-Movie-on-DVD-English-Dubbed-/182238822493?hash=item2a6e47c05d:g:JNwAAOSwaB5Xq9qo
p86
aVhttp://www.ebay.com/itm/Invasion-USA-1952-Drama-Sci-Fi-Movie-on-DVD-/182054879935?hash=item2a635102bf:g:qBgAAOSw~OVWtreY
p87
aVhttp://www.ebay.com/itm/ALIEN-1-1979-MOVIE-POSTER-A3-A4-Classic-Cult-Sci-Fi-Horror-Movie-Film-Poster-/111712668337?var=&hash=item1a02980ab1:m:mKzrMwQhYArafknb5ZXLAOQ
p88
aVhttp://www.ebay.com/itm/Alien-Sci-Fi-Iron-Sew-On-Patch-Applique-Badge-Motif-Science-Fiction-UFO-Space-/252987377480?epid=10003319554&hash=item3ae7390748:g:CAkAAOSwlMFZFvUy
p89
aVhttp://www.ebay.com/itm/MEN-IN-BLACK-1-2-One-Two-Will-Smith-Sci-Fi-Action-Comedy-3-Discs-DVD-EXC-/281680101128?hash=item4195713f08:g:APcAAOSw9N1V2nZK
p90
aVhttp://www.ebay.com/itm/The-Transatlantic-Tunnel-Film-DVD-Richard-Dix-Leslie-Banks-Sci-Fi-Drama-1935-/232275982215?hash=item3614ba3787:g:6BgAAOSwXYtYzkuM
p91
aVhttp://www.ebay.com/itm/TTCombat-Sci-Fi-Scenics-SFU036-Objective-Room-Great-for-Infinity-40K-/311174038221?hash=item48736b02cd:g:d-sAAOSwR5dXSDyP
p92
aVhttp://www.ebay.com/itm/AMAZING-TRANSPARENT-MAN-REPTILICUS-NEANDERTHAL-MAN-Cult-Sci-Fi-R1-DVD-NEW-/281680104569?hash=item4195714c79:g:k9QAAOSwPhdVRMVE
p93
aVhttp://www.ebay.com/itm/First-Spaceship-on-Venus-1960-Der-schweigende-Stern-Sci-Fi-Movie-on-DVD-/182288262013?hash=item2a713a237d:g:fF4AAOSwmLlX4gDV
p94
aVhttp://www.ebay.com/itm/SURVIVORS-2008-SEASON-1-COMPLETE-DVD-SCI-FI-BBC-TV-SERIES-REGION-2-NEW-/371748098492?epid=72544496&hash=item568de9d1bc:g:iqMAAOSwPYZU2e-8
p95
aVhttp://www.ebay.com/itm/Voyage-to-the-Planet-of-Prehistoric-Women-Classic-Sci-Fi-Fantasy-Movie-DVD-/172125939924?hash=item28138168d4:g:40EAAOSwwbdWHVD3
p96
aVhttp://www.ebay.com/itm/HUMANS-2-0-DVD-NEW-Region-2-Season-2-TV-Sci-Fi-Drama-/382031846504?epid=1488072469&hash=item58f2df5c68:g:9O8AAOSwax5YvW~f
p97
aVhttp://www.ebay.com/itm/TTCombat-Sci-Fi-Scenics-Cyber-Defence-Platform-Great-for-40k-/351518628193?hash=item51d8249961:g:4ngAAOSwuTxV-pVL
p98
aVhttp://www.ebay.com/itm/Resident-Evil-2002-Sci-Fi-Action-Horror-Film-Blu-ray-Brand-New-/371881138885?epid=70314497&hash=item5695d7dac5:g:iPIAAOSwqu9U-~1Q
p99
aVhttp://www.ebay.com/itm/The-Invisible-Ray-1936-Horror-Sci-Fi-Thriller-Movie-Film-on-DVD-/182340845739?hash=item2a745c80ab:g:iXkAAOSw4GVYGmD3
p100
aVhttp://www.ebay.com/itm/The-Lost-City-1935-Complete-12-Chapter-Sci-Fi-Serial-on-DVD-/182298521266?hash=item2a71d6aeb2:g:SHwAAOSwmfhX7tEE
p101
aVhttp://www.ebay.com/itm/Micro-Art-Studio-BNIB-Sci-Fi-Diorama-1-1-/390955991255?hash=item5b06cb00d7:g:2DIAAOSwF1dUSOlD
p102
aVhttp://www.ebay.com/itm/Atom-Age-Vampire-1960-Horror-Sci-Fi-Movie-on-DVD-/172202135744?hash=item28180c10c0:g:ggEAAOSwWntXMrAx
p103
aVhttp://www.ebay.com/itm/JUST-IMAGINE-1930-DVD-RARE-MUSICAL-SCI-FI-FILM-BRENDEL-/400463432919?epid=0&hash=item5d3d7b0cd7:g:ecIAAOxyOalTYTrG
p104
aVhttp://www.ebay.com/itm/Battle-Beyond-the-Sun-aka-Nebo-zovyot-1962-Sci-Fi-Adventure-Movie-on-DVD-/172202203663?hash=item28180d1a0f:g:FwgAAOSw~oFXMsGw
p105
aVhttp://www.ebay.com/itm/SCI-FI-MOVIE-MARATHON-Chuck-Wagner-DVD-Region-1-Sealed-/162092982315?epid=1909305305&hash=item25bd7ea02b:g:EhsAAOSwmtJXUteA
p106
aVhttp://www.ebay.com/itm/Sound-Machine-Classic-Cartoon-Horror-and-Sci-Fi-Fun-Special-Effects-Boxes-/371758524199?var=&epid=595470010&hash=item568e88e727:m:mTpoMnVKIMjI0KJ2HZ4kpjg
p107
aVhttp://www.ebay.com/itm/Peter-Weller-SCREAMERS-SCREAMERS-2-THE-HUNTING-Sci-Fi-Horror-Double-UK-DVD-/222083109747?epid=72548865&hash=item33b52f5373:g:8ykAAOSw9GhYdUT0
p108
aVhttp://www.ebay.com/itm/100-GREATEST-SCI-FI-CLASSICS-DVD-Sealed-Region-1-/162067453244?epid=1605753623&hash=item25bbf9153c:g:n44AAOSwXeJXegZv
p109
aVhttp://www.ebay.com/itm/The-Vampire-Diaries-Season-6-DVD-2015-Complete-Love-Sucks-Action-Sci-Fi-Watch-/252928632256?epid=1437724951&hash=item3ae3b8a5c0:g:-7YAAOSwurZZEbE0
p110
aVhttp://www.ebay.com/itm/JUST-IMAGINE-1930-DVD-RARE-MUSICAL-SCI-FI-FILM-BRENDEL-/400463432919?epid=0&hash=item5d3d7b0cd7:g:ecIAAOxyOalTYTrG
p111
aVhttp://www.ebay.com/itm/THE-CLASSIC-SCI-FI-ULTIMATE-COLLECTION-5-movies-DVD-REGION-1-/162201643696?hash=item25c3f8aab0:g:XtsAAOSwNRdX2E90
p112
aVhttp://www.ebay.com/itm/The-Thing-Cult-80s-Sci-Fi-Horror-Film-Japan-Poster-T-Shirt-Kurt-Russell-New-383-/232182766550?var=&hash=item360f2bdbd6:m:mPKZEhxDyKTiIP7EvzZKZ5w
p113
aVhttp://www.ebay.com/itm/Steve-Guttenberg-COCOON-COCOON-THE-RETURN-2-Souble-Bill-Sci-Fi-UK-DVD-/232038510157?epid=46961125&hash=item360692ae4d:g:xNkAAOSwImRYSBZz
p114
aVhttp://www.ebay.com/itm/Farscape-Peacekeeper-Logo-Sci-Fi-TV-Series-T-shirt-/192135035202?var=&hash=item2cbc23f942:m:mZAKZLel7GROQRIRI8jURNg
p115
aVhttp://www.ebay.com/itm/SPACE-CHIMPS-2008-Animated-Family-Monkey-sci-Fi-Adventure-UK-Blu-ray-/282329275467?epid=66619831&hash=item41bc22dc4b:g:BmoAAOSw2xRYfljL
p116
aVhttp://www.ebay.com/itm/The-Last-Woman-on-Earth-1960-Drama-Horror-Mystery-Sci-Fi-Film-Movie-on-DVD-/182240933663?hash=item2a6e67f71f:g:-awAAOSwZVlXrhGM
p117
aVhttp://www.ebay.com/itm/The-Invisible-Man-1933-Comedy-Horror-Sci-Fi-Movie-Film-on-DVD-/172359537948?hash=item28216dd51c:g:OC0AAOSwOyJX7rO4
p118
aVhttp://www.ebay.com/itm/TTCombat-Sci-Fi-Scenics-SFU036-Objective-Room-Great-for-Infinity-40K-/311174038221?hash=item48736b02cd:g:d-sAAOSwR5dXSDyP
p119
aVhttp://www.ebay.com/itm/28mm-scale-Bag-of-100-resin-skulls-For-fantasy-and-sci-fi-bases-and-terrain-/162385593893?epid=546316653&hash=item25ceef8625:g:g2cAAOSwNSxVJCe1
p120
aVhttp://www.ebay.com/itm/TTCombat-Sci-Fi-Scenics-Gothic-Walkways-Great-for-40k-/351311264569?hash=item51cbc87b39:g:2cQAAOSw8d9U2j-c
p121
aVhttp://www.ebay.com/itm/Nick-Frost-Miranda-Hart-HYPERDRIVE-Seasons-1-2-BBC-Sci-Fi-Comedy-Series-DVD-/232168408903?epid=59501324&hash=item360e50c747:g:cLQAAOSwX9FZEes7
p122
aVhttp://www.ebay.com/itm/The-Lost-City-1935-Complete-12-Chapter-Sci-Fi-Serial-on-DVD-/172440107876?hash=item28263b3b64:g:1GAAAOSwImRYTAcp
p123
aVhttp://www.ebay.com/itm/Embryo-1976-Rock-Hudson-Barbara-Carrera-Horror-Sci-Fi-Film-Movie-on-DVD-/182236219185?hash=item2a6e200731:g:geYAAOSw0UdXqTJ7
p124
aVhttp://www.ebay.com/itm/Zardoz-Cult-Film-T-Shirt-John-Boorman-Sean-Connery-Sci-Fi-/111864626419?var=&hash=item1a0ba6bcf3:m:mcykVGXBitbVjM1x7_nCGxA
p125
aVhttp://www.ebay.com/itm/Atomic-Rulers-Film-On-DVD-Ken-Utsui-Junko-Ikeuchi-Action-Sci-Fi-1965-/232275984002?hash=item3614ba3e82:g:jNIAAOSw4CFYzkxT
p126
aVhttp://www.ebay.com/itm/STARGATE-ARK-OF-TRUTH-CONTINUUM-Two-SG-1-Sci-Fi-Movie-Film-Set-2-Disc-UK-DVD-/222431392482?epid=70164977&hash=item33c9f1b2e2:g:iR8AAOSw4CFYvaFf
p127
aVhttp://www.ebay.com/itm/Kirk-Douglas-Martin-Sheen-THE-FINAL-COUNTDOWN-1980-Cult-Sci-Fi-Film-UK-DVD-/221744342366?epid=3956932&hash=item33a0fe255e:g:-CUAAOSwq~tZOS9L
p128
aVhttp://www.ebay.com/itm/Plan-9-From-Outer-Space-1959-Horror-Sci-Fi-Movie-Film-on-DVD-/172126735959?hash=item28138d8e57:g:184AAOSwymxVPFfA
p129
a.