(lp0
Vhttps://www.amazon.co.uk/Bermuda-Cove-Formed-Pond-Liner/dp/B003SDCVJO/ref=sr_1_1/260-3364354-9144300?ie=UTF8&qid=1500121099&sr=8-1&keywords=pond
p1
aVhttps://www.amazon.co.uk/Bermuda-Sand-Formed-Pond-Liner/dp/B0055ZOQC8/ref=sr_1_2/260-3364354-9144300?ie=UTF8&qid=1500121099&sr=8-2&keywords=pond
p2
aVhttps://www.amazon.co.uk/Weather-Pond/dp/B01N4R6R60/ref=sr_1_3/260-3364354-9144300?ie=UTF8&qid=1500121099&sr=8-3&keywords=pond
p3
aVhttps://www.amazon.co.uk/Apollo-Gardening-Ltd-M126993-Start/dp/B0043AZEO0/ref=sr_1_4/260-3364354-9144300?ie=UTF8&qid=1500121099&sr=8-4&keywords=pond
p4
aVhttps://www.amazon.co.uk/Pond-Claire-Louise-Bennett/dp/0399575901/ref=sr_1_5/260-3364354-9144300?ie=UTF8&qid=1500121099&sr=8-5&keywords=pond
p5
aVhttps://www.amazon.co.uk/d/1b3/Blagdon-Half-Moon-Affinity-Mocha-Weave-Pool/B00KBF7G0Q/ref=sr_1_6/260-3364354-9144300?ie=UTF8&qid=1500121099&sr=8-6&keywords=pond
p6
aVhttps://www.amazon.co.uk/Pisces-Pre-Formed-Pond-Medium/dp/B014JE7KI2/ref=sr_1_7/260-3364354-9144300?ie=UTF8&qid=1500121099&sr=8-7&keywords=pond
p7
aVhttps://www.amazon.co.uk/Evolution-Aqua-Pure-Pond-Bomb/dp/B007I83I3S/ref=sr_1_8/260-3364354-9144300?ie=UTF8&qid=1500121099&sr=8-8&keywords=pond
p8
aVhttps://www.amazon.co.uk/Ankway-Fountain-Floating-Birdbaths-Birdbath/dp/B013LCI5J6/ref=sr_1_9/260-3364354-9144300?ie=UTF8&qid=1500121099&sr=8-9&keywords=pond
p9
aVhttps://www.amazon.co.uk/Briers-Medium-Pond-Drain-Glove/dp/B004ORX57K/ref=sr_1_10/260-3364354-9144300?ie=UTF8&qid=1500121099&sr=8-10&keywords=pond
p10
aVhttps://www.amazon.co.uk/AURAGLOW-Changing-Submersible-Underwater-Aquarium/dp/B01N8RQLGQ/ref=sr_1_11/260-3364354-9144300?ie=UTF8&qid=1500121099&sr=8-11&keywords=pond
p11
aVhttps://www.amazon.co.uk/Blagdon-Complete-Crafted-Liberty-Wireless/dp/B00J60L32E/ref=sr_1_12/260-3364354-9144300?ie=UTF8&qid=1500121099&sr=8-12&keywords=pond
p12
aVhttps://www.amazon.co.uk/Ponds-Designing-improving-maintaining-Specialist/dp/1580117457/ref=sr_1_13/260-3364354-9144300?ie=UTF8&qid=1500121099&sr=8-13&keywords=pond
p13
aVhttps://www.amazon.co.uk/Bermuda-Pre-Formed-Pond-Bay-litres/dp/B0053GQ9U6/ref=sr_1_14/260-3364354-9144300?ie=UTF8&qid=1500121099&sr=8-14&keywords=pond
p14
aVhttps://www.amazon.co.uk/d/Digital-Music/Man-Feels-Like-Space-Again-Pond/B00S66H7E2/ref=sr_1_15/260-3364354-9144300?ie=UTF8&qid=1500121099&sr=8-15&keywords=pond
p15
aVhttps://www.amazon.co.uk/Anself-1-8Watt-Fountain-Submersible-Rockery/dp/B00NPLNZ9Y/ref=sr_1_16/260-3364354-9144300?ie=UTF8&qid=1500121099&sr=8-16&keywords=pond
p16
aVhttps://www.amazon.co.uk/Heissner-015195-00-Rattan-Water-Garden/dp/B01AXZCFUY/ref=sr_1_17/260-3364354-9144300?ie=UTF8&qid=1500121102&sr=8-17&keywords=pond
p17
aVhttps://www.amazon.co.uk/Anself-Amphibious-Waterproof-Spotlight-Projection/dp/B00CL6XTDQ/ref=sr_1_18/260-3364354-9144300?ie=UTF8&qid=1500121102&sr=8-18&keywords=pond
p18
aVhttps://www.amazon.co.uk/Shirebrook-Starter-Garden-Pond-Fountain/dp/B00UJO5P5C/ref=sr_1_19/260-3364354-9144300?ie=UTF8&qid=1500121102&sr=8-19&keywords=pond
p19
aVhttps://www.amazon.co.uk/d/eju/Floating-Garden-Pond-Water-Fish-Protection-Guards/B0154SZOQ2/ref=sr_1_20/260-3364354-9144300?ie=UTF8&qid=1500121102&sr=8-20&keywords=pond
p20
aVhttps://www.amazon.co.uk/d/Garden-D%C3%A9cor/Floating-Detailed-Crocodile-Head-Pond-Water-Feature/B008424UB6/ref=sr_1_21/260-3364354-9144300?ie=UTF8&qid=1500121102&sr=8-21&keywords=pond
p21
aVhttps://www.amazon.co.uk/Beckmann-Natural-160-x-560-Lumen-HBL5TE/dp/B01MY1HTPB/ref=sr_1_22/260-3364354-9144300?ie=UTF8&qid=1500121102&sr=8-22&keywords=pond
p22
aVhttps://www.amazon.co.uk/Ladybower-Black-Plastic-Garden-Litres/dp/B01FU1MEPC/ref=sr_1_23/260-3364354-9144300?ie=UTF8&qid=1500121102&sr=8-23&keywords=pond
p23
aVhttps://www.amazon.co.uk/d/cka/Pond-Owners-Handbook-Your-Questions-Answered-Dawes/0706377656/ref=sr_1_24/260-3364354-9144300?ie=UTF8&qid=1500121102&sr=8-24&keywords=pond
p24
aVhttps://www.amazon.co.uk/Apollo-Victoria-Container-Supporting-Fountains/dp/B0072CPHNO/ref=sr_1_26/260-3364354-9144300?ie=UTF8&qid=1500121102&sr=8-26&keywords=pond
p25
aVhttps://www.amazon.co.uk/d/Educational-Toys/Wildlife-attracts-Butterflies-Insects-Educational/B005DR8WUA/ref=sr_1_27/260-3364354-9144300?ie=UTF8&qid=1500121102&sr=8-27&keywords=pond
p26
aVhttps://www.amazon.co.uk/Tetra-Pond-Sticks-Bag-Litre/dp/B000XA8T32/ref=sr_1_29/260-3364354-9144300?ie=UTF8&qid=1500121102&sr=8-29&keywords=pond
p27
aVhttps://www.amazon.co.uk/Large-Floating-Fish-Sphere-Velda/dp/B00KDD1SJQ/ref=sr_1_30/260-3364354-9144300?ie=UTF8&qid=1500121102&sr=8-30&keywords=pond
p28
aVhttps://www.amazon.co.uk/Ponds-Dry-Skin-Cream-10-1/dp/B00005Q2UL/ref=sr_1_31_a_it/260-3364354-9144300?ie=UTF8&qid=1500121102&sr=8-31&keywords=pond
p29
aVhttps://www.amazon.co.uk/DuckWeed-Large-TableSpoon-Grams-Oxygenating/dp/B00V5K38IA/ref=sr_1_32/260-3364354-9144300?ie=UTF8&qid=1500121102&sr=8-32&keywords=pond
p30
aVhttps://www.amazon.co.uk/NEWSTYLE-Fountain-Garden-Decorative-Submersible/dp/B010RVM60I/ref=sr_1_33/260-3364354-9144300?ie=UTF8&qid=1500121102&sr=8-33&keywords=pond
p31
a.