(lp0
Vhttps://www.amazon.co.uk/Bramble-Premium-Mosquito-Repellent-refills-x/dp/B01FG83S4U/ref=sr_1_1/261-1036442-1373506?ie=UTF8&qid=1500121354&sr=8-1&keywords=bramble
p1
aVhttps://www.amazon.co.uk/Ultra-Compact-Bramble-Durable-Waterproof/dp/B01HILMLIC/ref=sr_1_2/261-1036442-1373506?ie=UTF8&qid=1500121354&sr=8-2&keywords=bramble
p2
aVhttps://www.amazon.co.uk/d/Home-Kitchen/Ronseal-RSLGPBRA25L-2-5-Litre-Garden-Paint-Bramble/B00T455FQG/ref=sr_1_3/261-1036442-1373506?ie=UTF8&qid=1500121354&sr=8-3&keywords=bramble
p3
aVhttps://www.amazon.co.uk/BRAMBLE-Sleeping-Bag-Liner-Grey-x/dp/B071ZLY8LV/ref=sr_1_4/261-1036442-1373506?ie=UTF8&qid=1500121354&sr=8-4&keywords=bramble
p4
aVhttps://www.amazon.co.uk/Bramble-Jean-David-Morvan/dp/159465090X/ref=sr_1_5/261-1036442-1373506?ie=UTF8&qid=1500121354&sr=8-5&keywords=bramble
p5
aVhttps://www.amazon.co.uk/d/Home-Garden/Growing-GFA645-Success-Bramble-Killer-Ultra-1L/B0060LTVN0/ref=sr_1_6/261-1036442-1373506?ie=UTF8&qid=1500121354&sr=8-6&keywords=bramble
p6
aVhttps://www.amazon.co.uk/BRAMBLE-Warmers-Hand/dp/B01LYZXAVG/ref=sr_1_7/261-1036442-1373506?ie=UTF8&qid=1500121354&sr=8-7&keywords=bramble
p7
aVhttps://www.amazon.co.uk/d/Gloves/Kingfisher-GGLN4-Gold-Ladies-Bramble-Gardening-Yellow/B00AKWEEOQ/ref=sr_1_8/261-1036442-1373506?ie=UTF8&qid=1500121354&sr=8-8&keywords=bramble
p8
aVhttps://www.amazon.co.uk/Bramble-Material-Inflating-Camping-Festival/dp/B01IC0O06Y/ref=sr_1_9/261-1036442-1373506?ie=UTF8&qid=1500121354&sr=8-9&keywords=bramble
p9
aVhttps://www.amazon.co.uk/Roundup-Tough-Weedkiller-Spray-Ready/dp/B002ATLYT0/ref=sr_1_10/261-1036442-1373506?ie=UTF8&qid=1500121354&sr=8-10&keywords=bramble
p10
aVhttps://www.amazon.co.uk/Bramble-Absorbent-Cooling-Microfiber-Simplest/dp/B071W2ZPDL/ref=sr_1_11/261-1036442-1373506?ie=UTF8&qid=1500121354&sr=8-11&keywords=bramble
p11
aVhttps://www.amazon.co.uk/Bed-e-Byes-Bramble-Smudge-Cotbed-Quilt/dp/B0030EHSPI/ref=sr_1_12_a_it/261-1036442-1373506?ie=UTF8&qid=1500121354&sr=8-12&keywords=bramble
p12
aVhttps://www.amazon.co.uk/d/Scented-Oils/Blackberry-bramble-fragrance-concentrate-250ml-candles-cosmetics/B01G0P1A6Q/ref=sr_1_13_a_it/261-1036442-1373506?ie=UTF8&qid=1500121354&sr=8-13&keywords=bramble
p13
aVhttps://www.amazon.co.uk/Bramble-Bush-Our-Law-Study/dp/1610278046/ref=sr_1_14/261-1036442-1373506?ie=UTF8&qid=1500121354&sr=8-14&keywords=bramble
p14
aVhttps://www.amazon.co.uk/Bramble-Reusable-Laundry-Tumble-Drying/dp/B01M4P0VUU/ref=sr_1_15/261-1036442-1373506?ie=UTF8&qid=1500121354&sr=8-15&keywords=bramble
p15
aVhttps://www.amazon.co.uk/Bramble-Mosquito-Repellent-Insect-Bracelet/dp/B01DT0TO3Q/ref=sr_1_16/261-1036442-1373506?ie=UTF8&qid=1500121354&sr=8-16&keywords=bramble
p16
aVhttps://www.amazon.co.uk/d/Weed-Killers/Vitax-Ltd-SBK-1L-Brushwood-Killer/B000TAW2Z2/ref=sr_1_17/261-1036442-1373506?ie=UTF8&qid=1500121356&sr=8-17&keywords=bramble
p17
aVhttps://www.amazon.co.uk/Reusable-Waterproof-Portable-Resistant-Festivals/dp/B06XNSG9WM/ref=sr_1_18/261-1036442-1373506?ie=UTF8&qid=1500121356&sr=8-18&keywords=bramble
p18
aVhttps://www.amazon.co.uk/Inflatable-Cushion-Recommended-adjustable-firmness/dp/B06ZYNMX7V/ref=sr_1_19_a_it/261-1036442-1373506?ie=UTF8&qid=1500121356&sr=8-19&keywords=bramble
p19
aVhttps://www.amazon.co.uk/TP-Toys-328-Wooden-Playhouse/dp/B01K1MDGES/ref=sr_1_20/261-1036442-1373506?ie=UTF8&qid=1500121356&sr=8-20&keywords=bramble
p20
aVhttps://www.amazon.co.uk/Kingfisher-GGMN4-Bramble-Gardening-Gloves/dp/B008FMQZ04/ref=sr_1_21/261-1036442-1373506?ie=UTF8&qid=1500121356&sr=8-21&keywords=bramble
p21
aVhttps://www.amazon.co.uk/Energiearmband-Spiral-Life-Bramble-Plated/dp/B00BH1A4SO/ref=sr_1_22/261-1036442-1373506?ie=UTF8&qid=1500121356&sr=8-22&keywords=bramble
p22
aVhttps://www.amazon.co.uk/Bed-Brambles-Draymere-Hall-Book-ebook/dp/B06VV9XTSG/ref=sr_1_23/261-1036442-1373506?ie=UTF8&qid=1500121356&sr=8-23&keywords=bramble
p23
aVhttps://www.amazon.co.uk/Bramble-Emergency-Blankets-Multi-purpose-Protection/dp/B01M19HAEB/ref=sr_1_24/261-1036442-1373506?ie=UTF8&qid=1500121356&sr=8-24&keywords=bramble
p24
aVhttps://www.amazon.co.uk/Bramble-Briar-Martin-Simpson/dp/B01MQXWS4F/ref=sr_1_25/261-1036442-1373506?ie=UTF8&qid=1500121356&sr=8-25&keywords=bramble
p25
aVhttps://www.amazon.co.uk/Bed-e-Byes-Bramble-Smudge-Light-Shade-x/dp/B008CDAKQQ/ref=sr_1_26_a_it/261-1036442-1373506?ie=UTF8&qid=1500121356&sr=8-26&keywords=bramble
p26
aVhttps://www.amazon.co.uk/d/Apps-Games/Bramble-Berry-Tales-The-Story-of-Kalkalilh/B00EIMAAT2/ref=sr_1_27/261-1036442-1373506?ie=UTF8&qid=1500121356&sr=8-27&keywords=bramble
p27
aVhttps://www.amazon.co.uk/Bramble-Premium-Strength-Vacuum-Storage/dp/B01N7XOOY9/ref=sr_1_28/261-1036442-1373506?ie=UTF8&qid=1500121356&sr=8-28&keywords=bramble
p28
aVhttps://www.amazon.co.uk/Adventures-Bramble-Bear-Geoffrey-Alan/dp/0861129393/ref=sr_1_29/261-1036442-1373506?ie=UTF8&qid=1500121356&sr=8-29&keywords=bramble
p29
aVhttps://www.amazon.co.uk/Orla-Kiely-Climbing-Stem-Messenger/dp/B01N4DQ91S/ref=sr_1_30/261-1036442-1373506?ie=UTF8&qid=1500121356&sr=8-30&keywords=bramble
p30
aVhttps://www.amazon.co.uk/d/Digital-Music/Charcoal-Brambles/B0097V855U/ref=sr_1_31/261-1036442-1373506?ie=UTF8&qid=1500121356&sr=8-31&keywords=bramble
p31
aVhttps://www.amazon.co.uk/d/Hiking-Hand-Foot-Warmers/BRAMBLE-Bulk-Toe/B01M0MH5PM/ref=sr_1_32/261-1036442-1373506?ie=UTF8&qid=1500121356&sr=8-32&keywords=bramble
p32
a.