(lp1
Vhttp://www.ebay.com/itm/Aramis-Tuscany-For-Men-100ml-Eau-De-Toilette-Spray-/282151506738?epid=1462472433&hash=item41b18a5332:g:MKEAAOSwKytZKZ~Z
p2
aVhttp://www.ebay.com/itm/Tuscany-Aramis-Eau-De-Toilette-EDT-Spray-100ml-for-men-him-/262259078690?epid=1104152255&hash=item3d0fdbf622:g:c6EAAOSwJ4hY-irz
p3
aVhttp://www.ebay.com/itm/Aramis-Tuscany-for-Men-100ml-EDT-Spray-BRAND-NEW-BOXED-SEALED-UK-/262792210240?epid=1104150683&hash=item3d2fa2e740:g:RegAAOSwA3dYbN3M
p4
aVhttp://www.ebay.com/itm/Aramis-Tuscany-per-Uomo-Eau-De-Toilette-100ML-Spray-Mens-New-/201732109410?epid=1104150683&hash=item2ef82bb462:g:5YwAAOSw44BYPITW
p5
aVhttp://www.ebay.com/itm/Tuscany-Per-Uomo-/263064837477?hash=item3d3fe2dd65:g:Z-MAAOSwLcNZVqH3
p6
aVhttp://www.ebay.com/itm/Tuscany-Silver-Sterling-Silver-Ball-Lever-Back-Drop-Earrings-of-10-mm-/302095444084?epid=1546119744&hash=item46564aa874:g:qBIAAOSwYIxX8s-Y
p7
aVhttp://www.ebay.com/itm/Aramis-Tuscany-Per-Uomo-5ml-Sample-Refillable-Atomiser-/182546648346?hash=item2a80a0cd1a:g:D~EAAOSwVm5ZALSR
p8
aVhttp://www.ebay.com/itm/Tuscany-Silver-Sterling-Silver-Etched-Mum-Rose-Oval-Locket-on-Curb-Chain-46-/371924821062?hash=item5698726446:g:oNgAAOSwtZJY9495
p9
aVhttp://www.ebay.com/itm/TUSCANY-POPPY-VOILE-CURTAIN-PANEL-in-Red-Silver-Purple-Lime-54-72-or-90-/391365201977?var=&epid=1943497814&hash=item5b1f2f1039:m:mwLlBp0yRkyLpJoIntFyTLg
p10
aVhttp://www.ebay.com/itm/TUSCANY-POPPY-VOILE-CURTAIN-PANEL-in-Red-Silver-Purple-Lime-54-72-or-90-/391365201977?var=&epid=1943497814&hash=item5b1f2f1039:m:mwLlBp0yRkyLpJoIntFyTLg
p11
aVhttp://www.ebay.com/itm/Tuscany-Regional-Road-Map-Maps-Red-Cover-Map-9781858796284-/352095372342?epid=89035450&hash=item51fa850436:g:54sAAOSwLVZV4vIb
p12
aVhttp://www.ebay.com/itm/Visconti-Mens-Bifold-Leather-Wallet-With-RFID-Blocking-Fraud-Protection-TSC47-/182487903209?var=&epid=631377469&hash=item2a7d206be9:m:mcRygSSJH-AJGoigJ0nGsNg
p13
aVhttp://www.ebay.com/itm/Mens-Leather-Jacket-Wallet-RFID-Fraud-Protection-New-in-Gift-Box-Visconti-TSC45-/282213498664?var=&epid=1462803323&hash=item41b53c3f28:m:mAqgpmnePOtHP_8qEAFZF5w
p14
aVhttp://www.ebay.com/itm/Tuscany-Silver-Sterling-Silver-5mm-Ball-Lever-Back-Drop-Earrings-/361958159582?epid=715361470&hash=item54466334de:g:CC0AAOSwSypY9483
p15
aVhttp://www.ebay.com/itm/Tuscany-Silver-10-mm-Ball-Lever-Back-Drop-Earrings-/182442238326?epid=1546119744&hash=item2a7a67a176:g:LeMAAOSw2xRYkzij
p16
aVhttp://www.ebay.com/itm/The-Rough-Guide-to-Tuscany-and-Umbria-Mark-Ellingham-/371939150973?epid=213399413&hash=item56994d0c7d:g:u7oAAOSwuMZZCspO
p17
aVhttp://www.ebay.com/itm/Tuscany-Silver-Sterling-Silver-10mm-Ball-Lever-Back-Drop-Earrings-/361958159575?epid=1546119744&hash=item54466334d7:g:B6YAAOSwSypY9480
p18
aVhttp://www.ebay.com/itm/Tuscany-Marco-Polo-Map-Marco-Polo-/382075422380?epid=109289263&hash=item58f57846ac:g:XN4AAOSwrhBZEEKC
p19
aVhttp://www.ebay.com/itm/Tuscany-Silver-Sterling-Silver-Coffee-Bean-Necklet-of-41cm-16-/302266786253?epid=1904333086&hash=item46608121cd:g:LrIAAOSwuxFY21RY
p20
aVhttp://www.ebay.com/itm/Visconti-Mens-Veg-Tan-Leather-Wallet-With-RFID-Blocking-Fraud-Protection-TSC41-/152045777146?var=&epid=1565299182&hash=item2366a270fa:m:mvDSAI_JTasYcPxtOTqzVrA
p21
aVhttp://www.ebay.com/itm/Tuscany-Silver-Sterling-Silver-8mm-Twisted-Edge-Knot-Stud-Earrings-/371924821277?epid=1837924629&hash=item569872651d:g:~coAAOSwE0JY94-V
p22
aVhttp://www.ebay.com/itm/Visconti-Tuscany-Collection-AREZZO-Leather-Wallet-With-RFID-Protection-TSC42-/182071349567?var=&epid=1263855318&hash=item2a644c513f:m:mk6TOuypiOkP_Bq1byfUPqw
p23
aVhttp://www.ebay.com/itm/VINTAGE-TUSCANY-ITALY-ITALIAN-TRAVEL-A4-POSTER-PRINT-/182609936970?epid=18002443601&hash=item2a8466824a:g:HugAAOSwIaFZNyaI
p24
aVhttp://www.ebay.com/itm/VINTAGE-TUSCANY-ITALY-ITALIAN-TRAVEL-A4-POSTER-PRINT-/182609936970?epid=18002443601&hash=item2a8466824a:g:HugAAOSwIaFZNyaI
p25
aVhttp://www.ebay.com/itm/VISCONTI-ANTI-FRAUD-RFID-TUSCANY-LEATHER-MENS-WALLET-GIFT-BOXED-BLACK-BROWN-TAN-/262774004847?var=&hash=item3d2e8d1c6f:m:m_Gz1DRj3nDo_NExrlQ6gqQ
p26
aVhttp://www.ebay.com/itm/Tuscany-Silver-Sterling-Silver-and-Turquoise-Oval-Stud-Earrings-/371924820312?epid=1340414100&hash=item5698726158:g:DbkAAOSwSypY949O
p27
aVhttp://www.ebay.com/itm/Kliving-Tuscany-3-5-Ceiling-Light-Acrylic-Droplets-Chandelier-Clear-Black-/361421096419?var=&epid=1243427365&hash=item54266045e3:m:mi8qPAs5hPB8TR_Z70u0HCw
p28
aVhttp://www.ebay.com/itm/GERALD-MYNOTT-b1957-Cypress-Avenue-Tuscany-Limited-Edition-Lithograph-Curwen-/381923857155?hash=item58ec6f9303:g:sYMAAOSweW5VbarR
p29
aVhttp://www.ebay.com/itm/Tuscany-Essentials-Edition-expansion-for-Viticulture-board-game-/252823569335?epid=2097525944&hash=item3add7583b7:g:Jv4AAOSwB-1Y3K81
p30
aVhttp://www.ebay.com/itm/Visconti-Mens-Leather-Cards-Wallet-With-RFID-Blocking-Fraud-Protection-TSC40-/182083532633?var=&epid=1365036161&hash=item2a65063759:m:mDDBeLfyrNz-anfY9miLiCA
p31
a.