(lp1
Vhttp://www.ebay.com/itm/Vinyl-LP-to-CD-Transcription-Service-Garrard-401-valve-amp-analogue-transfer-/401328515726?hash=item5d710b2a8e:m:msGg3ie-F_3Lf1u2yS8YQnw
p2
aVhttp://www.ebay.com/itm/Ray-Noble-The-Complete-Standard-Transcriptions-Remastered-CD-New-/391643801733?epid=1705614527&hash=item5b2fca2885:g:oQQAAOSwpINZYmk9
p3
aVhttp://www.ebay.com/itm/OLYMPUS-AS-2400-DIGITAL-TRANSCRIPTION-KIT-/252836694786?epid=112182780&hash=item3ade3dcb02:g:OY0AAOxydUJTPEGU
p4
aVhttp://www.ebay.com/itm/Bach-Stokowski-Orchestral-Transcription-CD-NEW-/302032507122?epid=114570094&hash=item46528a50f2:g:ENkAAOSwhOdXozez
p5
aVhttp://www.ebay.com/itm/Olympus-AS-2400-Digital-Transcription-Kit-Transcriber-FREE-NEXTDAY-UK-DELIVERY-/182548360143?epid=112182780&hash=item2a80baebcf:g:0tQAAOSw1S9Wb~BP
p6
aVhttp://www.ebay.com/itm/Olympus-AS49-DSS-Player-Standard-Transcription-Module-License-for-AS-2400-/181608125726?epid=1808053369&hash=item2a48b0151e:g:suMAAOxyCepScQcu
p7
aVhttp://www.ebay.com/itm/Olympus-AS-5000-Pro-Digital-Transcription-Kit-Brand-New-FREE-TECH-SUPPORT-/171573689985?epid=101699834&hash=item27f296be81:g:GJoAAOSwNSxVVHm9
p8
aVhttp://www.ebay.com/itm/Infinity-IN-USB-2-Digital-Transcription-Foot-Pedal-Ex-Demo-Unit-/182201623448?epid=1204724484&hash=item2a6c102398:g:HikAAOSwADNXPZvm
p9
aVhttp://www.ebay.com/itm/OLYMPUS-RS-31-Foot-control-for-AS-7000-Transcription-Kit-/252780945372?epid=1404676619&hash=item3adaeb1fdc:g:cU8AAOSwdGFYrDqK
p10
aVhttp://www.ebay.com/itm/Spectra-SP-USB-Transcription-Headset-With-Volume-Control-BRAND-NEW-IN-BOX-/181606307956?epid=1404708852&hash=item2a48945874:g:ji8AAOSwBLlU7J3Z
p11
aVhttp://www.ebay.com/itm/Infinity-IN-USB2-Digital-Transcription-Foot-Pedal-Transcription-Headset-BNIB-/171569776183?hash=item27f25b0637:g:Rt8AAOSwQItT4jCK
p12
aVhttp://www.ebay.com/itm/Philips-LFH-710-Mini-Cassette-Transcriber-Transcription-Dictation-Machine-LFH710-/331651427026?epid=1508041847&hash=item4d37f72ad2:g:OzgAAOSw~AVYt-Ta
p13
aVhttp://www.ebay.com/itm/Philips-LFH-710-Mini-Cassette-Transcriber-Transcription-Dictation-Machine-LFH710-/331651427026?epid=1508041847&hash=item4d37f72ad2:g:OzgAAOSw~AVYt-Ta
p14
aVhttp://www.ebay.com/itm/HEAR-New-Rockabilly-Re-Roy-James-Rock-Roll-Mama-Capitol-Transcription-45-/380803358630?hash=item58a9a61fa6:g:6UcAAOxycmBSuYUY
p15
aVhttp://www.ebay.com/itm/KNex-Education-DNA-Replication-Transcription-16-Model-Designs-/361527602603?epid=1717259481&hash=item542cb96dab:g:9xIAAOSwZ8ZXA5yF
p16
aVhttp://www.ebay.com/itm/Philips-LFH7177-04-Transcription-Kit-Complete-/171576368486?epid=70843995&hash=item27f2bf9d66:g:E0kAAOSwLs5XLKJf
p17
aVhttp://www.ebay.com/itm/Liszt-Schubert-Song-Transcriptions-CD-NEW-/301813177842?epid=210141273&hash=item4645779df2:g:x68AAOSwbdpWXb89
p18
aVhttp://www.ebay.com/itm/Dictaphone-Transcription-Headset-DIC304712-Brand-New-FREE-UK-DELIVERY-/171573689956?epid=1273233301&hash=item27f296be64:g:C0cAAMXQrC9Sb5mA
p19
aVhttp://www.ebay.com/itm/Olympus-E-102-Stereo-Transcription-Headset-for-AS-2400-AS-5000-AS-7000-BNIB-/171573689974?epid=112182780&hash=item27f296be76:g:xUgAAOSweW5VAYTF
p20
aVhttp://www.ebay.com/itm/OLYMPUS-AS-7000-PRO-LINE-TRANSCRIPTION-KIT-AS7000-/252461295323?epid=1504705438&hash=item3ac7dda6db:g:gukAAOxyDo1TjyzA
p21
aVhttp://www.ebay.com/itm/Classic-401-Stainless-bronze-base-for-Garrard-401-Transcription-Turntable-/272758456235?epid=1040651601&hash=item3f81abbfab:g:BEMAAOSwmmxW2s~8
p22
aVhttp://www.ebay.com/itm/Philips-2310-USB-Foot-Control-Switch-LFH2310-00-Transcription-3-pedal-foot-/231265353748?epid=1507956045&hash=item35d87d4014:g:xFkAAOSwkNZUkes~
p23
aVhttp://www.ebay.com/itm/Infinity-IN-USB2-Digital-Transcription-Foot-Pedal-Spectra-SP-USB-Headset-/172234636762?hash=item2819fbfdda:g:YKEAAOSwu4BVpPaZ
p24
aVhttp://www.ebay.com/itm/Olympus-RS-28H-Footswitch-for-AS-2400-Transcription-kit-/252780939723?epid=112182780&hash=item3adaeb09cb:g:Ld0AAOxyXDhSjIcH
p25
aVhttp://www.ebay.com/itm/The-FTW-Transcriber-Transcription-Software-Download-two-year-license-key-/292002661741?hash=item43fcb7056d:g:aysAAOSwUKxYfhnj
p26
aVhttp://www.ebay.com/itm/Olympus-ODMS-Dictation-Management-System-R6-Transcription-Module-License-/181797771302?epid=1862995161&hash=item2a53fdd826:g:498AAOSwLVZVn522
p27
aVhttp://www.ebay.com/itm/Philips-LFH730-Mini-Cassette-Transcriber-Transcription-Dictation-Machine-Kit-/331237218054?epid=59040566&hash=item4d1f46d706:g:feYAAOSwnipWW2Wo
p28
aVhttp://www.ebay.com/itm/Spectra-SP-PC-Stereo-Transcription-Headset-3-5mm-Jack-BNIB-/181606307963?hash=item2a4894587b:g:YzQAAOSwv0tU7Jyn
p29
aVhttp://www.ebay.com/itm/Philips-LFH-2330-USB-Foot-Control-Switch-LFH2330-00-Transcription-foot-pedal-/232328977026?epid=1504689114&hash=item3617e2da82:g:xFkAAOSwkNZUkes~
p30
aVhttp://www.ebay.com/itm/Philips-LFH-233-Transcription-Headset-Brand-New-/181606307951?epid=1004799670&hash=item2a4894586f:g:D~sAAMXQL99SbnR3
p31
aVhttp://www.ebay.com/itm/New-Philips-LFH-710-Mini-Cassette-Transcriber-Transcription-Dictation-Machine-/331792990996?epid=1508041847&hash=item4d40674314:g:76QAAOSwv9hW111e
p32
aVhttp://www.ebay.com/itm/Philips-LFH-720-Mini-Cassette-Transcriber-Transcription-Dictation-Machine-/231604938218?epid=219513594&hash=item35ecbae5ea:g:DfkAAOSwxH1T96Lj
p33
aVhttp://www.ebay.com/itm/Philips-LFH-2330-USB-Foot-Control-Switch-LFH2330-00-Transcription-foot-pedal-/232328977026?epid=1504689114&hash=item3617e2da82:g:xFkAAOSwkNZUkes~
p34
aVhttp://www.ebay.com/itm/The-FTW-Transcriber-Transcription-Software-Download-two-year-license-key-/292002661741?hash=item43fcb7056d:g:aysAAOSwUKxYfhnj
p35
aVhttp://www.ebay.com/itm/12V-Philips-LFH710-Transcription-kit-replacement-power-supply-/191822004649?epid=1642417871&hash=item2ca97b81a9:g:uNkAAOSwIaFZG9CU
p36
aVhttp://www.ebay.com/itm/Dictaphone-304712-Wishbone-Transcription-Headset-/253022708088?hash=item3ae9542178:g:Wr0AAOSwPe1UEqnR
p37
aVhttp://www.ebay.com/itm/Liszt-Transcriptions-CD-NEW-/282300516183?epid=181911741&hash=item41ba6c0757:g:ruQAAOSwA3dYXLjb
p38
aVhttp://www.ebay.com/itm/Philips-110-FootControl-Pedal-Dictation-Transcription-systems-In-Original-Box-/252343537686?epid=1664719161&hash=item3ac0d8d016:g:uIoAAOSwud1XApwI
p39
aVhttp://www.ebay.com/itm/Dictaphone-1740-4-Transcription-Dictation-Machine-uses-Philips-Mini-Cassettes-/231621380337?epid=219512496&hash=item35edb5c8f1:g:Q2YAAOSw9N1Vo9wM
p40
aVhttp://www.ebay.com/itm/Philips-LFH334-Delux-Transcription-Headset-FREE-UK-DELIVERY-/181608125722?epid=1909171436&hash=item2a48b0151a:g:qcoAAOxyXDhScnTq
p41
aVhttp://www.ebay.com/itm/Olympus-AS-2400-Digital-Transcription-Kit-Includes-RS-28-Footswitch-E-102-/111652487501?epid=112182780&hash=item19ff01c14d:g:51sAAOSwymxVNyvt
p42
aVhttp://www.ebay.com/itm/Philips-LFH0334-Transcription-Headphones-for-all-Philips-desktop-dictation-an-/122363597013?epid=153217327&hash=item1c7d7050d5:g:jJ8AAOSw~AVYquOT
p43
aVhttp://www.ebay.com/itm/Liszt-Mephisto-Waltz-Opera-Transcriptions-and-Paraphrases-CD-NEW-/282309025868?epid=1405010300&hash=item41baede04c:g:BuIAAOSw9GhYZzSd
p44
aVhttp://www.ebay.com/itm/Philips-LFH510-Mini-Cassette-Transcriber-Transcription-Dictation-Machine-/232111870666?epid=1542158364&hash=item360af212ca:g:QgIAAOSwPCVX~lCP
p45
aVhttp://www.ebay.com/itm/OLYMPUS-DICTATION-TRANSCRIPTION-TRANSCRIBER-HEADSET-NEW-/231576329211?epid=1531800043&hash=item35eb065bfb:m:mexktsSN75VebL64Ib1c0SA
p46
aVhttp://www.ebay.com/itm/Philips-233-LFH233-Wishbone-Transcription-Headset-for-LFH-710-720-725-730-/253022709194?epid=1710317288&hash=item3ae95425ca:g:uJMAAOSwDk5UG-Yv
p47
aVhttp://www.ebay.com/itm/12V-Philips-LFH720-Transcription-kit-replacement-power-supply-/191735558992?epid=1739963362&hash=item2ca4547350:m:mgqkE5yX4VJ5HM6KlA7BdiQ
p48
aVhttp://www.ebay.com/itm/Philips-LFH505-Mini-Cassette-Transcriber-Transcription-Dictation-Machine-/331602294037?epid=1937896140&hash=item4d35097515:g:Nj8AAOSw2s1UykQX
p49
a.