(lp1
Vhttp://www.ebay.com/itm/SALE-Hearts-Roses-H-R-50s-FLORAL-rockabilly-DRESS-BLACK-WHITE-UK-8-10-/302342508479?var=&hash=item4665048fbf:m:maNXGeoyh4mhxqj_c4YQ1tg
p2
aVhttp://www.ebay.com/itm/Rockabella-by-Poizen-LBD-Wendy-dress-black-gothic-prom-gothic-sale-S-M-L-XL-/302344057148?var=&hash=item46651c313c:m:m-1gcwm-gPtEAEF6RKJ_4kA
p3
aVhttp://www.ebay.com/itm/SALE-NOMADS-Organic-Cotton-Jersey-Red-Butterfly-Winter-Dress-FairTrade-Boho-BW26-/401239359301?var=&hash=item5d6bbabf45:m:mSEyh4kYqC3Sfx16O5bUzAA
p4
aVhttp://www.ebay.com/itm/SALE-Reflex-Rubber-Strap-Fashion-Watch-Green-/251657226297?epid=1556205316&hash=item3a97f08839:g:wksAAOSwQItUI-XF
p5
aVhttp://www.ebay.com/itm/Sale-Plus-Size-Pink-Polka-Dot-Cotton-Dress-Eveline-18-20-22-Summer-Bridal-Tea-/152393725704?var=&hash=item237b5fb708:m:m6GimEwuDshZooueKiG0Ynw
p6
aVhttp://www.ebay.com/itm/70-GENUINE-LIPSY-Blue-with-Coral-Orchid-Evening-Party-Midi-DRESS-sale-/263026556327?var=&epid=679051868&hash=item3d3d9abda7:m:mDuCoDPyAnKDZTzlXC1uscA
p7
aVhttp://www.ebay.com/itm/EAONPLUS-LADIES-TIE-DYE-MAXI-DRESS-BLUE-NEW-ref-211-SALE-/132108406117?var=&hash=item1ec2464d65:m:mgZXOKutC6WbsPeR7chy3qA
p8
aVhttp://www.ebay.com/itm/Name-Necklace-Personalised-Gold-Silver-Tone-Choose-Your-Name-SS17-SALE-/292136970792?var=&hash=item4404b86a28:m:mDPJicyryQdzBLSIezWP6Bg
p9
aVhttp://www.ebay.com/itm/Plus-Size-Scarlett-Jo-Floral-Wrap-Asymmetric-Waist-Dress-Black-16-20-SAMPLE-SALE-/272654758305?var=&hash=item3f7b7d71a1:m:mXaIz3odvBsDC-HFdCNohjg
p10
aVhttp://www.ebay.com/itm/Poizen-Kalista-dress-Harajuko-goth-emo-cosplay-S-M-L-SALE-RRP-44-/292001362596?var=&hash=item43fca332a4:m:mluwPVvKA7pTCvpbv1xOCwA
p11
aVhttp://www.ebay.com/itm/SALE-DUBAI-WOMEN-KAFTANS-FARASHA-DUBAI-DRESS-JALABIA-FITS-FOR-ALL-/332082857936?hash=item4d51ae47d0:g:FXwAAOSwT5xZQHSt
p12
aVhttp://www.ebay.com/itm/Poizen-Industries-Muse-Dress-Shredded-effect-tye-dye-S-M-L-SALE-Goth-punk-/302204365088?var=&hash=item465cc8a920:m:mibAEh-cOBds79nCqw8i4xA
p13
aVhttp://www.ebay.com/itm/SALE-Dubai-Style-kaftan-farasha-Jalabiya-maxi-dress-abaya-Fits-All-/332233345517?hash=item4d5aa689ed:g:BVgAAOSwwzhZWpmU
p14
aVhttp://www.ebay.com/itm/Poizen-heartless-Hope-mini-dress-top-Skeleton-goth-UK-10-12-14-SALE-occult-/302251404065?var=&hash=item465f966b21:m:mMWLfG_oDRkhRKDEsh6rW3g
p15
aVhttp://www.ebay.com/itm/Cupcake-Cult-by-Poizen-Zombie-Love-Dress-goth-horror-SALE-/302266463665?var=&hash=item46607c35b1:m:moSNxGdlNw7LuPthGyaJROw
p16
aVhttp://www.ebay.com/itm/SALE-HEARTS-ROSES-H-R-50s-LONG-TATTOO-FLOCK-rockabilly-DRESS-PURPLE-/110966394178?var=&hash=item19d61ccd42:m:mDlNcXZlb8-EmgC2edn79wQ
p17
aVhttp://www.ebay.com/itm/Hell-Bunny-Eclipse-Steampunk-prom-goth-dress-XS-S-M-L-XL-SALE-/292167232818?var=&hash=item4406862d32:m:mK0d7zYZIAY0DybP1ZL82Tw
p18
aVhttp://www.ebay.com/itm/Banned-Bat-dress-rockabilly-Red-psychobilly-pin-up-goth-All-Sizes-SALE-Pin-Up-/291991525075?var=&hash=item43fc0d16d3:m:mTlhBiBqJgf7l8V5_aR86oQ
p19
aVhttp://www.ebay.com/itm/Dog-Necklace-24-Breeds-Womens-Gift-SALE-/121844153925?var=&hash=item1c5e7a3e45:m:m5oCwAxubpFMTR67oo7UOlg
p20
aVhttp://www.ebay.com/itm/M-S-Black-Burgundy-Chevron-Stripe-Sleeveless-Work-Formal-Dress-SALE-Was-69-/371662386430?var=&epid=1774703962&hash=item5688cdf4fe:m:mULNRm_v8GnZ3lIH-sKT4Zg
p21
aVhttp://www.ebay.com/itm/NEW-SALE-PLUS-SIZE-PINK-DEER-DRESS-TEA-2XL-3XL-4XL-BELT-VINTAGE-LOOK-18-20-22-/152428233050?var=&hash=item237d6e415a:m:mHsyjdzAR6tv5hEkJlo6qzA
p22
aVhttp://www.ebay.com/itm/Poizen-Vixxsin-Dress-Bohemia-punk-lace-SALE-Goth-Small-UK-8-10-corset-/302155597030?hash=item4659e084e6:g:WQ0AAOSwa~BYQfQE
p23
aVhttp://www.ebay.com/itm/New-Womens-Plus-Size-Dress-Ladies-Maxi-Floral-Print-Tie-Back-Long-Sale-Nouvelle-/252811406424?var=&epid=1057516962&hash=item3adcbbec58:m:myVYm-RQNSoY88dPwtt_Z2A
p24
aVhttp://www.ebay.com/itm/SALE-SALE-Dubai-Moroccan-Style-kaftan-farasha-Jalabiya-maxi-dress-Fits-for-all-/332029161858?var=&hash=item4d4e7af182:m:mAZieamKIGVbYtHSU4fZVGg
p25
aVhttp://www.ebay.com/itm/Black-Friday-Sale-NY-London-Ladies-Sparkling-Crystal-Valentine-Watch-59-99-7058-/172256516479?epid=909604975&hash=item281b49d97f:g:eyMAAOSwv-NWWGMB
p26
aVhttp://www.ebay.com/itm/SALE-Summer-Dress-Cotton-Wrap-Style-Great-Holiday-Resort-Dress-by-MontyQ-/182650130597?var=&epid=1163073821&hash=item2a86cbd0a5:m:mZwQO5LGxoUPCm88kz61FxA
p27
aVhttp://www.ebay.com/itm/Seasalt-Admiral-Dress-Duo-Night-UK10-EU38-Sales-Sample-SAVE-/112453361827?hash=item1a2ebe20a3:g:I0IAAOSwax5Yrc~o
p28
aVhttp://www.ebay.com/itm/JACK-WILLS-Lilac-White-Broderie-Anglais-Sleeveless-Dress-SALE-Was-69-50-/201919343180?var=&epid=1889619862&hash=item2f0354aa4c:m:mEzaGHiLjPzyzfhBB9Ep3xg
p29
aVhttp://www.ebay.com/itm/MARKS-SPENCER-Jersey-Swing-Fit-Beach-Dress-SALE-1-2-Price-/371938484767?var=&epid=838520448&hash=item569942e21f:m:mHMY72gaM2nxigsxN4YD3ow
p30
aVhttp://www.ebay.com/itm/SALE-Dubai-Moroccan-Style-kaftan-farasha-Jalabiya-maxi-dress-one-Size-/332259094438?hash=item4d5c2f6fa6:g:VMsAAOSwwzhZQHRa
p31
aVhttp://www.ebay.com/itm/BARGAIN-SALE-NEW-Ralph-Lauren-Wrap-3-4-Sleeve-Dress-UK-Size-14-RRP-180-00-/122612016264?hash=item1c8c3ee488:g:EY8AAOSw0RlZc2Dw
p32
aVhttp://www.ebay.com/itm/Plus-Size-Scarlett-Jo-Evening-Asymmetric-Beaded-Jersey-Dress-Navy-16-SAMPLE-SALE-/272668678472?var=&hash=item3f7c51d948:m:mQj28zTTJZ7M3aKjzYTYllg
p33
aVhttp://www.ebay.com/itm/Plus-Size-Scarlett-Jo-Petite-Cream-Prom-Dress-Floral-Print-24-SAMPLE-SALE-/272664042945?var=&hash=item3f7c0b1dc1:m:mSl3hpUBN360aomjs8vCa-A
p34
aVhttp://www.ebay.com/itm/SALE-CLEARANCE-embroidered-floral-bandeau-bodycon-pencil-denim-tie-up-dress-/112477461166?var=&hash=item1a302ddaae:m:mxgVq9N-weYJN9JMRjz_vPw
p35
aVhttp://www.ebay.com/itm/SALE-Paisley-Print-Funky-Cotton-Kaftan-Dress-Tunic-Rust-Festival-Fair-Trade-/401291535253?var=&hash=item5d6ed6e395:m:mBnPAJE52CWZ6aeiwnaTjIg
p36
aVhttp://www.ebay.com/itm/SALE-NOMADS-Boho-Black-Cotton-Kaftan-Beach-Tunic-Dress-Knee-Length-3-4-Sleeve-/401291537965?var=&hash=item5d6ed6ee2d:m:mNFC9gIm7BDEvEq-5y6XNzA
p37
aVhttp://www.ebay.com/itm/SALE-NOMADS-Pink-Boho-Cotton-Summer-Short-Kaftan-Tunic-Top-Dress-Fair-Trade-/400662630947?var=&hash=item5d495a9223:m:mjmqHQXPqbrJfsaDrP9Zm4A
p38
aVhttp://www.ebay.com/itm/JACK-WILLS-Lilac-White-Broderie-Anglais-Sleeveless-Dress-SALE-Was-69-50-/371904636759?var=&epid=1889619862&hash=item56973e6757:m:mefsL_kxGldYu-hhGBD6-Xg
p39
aVhttp://www.ebay.com/itm/THREADS-Blue-Black-Block-Panel-Zip-Front-Dress-SALE-Was-55-/222362212541?var=&epid=2122253144&hash=item33c5d218bd:m:mxJVnVgyPzGZdObzTPPGq8g
p40
aVhttp://www.ebay.com/itm/SALE-Dubai-Style-kaftan-farasha-Jalabiya-maxi-dress-Fits-All-Green-/332051983749?hash=item4d4fd72d85:g:cNoAAOSwceNZQGVt
p41
aVhttp://www.ebay.com/itm/Estella-Bartlett-Wishbone-Gold-Plated-Necklace-SALE-/272587131932?hash=item3f77758c1c:g:6WYAAOSwTM5YxYoS
p42
aVhttp://www.ebay.com/itm/ANNA-Peach-Blush-Lace-Chiffon-Maxi-Bridesmaid-Ballgown-Dress-UK-SALE-/401149449955?var=&hash=item5d665ed6e3:m:mAQRCg6nQql_sZ-o6xSJdug
p43
aVhttp://www.ebay.com/itm/SALE-Plus-Size-Luna-Lace-Dress-in-Twilight-Grey-by-Kiyonna-RRP-142-/182409438689?var=&hash=item2a787325e1:m:mQU9L-arIlKSFfH4XTlg42g
p44
aVhttp://www.ebay.com/itm/Ladies-Cream-Dress-Cardigan-2-Piece-Set-Size-10-NEW-SALE-PRICE-/132208542040?hash=item1ec83e4158:g:FVQAAOSwIaFZG~dT
p45
aVhttp://www.ebay.com/itm/EMILY-Pale-Pink-Chiffon-Maxi-Prom-Evening-Bridesmaid-Dress-UK-SALE-/401153929861?var=&hash=item5d66a33285:m:mism2dFksBdD4kxuCWqcNpQ
p46
aVhttp://www.ebay.com/itm/1-day-SALE-TOPSHOP-Lace-Bardot-Bodycon-Tunic-MINI-Dress-Long-Top-Size-6-8-10-/232415200572?var=&hash=item361d06853c:m:mE0CtuiWcGP_d3crE7Myo6Q
p47
aVhttp://www.ebay.com/itm/SALE-Ladies-Womens-Small-Gold-Plated-Heart-Love-Shape-Chain-Pendant-Necklace-/262959208760?hash=item3d39971938:g:BhIAAOSw~y9ZBN5o
p48
aVhttp://www.ebay.com/itm/New-Ladies-Plus-Size-Dress-Womens-Floral-Glitter-Print-Sale-Sleeveless-Nouvelle-/332065370523?var=&epid=2110590439&hash=item4d50a3719b:m:me9F98Pugl13_CFGjyvTMkw
p49
aVhttp://www.ebay.com/itm/EMILY-Pale-Pink-Chiffon-Maxi-Prom-Evening-Bridesmaid-Dress-UK-SALE-/401153929861?var=&hash=item5d66a33285:m:mism2dFksBdD4kxuCWqcNpQ
p50
aVhttp://www.ebay.com/itm/WAREHOUSE-Sleeveless-Lace-Top-Cullote-Dress-Jumpsuit-SALE-Was-115-/222504010965?var=&epid=1182750232&hash=item33ce45c4d5:m:mZCcGq_SxSG2PgtOVWjCBqw
p51
aVhttp://www.ebay.com/itm/SALE-CLEARANCE-floral-flower-print-lace-belt-white-summer-bodycon-midi-dress-/112437200921?var=&hash=item1a2dc78819:m:mDxqPiNsx50_HTgGDe949_Q
p52
aVhttp://www.ebay.com/itm/SALE-NOMADS-Pink-Boho-Cotton-Summer-Short-Kaftan-Tunic-Top-Dress-Fair-Trade-/400662630947?var=&hash=item5d495a9223:m:mjmqHQXPqbrJfsaDrP9Zm4A
p53
aVhttp://www.ebay.com/itm/SALE-LADIES-MAXI-DRESS-CRINKLE-STRAPPY-RED-NAVY-BLACK-WOMENS-LONG-/251480692261?var=&hash=item3a8d6ad625:m:msT7T3NPDH00X0J30kywTkw
p54
aVhttp://www.ebay.com/itm/SALE-NOMADS-Plum-Boho-Hippy-Long-Sleeve-Retro-Gypsy-Dress-Tunic-Fair-Trade-CT24-/401230916279?var=&hash=item5d6b39eab7:m:m2bLdGFBFX0gDyWsDO-px_Q
p55
aVhttp://www.ebay.com/itm/KALIKO-Blue-V-Neck-Wrap-Jersey-Dress-SALE-Was-99-/222146059429?var=&epid=1273567715&hash=item33b8efdca5:m:mYUQN1xPP3SArjI5jpOTeWA
p56
aVhttp://www.ebay.com/itm/US-POLO-ASSN-Sleeveless-Cotton-Jersey-Polo-Dress-SALE-Was-61-/222183651647?var=&hash=item33bb2d793f:m:mjN4dcP10q8X900yVfqyUdA
p57
aVhttp://www.ebay.com/itm/Sale-NOW-Brand-New-Genuine-Daniel-Wellington-St-Mawes-Womens-Watch-/162242681010?epid=2100733652&hash=item25c66ad8b2:g:~tcAAOSwXetZVXR1
p58
aVhttp://www.ebay.com/itm/SALE-Paisley-Print-Funky-Cotton-Kaftan-Dress-Tunic-Rust-Festival-Fair-Trade-/401291535253?var=&hash=item5d6ed6e395:m:mBnPAJE52CWZ6aeiwnaTjIg
p59
aVhttp://www.ebay.com/itm/SALE-Dubai-Style-kaftan-farasha-Jalabiya-maxi-dress-Fits-4-all-/332051942508?hash=item4d4fd68c6c:g:Zf0AAOSwceNZQGRB
p60
aVhttp://www.ebay.com/itm/BODEN-Casual-Dress-UK-Size-8-10-12-14-16-Jersey-Tea-Dress-LIQUIDATION-SALE-/152148312717?var=&hash=item236cbf028d:m:m1vHAaFV8WI6iZGaxgz9s1g
p61
aVhttp://www.ebay.com/itm/Dayna-SALE-Red-Frill-Ruffle-Cold-Shoulder-Midi-Boutique-Dress-8-14-/172696743305?var=&hash=item2835872d89:m:m_DJVRqXxHBVe-Y1mG-etQw
p62
aVhttp://www.ebay.com/itm/SALE-NOMADS-Safiya-Boho-Vintage-Style-Tunic-Dress-Smoke-Fair-Trade-Long-Sleeve-/401040209156?var=&hash=item5d5fdbf504:m:mu-SPUAU4Rq9ItuSstBJFFg
p63
aVhttp://www.ebay.com/itm/Black-Friday-Sale-Short-Prom-Dress-Ball-Gown-Cocktail-Party-Dress-Size-6-16-/142189578926?var=&hash=item211b28caae:m:m4Imtrj4_6QIuK477ga6TLw
p64
aVhttp://www.ebay.com/itm/SALE-Women-Celeb-Bardot-Floral-Stripe-Print-Dress-Crepe-Flower-Skater-Mini-Dress-/262792760858?var=&hash=item3d2fab4e1a:m:mpP-LcnhZpe4CgiUV8cB7nw
p65
aVhttp://www.ebay.com/itm/SALE-Nomads-Short-Sleeve-Cotton-Tunic-Summer-Smock-Sun-Dress-Boho-Folksy-CL24-/191896477794?var=&hash=item2cadebe062:m:m-P4k1H-jyEU6gpnCetxfpw
p66
aVhttp://www.ebay.com/itm/New-Womens-Plus-Size-Dress-Ladies-Glitter-Contrast-Tunic-Party-Sale-Nouvelle-/252817393879?var=&epid=685496038&hash=item3add1748d7:m:mA5y4iVYChr6k3O6KcRP2oQ
p67
aVhttp://www.ebay.com/itm/SKMEI-Analog-Quartz-Mens-Wrist-Watch-Two-Time-Zone-Leather-Band-Silver-SALE-/112472638437?hash=item1a2fe443e5:g:BKwAAOSwjqVZDM05
p68
a.