(lp1
Vhttp://www.ebay.com/itm/FLIPSIDE-5-DECRY-RED-CROSS-UK-SUBS-CONFLICT-ICONOCLAST-TSOL-JUSTICE-LEAGUE-DVD-/401351868025?hash=item5d726f7e79:g:Ot0AAOSwuspY8lW0
p2
aVhttp://www.ebay.com/itm/THE-NOBLE-QURAN-FINAL-MESSAGE-FROM-GOD-ARABIC-ENGLISH-TRANSLATION-/112146900343?var=&hash=item1a1c79e577:m:mAS07aRUd_-LLGHPtIZvJdw
p3
aVhttp://www.ebay.com/itm/Not-Forgotten-The-True-Story-of-My-Imprisonment-in-North-Korea-9780718081119-/252759331190?epid=222221040&hash=item3ad9a15176:g:IF4AAOSwnHZYmcB~
p4
aVhttp://www.ebay.com/itm/The-Quran-The-Meaning-of-the-Holy-Quran-New-Modern-English-Edition-/161394536419?hash=item2593dd2fe3:g:n1MAAOSwVFlT7K9t
p5
aVhttp://www.ebay.com/itm/Tales-From-The-Crypt-Season-1-One-DVD-Box-Set-NEW-SEALED-/141915221693?epid=1205748026&hash=item210ace6ebd:g:x4wAAOSwPhdVB0Uh
p6
a.