(lp1
Vhttp://www.ebay.com/itm/NEW-WALLIS-LACE-DRESS-SHIFT-TUNIC-FLORAL-IVORY-NAVY-PARTY-SUMMER-SIZE-8-18-/192205407992?var=&hash=item2cc055c6f8:m:mHstpL22FtVFQkynumRefVA
p2
aVhttp://www.ebay.com/itm/NEW-WALLIS-DRESS-SHIFT-BODYCON-STRETCH-PINK-IVORY-FLORAL-PARTY-SUMMER-8-20-/311905055371?var=&hash=item489efd728b:m:mTcOMDt0ZbPeFZhm-MHhEcg
p3
aVhttp://www.ebay.com/itm/NEW-WALLIS-BLACK-PURPLE-JERSEY-TEA-PARTY-DRESS-VINTAGE-40s-50s-STYLE-UK-8-10-12-/161101247955?var=&hash=item258261f5d3:m:mDdnHA8cLmR8YZiuq3VqHCw
p4
aVhttp://www.ebay.com/itm/New-Ex-Wallis-Navy-Beige-Stripe-Jersey-Summer-Maxi-Dress-Twist-Front-Sleeveles-/152569361414?var=&hash=item2385d7b406:m:mtP1WoPOIEDIQmfAm_qYCJA
p5
aVhttp://www.ebay.com/itm/Ex-Wallis-Royal-Blue-Wrap-Side-Dress-Size-10-12-14-16-18-BNWOT-RRP-35-/222505612873?var=&hash=item33ce5e3649:m:mBiTV00O5pyqbSqi93iuDnQ
p6
aVhttp://www.ebay.com/itm/NEW-WALLIS-DRESS-SHIFT-BODYCON-BLACK-BLUE-FLORAL-TROPICAL-SUMMER-SIZE-8-18-/311909845937?var=&hash=item489f468bb1:m:mVlVLn2kyWTaMYf-uCdDlfg
p7
aVhttp://www.ebay.com/itm/SMD-1003-Womens-Ladies-Wallis-Lovely-Summer-Cream-Tropical-Print-Dress-/201978370023?var=&hash=item2f06d957e7:m:mkJmVmkvbxdF-geapeKIfOg
p8
aVhttp://www.ebay.com/itm/NEW-EX-WALLIS-WHITE-BLUE-YELLOW-PINK-BLACK-FLORAL-SUMMER-MAXI-DRESS-10-20-/252015691591?var=&hash=item3aad4e4747:m:m_ViRubh_B0nyLLvk632ydA
p9
aVhttp://www.ebay.com/itm/NEW-EX-WALLIS-IVORY-NAVY-BLUE-LACE-OCCASION-DRESS-SIZE-8-18-/263024863399?var=&hash=item3d3d80e8a7:m:mJ3pdE23L_6PUc1mbtzuv1w
p10
aVhttp://www.ebay.com/itm/NEW-Ex-Wallis-Ivory-Blue-Pink-Orange-Floral-Paisley-Print-Ruched-Dress-8-18-/262186820584?var=&hash=item3d0b8d63e8:m:m-ufSwRaefsE0-2K9kBPFKg
p11
aVhttp://www.ebay.com/itm/New-ex-Wallis-Green-Blue-White-Bodycon-Palm-Print-Dress-8-10-/272632397318?var=&hash=item3f7a283e06:m:mohaBW-ymMUVaZsZmR22m1A
p12
aVhttp://www.ebay.com/itm/NEW-EX-WALLIS-ORANGE-WHITE-PURPLE-PINK-FLORAL-MAXI-DRESS-SIZE-10-20-/252489045551?var=&hash=item3ac985162f:m:mjKEUvR7pbQNckqFjv8jR9g
p13
a.