(lp0
Vhttps://www.amazon.co.uk/Tedium/dp/B01H2S468Y/ref=sr_1_1/259-8693829-5445306?ie=UTF8&qid=1500121047&sr=8-1&keywords=tedium
p1
aVhttps://www.amazon.co.uk/364-Days-Tedium-What-Santa-ebook/dp/B004FGMSGE/ref=sr_1_2/259-8693829-5445306?ie=UTF8&qid=1500121047&sr=8-2&keywords=tedium
p2
aVhttps://www.amazon.co.uk/d/CDs-Vinyl/Grand-Tedium-Wavescape/B00004TK68/ref=sr_1_3/259-8693829-5445306?ie=UTF8&qid=1500121047&sr=8-3&keywords=tedium
p3
aVhttps://www.amazon.co.uk/Biography-definite-bounded-history-obituary/dp/B071H4C5QX/ref=sr_1_4/259-8693829-5445306?ie=UTF8&qid=1500121047&sr=8-4&keywords=tedium
p4
aVhttps://www.amazon.co.uk/Biography-definite-bounded-history-obituary/dp/B06Y69YKVX/ref=sr_1_5/259-8693829-5445306?ie=UTF8&qid=1500121047&sr=8-5&keywords=tedium
p5
aVhttps://www.amazon.co.uk/dp/B01N4NI5IE/ref=sr_1_6/259-8693829-5445306?ie=UTF8&qid=1500121047&sr=8-6&keywords=tedium
p6
aVhttps://www.amazon.co.uk/Stainless-Biography-definite-bounded-obituary/dp/B06Y1TXVR6/ref=sr_1_7/259-8693829-5445306?ie=UTF8&qid=1500121047&sr=8-7&keywords=tedium
p7
aVhttps://www.amazon.co.uk/Mousepad-Biography-definite-bounded-obituary/dp/B01N4VY4FE/ref=sr_1_8/259-8693829-5445306?ie=UTF8&qid=1500121047&sr=8-8&keywords=tedium
p8
aVhttps://www.amazon.co.uk/Biography-definite-bounded-history-obituary/dp/B06Y4FZN5M/ref=sr_1_9/259-8693829-5445306?ie=UTF8&qid=1500121047&sr=8-9&keywords=tedium
p9
aVhttps://www.amazon.co.uk/Biography-definite-bounded-history-obituary/dp/B01N3BWTNW/ref=sr_1_10/259-8693829-5445306?ie=UTF8&qid=1500121047&sr=8-10&keywords=tedium
p10
aVhttps://www.amazon.co.uk/Biography-definite-bounded-history-obituary/dp/B072Y2PHQD/ref=sr_1_11/259-8693829-5445306?ie=UTF8&qid=1500121047&sr=8-11&keywords=tedium
p11
aVhttps://www.amazon.co.uk/dp/B073XQ7Q74/ref=sr_1_12/259-8693829-5445306?ie=UTF8&qid=1500121047&sr=8-12&keywords=tedium
p12
aVhttps://www.amazon.co.uk/Waiting-Birdy-Frantic-Neurotic-Growing/dp/0143034774/ref=sr_1_13/259-8693829-5445306?ie=UTF8&qid=1500121047&sr=8-13&keywords=tedium
p13
aVhttps://www.amazon.co.uk/Swallows-Amazons-Rafe-Spall/dp/B01MRI7HD4/ref=sr_1_14/259-8693829-5445306?ie=UTF8&qid=1500121047&sr=8-14&keywords=tedium
p14
aVhttps://www.amazon.co.uk/Dear-Universe-Schmoozing-universe-ecstatic-ebook/dp/B071VHFC1Z/ref=sr_1_15/259-8693829-5445306?ie=UTF8&qid=1500121047&sr=8-15&keywords=tedium
p15
aVhttps://www.amazon.co.uk/Away-from-Tedium-x/dp/B001F0XKJW/ref=sr_1_16/259-8693829-5445306?ie=UTF8&qid=1500121047&sr=8-16&keywords=tedium
p16
aVhttps://www.amazon.co.uk/Biography-definite-bounded-history-obituary/dp/B06Y6CTD26/ref=sr_1_17/259-8693829-5445306?ie=UTF8&qid=1500121050&sr=8-17&keywords=tedium
p17
aVhttps://www.amazon.co.uk/Day-Guitar-Workout-Region-NTSC/dp/B000783A8Y/ref=sr_1_18/259-8693829-5445306?ie=UTF8&qid=1500121050&sr=8-18&keywords=tedium
p18
aVhttps://www.amazon.co.uk/Photo-Jigsaw-Puzzle-Allegory-pastel/dp/B01N3OYANZ/ref=sr_1_19/259-8693829-5445306?ie=UTF8&qid=1500121050&sr=8-19&keywords=tedium
p19
aVhttps://www.amazon.co.uk/dp/B01NH5QZP9/ref=sr_1_20/259-8693829-5445306?ie=UTF8&qid=1500121050&sr=8-20&keywords=tedium
p20
aVhttps://www.amazon.co.uk/Biography-definite-bounded-history-obituary/dp/B06XY9T9KX/ref=sr_1_21/259-8693829-5445306?ie=UTF8&qid=1500121050&sr=8-21&keywords=tedium
p21
aVhttps://www.amazon.co.uk/Koly-Combination-Wall-Stickers-Decoration/dp/B01BEKTOBA/ref=sr_1_22/259-8693829-5445306?ie=UTF8&qid=1500121050&sr=8-22&keywords=tedium
p22
aVhttps://www.amazon.co.uk/Wheezing-Tedium-in-F-minor/dp/B007KKLMGE/ref=sr_1_23/259-8693829-5445306?ie=UTF8&qid=1500121050&sr=8-23&keywords=tedium
p23
aVhttps://www.amazon.co.uk/Biography-definite-bounded-history-obituary/dp/B072XXVNZW/ref=sr_1_24/259-8693829-5445306?ie=UTF8&qid=1500121050&sr=8-24&keywords=tedium
p24
aVhttps://www.amazon.co.uk/Warhammer-40-000-Dawn-Game/dp/B000AHB1G0/ref=sr_1_25/259-8693829-5445306?ie=UTF8&qid=1500121050&sr=8-25&keywords=tedium
p25
aVhttps://www.amazon.co.uk/Tedium-Troopers-Phantasmagoria-Sunny-Francis-ebook/dp/B016VST0T6/ref=sr_1_26/259-8693829-5445306?ie=UTF8&qid=1500121050&sr=8-26&keywords=tedium
p26
aVhttps://www.amazon.co.uk/Native-Tongue-Mandarin-Madness-Chinese/dp/B006TKI0LQ/ref=sr_1_27/259-8693829-5445306?ie=UTF8&qid=1500121050&sr=8-27&keywords=tedium
p27
aVhttps://www.amazon.co.uk/Boxer-Gifts-Diet-Cheating-Mints/dp/B00JFXGFQQ/ref=sr_1_28_a_it/259-8693829-5445306?ie=UTF8&qid=1500121050&sr=8-28&keywords=tedium
p28
aVhttps://www.amazon.co.uk/Tony-Manero-Alfredo-Castro/dp/B073PHG2NN/ref=sr_1_29/259-8693829-5445306?ie=UTF8&qid=1500121050&sr=8-29&keywords=tedium
p29
aVhttps://www.amazon.co.uk/Boregasm-Adults-Hoodie-Maroon-White/dp/B072F3CC6R/ref=sr_1_30/259-8693829-5445306?ie=UTF8&qid=1500121050&sr=8-30&keywords=tedium
p30
aVhttps://www.amazon.co.uk/dp/B073XQ1YLF/ref=sr_1_31/259-8693829-5445306?ie=UTF8&qid=1500121050&sr=8-31&keywords=tedium
p31
aVhttps://www.amazon.co.uk/Free-verse-haiku-Eternal-tedium-ebook/dp/B00HQAV51U/ref=sr_1_32/259-8693829-5445306?ie=UTF8&qid=1500121050&sr=8-32&keywords=tedium
p32
a.