(lp0
Vhttp://www.ebay.com/itm/Towards-Understanding-The-Quran-An-Abridge-Version-Pocket-Size-/151741013590?hash=item2354781e56:g:bPAAAOSwgQ9VnnaI
p1
aVhttp://www.ebay.com/itm/pictoric-case-cover-fits-htc-one-m8-abridge-Silicone-/252263500608?epid=888105772&hash=item3abc138b40:g:Xr4AAOSwUV9Wo6a5
p2
aVhttp://www.ebay.com/itm/pictoric-case-cover-fits-htc-one-m8-abridge-Silicone-/252263500608?epid=888105772&hash=item3abc138b40:g:Xr4AAOSwUV9Wo6a5
p3
a.