(lp1
Vhttp://www.ebay.com/itm/DC-COMICS-MULTIVERSE-SUICIDE-SQUAD-6-ACTION-FIGURE-COLLECTOR-TOYS-/391705533211?var=&epid=758462506&hash=item5b33781b1b:m:mZtysZmEnX91WNvbteAB_4g
p2
aVhttp://www.ebay.com/itm/DC-COMICS-SUICIDE-SQUAD-DEADSHOT-NEW-52-ACTION-FIGURE-/391519730792?epid=1027681680&hash=item5b2864fc68:g:eQkAAOSwc-tY52Um
p3
aVhttp://www.ebay.com/itm/Dope-Bae-Watch-Return-to-Squad-American-Apparel-style-Swimsuit-One-Piece-/252811300108?var=&hash=item3adcba4d0c:m:mpMfndqEa73wu1FNvuXr1dQ
p4
aVhttp://www.ebay.com/itm/METALS-DIE-CAST-SUICIDE-SQUAD-HARLEY-QUINN-6-INCH-FIGURE-JADA-/391746409893?epid=689667061&hash=item5b35e7d5a5:g:swIAAOSwA29Y5Ppo
p5
aVhttp://www.ebay.com/itm/Suicide-Squad-HARLEY-QUINN-Suicide-Edition-Action-Figure-H1-/222573995044?hash=item33d271a424:g:qQQAAOSwX9FZDyt6
p6
aVhttp://www.ebay.com/itm/8-Mopeez-Suicide-Squad-The-Joker-Plush-Action-Figure-Collectible-Kid-Toy-Doll-/332195166880?epid=701098171&hash=item4d585ffaa0:g:iUcAAOSwFV9XxF0y
p7
aVhttp://www.ebay.com/itm/FUNKO-POP-Movie-Suicide-Squad-Harley-Quinn-Vinyl-Bobble-Figure-Doll-Toys-Gift-/122295296055?var=&hash=item1c795e2037:m:mIYJFgd0JIdpD_CYH3dOzgg
p8
aVhttp://www.ebay.com/itm/Marvel-Super-Hero-Squad-Figure-Goblin-New-Loose-Hasbro-GMT109-/171330688708?hash=item27e41ad6c4:g:cMcAAOxyCTtTdLgF
p9
aVhttp://www.ebay.com/itm/Marvel-Super-Hero-Squad-Figure-Spiderman-New-Loose-Hasbro-GMT118-/151303591383?hash=item233a6595d7:g:7s4AAOxyZzlTdLhn
p10
aVhttp://www.ebay.com/itm/FUNKO-POP-Suicide-Squad-Movie-Harley-Quinn-Vinyl-Bobble-Figure-Toys-Xmas-Gift-UK-/311798667347?var=&hash=item4898a61853:m:m6m_YhaNzaEPtl6-pAC_oHA
p11
aVhttp://www.ebay.com/itm/DC-Comics-DNV50-Multiverse-Suicide-Squad-Harley-Quinn-Figure-Free-Post-/162441749041?epid=1082558204&hash=item25d2486231:g:LAUAAOSwHgBZbx94
p12
aVhttp://www.ebay.com/itm/Suicide-Squad-Movie-Joker-Head-Knocker-Official-DC-Comics-Bobble-Head-/182579621362?epid=534490510&hash=item2a8297edf2:g:BYcAAOSwtGlZHJEo
p13
aVhttp://www.ebay.com/itm/Suicide-Squad-6-Batman-Figure-/182630553192?hash=item2a85a11668:g:vyMAAOSw~rpZSlWA
p14
aVhttp://www.ebay.com/itm/playskool-heroes-marvel-super-hero-squad-select-your-figure-/122341747978?var=&hash=item1c7c22ed0a:m:m84PjHQudmhkAqGuC7ZGGfg
p15
aVhttp://www.ebay.com/itm/FUNKO-SUICIDE-SQUAD-UNDERWATER-BATMAN-3-75-ACTION-FIGURE-/162483567925?epid=591159365&hash=item25d4c67d35:g:JtQAAOSwJ4hY-RG5
p16
aVhttp://www.ebay.com/itm/GOTHAM-CITY-GARAGE-HARLEY-QUINN-STATUE-DC-COMICS-COLLECTIBLES-SUICIDE-SQUAD-/152541296307?epid=1453035619&hash=item23842b76b3:g:Q-oAAOSww9xZEGaj
p17
aVhttp://www.ebay.com/itm/FUNKO-SUICIDE-SQUAD-HARLEY-QUINN-INMATE-3-75-ACTION-FIGURE-/162483573564?epid=786043695&hash=item25d4c6933c:g:088AAOSwE0JY-RMr
p18
aVhttp://www.ebay.com/itm/FUNKO-SUICIDE-SQUAD-KILLER-CROC-3-75-ACTION-FIGURE-/162483569788?epid=16005227545&hash=item25d4c6847c:g:seUAAOSwE0JY-RI5
p19
aVhttp://www.ebay.com/itm/FUNKO-SUICIDE-SQUAD-THE-JOKER-SHIRTLESS-3-75-ACTION-FIGURE-/162483571129?hash=item25d4c689b9:g:IxwAAOSwSypY-RKN
p20
aVhttp://www.ebay.com/itm/METALS-DIE-CAST-SUICIDE-SQUAD-JOKER-BOSS-6-INCH-FIGURE-JADA-/371911943343?epid=730663878&hash=item5697ade4af:g:J0gAAOSwc-tY5Ppi
p21
aVhttp://www.ebay.com/itm/DC-COMICS-MULTIVERSE-SUICIDE-SQUAD-KATANA-FIGURE-MOC-CROC-BAF-NEW-MATTEL-/382029983974?hash=item58f2c2f0e6:g:7QYAAOSwTM5Y459R
p22
aVhttp://www.ebay.com/itm/Imaginext-Marvel-Super-Hero-Squad-Playskool-Heroes-Action-Figures-Free-UK-P-P-/162301573168?var=&hash=item25c9ed7830:m:mXKzBa6kh6-n4i9xGltn7xw
p23
aVhttp://www.ebay.com/itm/Mattel-DC-Multiverse-12-inch-Figure-Suicide-Squad-Joker-Brand-New-/311913603960?epid=522436294&hash=item489f7fe378:g:xtsAAOSwol5Y2Rci
p24
aVhttp://www.ebay.com/itm/Marvel-Super-Hero-Squad-Figure-Iron-Man-New-Loose-Hasbro-GMT40-/161110184714?hash=item2582ea530a:g:oogAAOxysJxSO0dP
p25
aVhttp://www.ebay.com/itm/BRAND-NEW-12-MARVEL-PLUSH-SOFT-TOY-IRON-MAN-CHARACTER-SUPERHERO-SQUAD-TOY-/351324817473?hash=item51cc974841:g:EwIAAOSwU9xUPmxo
p26
aVhttp://www.ebay.com/itm/New-FUNKO-POP-Suicide-Squad-Movie-Harley-Quinn-Vinyl-Bobble-Figure-Toys-Gift-UK-/252800770536?var=&hash=item3adc19a1e8:m:mBF5e8or94KcEtUGbDluYWQ
p27
aVhttp://www.ebay.com/itm/SUICIDE-SQUAD-INMATE-HARLEY-ACTION-FIGURE-NEW-BOXED-/322506796940?hash=item4b16e72f8c:g:QlYAAOSwhvFZDXjg
p28
aVhttp://www.ebay.com/itm/MARVEL-Super-Hero-Squad-Mini-Figures-Hasbro-Thor-/232227587338?epid=540857763&hash=item3611d7c50a:g:rQoAAOSwnHZYlF3f
p29
aVhttp://www.ebay.com/itm/Womens-Beach-Pool-Party-Wear-Wrap-Split-Long-Maxi-Dress-Skirt-Kimono-Chiffon-UK-/332157400966?var=&hash=item4d561fb786:m:mY61gIyS4fEk6zXjJY4Yx3Q
p30
aVhttp://www.ebay.com/itm/DC-Comics-DNV50-Multiverse-Suicide-Squad-Harley-Quinn-Figure-Doll-Toy-/381948125146?epid=1082558204&hash=item58ede1dfda:g:YdYAAOSwNnRYk14M
p31
aVhttp://www.ebay.com/itm/Suicide-Squad-Harley-Quinn-10-Inch-Plush-Figure-/172335917890?epid=545079395&hash=item2820056b42:g:nI8AAOSwgmJX0py-
p32
aVhttp://www.ebay.com/itm/Marvel-Super-Hero-Squad-Figure-Spiderman-New-Loose-Hasbro-GMT116-/161307292324?hash=item258ea9f2a4:g:clIAAMXQh8NTdLhZ
p33
aVhttp://www.ebay.com/itm/Imaginext-Marvel-Super-Hero-Squad-Playskool-Heroes-Action-Figures-Free-UK-P-P-/162301573168?var=&hash=item25c9ed7830:m:mXKzBa6kh6-n4i9xGltn7xw
p34
aVhttp://www.ebay.com/itm/COSBABY-SUICIDE-SQUAD-THE-JOKER-KEYCHAIN-HOT-TOYS-/391780078541?epid=855269602&hash=item5b37e993cd:g:D5UAAOSwfpVZEyU5
p35
aVhttp://www.ebay.com/itm/DC-Super-Hero-Girls-Harley-Quinn-6-Inch-Action-Figure-Doll-suicide-squad-joker-/142406366559?epid=2055831241&hash=item212814b55f:g:NmIAAOSwblZZNny7
p36
aVhttp://www.ebay.com/itm/Super-Hero-Squad-Spider-man-Sentry-Figures-Toys-UK-Seller-/112041737359?epid=1925187813&hash=item1a16353c8f:g:fKYAAOSwEjFXcvnz
p37
aVhttp://www.ebay.com/itm/DC-Comics-Suicide-Squad-Die-Cast-Metals-4-Figures-The-Joker-Boss-Harley-Quinn-/361856441221?epid=645921319&hash=item5440531b85:g:YtAAAOSwIgNXnGLE
p38
aVhttp://www.ebay.com/itm/DC-Comics-Multiverse-Toy-Suicide-Squad-Collectable-Harley-Quinn-12-Inch-Delu-/222538861479?epid=1082558204&hash=item33d0598ba7:g:xEUAAOSwHLNZOQBR
p39
aVhttp://www.ebay.com/itm/NECA-2-Scalers-Suicide-Squad-Set-of-3-/322298580371?hash=item4b0a7e0d93:g:GuoAAOSw8w1YBnyZ
p40
aVhttp://www.ebay.com/itm/Marvel-Super-Hero-Squad-Spider-Man-Ronan-/252213721325?epid=1205448230&hash=item3ab91bf8ed:g:jV8AAOSwG-1W0thc
p41
aVhttp://www.ebay.com/itm/DC-Comics-Suicide-Squad-Pop-Vinyl-Figure-Killer-Croc-BRAND-NEW-/361627184503?epid=1274033028&hash=item5432a8ed77:g:dIQAAOSwuzRXd-5H
p42
aVhttp://www.ebay.com/itm/BRAND-NEW-8-MARVEL-PLUSH-SOFT-TOY-IRON-MAN-CHARACTER-SUPERHERO-SQUAD-TOY-/131322808425?hash=item1e93730869:g:EwIAAOSwU9xUPmxo
p43
aVhttp://www.ebay.com/itm/DC-Comics-Multiverse-Suicide-Squad-Harley-Quinn-Figure-Doll-Collectible-Toy-Sale-/122558215401?epid=1082558204&hash=item1c8909f4e9:g:3ecAAOSwSzRZSg7U
p44
aVhttp://www.ebay.com/itm/METALS-DIE-CAST-SUICIDE-SQUAD-JOKER-BOSS-PURPLE-JACKET-2-5-INCH-FIGURE-/391821824464?hash=item5b3a6691d0:g:nV4AAOSwuLZY449A
p45
aVhttp://www.ebay.com/itm/Suicide-Squad-POP-Heroes-Vinyl-Figure-The-Joker-Tuxedo-9cm-/322278738789?hash=item4b094f4b65:g:YmkAAOSwPCVX7sGl
p46
aVhttp://www.ebay.com/itm/Suicide-Squad-POP-Heroes-Vinyl-Figure-The-Joker-Tuxedo-9-cm-FUNKO-BATMAN-/112303378399?epid=1576696064&hash=item1a25cd8fdf:g:biUAAOSw8w1X2Wqy
p47
aVhttp://www.ebay.com/itm/DC-Multiverse-Suicide-Squad-Deadshot-6-Inch-Action-Figure-Mattel-Official-/291827891928?epid=1779266790&hash=item43f24c3ed8:g:yy0AAOSwTZ1Xlh4a
p48
aVhttp://www.ebay.com/itm/DC-Multiverse-Suicide-Squad-Deadshot-6-Inch-Action-Figure-Mattel-Official-/291827891928?epid=1779266790&hash=item43f24c3ed8:g:yy0AAOSwTZ1Xlh4a
p49
aVhttp://www.ebay.com/itm/DC-Comics-Suicide-Squad-Pop-Vinyl-Figure-Rick-Flag-BRAND-NEW-/311648276923?epid=1374199612&hash=item488faf51bb:g:r7sAAOSwuzRXd--y
p50
aVhttp://www.ebay.com/itm/Harley-Quinn-Suicide-Squad-Movie-Head-Knocker-Official-DC-Comics-Bobble-Figure-/182579617141?epid=533490254&hash=item2a8297dd75:g:oqkAAOSw0hlZHJCG
p51
aVhttp://www.ebay.com/itm/COSBABY-SUICIDE-SQUAD-HARLEY-QUINN-WITH-HAMMER-KEYCHAIN-HOT-TOYS-/371946297799?hash=item5699ba19c7:g:N2UAAOSwtGlZEyEE
p52
aVhttp://www.ebay.com/itm/DC-SUICIDE-SQUAD-CRAZY-TOYS-HARLEY-QUINN-12-SCALE-COLLECTIBLE-FIGURE-PVC-STATUE-/112306423817?hash=item1a25fc0809:g:0CUAAOSwWxNYpqIr
p53
aVhttp://www.ebay.com/itm/Marvel-Comics-POP-Vinyl-Bobble-Head-Figure-Stingray-Deadpool-Rainbow-Squad-/112216230032?epid=1790743209&hash=item1a209bc890:g:A~kAAOSwHMJYOF0z
p54
aVhttp://www.ebay.com/itm/BRAND-NEW-5-MARVEL-BAG-CLIP-PLUSH-SOFT-TOY-NEW-HULK-SUPERHERO-SQUAD-TOY-/351758904906?hash=item51e676ee4a:g:BWcAAOSw3YNXYBKI
p55
aVhttp://www.ebay.com/itm/Suicide-Squad-Joker-10-Inch-Plush-Figure-/182274791779?epid=1283147864&hash=item2a706c9963:g:qpQAAOSwFdtX0p3w
p56
aVhttp://www.ebay.com/itm/Suicide-Squad-Joker-10-Inch-Plush-Figure-/182274791779?epid=1283147864&hash=item2a706c9963:g:qpQAAOSwFdtX0p3w
p57
aVhttp://www.ebay.com/itm/COSBABY-SUICIDE-SQUAD-HARLEY-QUINN-KEYCHAIN-HOT-TOYS-/371946297903?epid=855477739&hash=item5699ba1a2f:g:i3gAAOSwuMZZEyER
p58
aVhttp://www.ebay.com/itm/BRAND-NEW-5-MARVEL-BAG-CLIP-PLUSH-SOFT-TOY-NEW-SPIDERMAN-SUPERHERO-SQUAD-TOY-/371655603120?hash=item56886673b0:g:MjMAAOSwnNBXYBLE
p59
aVhttp://www.ebay.com/itm/DC-Multiverse-Batman-6-Action-Figure-Suicide-Squad-/322243242812?hash=item4b0731ab3c:g:1bQAAOSwawpXwrrD
p60
aVhttp://www.ebay.com/itm/NEW-MARVEL-SUPER-HERO-SQUAD-26CM-IRON-MAN-SOFT-PLUSH-TOY-/181134400305?epid=1205452511&hash=item2a2c739b31:g:tnQAAOSwuwRYLYf1
p61
aVhttp://www.ebay.com/itm/Suicide-Squad-3D-Blu-ray-Extended-Cut-2D-Blu-Ray-Italian-Edition-New-/162546399630?hash=item25d885398e:g:gs8AAOSw-89ZOWrT
p62
aVhttp://www.ebay.com/itm/NEW-Harley-Quinn-Doll-DC-Comics-Multiverse-Suicide-Squad-/132185017088?epid=1082558204&hash=item1ec6d74b00:g:d-IAAOSw-3FZD-zc
p63
aVhttp://www.ebay.com/itm/Marvel-Superhero-Squad-Motorbike-Iron-Man-2-/182195078741?hash=item2a6bac4655:g:L5YAAOSwnNBXUzqE
p64
aVhttp://www.ebay.com/itm/Funko-Suicide-Squad-Mopeez-Deadshot-Plush-Figure-/152379533861?epid=1876391025&hash=item237a872a25:g:a0cAAOSwZQRYag75
p65
aVhttp://www.ebay.com/itm/Suicide-Squad-Mystery-Minis-Vinyl-Figure-Blind-Box-Random-ONE-supplied-/351953996227?epid=1675089092&hash=item51f217c9c3:g:srwAAOSw241YdLH-
p66
aVhttp://www.ebay.com/itm/40K-Betrayal-At-Calth-Mark-IV-Space-Marine-Tactical-Squad-4-Horus-Heresy-Legion-/162562803890?hash=item25d97f88b2:g:6ZgAAOSwXYtY0BOc
p67
aVhttp://www.ebay.com/itm/Suicide-Squad-Pocket-POP-Vinyl-Keychain-The-Joker-4-cm-/222177724701?hash=item33bad3091d:g:1CoAAOSwOVpXfBei
p68
aVhttp://www.ebay.com/itm/MARVEL-Super-Hero-Squad-Mini-Figures-Hasbro-Spiderman-/232322318341?epid=540857763&hash=item36177d4005:g:xhcAAOSw0j9ZTQa-
p69
aVhttp://www.ebay.com/itm/SUICIDE-SQUAD-4K-UHD-BLU-RAY-2-DISC-STEELBOOK-EXTENDED-CUT-EDITION-BOX-SET-/222553788286?hash=item33d13d4f7e:g:F2EAAOSwTf9ZVOWv
p70
aVhttp://www.ebay.com/itm/BRAND-NEW-12-MARVEL-PLUSH-SOFT-TOY-THOR-CHARACTER-SUPERHERO-SQUAD-TOY-/131438222526?hash=item1e9a541cbe:g:-TkAAOSwcu5UPmzV
p71
aVhttp://www.ebay.com/itm/Mattel-DC-Comics-Multiverse-Suicide-Squad-Figure-Joker-12-/381769761559?epid=1184391968&hash=item58e3404317:g:3asAAOSwvzRX1y9m
p72
aVhttp://www.ebay.com/itm/Warhammer-40K-30k-Burning-at-Prospero-Tartaros-Terminators-Squad-5-/162582388772?epid=628966504&hash=item25daaa6024:g:F0wAAOSwrddY7p8o
p73
aVhttp://www.ebay.com/itm/BRAND-NEW-5-MARVEL-BAG-CLIP-PLUSH-SOFT-TOY-HULK-CHARACTER-SUPERHERO-SQUAD-TOY-/132090308560?hash=item1ec13227d0:g:BA8AAOSwjVVVyhSp
p74
aVhttp://www.ebay.com/itm/DC-Comics-DNV50-Multiverse-Suicide-Squad-Harley-Quinn-Figure-/252941559817?epid=1081846382&hash=item3ae47de809:g:2PIAAOSw~AVYtsYS
p75
aVhttp://www.ebay.com/itm/DC-Comics-DNV49-Multiverse-Suicide-Squad-Joker-Figure-/112224475061?hash=item1a211997b5:g:uYUAAOSwa~BYQo7j
p76
a.