(lp1
Vhttp://www.ebay.com/itm/TRIDENT-LARGE-SOCKET-TRAY-RACK-RAIL-HOLDS-80-SOCKETS-SHALLOW-DEEP-1-2-3-8-1-4-/172683183867?epid=1045561329&hash=item2834b846fb:g:MXsAAOSwe7BWyc1B
p2
aVhttp://www.ebay.com/itm/Trident-Aegis-Signature-Edition-Stand-Case-Cover-for-Microsoft-Surface-Pro4-New-/331804480900?epid=1551422124&hash=item4d41169584:g:XywAAOSwxu5ZEz2v
p3
aVhttp://www.ebay.com/itm/TRIDENT-DISCOVERY-300m-990ft-Divers-Professional-Diver-Watch-/122424359768?epid=2136102846&hash=item1c810f7b58:g:OiQAAOSwcF9UVh2g
p4
aVhttp://www.ebay.com/itm/99-7027-TRIUMPH-T140-T160-BONNEVILLE-TRIDENT-DISC-BRAKE-MASTER-CYLINDER-BODY-/232337878573?hash=item36186aae2d:m:mbJGkWarWqYgfQCzxioEfjw&vxp=mtr
p5
aVhttp://www.ebay.com/itm/Christopher-Ward-C60-Trident-300-Swiss-watch-43mm-Mk2-42-Quartz-BNIB-new-UK-/272758634426?epid=741599566&hash=item3f81ae77ba:g:xAsAAOSwf~9ZZU1g
p6
aVhttp://www.ebay.com/itm/VANQUEST-TRIDENT-20-Gen-2-Backpack-/272603693754?var=&epid=706177738&hash=item3f787242ba:m:mWoMezqSQn0bdHw-_Pc2oVQ
p7
aVhttp://www.ebay.com/itm/VANQUEST-TRIDENT-31-Backpack-/272735172277?var=&hash=item3f804876b5:m:m0AHmA8F7wiJZNFG5b6Bp6A
p8
aVhttp://www.ebay.com/itm/G-Skill-Trident-Z-RGB-16GB-2X8GB-Dual-Channel-DDR4-3200MHz-PC4-25600-DIMM-/182418230545?hash=item2a78f94d11:g:oWUAAOSwt0FZDXl3
p9
aVhttp://www.ebay.com/itm/3-8-Drive-Extra-Deep-Socket-13mm-80mm-Deep-Trident-T120313-Free-P-P-/122072173943?epid=1382989411&hash=item1c6c118d77:g:tssAAOSwqfNXoy6w
p10
aVhttp://www.ebay.com/itm/3-8-Drive-Impact-Socket-Set-Short-Deep-Extensions-UJ-26pc-Trident-T925010-/112113297866?epid=1182284734&hash=item1a1a7929ca:g:rRYAAOSwFV9XxF5j
p11
aVhttp://www.ebay.com/itm/MSI-Trident-Gaming-VR-PC-Intel-Core-i7-6700-Geforce-GTX-1060-256GB-SSD-Computer-/172709499896?epid=934424681&hash=item283649d3f8:g:yx0AAOSwlY1ZMVQ7
p12
aVhttp://www.ebay.com/itm/Mantic-Games-BNIB-Trident-Realms-Gigas-Regiment-MGKWR401-/351996375611?hash=item51f49e723b:g:a5IAAOSwax5YuZid
p13
aVhttp://www.ebay.com/itm/G-Skill-Trident-Z-RGB-16GB-2X8GB-Dual-Channel-DDR4-2400MHz-PC4-19200-DIMM-/381920459226?hash=item58ec3bb9da:g:oWUAAOSwt0FZDXl3
p14
aVhttp://www.ebay.com/itm/TRIUMPH-T160-TRIDENT-NEW-Rear-Hub-NOS-LFH-Halves-37-4208-37-4206-PCL-/112472083887?hash=item1a2fdbcdaf:g:GCwAAOSwstJZXohZ&vxp=mtr
p15
aVhttp://www.ebay.com/itm/Trident-T244100-Snap-Ring-Pliers-90-Degree-Long-Nose-For-Internal-Circlips-NEW-/182630717010?epid=1023990569&hash=item2a85a39652:g:cq0AAOSw5VFWPNSy
p16
aVhttp://www.ebay.com/itm/60-4401-TRIUMPH-T140-T160-BONNEVILLE-TRIDENT-REAR-DISC-BRAKE-MASTER-CYLINDER-/232388460659?hash=item361b6e8073:m:mEhWXo-6bTZWsvKYDOOG6Mw&vxp=mtr
p17
aVhttp://www.ebay.com/itm/Raw-Authentic-Wooden-Trident-Cigarette-Holder-Carry-Pouch-Bag-/351960309046?epid=2015914839&hash=item51f2781d36:g:3psAAOSwjKFZQu7R
p18
aVhttp://www.ebay.com/itm/6x-M8-Stainless-Steel-Exhaust-Studs-Flange-Nuts-Triumph-885-Engine-Trident-etc-/371321959036?epid=1488753441&hash=item567483727c:g:WukAAOSw6BtVSyea&vxp=mtr
p19
aVhttp://www.ebay.com/itm/Triumph-Classic-Bonneville-T120-Trident-Spitfire-Telo-Copri-Moto-Interni-Polvere-/262904018069?hash=item3d364cf495:m:mnH-WhvNqsYxacNeglHEikw&vxp=mtr
p20
aVhttp://www.ebay.com/itm/32mm-Crowfoot-Wrench-1-2-Drive-Open-End-Trident-T214132-/122105746447?epid=1182205524&hash=item1c6e11d40f:g:pSwAAOSwFV9XxDOp
p21
aVhttp://www.ebay.com/itm/Trident-CY-MSSFP3-BK000-Cyclops-Stand-Case-Cover-for-Microsoft-Surface-Pro3-New-/222027949386?epid=1737885894&hash=item33b1e5a54a:g:7GoAAOSwY3BZEzL8
p22
aVhttp://www.ebay.com/itm/Canvas-Print-Wall-Art-Game-Of-Thrones-Battle-Of-The-Trident-30-inch-x-16-inch-/302244731841?hash=item465f309bc1:g:S5UAAOSwrklVW4h9
p23
aVhttp://www.ebay.com/itm/EAST-LANCS-PRESTON-BUS-OM42521B-DENNIS-TRIDENT-NOOK-1-76-CORGI-ORIGINAL-OMNIBUS-/201412429612?epid=1247410776&hash=item2ee51dc72c:g:tgMAAOSwPcVV2BQY
p24
aVhttp://www.ebay.com/itm/G-Skill-Trident-Z-RGB-32GB-4X8GB-Quad-Channel-DDR4-3200MHz-PC4-25600-DIMM-/381920467968?hash=item58ec3bdc00:g:vYcAAOSwAPVZMSze
p25
aVhttp://www.ebay.com/itm/Inflight500-British-Airways-Trident-3B-1-500-BEA-Hybrid-G-AWZZ-/162593064129?hash=item25db4d44c1:g:SP8AAOSwqVBZasEC
p26
aVhttp://www.ebay.com/itm/840-TRIUMPH-TRIDENT-T150-750cc-1968-75-COMPLETE-GASKET-SET-/231686150735?hash=item35f1921a4f:m:m91QTVhd016BfAlszMNK3-A&vxp=mtr
p27
aVhttp://www.ebay.com/itm/Trident-180-Helps-Reduce-Dart-Deflections-/111026901136?var=&epid=1941999597&hash=item19d9b81090:m:mUsImDqfUJm8Ncg8j0bdY2g
p28
aVhttp://www.ebay.com/itm/Raygun-Silencers-BSA-Rocket-3-A75-Triumph-Trident-T150-T160-70-9036-7-/252295284899?hash=item3abdf888a3:g:6DoAAOSwKtVWyhgg&vxp=mtr
p29
aVhttp://www.ebay.com/itm/Triumph-Sprint-900-Trident-1995-EBC-Clutch-Plate-Set-/301859694864?hash=item46483d6910:g:xmMAAOSw5cRZNLhF&vxp=mtr
p30
aVhttp://www.ebay.com/itm/TRIDENT-CINNAMON-SUGAR-FREE-CHEWING-GUM-Pack-of-12-CASE-BUY-18-PCS-PER-PACK-/152395255354?epid=1904168173&hash=item237b770e3a:g:BBQAAOSwOdpXyYNg
p31
aVhttp://www.ebay.com/itm/839-TRIUMPH-750cc-1975-77-T160V-TRIDENT-GASKET-SET-/232348852532?hash=item3619122134:m:mDs1XFQSGmjhm8iaDyr-jLQ&vxp=mtr
p32
aVhttp://www.ebay.com/itm/Trident-26pc-Impact-Socket-Set-3-8-Dr-Standard-Deep-with-Extensions-and-U-J-/332075529889?epid=1182284734&hash=item4d513e76a1:g:TnsAAOSw9GhYZNS4
p33
aVhttp://www.ebay.com/itm/G-Skill-Trident-Z-RGB-16GB-2X8GB-Dual-Channel-DDR4-4133MHz-PC4-33000-DIMM-/112265586699?hash=item1a238ce80b:g:oWUAAOSwt0FZDXl3
p34
aVhttp://www.ebay.com/itm/Givenchy-Men-s-Obsedia-Star-Trident-Embossed-Leather-Backpack-Black-Brand-New-/152322120832?epid=2073565507&hash=item23771b1c80:g:8tYAAOSwux5YLk8t
p35
aVhttp://www.ebay.com/itm/MINI-COUNTRYMAN-BONNET-BOOT-STRIPES-2-COLOUR-COOPER-TRIDENT-VINYL-DECAL-013-/253025812362?hash=item3ae9837f8a:g:Yx0AAOSwFJBZWluA
p36
aVhttp://www.ebay.com/itm/Triumph-Tuning-Stan-Shenton-Triumph-500-650-Bonneville-Tiger-100-Trident-/311868131946?hash=item489cca0a6a:g:pP0AAOSwRLZT8krs
p37
aVhttp://www.ebay.com/itm/New-Greek-mythology-Poseidon-Trident-Necklace-Pendant-silver-steel-Metal-/302221746099?hash=item465dd1dfb3:g:OaUAAOSwax5Ynx1g
p38
aVhttp://www.ebay.com/itm/Triumph-Trident-1991-onwards-handle-Bar-risers-/172545744407?hash=item282c871e17:g:1O4AAOSwNRdX76cD&vxp=mtr
p39
aVhttp://www.ebay.com/itm/Dual-Seat-Triumph-T120-Bonneville-T150-Trident-1969-70-82-9714-UK-Made-/131296743442?hash=item1e91e55012:g:6ZEAAOSwc-tY3Opz&vxp=mtr
p40
aVhttp://www.ebay.com/itm/G-Skill-Trident-Z-RGB-16GB-2X8GB-Dual-Channel-DDR4-3600MHz-PC4-28800-DIMM-/182418234778?hash=item2a78f95d9a:g:oWUAAOSwt0FZDXl3
p41
aVhttp://www.ebay.com/itm/G-Skill-Trident-Z-16GB-4X4GB-Quad-Channel-DDR4-3600MHz-PC4-28800-DIMM-Desktop-/181927536260?hash=item2a5bb9e684:g:T6sAAOSwo0JWQNf0
p42
aVhttp://www.ebay.com/itm/New-Ignition-Coil-Triumph-900-Sprint-Trident-Sprint-Sprint-Sport-Copy-of-PVL-/301724648719?hash=item464030c50f:g:61oAAOSwezVWvIOg&vxp=mtr
p43
aVhttp://www.ebay.com/itm/Triumph-Bonneville-Trident-Footrest-Rubber-82-9279-/151800966353?hash=item23580aecd1:g:jIwAAOSwc-tY3OhC&vxp=mtr
p44
aVhttp://www.ebay.com/itm/Trident-AGSMSCARP-BK0-Aegis-Signature-Edition-Case-For-Microsoft-Surface-Pro4-/121898491855?epid=1551422124&hash=item1c61b75fcf:g:JbAAAOSwGotWmMbK
p45
aVhttp://www.ebay.com/itm/G-Skill-Trident-Z-32GB-4X8GB-Quad-Channel-DDR4-3400MHz-PC4-27200-DIMM-Desktop-/181857778402?hash=item2a57917ae2:g:T6sAAOSwo0JWQNf0
p46
aVhttp://www.ebay.com/itm/Mantic-Games-BNIB-Trident-Realms-Riverguard-Captain-MGKWR201-/311814848562?hash=item48999d0032:g:6hAAAOSwuxFYuZNb
p47
aVhttp://www.ebay.com/itm/Ultimate-PC-Trident-X-Fast-3-7GHz-Quad-Core-1TB-8GB-GT710-Dedicated-Graphic-/272571153521?hash=item3f7681bc71:g:eW0AAOSw9GhYjm~b
p48
aVhttp://www.ebay.com/itm/Maserati-Trident-keyring-keychain-porte-cles-Schlusselanhanger-gift-GT-/172136228611?hash=item28141e6703:g:JyYAAOSwAL9Uenyi
p49
aVhttp://www.ebay.com/itm/Trident-T111600-5-Point-Inviolable-Torx-De-Securite-9pc-Prise-Set-1-4-Moteur-/322480198850?hash=item4b155154c2:g:Q3cAAOSwopRYYmui
p50
aVhttp://www.ebay.com/itm/Trident-Wrench-Rack-Spanner-Organizer-2-Piece-Set-/182163777293?epid=1533765076&hash=item2a69cea70d:m:meGbO_qyPBwEfSeGOEbFl-w
p51
aVhttp://www.ebay.com/itm/Ultimate-PC-Trident-X-Fast-3-7GHz-Dual-Core-500GB-8GB-Desktop-Computer-/252972458700?hash=item3ae65562cc:g:W2AAAOSw-0xYOITi
p52
aVhttp://www.ebay.com/itm/GENUINE-LUCAS-WIRING-HARNESS-TRIUMPH-TRIDENT-T150-1969-70-MADE-IN-UK-LU54954246-/182389279193?epid=2084976232&hash=item2a773f89d9:g:80cAAOSwknJX0n89&vxp=mtr
p53
aVhttp://www.ebay.com/itm/Mantic-Games-Kings-of-War-BNIB-Trident-Realm-Thuul-Troop-MGKWR301-/391746509878?hash=item5b35e95c36:g:4TIAAOSw3utY5RnZ
p54
aVhttp://www.ebay.com/itm/F-Resin-Plastic-1-144-Trident-3B-BEA-FRP4034-/332219313836?hash=item4d59d06eac:g:I~EAAOSwlMFZFvfs
p55
aVhttp://www.ebay.com/itm/Neptune-Silver-Nipple-Bars-Trident-Nipple-Piercing-Nipple-Rings-14G-Nipple-Bar-/122403261635?hash=item1c7fcd8cc3:g:rb4AAOSwWxNYyVTu
p56
aVhttp://www.ebay.com/itm/Air-Filter-Box-Suitable-for-Triumph-T160-Trident-1975-76-/391658710506?hash=item5b30ada5ea:g:3jkAAOSwn-tZHIeI&vxp=mtr
p57
aVhttp://www.ebay.com/itm/60-4102-TRIUMPH-T140-BONNEVILLE-T160-TRIDENT-1973-78-DISC-BRAKE-MASTER-CYLINDER-/252993295440?epid=2060337587&hash=item3ae7935450:g:GggAAOSwMgdXw9s~&vxp=mtr
p58
aVhttp://www.ebay.com/itm/Mach-2-1-72-S-O-9050-Trident-0972-/322475258804?hash=item4b1505f3b4:g:~0QAAOSwuLZY5gQ6
p59
aVhttp://www.ebay.com/itm/TRIUMPH-T150-T160-TRIDENT-BSA-CLUTCH-RETAINING-PLATE-TAB-WASHER-SET-57-3941-/252747404394?epid=1258888400&hash=item3ad8eb546a:g:4swAAOSw4DJYj0x~&vxp=mtr
p60
aVhttp://www.ebay.com/itm/Trident-2-stamp-album-containing-100-fine-quality-cartridge-leaves-/401086714907?var=&hash=item5d62a1941b:m:m1fk5euAFQrZbe1m3RoUbdQ
p61
aVhttp://www.ebay.com/itm/BSA-norton-triumph-Lenker-Gummigriffe-Beston-A65-Commando-Tiger-Trident-/142420324397?epid=2002448036&hash=item2128e9b02d:g:nd8AAMXQhuVRQLx0&vxp=mtr
p62
aVhttp://www.ebay.com/itm/New-Triumph-900-Trident-Sprint-Sprint-Executive-Gear-Change-Rubber-/291348097257?epid=1942890489&hash=item43d5b328e9:g:an4AAOSw14xWQiOV&vxp=mtr
p63
aVhttp://www.ebay.com/itm/Plastic-Devil-Fork-Trident-in-4-Pieces-Halloween-Fancy-Dress-Accessory-1-1m-long-/263076827001?epid=1850105796&hash=item3d4099cf79:g:WdYAAOSwAANY66f6
p64
aVhttp://www.ebay.com/itm/Trident-T212520-Extra-Long-Flat-Ring-Spanner-20mm-x-21mm-Length-415mm-/220865854254?epid=1736846014&hash=item336ca17b2e:g:QJsAAOSw6DtYRwO1
p65
aVhttp://www.ebay.com/itm/Trident-T452333-Chiave-A-Tubo-Per-Dado-Mozzo-33mm-Profondo-VW-Golf-Asse-Ant-/322366634304?hash=item4b0e8c7940:g:SqgAAOSw~gRVtUOS
p66
aVhttp://www.ebay.com/itm/Triumph-Trident-750-900-Footrest-Rubbers-Sold-as-a-Pair-OE-Quality-NEW-/291804531988?hash=item43f0e7cd14:g:nAAAAOSwB09YIc-N&vxp=mtr
p67
aVhttp://www.ebay.com/itm/GENUINE-Alchemy-Gothic-Necklace-Black-Trinity-Trident-Mens-Fashion-Pendant-/221659594510?epid=1524703042&hash=item339bf0ff0e:g:X7AAAOSwdG9XRcLf
p68
aVhttp://www.ebay.com/itm/Triumph-Trident-900-Mikuni-Carburettor-Super-Rebuild-Kit-Set-of-3-/291995638669?hash=item43fc4bdb8d:g:M9QAAOSwImRYc2rF&vxp=mtr
p69
aVhttp://www.ebay.com/itm/Triumph-Trident-900-Light-Unit-Latest-Style-Diamond-Reflector-Symmetrical-Dip-/302151474836?epid=2085771754&hash=item4659a19e94:g:1EEAAOSwHMJYPEb6&vxp=mtr
p70
aVhttp://www.ebay.com/itm/Trident-Wrench-Rack-Spanner-Organizer-2Piece-Set-/310115520468?epid=1342467346&hash=item4834534fd4:m:meGbO_qyPBwEfSeGOEbFl-w
p71
aVhttp://www.ebay.com/itm/Trident-Genuine-Black-Aegis-Signature-Edition-Case-for-Microsoft-Surface-Pro4-/272336689080?epid=1551422124&hash=item3f688817b8:g:TkgAAOSwHoFXseoC
p72
aVhttp://www.ebay.com/itm/MASERATI-Trident-Logo-Classic-Car-STICKERS-50mm-Set-of-4-Race-Racing-Shaped-/400088587904?epid=1388191254&hash=item5d27235e80:g:DOgAAOxypNtSjihy
p73
aVhttp://www.ebay.com/itm/Triumph-Trophy-Tiger-Trident-Sprint-900-1200-1991-2004-Haynes-Manual-2162-NEW-/401317178767?hash=item5d705e2d8f:g:ZyQAAOSwcUBYQVTb
p74
aVhttp://www.ebay.com/itm/BLACK-LEATHER-BUND-STRAP-FOR-CHRISTOPHER-WARD-TRIDENT-PILOT-PRO-WATCH-20mm-22mm-/162346149209?var=&hash=item25cc95a559:m:mLTc6-KhRxIAtzKtPbQb_Zg
p75
aVhttp://www.ebay.com/itm/Trident-tools-T251301-spot-weld-chisel-only-5mm-thick-great-for-panel-splitting-/172566052686?epid=1422982561&hash=item282dbcff4e:g:-qEAAOSwxN5WUDhN
p76
aVhttp://www.ebay.com/itm/TRIDENT-TOOLS-14mm-3-8-dr-BMW-Mini-thin-walled-spark-plug-socket-NGK-R5-T322200-/182544919499?epid=809294730&hash=item2a80866bcb:g:ZX4AAOxyfuZR0TU9
p77
aVhttp://www.ebay.com/itm/TRIUMPH-T160-TRIDENT-CLUTCH-INSPECTION-COVER-57-4911-/261953497057?hash=item3cfda527e1:g:xv0AAOSwpdpVbujZ&vxp=mtr
p78
aVhttp://www.ebay.com/itm/Seat-Cover-for-Triumph-Bonneville-T120-Trident-T150-T100-1968-1970-/131041087414?hash=item1e82a84fb6:g:-sYAAMXQBlJR-ZFc&vxp=mtr
p79
aVhttp://www.ebay.com/itm/Gothic-Demon-Skull-Fork-Devil-Trident-/182448448117?epid=1440217287&hash=item2a7ac66275:g:SeEAAOSwopRYmwUn
p80
aVhttp://www.ebay.com/itm/Trident-10-Piece-3-8-dr-Standard-Impact-Universal-Joint-Socket-Set-10-19-T922700-/231527897660?hash=item35e8235a3c:g:POgAAOSwNSxVJtbP
p81
aVhttp://www.ebay.com/itm/Mantic-Games-BNIB-Trident-Realms-Riverguard-Troop-MGKWR302-/311814848258?hash=item48999cff02:g:810AAOSwhlZYuZcA
p82
aVhttp://www.ebay.com/itm/Live-Aquarium-Plants-Ferns-and-Bolbitis-Very-Easy-Java-Fern-Microsorum-/201833015360?var=&hash=item2efe2f6840:m:m58JyVr5od2iARiL4C6iZ1g
p83
aVhttp://www.ebay.com/itm/TRIDENT-T264350-3in1-Mini-Ratchet-10mm-Inc-1-4-Dr-Socket-Adaptor-Bit-Adapter-/182480763347?epid=1447869672&hash=item2a7cb379d3:g:VzMAAOxy~g5Rua~O
p84
aVhttp://www.ebay.com/itm/Surgical-Steel-Industrial-Scaffold-Ear-Piercing-Bar-Barbell-Choose-Design-/361332550512?var=&hash=item5421192b70:m:mDm98m84peTp2UOOxCutTwQ
p85
aVhttp://www.ebay.com/itm/TRIUMPH-T140-T160-BONNEVILLE-TRIDENT-STAINLESS-REAR-MASTER-CYLINDER-60-4401-/262318012279?epid=1825187189&hash=item3d135f3777:g:hSUAAOSwv9hW2FIR&vxp=mtr
p86
aVhttp://www.ebay.com/itm/GEMINI-JETS-1-400-HS-Trident-1E-Channel-Airways-G-AVYB-/361710411989?hash=item54379ee0d5:m:mw6Wj0Odxz1vcusapEunGkg
p87
aVhttp://www.ebay.com/itm/Trident-14-pc-Coppa-dellolio-Scatola-del-cambio-Retro-Asse-Scolo-Spina-Chiavi-/161929847244?hash=item25b3c561cc:g:NNkAAOSwjVVViIpg
p88
aVhttp://www.ebay.com/itm/NEW-RAW-Trident-Wooden-Cigarette-Holder-with-Pouch-Bag-/322542331481?hash=item4b19056659:g:hvcAAOSwONBZC1if
p89
aVhttp://www.ebay.com/itm/GEMINI-JETS-1-400-HS-Trident-1E-Channel-Airways-G-AVYB-/361710411989?hash=item54379ee0d5:m:mw6Wj0Odxz1vcusapEunGkg
p90
aVhttp://www.ebay.com/itm/Trident-14-pc-Coppa-dellolio-Scatola-del-cambio-Retro-Asse-Scolo-Spina-Chiavi-/161929847244?hash=item25b3c561cc:g:NNkAAOSwjVVViIpg
p91
aVhttp://www.ebay.com/itm/NEW-RAW-Trident-Wooden-Cigarette-Holder-with-Pouch-Bag-/322542331481?hash=item4b19056659:g:hvcAAOSwONBZC1if
p92
aVhttp://www.ebay.com/itm/Trident-T251301-Spot-Weld-Chisel-New-/151257285843?epid=15002982934&hash=item2337a304d3:g:gUgAAOxy039TKIGM
p93
aVhttp://www.ebay.com/itm/TRIUMPH-T140-BONNEVILLE-T160-TRIDENT-1973-78-FRONT-BRAKE-MASTER-CYLINDER-60-4102-/172730711288?epid=650252436&hash=item28378d7cf8:m:m5QNEiq3KtipIpER2hzcV_w&vxp=mtr
p94
aVhttp://www.ebay.com/itm/RAW-Trident-Wooden-Cigarette-Holder-With-Pouch-Bag-UK-/172146775239?hash=item2814bf54c7:g:UWEAAOSwJQdW9Yr0
p95
aVhttp://www.ebay.com/itm/70-4746-BSA-A75-ROCKET-3-TRIUMPH-T150-T160-TRIDENT-PUSHROD-TUBE-SEAL-CUP-x4-/232337878555?epid=1342511201&hash=item36186aae1b:m:mAeq7SjEjMNs1L3LmeysoVQ&vxp=mtr
p96
aVhttp://www.ebay.com/itm/AeroClassics-BEA-DH-121-Trident-2E-1-400-G-AVFB-/162342111833?hash=item25cc580a59:g:ByYAAOSwjDZYaXU0
p97
aVhttp://www.ebay.com/itm/TRIDENT-TOOLS-T920000-3-8-dr-standard-impact-socket-set-8mm-19mm-on-a-rail-/172181019525?epid=1622952026&hash=item2816c9db85:g:Ud4AAOSwtnpXigo5
p98
aVhttp://www.ebay.com/itm/N-O-S-GENUINE-LUCAS-POINTS-SET-TRIUMPH-TRIDENT-BSA-ROCKET-3-T150-A75-/192249544577?epid=1428406559&hash=item2cc2f73f81:g:JY4AAOSw32lYvwF1&vxp=mtr
p99
aVhttp://www.ebay.com/itm/TRIUMPH-T160-TRIDENT-LEFT-SIDE-PANEL-COVER-CHROME-NAME-PLATE-BADGE-60-4336-/263035628282?epid=3003051819&hash=item3d3e252afa:g:VkkAAOSwyWZZP~4t&vxp=mtr
p100
aVhttp://www.ebay.com/itm/Trident-T325102-Replacement-Stones-for-Cylinder-Hones-Medium-Grit-Pk3-x-100mm-/221215036287?epid=1024997196&hash=item338171937f:g:wcUAAOxyffZSYQIP
p101
aVhttp://www.ebay.com/itm/LEGO-SPARES-PARTS-92289-GOLD-TRIDENT-X-2-/131312666222?epid=897455423&hash=item1e92d8466e:g:IBQAAOSwxH1ULl2U
p102
aVhttp://www.ebay.com/itm/Mantic-Games-BNIB-Trident-Realms-Thuul-Mythican-MGKWR202-/311814848508?hash=item48999cfffc:g:DOMAAOSwB-1YuZWa
p103
aVhttp://www.ebay.com/itm/Limited-Series-Trident-Razors-Safety-razor-handle-Albion-Made-from-Titanium-G2-/262308671107?hash=item3d12d0ae83:g:IFEAAOSwgZ1XuLB2
p104
aVhttp://www.ebay.com/itm/US-NAVY-SEALS-BADGE-America-Military-Naval-Insignia-Eagle-Anchor-Trident-Pin-/182278980378?hash=item2a70ac831a:g:eHIAAOSwMgdX1ocV
p105
aVhttp://www.ebay.com/itm/triumph-T150-trident-pannel-badge-/322134305879?hash=item4b00b36c57:g:LvwAAOSwzrxUr6Xq&vxp=mtr
p106
aVhttp://www.ebay.com/itm/Trident-T213100-Ultra-Thin-Spanner-Set-7pc-6-19mm-New-/172566048509?epid=1422788260&hash=item282dbceefd:g:akkAAOSwEK9T31DC
p107
aVhttp://www.ebay.com/itm/OM-AUM-7x8-Ganesha-Ganesh-Brass-Plaque-Hindu-Diwali-Wall-Hanging-Home-Trident-/272622490055?hash=item3f799111c7:g:dooAAOSww3tY58XF
p108
aVhttp://www.ebay.com/itm/Trident-T676203-Spiral-Faced-Shrinking-Panel-Hammer-New-/161210589068?epid=1323862283&hash=item2588e65f8c:g:XQ0AAOxy63FS56mr
p109
aVhttp://www.ebay.com/itm/Triumph-Trident-900-Rear-Indicator-Stalks-Stem-Pair-NEW-/302362626455?hash=item4666378997:g:3MEAAOSwT5xZUPUd&vxp=mtr
p110
aVhttp://www.ebay.com/itm/Luke-1977-Mens-Trident-Crew-Neck-Designer-Sweatshirt-/132076536386?var=&epid=1972656552&hash=item1ec0600242:m:mLzqI4FUVkQkJW29l7TEiCw
p111
aVhttp://www.ebay.com/itm/3-8-Drive-Impact-Universal-Joint-UJ-Trident-T922300-/112113313729?epid=1982221284&hash=item1a1a7967c1:g:xfMAAOSwgmJXxF6b
p112
aVhttp://www.ebay.com/itm/New-Alchemy-Gothic-Metalwear-Black-Trinity-Trident-Pendant-Thong-Necklace-P686-/253019299725?epid=1524703042&hash=item3ae9201f8d:g:ip8AAOSwQItUK8zu
p113
aVhttp://www.ebay.com/itm/TRIUMPH-T140-BONNEVILLE-T160-TRIDENT-REAR-DISC-BRAKE-MASTER-CYLINDER-60-4401S-/182640142520?epid=1045931383&hash=item2a863368b8:m:mTy395WrkL4scBCiH_tpwTg&vxp=mtr
p114
aVhttp://www.ebay.com/itm/GOLD-EFFECT-MASERATI-TRIDENT-BADGE-TIE-CLIP-WITH-FREE-POSTAGE-/190875590585?hash=item2c71125fb9:g:0ekAAOSw0JpV6VwQ
p115
aVhttp://www.ebay.com/itm/Triumph-Trident-T160-5-speed-ball-bearing-gearbox-plunger-/272760153248?hash=item3f81c5a4a0:g:Q5gAAOSwx6pYnMAs&vxp=mtr
p116
aVhttp://www.ebay.com/itm/Aeroclassic-BEA-Hawker-Siddeley-Trident-T-Shirt-/221811814737?var=&hash=item33a503b151:m:mTZSY72bNuMNLHCnfrRh9gw
p117
aVhttp://www.ebay.com/itm/Beretta-Trident-Shooting-Safety-Glasses-With-3-Lenses-OC7-Hunting-Shooting-/332151532045?epid=1344868598&hash=item4d55c62a0d:g:L8cAAOSwwbdWPMog
p118
aVhttp://www.ebay.com/itm/1-2-Drive-Impact-Socket-Set-Short-Deep-20pc-Trident-T935020-/112115850030?epid=1182525496&hash=item1a1aa01b2e:g:-QQAAOSwFdtXxt7L
p119
aVhttp://www.ebay.com/itm/1-2-Drive-17mm-Deep-Impact-Socket-6-Point-78mm-Deep-Trident-T930117-/122267110708?epid=2102819106&hash=item1c77b00d34:g:BbEAAOSw44BYTsPK
p120
aVhttp://www.ebay.com/itm/Trident-ODAPWATC-BKCU-Curve-Stand-With-Cable-Management-For-Apple-Watch-Charging-/121940207495?epid=1750565098&hash=item1c6433e787:g:zr8AAOSwuYVWmMaJ
p121
aVhttp://www.ebay.com/itm/Gemini-Jets-British-Airways-HS121-Trident-2E-1-400-Scale-Diecast-Model-GJBAW752-/191417846417?hash=item2c91648a91:g:b9sAAOSwj0NUaz6y
p122
aVhttp://www.ebay.com/itm/Seat-Cover-for-Triumph-Bonneville-T120-Trident-T150-T100-1968-1970-/131041087414?hash=item1e82a84fb6:g:-sYAAMXQBlJR-ZFc&vxp=mtr
p123
aVhttp://www.ebay.com/itm/83-5361-TRIUMPH-T140-T160-TR7-BONNEVILLE-TRIDENT-CHROME-TANK-BADGE-1978on-PR-/252721804849?epid=1145698509&hash=item3ad764b631:m:mK_AP_48--liydPXfb4VOVg&vxp=mtr
p124
aVhttp://www.ebay.com/itm/Glitter-Trident-Halloween-Devil-Adult-Smiffys-Fancy-Dress-Costume-Accessory-/171859339064?hash=item28039d6738:g:AlkAAOSwPK1ZSh1c
p125
a.