(lp1
Vhttp://www.ebay.com/itm/The-Zero-Theorem-Bluray-UV-NEW-/401220194635?epid=1728464206&hash=item5d6a96514b:g:pT8AAOSwHMJYHSlD
p2
aVhttp://www.ebay.com/itm/Genuine-Wismec-Theorem-Atomizer-Tank-Hybrid-RTA-RDTA-Top-Fill-NotchCoil-UK-/162500292278?epid=25004777217&hash=item25d5c5aeb6:g:eXEAAOSwcgNZCJp6
p3
aVhttp://www.ebay.com/itm/Fermats-Last-Theorem-by-Dr-Simon-Singh-New-Book-/301735500224?epid=90641086&hash=item4640d659c0:g:UQkAAOSwfpVZJu36
p4
aVhttp://www.ebay.com/itm/Wismec-Theorem-Tank-100-Genuine-/282543933672?hash=item41c8ee48e8:g:7QYAAOSwCkZZUOsG
p5
aVhttp://www.ebay.com/itm/111SKIN-Y-Theorem-Repair-Serum-NAC-Y2-30ml-RRP-190-/182572716465?epid=1608927394&hash=item2a822e91b1:g:t-0AAOSwi7RZFzaE
p6
aVhttp://www.ebay.com/itm/Everything-Is-Mathematical-Series-Book-Collection-All-40-Issues-Brand-New-/321101123036?var=&hash=item4ac31e4ddc:m:mbQLMUKR9JKtYYKKofF6q4A
p7
aVhttp://www.ebay.com/itm/The-Zero-Theorem-Blu-ray-New-UNSEALED-/252600256211?epid=1728464206&hash=item3ad02606d3:g:laAAAOSwo4pYDHjn
p8
aVhttp://www.ebay.com/itm/Fermats-Last-Theorem-by-Simon-Singh-New-Paperback-Book-/302062785484?epid=1405425800&hash=item46545853cc:g:f9cAAOSw8oFXzZ1d
p9
aVhttp://www.ebay.com/itm/The-Zero-Theorem-DVD-UV-NEW-/401220235732?epid=1929745387&hash=item5d6a96f1d4:g:Y3UAAOSwB09YHURW
p10
aVhttp://www.ebay.com/itm/Wismec-Theorem-Stainless-Pyrex-Glass-Tube-Vaping-UK-STOCK-100-Genuine-/292042399842?hash=item43ff156062:g:3IMAAOSw2gxYt0-r
p11
aVhttp://www.ebay.com/itm/Wismec-Theorem-Replacement-Pyrex-Glass-Tube-Vaping-UK-STOCK-100-Genuine-/292042393941?hash=item43ff154955:g:ldkAAOSwSlBYt036
p12
aVhttp://www.ebay.com/itm/Fermats-Last-Theorem-Simon-Singh-/131036502555?epid=90641086&hash=item1e82625a1b:g:tGYAAOSweW5U~7Ce
p13
aVhttp://www.ebay.com/itm/SIMON-SINGH-FERMATS-LAST-THEOREM-BRAND-NEW-FREEPOST-UK-/400671000500?hash=item5d49da47b4:g:ScoAAMXQEgpTEJrv
p14
aVhttp://www.ebay.com/itm/Theorem-DVD-Blu-ray-1968-/262795419272?hash=item3d2fd3de88:g:5vQAAOSwjDZYb64c
p15
aVhttp://www.ebay.com/itm/Fermats-Last-Theorem-GOOD-Book-/401109461987?epid=1405425800&hash=item5d63fcabe3:g:rQQAAOSw1DtXGeUp
p16
aVhttp://www.ebay.com/itm/Birth-of-a-Theorem-A-Mathematical-Adventure-Cedric-Villani-/331944374230?epid=221112063&hash=item4d496d2fd6:g:c9sAAOSwawpXtdgm
p17
aVhttp://www.ebay.com/itm/Luigi-Barbini-Ninetto-Davoli-Theorem-Blu-ray-NEW-/282241075767?hash=item41b6e10a37:g:t~EAAOSwcLxYGNND
p18
aVhttp://www.ebay.com/itm/THE-ZERO-THEOREM-Terry-Gilliam-New-Sealed-Region-2-English-Polish-/271694693033?epid=1358208818&hash=item3f424402a9:g:ZpcAAOSwnDxUf5NS
p19
aVhttp://www.ebay.com/itm/The-Last-Theorem-by-Frederik-Pohl-Arthur-C-Clarke-Paperback-New-Book-/301779939899?epid=87336299&hash=item46437c723b:g:u24AAOSw32lYqFUq
p20
aVhttp://www.ebay.com/itm/THE-ZERO-THEOREM-Terry-Gilliam-New-Sealed-Region-2-English-Polish-/271694693033?epid=1358208818&hash=item3f424402a9:g:ZpcAAOSwnDxUf5NS
p21
a.