(lp0
Vhttp://www.ebay.com/itm/12x-Zoom-Telephoto-Magnifier-Telescope-Phone-Lens-for-iphone-6-7-6s-Plus-DC602-/142080974591?hash=item2114af9eff:g:MBoAAOSwDiBZMNkr
p1
aVhttp://www.ebay.com/itm/12X-Telephoto-Telescope-Zoom-Camera-Lens-For-iPhone-4S-5C-5S-6-Plus-DC602-/281702771492?hash=item4196cb2b24:g:MlwAAOSwYvFZEiXc
p2
aVhttp://www.ebay.com/itm/Unviersal-12X-Zoom-Phone-Telephoto-Camera-Lens-With-Clip-For-Smartphone-DC602-/141953083083?epid=571165653&hash=item210d1026cb:g:NB4AAOSwurZZEh9z
p3
aVhttp://www.ebay.com/itm/Universal-35X-lente-della-fotocamera-HD-zoom-Telescopio-clip-per-Apple-Android-/112361781026?hash=item1a2948b722:g:1dwAAOSwmgJY5ws7
p4
aVhttp://www.ebay.com/itm/12X-Zoom-Telephoto-Optical-Camera-Lens-Clip-On-For-iPhone-5S-5C-6-Plus-DC602-/401249636037?epid=1388761667&hash=item5d6c578ec5:g:lx0AAOSwK6RZEdX7
p5
aVhttp://www.ebay.com/itm/Optical-Phone-Camera-Lens-Kit-12X-Universal-Optical-Zoom-Lens-Samsung-Iphone-HTC-/272445366937?hash=item3f6f026299:g:IZkAAOSwXyVYJRWE
p6
aVhttp://www.ebay.com/itm/CHIC-12X-Zoom-Telephoto-Optical-Camera-Lens-Clip-On-for-iPhone-5S-5C-DC602-/162142451506?hash=item25c0717732:g:08AAAOSw-K9ZEhgH
p7
a.