(lp1
Vhttp://www.ebay.com/itm/Volkano-Stannic-Series-Earphones-Black-Small-Light-EarBuds-VSN202-BLK-/192029908010?hash=item2cb5dfdc2a:g:Q-YAAOSwcLxYLapv
p2
aVhttp://www.ebay.com/itm/TIN-OXIDE-SnO2-Stannic-Oxide-250g-1500g-Very-High-Grade-Material-FREE-P-P-/251983766911?var=&hash=item3aab67257f:m:m80h8yR5ELkBVX_KejSGnow
p3
aVhttp://www.ebay.com/itm/Volkano-Stannic-Series-Earphones-White-Small-Light-EarBuds-VSN202-WHT-/182357138978?hash=item2a75551e22:g:Z-sAAOSwiDFYLau9
p4
aVhttp://www.ebay.com/itm/Tin-oxide-Sn02-Stannic-oxide-Tin-IV-oxide-100g-/262519623902?hash=item3d1f6390de:g:yiMAAOSwCU1YnzBd
p5
aVhttp://www.ebay.com/itm/Tin-oxide-Sn02-Stannic-oxide-Tin-IV-oxide-200g-/252457881870?hash=item3ac7a9910e:g:aZgAAOSwAPlXg-7n
p6
aVhttp://www.ebay.com/itm/Tin-oxide-Sn02-Stannic-oxide-Tin-IV-oxide-2Kg-/262519608050?hash=item3d1f6352f2:g:yxAAAOSw0kNXg~FA
p7
aVhttp://www.ebay.com/itm/Tin-oxide-Sn02-Stannic-oxide-Tin-IV-oxide-1Kg-/252457879334?hash=item3ac7a98726:g:2-kAAOSw7s5Xg-6t
p8
aVhttp://www.ebay.com/itm/Tin-oxide-Sn02-Stannic-oxide-Tin-IV-oxide-700g-/252457857310?hash=item3ac7a9311e:g:36cAAOSwanRXg--I
p9
a.