(lp0
Vhttps://www.amazon.co.uk/Weleda-Organic-Birch-Juice-200/dp/B000NRWPJ4/ref=sr_1_1_a_it/261-7674264-6013520?ie=UTF8&qid=1500121138&sr=8-1&keywords=birch
p1
aVhttps://www.amazon.co.uk/Before-Babylon-Beyond-Bitcoin-Perspectives/dp/1907994653/ref=sr_1_2/261-7674264-6013520?ie=UTF8&qid=1500121138&sr=8-2&keywords=birch
p2
aVhttps://www.amazon.co.uk/Mystic-Moments-Birch-Tar-Essential/dp/B006FXWH1Q/ref=sr_1_3/261-7674264-6013520?ie=UTF8&qid=1500121138&sr=8-3&keywords=birch
p3
aVhttps://www.amazon.co.uk/Cuprinol-CUPGSSIL25L-Litre-Garden-Shades/dp/B01BSYC4F0/ref=sr_1_4/261-7674264-6013520?ie=UTF8&qid=1500121138&sr=8-4&keywords=birch
p4
aVhttps://www.amazon.co.uk/Weleda-Birch-Cellulite-Oil-100/dp/B000NRVG26/ref=sr_1_5_a_it/261-7674264-6013520?ie=UTF8&qid=1500121138&sr=8-5&keywords=birch
p5
aVhttps://www.amazon.co.uk/d/Paint-Stain-Solvents/Cuprinol-UTDSSB25L-Decking-Stain-Silver/B005A5OKOC/ref=sr_1_6/261-7674264-6013520?ie=UTF8&qid=1500121138&sr=8-6&keywords=birch
p6
aVhttps://www.amazon.co.uk/Anatomy-Suicide-Alice-Birch/dp/1786821036/ref=sr_1_7/261-7674264-6013520?ie=UTF8&qid=1500121138&sr=8-7&keywords=birch
p7
aVhttps://www.amazon.co.uk/Organic-Birch-water-nothing-added/dp/B01FK6DCJO/ref=sr_1_8_a_it/261-7674264-6013520?ie=UTF8&qid=1500121138&sr=8-8&keywords=birch
p8
aVhttps://www.amazon.co.uk/Guidance-Silver-Birch-Teachings-ebook/dp/B00LUIZA10/ref=sr_1_9/261-7674264-6013520?ie=UTF8&qid=1500121138&sr=8-9&keywords=birch
p9
aVhttps://www.amazon.co.uk/Cheeky-Monkey-Engraved-Bookmarks-BK00005317/dp/B01E7GR4R4/ref=sr_1_10/261-7674264-6013520?ie=UTF8&qid=1500121138&sr=8-10&keywords=birch
p10
aVhttps://www.amazon.co.uk/Birch-Tree/dp/B00ZBLSGJ0/ref=sr_1_11/261-7674264-6013520?ie=UTF8&qid=1500121138&sr=8-11&keywords=birch
p11
aVhttps://www.amazon.co.uk/Keen-Whisper-Sandals-Turquoise-Malachite/dp/B01H75830E/ref=sr_1_12/261-7674264-6013520?ie=UTF8&qid=1500121138&sr=8-12&keywords=birch
p12
aVhttps://www.amazon.co.uk/d/Home-Kitchen/FloristryWarehouse-Birch-tree-sheets-bundle/B00G9Y8BUC/ref=sr_1_13/261-7674264-6013520?ie=UTF8&qid=1500121138&sr=8-13&keywords=birch
p13
aVhttps://www.amazon.co.uk/Boundaries-After-Pathological-Relationship-Adelyn/dp/1523368829/ref=sr_1_14/261-7674264-6013520?ie=UTF8&qid=1500121138&sr=8-14&keywords=birch
p14
aVhttps://www.amazon.co.uk/White-Birch-Earrings-Sparkling-Crystal/dp/B01EJCS3AS/ref=sr_1_15/261-7674264-6013520?ie=UTF8&qid=1500121138&sr=8-15&keywords=birch
p15
aVhttps://www.amazon.co.uk/Simon-Birch-DVD-Michael-Smith/dp/B0001IMCDY/ref=sr_1_16/261-7674264-6013520?ie=UTF8&qid=1500121138&sr=8-16&keywords=birch
p16
aVhttps://www.amazon.co.uk/Chapelwood-Wild-Siver-Birch-Robin/dp/B00B7VVV5O/ref=sr_1_17/261-7674264-6013520?ie=UTF8&qid=1500121141&sr=8-17&keywords=birch
p17
aVhttps://www.amazon.co.uk/Patagonia-Womens-Torrentshell-Jacket-Birch/dp/B01KEXHH94/ref=sr_1_18/261-7674264-6013520?ie=UTF8&qid=1500121141&sr=8-18&keywords=birch
p18
aVhttps://www.amazon.co.uk/Blend-Birch-Extracts-Baths-100ml/dp/B01CW2I4YW/ref=sr_1_19_a_it/261-7674264-6013520?ie=UTF8&qid=1500121141&sr=8-19&keywords=birch
p19
aVhttps://www.amazon.co.uk/d/DIY-Tools/d-c-fix-Plastic-adhesive-Woodgrain-346-8340/B005ERKD3S/ref=sr_1_20/261-7674264-6013520?ie=UTF8&qid=1500121141&sr=8-20&keywords=birch
p20
aVhttps://www.amazon.co.uk/Mystic-Moments-Birch-Sweet-Essential/dp/B004YQ0OBQ/ref=sr_1_21/261-7674264-6013520?ie=UTF8&qid=1500121141&sr=8-21&keywords=birch
p21
aVhttps://www.amazon.co.uk/dp/B01N3PL1GB/ref=sr_1_22/261-7674264-6013520?ie=UTF8&qid=1500121141&sr=8-22&keywords=birch
p22
aVhttps://www.amazon.co.uk/Montana-Cherries-Wildes-Birch-Book-ebook/dp/B00T8RIK44/ref=sr_1_23/261-7674264-6013520?ie=UTF8&qid=1500121141&sr=8-23&keywords=birch
p23
aVhttps://www.amazon.co.uk/d/51/Simon-Birch-Joseph-Mazzello/B00LLPUKS0/ref=sr_1_24/261-7674264-6013520?ie=UTF8&qid=1500121141&sr=8-24&keywords=birch
p24
aVhttps://www.amazon.co.uk/Fjallraven-Unisex-Kanken-Backpack-Birch/dp/B018EAZGG0/ref=sr_1_25/261-7674264-6013520?ie=UTF8&qid=1500121141&sr=8-25&keywords=birch
p25
aVhttps://www.amazon.co.uk/Covert-Emotional-Manipulation-Tactics-Relationships/dp/1522922849/ref=sr_1_26/261-7674264-6013520?ie=UTF8&qid=1500121141&sr=8-26&keywords=birch
p26
aVhttps://www.amazon.co.uk/Birch-Tar-against-Dermatitis-Seborrhoea/dp/B00L373R7W/ref=sr_1_27_a_it/261-7674264-6013520?ie=UTF8&qid=1500121141&sr=8-27&keywords=birch
p27
aVhttps://www.amazon.co.uk/d/Home-Kitchen/Ronseal-RSLIVSBI250-250ml-Quick-Satin-Interior-Varnish/B00I8MJMH4/ref=sr_1_28/261-7674264-6013520?ie=UTF8&qid=1500121141&sr=8-28&keywords=birch
p28
aVhttps://www.amazon.co.uk/BelSeva-Unsweetened-Organic-Birch-Water/dp/B00YUPEQP6/ref=sr_1_29_a_it/261-7674264-6013520?ie=UTF8&qid=1500121141&sr=8-29&keywords=birch
p29
aVhttps://www.amazon.co.uk/Mark-H-RODS-Birch-Dowel-Drumsticks/dp/B001SEQQDC/ref=sr_1_30/261-7674264-6013520?ie=UTF8&qid=1500121141&sr=8-30&keywords=birch
p30
aVhttps://www.amazon.co.uk/Favourite-Cello-Concertos-Anton%C3%ADn-Dvor%C3%A1k/dp/B000026B3A/ref=sr_1_31/261-7674264-6013520?ie=UTF8&qid=1500121141&sr=8-31&keywords=birch
p31
aVhttps://www.amazon.co.uk/Besom-broom-Handmade-BIRCH-21cm/dp/B01LQ5778U/ref=sr_1_32/261-7674264-6013520?ie=UTF8&qid=1500121141&sr=8-32&keywords=birch
p32
a.