(lp1
Vhttp://www.ebay.com/itm/Quiet-Riot-QR-Remastered-NEW-CD-ROUGH-CUTT-WASP-KING-KOBRA-OZZY-OSBOURNE-BAND-/361306705999?epid=4020011&hash=item541f8ed04f:g:9RAAAOSwBLlVZXrM
p2
aVhttp://www.ebay.com/itm/W-A-S-P-The-Sting-Live-2012-CD-DVD-Digibook-NEW-SEALED-SPEEDYPOST-/232386318622?epid=129538930&hash=item361b4dd11e:g:-6kAAOSwjvJZT9EC
p3
aVhttp://www.ebay.com/itm/Wasp-Pipe-Wasp-Trap-Pack-Of-3-/322487877717?hash=item4b15c68055:g:rQYAAOSwJ4hY9xpb
p4
aVhttp://www.ebay.com/itm/Wasp-Wasp-The-Last-Command-NEW-2-x-CD-/390889643045?epid=4010504&hash=item5b02d69c25:g:baMAAOSw7PBTotq9
p5
aVhttp://www.ebay.com/itm/WASP-KILL-F-CK-DIE-CD-Single-Blackie-Lawless-W-A-S-P-/172400582741?hash=item2823e02055:g:eGIAAOSwPCVX3~An
p6
aVhttp://www.ebay.com/itm/Wasp-The-Last-Command-NEW-CD-/390889694210?epid=1404968495&hash=item5b02d76402:g:FL0AAOSwhh5Tou1y
p7
aVhttp://www.ebay.com/itm/Wasp-Into-The-Electric-Circus-Hea-NEW-CD-/311023219103?epid=4413331&hash=item486a6db19f:g:RN4AAOSwbqpT0Pyx
p8
aVhttp://www.ebay.com/itm/10-PACK-FLY-INSECT-INSECTS-BUGS-WASP-POISON-FREE-STICKY-PAPERS-TRAPS-CATCHERS-/142281074300?hash=item21209ce67c:g:0MEAAOSwB-1YrfUJ
p9
aVhttp://www.ebay.com/itm/Classic-Horror-Volume-2-Frankenstein-The-Wasp-Women-The-Ghoul-Dr-NEW-DVD-/390889294385?epid=182529130&hash=item5b02d14a31:g:XMcAAOSwbqpTyW34
p10
aVhttp://www.ebay.com/itm/Wasp-Crimson-Idol-The-CD-NEW-/302162397829?epid=1768239786&hash=item465a484a85:g:ndMAAOSwux5YS4xW
p11
aVhttp://www.ebay.com/itm/Wasp-The-Crimson-Idol-2016-NEW-CD-/311622060055?epid=1768239786&hash=item488e1f4817:g:mAEAAOSw7ehXSbsm
p12
aVhttp://www.ebay.com/itm/WASP-The-Headless-Children-VINYL-LP-NEW-/282467546173?epid=182232385&hash=item41c460b43d:g:UkIAAOSwlndZEJOV
p13
aVhttp://www.ebay.com/itm/WASP-Wasp-VINYL-LP-NEW-/352022412058?epid=182245089&hash=item51f62bbb1a:g:6JMAAOSwB-1Y48Qz
p14
aVhttp://www.ebay.com/itm/KRITTERKILL-Moth-Bed-bug-Insect-Flea-Wasp-Ant-killer-Fumer-/181862505304?var=&hash=item2a57d99b58:m:m8bHeecp8z2WkyT8Da-y1hg
p15
aVhttp://www.ebay.com/itm/OFFICIAL-LICENSED-WASP-BLOODY-ROAD-TO-GOLGOTHA-T-SHIRT-ROCK-METAL-LAWLESS-/152500163429?var=&hash=item2381b7d365:m:ma_zIWicDucgV4tdhkmeIKA
p16
aVhttp://www.ebay.com/itm/RASH-GUARD-EXTREME-HOBBY-SHORT-SLEEVE-WASP-FOR-TRAINING-MMA-FIGHT-GYM-/171731215574?var=&epid=1261187663&hash=item27fbfa64d6:m:ml_oj5ASoq1BGL0JM9uSSBw
p17
aVhttp://www.ebay.com/itm/Rentokil-Wasp-Nest-Killer-Powder-150g-Kills-Wasps-With-Puffer-Applicator-/362037366368?epid=1330119626&hash=item544b1bce60:g:OJ0AAOSwjVVVuznj
p18
aVhttp://www.ebay.com/itm/Rentokil-Wasp-Killer-Powder-300g-RKLPSW99P-/162030093134?epid=1229960822&hash=item25b9bf034e:g:nmoAAOSwGYVXBQ0-
p19
aVhttp://www.ebay.com/itm/2-x-The-Ultimate-Red-Drosophila-Fly-Trap-Top-Catcher-Fly-Wasp-Insect-Bug-Killer-/201830517082?hash=item2efe09495a:g:EgoAAOSwzJ5XWo4B
p20
aVhttp://www.ebay.com/itm/Vapona-Window-Stickers-Sunflower-x-4-Insect-Flies-Wasp-Pest-Eliminator-/322580896840?epid=16004753099&hash=item4b1b51dc48:g:FCYAAOSwicJZXh1F
p21
aVhttp://www.ebay.com/itm/Waspbane-wasp-trap-complete-refill-wasps-plums-apples-fruit-garden-orchard-beach-/152559518579?var=&hash=item2385418373:m:muHBvwtgmEA-Ecd1nAtKOgQ
p22
aVhttp://www.ebay.com/itm/Quiet-Riot-QR-III-NEW-CD-2010-WASP-OZZY-OSBOURNE-BAND-GIUFFRIA-WHITESNAKE-/141677885645?epid=85639416&hash=item20fca8f8cd:g:guoAAOSwrklVZXlf
p23
aVhttp://www.ebay.com/itm/2-x-Electronic-UV-Flying-Insect-Killer-Indoor-Mosquito-Pest-Fly-Bug-Wasp-Zapper-/222523775912?hash=item33cf735ba8:g:5C4AAOSw1P9ZbMx1
p24
aVhttp://www.ebay.com/itm/WASP-The-Last-Command-CD-NEW-/302350553739?epid=181629226&hash=item46657f528b:g:lVAAAOSwcj5ZQnv3
p25
aVhttp://www.ebay.com/itm/Wasp-2Cd-Edition-CD-NEW-/282055397887?epid=181662672&hash=item41abcfd1ff:g:WOYAAOSwepJXTygl
p26
aVhttp://www.ebay.com/itm/10-PAPER-Insect-Catchers-Killer-Tape-Strip-Pest-Bug-Wasp-Window-Fly-Poison-Free-/172317950175?epid=1581460020&hash=item281ef340df:g:ClkAAOSwMtxXvjWz
p27
aVhttp://www.ebay.com/itm/Wasp-Live-In-The-Raw-NEW-CD-/390889657247?epid=44982565&hash=item5b02d6d39f:g:w-0AAOSwDk5TynOI
p28
aVhttp://www.ebay.com/itm/Rentokil-PSW99P-300g-Wasp-Killer-Powder-/152522102347?epid=1640447749&hash=item238306964b:g:Ts8AAOSwIWVY~PSB
p29
aVhttp://www.ebay.com/itm/Wasp-The-Sting-NEW-CD-/311017080019?epid=30058108&hash=item486a1004d3:g:sV0AAOSwq7JTynpY
p30
aVhttp://www.ebay.com/itm/NEW-ELECTRIC-FLY-INSECT-SWAT-SWATTER-BUG-MOSQUITO-WASP-ZAPPER-KILLER-ELECTRONIC-/162075072479?epid=1608071722&hash=item25bc6d57df:g:O18AAOSwB9xXPG04
p31
aVhttp://www.ebay.com/itm/W-A-S-P-Inside-the-Electric-Circus-headless-Child-CD-NEW-/282538443358?epid=4413331&hash=item41c89a825e:g:FFwAAOSwOMdZS9jU
p32
aVhttp://www.ebay.com/itm/Wasp-Headless-Children-NEW-CD-/390889684357?hash=item5b02d73d85:g:jugAAOSwX6VTyoGF
p33
aVhttp://www.ebay.com/itm/WASP-S-T-BRAND-NEW-VINYL-LP-PICTURE-DISC-W-A-S-P-BLACKIE-LAWLESS-/182619561178?hash=item2a84f95cda:g:wY8AAOSwYS9ZZQ4c
p34
aVhttp://www.ebay.com/itm/W-A-S-P-THE-CRIMSON-IDOL-BRAND-NEW-LIMITED-EDITION-PICTURE-DISC-LP-WASP-BLACKIE-/182631338038?epid=551689915&hash=item2a85ad1036:g:XDkAAOSw6ShZSr-I
p35
aVhttp://www.ebay.com/itm/Waspbane-Wasp-trap-/253028209532?hash=item3ae9a8137c:g:SvQAAOSwMmBVw0z3
p36
aVhttp://www.ebay.com/itm/Paper-Decoy-Wasp-Nest-/302296667759?epid=1756429651&hash=item466249166f:g:d-8AAOSwVm5ZAMUp
p37
aVhttp://www.ebay.com/itm/EXECUTIONER-INSECT-BUG-FLY-ZAPPER-WASP-MOSQUITO-KILLER-/382168864729?epid=513020213&hash=item58fb0a17d9:g:8xwAAOSws65TqVCE
p38
aVhttp://www.ebay.com/itm/2-x-Wasp-Fly-Flies-Bee-Insect-Traps-Catcher-Killer-No-poison-Or-Chemical-B2G1F-/142416822447?hash=item2128b440af:g:9N0AAOSwXYtY3Trv
p39
aVhttp://www.ebay.com/itm/Misfits-Wasp-Queens-Irving-Plaza-New-York-1982-CD-NEW-/401304621103?epid=720503291&hash=item5d6f9e902f:g:qJ0AAOSwU8hY537s
p40
aVhttp://www.ebay.com/itm/1x-Sanmex-Fly-Wasp-Killer-Spray-300ml-/152566911509?epid=1112665024&hash=item2385b25215:g:3rIAAOSwcB5ZLa8u
p41
aVhttp://www.ebay.com/itm/The-Original-Waspinator-No-More-Wasps-Single-One-Only-/371925404467?epid=1005299541&hash=item56987b4b33:m:mXKeoa4DDomK8XHK8itiJ6A
p42
aVhttp://www.ebay.com/itm/8-Fly-Sticky-Glue-Catcher-Pest-Trap-Killer-Paper-Wasp-Greenfly-Insect-Window-/182664914817?epid=508952532&hash=item2a87ad6781:g:HqMAAOSwBiJZcM-k
p43
aVhttp://www.ebay.com/itm/Waspinator-No-More-Wasp-Repellent-Deterrent-Pest-Control-Repels-Wasps-/182449595790?var=&hash=item2a7ad7e58e:m:mzghANWQFvCP97PqARJZRNg
p44
aVhttp://www.ebay.com/itm/2-x-Doff-Wasp-Nest-Killer-Powder-Kills-Wasps-And-Other-Crawling-Insects-300-g-/302305053113?epid=1605479075&hash=item4662c909b9:g:C~cAAOSw3h1ZPp36
p45
aVhttp://www.ebay.com/itm/1x-Sanmex-Fly-Wasp-Killer-Spray-400ml-/252956166606?epid=911829798&hash=item3ae55cc9ce:g:TSkAAOSwrhBZJfi6
p46
aVhttp://www.ebay.com/itm/2-x-Doff-Wasp-Nest-Killer-Powder-Kills-Wasps-And-Other-Crawling-Insects-300-g-/302305053113?epid=1605479075&hash=item4662c909b9:g:C~cAAOSw3h1ZPp36
p47
aVhttp://www.ebay.com/itm/1x-Sanmex-Fly-Wasp-Killer-Spray-400ml-/252956166606?epid=911829798&hash=item3ae55cc9ce:g:TSkAAOSwrhBZJfi6
p48
aVhttp://www.ebay.com/itm/3-X-Sanmex-fly-wasp-killer-Spray-400ml-/201989118085?epid=1626521417&hash=item2f077d5885:g:~ssAAOSwuxpZa3VU
p49
aVhttp://www.ebay.com/itm/W-A-S-P-The-Headless-Children-CD-NEW-/282538443121?epid=102394828&hash=item41c89a8171:g:8TgAAOSwi8VZS9j2
p50
aVhttp://www.ebay.com/itm/6-x-Nippon-Wasp-Nest-Destroyer-Foam-300ml-Garage-Loft-powerful-spray-aerosol-/222346646883?epid=1404295070&hash=item33c4e49563:g:PkQAAOSwPhdVOP9x
p51
aVhttp://www.ebay.com/itm/2-x-Wasp-Fly-Flies-Bee-Insect-Traps-Catcher-Killer-No-poison-Or-Chemical-B2G1F-/142416822447?hash=item2128b440af:g:9N0AAOSwXYtY3Trv
p52
aVhttp://www.ebay.com/itm/4-X-300ml-Fly-And-Wasp-Killer-flying-insect-Kill-Spray-Ants-mosquitoes-/262811885524?epid=1556560690&hash=item3d30cf1fd4:g:bkEAAOSwNnRYfjZl
p53
aVhttp://www.ebay.com/itm/1-20x-Wasp-Fly-Flies-Bee-Insect-Trap-Catcher-Killer-No-poison-or-Chemical-Needed-/162588436100?var=&hash=item25db06a684:m:mWCH0G9wa_G96lLlQgy9FAA
p54
aVhttp://www.ebay.com/itm/The-Executioner-UK-PATRIOT-Zapper-Fly-Swat-Wasp-Bug-Mosquito-Swatter-/381985172202?epid=2131701929&hash=item58f0172aea:g:xcQAAOSw~AVYtZAV
p55
aVhttp://www.ebay.com/itm/Wasp-Fly-Flies-Bee-Insect-Trap-Catcher-Killer-No-Poison-or-Chemical-Needed-/162443279858?epid=1105389707&hash=item25d25fbdf2:g:EEMAAOSwf~9ZZiKN
p56
aVhttp://www.ebay.com/itm/2-x-Large-Paper-Hanging-Garden-Decoy-Wasp-Nest-Keeps-Wasps-At-Bay-Wasp-Deterrent-/252936227202?epid=1756429651&hash=item3ae42c8982:g:hWkAAOSw03lY6-2Y
p57
aVhttp://www.ebay.com/itm/WASP-The-Crimson-Idol-NEW-VINYL-LP-/352000612169?epid=551689915&hash=item51f4df1749:g:5O8AAOSwfVpYwRJE
p58
aVhttp://www.ebay.com/itm/W-A-S-P-GOLGOTHA-CD-NEW-/381989550417?hash=item58f059f951:g:s3wAAOSwT5tWG-Uh
p59
aVhttp://www.ebay.com/itm/W-A-S-P-The-Sting-CD-NEW-/302162057923?epid=182014881&hash=item465a431ac3:g:3mcAAOSw6DtYSw45
p60
aVhttp://www.ebay.com/itm/Large-Glass-Jar-Garden-Wasp-Catcher-Hanging-Honey-Pot-Bug-Insect-Trap-3-Colours-/112452694127?var=&epid=1373968524&hash=item1a2eb3f06f:m:m2PNGHToaQud0gIVm14ql1w
p61
aVhttp://www.ebay.com/itm/6-PACK-OF-STICKY-PAPER-FLY-CATCHER-TRAPS-BUGS-WASP-TRAP-HOUSE-PEST-CONTROL-/172762347012?hash=item2839703604:g:CJIAAOSw-29ZWnIc
p62
aVhttp://www.ebay.com/itm/W-A-S-P-Double-Live-Assassins-CD-NEW-/351999206007?epid=178763203&hash=item51f4c9a277:g:qc0AAOSwdGFYvsHD
p63
aVhttp://www.ebay.com/itm/Original-Waspinator-Wasp-Prevention-Hanging-Nest-Pest-Control-Garden-/322477568206?var=&hash=item4b152930ce:m:m5bwJkhw60MM7T97BCSfaFw
p64
aVhttp://www.ebay.com/itm/6-X-WASPINATOR-NO-MORE-WASPS-keeps-wasps-wasp-nest-away-Hanging-Repeller-/182039635439?epid=1005299541&hash=item2a626865ef:g:y4cAAOSwTuJYnHDv
p65
aVhttp://www.ebay.com/itm/HANDHELD-ELECTRIC-ELECTRONIC-FLY-BUG-WASP-MOSQUITO-KILLER-SWATTER-SWAT-ZAPPER-/272247084557?epid=1608071722&hash=item3f6330d60d:g:hLEAAOSw41xXPHdh
p66
aVhttp://www.ebay.com/itm/Wasp-CD-NEW-/352059518835?epid=182186153&hash=item51f861ef73:g:Tz0AAOSwlMFZGx7F
p67
aVhttp://www.ebay.com/itm/New-PestShield-Pest-Control-KILLER-SPRAY-Ant-Insect-Fly-WASP-Spider-Flea-Crawly-/252174865215?var=&epid=1960668669&hash=item3ab6cb133f:m:meEi0FQ1SUmCCV2DRGBorYQ
p68
aVhttp://www.ebay.com/itm/10-PACK-FLY-INSECT-INSECTS-BUGS-WASP-POISON-FREE-STICKY-PAPERS-TRAPS-CATCHERS-/171778804004?hash=item27fed08924:g:PEUAAOSwEeFVSJsI
p69
aVhttp://www.ebay.com/itm/NEW-GECKO-Electric-Racket-Fly-Killer-Zapper-Swat-Wasp-Bug-Mosquito-Swatter-/272752564168?epid=8003486330&hash=item3f8151d7c8:g:i~oAAOSwAPVZMn4k
p70
aVhttp://www.ebay.com/itm/The-Executioner-Wasp-Bug-Zapper-Insect-Swat-Fly-Swatter-/310166472289?epid=513020213&hash=item48375cc661:g:xMoAAOSw~CRTqU7Y
p71
aVhttp://www.ebay.com/itm/Original-Waspinator-No-More-Wasp-Repellent-Detterant-Pest-Control-No-Chemicals-/262951096948?epid=1005299541&hash=item3d391b5274:g:E0IAAOSwARZXm1DU
p72
aVhttp://www.ebay.com/itm/3-X-INSECT-FLY-KILLER-SWATTER-SWAT-BUG-MOSQUITO-WASP-SWATTER-LONG-HANDLE-NEW-/182594243083?hash=item2a83770a0b:g:zAsAAOSwCQZZKSCq
p73
aVhttp://www.ebay.com/itm/2-x-Buzz-Honeypot-Wasp-Trap-With-Attractant-Bait-Hanging-Hook-Assorted-Colours-/171908801303?epid=896665306&hash=item2806902317:g:ItgAAOSwuMZZCHTL
p74
aVhttp://www.ebay.com/itm/The-ExecutionerTM-Fly-Swat-Wasp-Bug-Mosquito-Electric-Swatter-Zapper-FREE-P-P-/282055247147?epid=513020213&hash=item41abcd852b:g:J-0AAOSwMNxXTwFK
p75
aVhttp://www.ebay.com/itm/NEW-GECKO-Electric-Racket-Fly-Killer-Zapper-Swat-Wasp-Bug-Mosquito-Swatter-/272752564168?epid=8003486330&hash=item3f8151d7c8:g:i~oAAOSwAPVZMn4k
p76
aVhttp://www.ebay.com/itm/FLY-FLYING-INSECTS-WASP-KILLER-PEN-CONTROL-ANTS-COCKROACHES-CARPET-BEETLE-BUGS-/222408531216?epid=1226515443&hash=item33c894dd10:g:ZzAAAOSwrddY7VMk
p77
aVhttp://www.ebay.com/itm/WASP-Animal-Black-T-Shirt-Heavy-Metal-Glam-Medium-M-/200657038595?hash=item2eb8176d03:m:m44R-56MQyNQ9yIkbvFXcfQ
p78
aVhttp://www.ebay.com/itm/Catch-Spider-Bug-Fly-Bee-Wasp-Moth-Insect-Catcher-Trap-for-Arachnophobes-/112115975309?hash=item1a1aa2048d:g:dggAAOSwGtRXxv~J
p79
aVhttp://www.ebay.com/itm/FLY-PAPER-INSECT-WASP-PEST-CONTROL-CATCHER-TRAP-STICKY-ROLLS-FLY-PAPER-10-Pack-/122547366216?epid=26003299122&hash=item1c88646948:g:fOwAAOSw6ShZWMWM
p80
aVhttp://www.ebay.com/itm/W-A-S-P-THE-CRIMSON-IDOL-BRAND-NEW-FACTORY-SEALED-180G-RED-VINYL-LP-WASP-BLACKI-/172742252464?epid=1607829957&hash=item28383d97b0:g:AvgAAOSw-29ZS2~n
p81
aVhttp://www.ebay.com/itm/W-A-S-P-THE-HEADLESS-CHILDREN-BRAND-NEW-FACTORY-SEALED-COLOURED-VINYL-LP-WASP-/182631242278?epid=1705640264&hash=item2a85ab9a26:g:xWAAAOSwTuJYuDJy
p82
aVhttp://www.ebay.com/itm/6-X-300ml-Fly-And-Wasp-Killer-Spray-Kills-Flies-Wasp-Flying-Ant-Midges-Mosquitoe-/282413322941?epid=712989434&hash=item41c12552bd:g:A9oAAOSwdGFY2q9S
p83
aVhttp://www.ebay.com/itm/4x-Vapona-Window-Stickers-Sunflower-Insect-Flies-Wasp-Pest-Attractor-Repel-/261992918001?epid=1391121860&hash=item3cfffeabf1:g:~zgAAOSw~gRVwSdz
p84
aVhttp://www.ebay.com/itm/Fly-Big-Head-Swat-Swatter-Tough-Lightweight-Wasp-Insect-Bug-Mosquito-Pest-/122397923259?epid=1045061519&hash=item1c7f7c17bb:g:3~8AAOSwax5YyBi9
p85
aVhttp://www.ebay.com/itm/Decoy-Paper-Wasp-Nest-Deterrent-Simulated-Anti-Nests-Deter-Wasps-Garden-/172233289321?epid=1756429651&hash=item2819e76e69:g:Wm0AAOSw9eVXVq10
p86
aVhttp://www.ebay.com/itm/5-X-FLY-INSECT-INSECTS-STICKY-CARD-PAPERS-TRAPS-CATCHERS-BUGS-WASP-POISON-FREE-/252927441115?epid=1805253182&hash=item3ae3a678db:g:1vsAAOSwpdpVbDrc
p87
aVhttp://www.ebay.com/itm/W-A-S-P-Double-Live-Assassins-CD-NEW-/301813124162?hash=item464576cc42:g:w3wAAOSwxN5WXbEq
p88
aVhttp://www.ebay.com/itm/W-A-S-P-THE-LAST-COMMAND-BRAND-NEW-FACTORY-SEALED-180G-COLOURED-VINYL-LP-WASP-/172600426555?epid=1807807378&hash=item282fc9803b:g:8fwAAOSwXYtYtZHR
p89
aVhttp://www.ebay.com/itm/Electric-Zapper-Mosquito-Killer-Trap-Black-Light-Wasp-flying-inserts-killer-AA-/222552305048?hash=item33d126ad98:g:I~UAAOSwjRpZSO6y
p90
aVhttp://www.ebay.com/itm/3x-NEW-FLY-TRAP-WINDOW-STICKER-INSECT-BUG-PEST-CONTROL-WASP-10-x-10-cm-/162432137276?epid=676285806&hash=item25d1b5b83c:g:eLAAAOSwuLZYyQ7e
p91
aVhttp://www.ebay.com/itm/Large-Garden-Honey-Pot-Beehive-Fly-Bug-Wasp-Trap-Slug-Killer-/381529909125?var=&hash=item58d4f46785:m:mGAjrL85pKQxlAm_OIQS86w
p92
aVhttp://www.ebay.com/itm/NEW-Nippon-Baited-Wasp-Control-System-Trap-FREE-P-P-/120865119420?epid=1005116777&hash=item1c241f5cbc:g:rOsAAOxys6dSOBFL
p93
aVhttp://www.ebay.com/itm/W-A-S-P-THE-ELECTRIC-CIRCUS-BRAND-NEW-FACTORY-SEALED-COLOURED-VINYL-LP-WASP-/182631291131?epid=1807807966&hash=item2a85ac58fb:g:2J8AAOSwjRpZS2-F
p94
aVhttp://www.ebay.com/itm/W-A-S-P-WILD-CHILD85-HEAVY-METAL-BAND-WASP-TWISTED-SISTER-NEW-WHITE-T-SHIRT-57-/222163845290?var=&hash=item33b9ff40aa:m:mhchq0pYZIuLi5Db7pAJDmA
p95
aVhttp://www.ebay.com/itm/W-A-S-P-Golgotha-Ltd-Ed-Tin-Box-Set-WASP-Blackie-Lawless-1500-Worldwide-/162498750198?hash=item25d5ae26f6:g:o5IAAOSwT-FZB0Br
p96
aVhttp://www.ebay.com/itm/Flexible-Nozzle-for-Birchmeier-DR5-Powder-Wasp-Nest-Sprayer-/112370757129?epid=863927997&hash=item1a29d1ae09:g:2tUAAOSwTM5Y8R-y
p97
aVhttp://www.ebay.com/itm/Zero-In-Wasp-Nest-Killer-Foam-300ml-Aerosol-/401251088670?epid=1423174780&hash=item5d6c6db91e:g:9TkAAOSw44BYZdUY
p98
aVhttp://www.ebay.com/itm/WASP-The-Sting-Live-at-the-Key-Club-LA-2000-CD-DVD-Digipak-New-Sealed-/372004896368?epid=153246624&hash=item569d383e70:g:yS0AAOSwjvJZXpRw
p99
aVhttp://www.ebay.com/itm/100-Sterling-Silver-Cognac-Milky-Amber-Bee-Wasp-Pendant-Jewelry-Jewellery-/252840548583?hash=item3ade7898e7:g:u~0AAOSwsW9Y4Cka
p100
aVhttp://www.ebay.com/itm/10-x-Fly-Insect-Catcher-Killer-Tape-Strip-Pest-Bug-Wasp-Window-Home-Office-Trap-/322521004910?epid=702190100&hash=item4b17bffb6e:g:dc8AAOSww5hZHbm0
p101
aVhttp://www.ebay.com/itm/ORIGINAL-WASPINATOR-NO-MORE-WASPS-DETERRENT-NO-CHEMICALS-TWIN-PACK-/141258156185?epid=1005299541&hash=item20e3a46899:g:YtAAAOSwJH1ZIwye
p102
aVhttp://www.ebay.com/itm/Gorgeous-Baltic-Amber-Pendant-Wasp-with-Silver-925-/332242412880?hash=item4d5b30e550:g:vw8AAOSwlMFZLBBO
p103
aVhttp://www.ebay.com/itm/Waspinator-No-More-Wasp-Hanging-Repellent-Deterrent-Pest-Control-Repels-Wasps-/400908536335?epid=1005299541&hash=item5d5802ca0f:g:XmoAAOxy9dVTkFtD
p104
a.