(lp1
Vhttp://www.ebay.com/itm/Joe-Bonamassa-Had-To-Cry-Today-NEW-VINYL-LP-/351393439730?epid=1505681667&hash=item51d0ae5ff2:g:tfIAAOSwPgxVS2CB
p2
aVhttp://www.ebay.com/itm/Electric-Wizard-Witchcult-Today-NEW-2-x-12-VINYL-LP-/391809453266?epid=1905713035&hash=item5b39a9ccd2:g:BqIAAOSwpONZOWD9
p3
a.