(lp1
Vhttp://www.ebay.com/itm/Taxi-Driver-40th-Anniversary-Edition-With-UV-Copy-Blu-ray-/272442642300?epid=2069497037&hash=item3f6ed8cf7c:g:zA0AAOSwal5YIgW2
p2
aVhttp://www.ebay.com/itm/POPEYE-THE-SAILOR-MAN-KIDS-CARTOON-CLASSICS-4-DVD-BOX-SET-TAXI-TURVY-MORE-/181857520023?epid=1841876164&hash=item2a578d8997:g:U8oAAOSwHnFV6XK1
p3
aVhttp://www.ebay.com/itm/G-LGB-1-24-Scale-Austin-London-LTI-Taxi-FX4-Black-Cab-Detailed-Diecast-Model-Car-/282113008812?epid=1179194505&hash=item41af3ee4ac:g:gO0AAOSwo6lWMT67
p4
aVhttp://www.ebay.com/itm/EXCELLENT-OXFORD-DIECAST-1-43-1930s-AUSTIN-LOW-LOADER-TAXI-IN-FAWN-BLACK-AT007-/382061596584?epid=1771454182&hash=item58f4a54fa8:g:fhAAAOSwuhhXW9eL
p5
aVhttp://www.ebay.com/itm/SEAT-FIAT-800-CAR-BLACK-YELLOW-TAXI-1-43RD-SCALE-MODEL-CLASSIC-MINT-500-/192047139456?epid=1338633566&hash=item2cb6e6ca80:g:GKoAAOSw2xRYR-xf
p6
aVhttp://www.ebay.com/itm/JAMES-BOND-AUSTIN-FX4-LONDON-TAXI-OCTOPUSSY-CAR-MODEL-ROGER-MOORE-ISSUE-K867Q-/191591020398?epid=1038628444&hash=item2c9bb6f76e:g:HBwAAOSwl8NVaUQ3
p7
aVhttp://www.ebay.com/itm/CHECKER-NEW-YORK-TAXI-CAB-CAR-1980-1-43-SCALE-YELLOW-MODEL-IXO-ALTAYA-USA-K8Q-/192031849105?hash=item2cb5fd7a91:g:4EMAAOSwcUBYME2C
p8
aVhttp://www.ebay.com/itm/HOLLYWOOD-AMERICAN-YELLOW-CAB-TAXI-NEW-YORK-1-32-DIECAST-CAR-MUSIC-LIGHTS-/122260960347?var=&hash=item1c7752345b:m:mfV7TN3Ys5II5UzwEuiP6QQ
p9
aVhttp://www.ebay.com/itm/Welly-Austin-FX4-London-Taxi-Cab-1-43-Scale-Model-New-/370312862483?hash=item56385ddb13:g:q7cAAOxy4dNS2D-s
p10
aVhttp://www.ebay.com/itm/GAZ-M20-Russian-USSR-Taxi-1-43-Car-model-die-cast-models-cars-diecast-miniature-/192215390718?hash=item2cc0ee19fe:g:M4UAAOSw9~5ZPteD
p11
aVhttp://www.ebay.com/itm/1-24-Scale-Welly-Ford-Crown-Victoria-NYC-Yellow-Taxi-Cab-Diecast-Model-Car-1999-/272632572174?epid=1954509375&hash=item3f7a2ae90e:g:A78AAOSw5UZY8n6Z
p12
aVhttp://www.ebay.com/itm/PHOEBE-BUFFAYS-1977-CHECKER-TAXI-CAR-FRIENDS-TV-SERIES-1-43-SIZE-TYPE-Y0675J-/201393512369?epid=1930459885&hash=item2ee3fd1fb1:g:k6EAAOSwPcVVsN82
p13
aVhttp://www.ebay.com/itm/LGB-G-Scale-1-24-Fiat-500-Yellow-Taxi-Cab-NYC-USA-Welly-Diecast-Model-Car-22515-/282505056327?epid=515895487&hash=item41c69d1047:g:OWIAAOSwUKxYi30d
p14
aVhttp://www.ebay.com/itm/Yellow-Taxi-NY-Cab-1-43-SCALE-DIECAST-MODEL-CAR-TA3-3110-BONRA-New-Boxed-/351918921337?hash=item51f0009679:g:BpoAAOSwiONYPF~z
p15
aVhttp://www.ebay.com/itm/Matchbox-2017-015-125-TOYOTA-PRIUS-TAXI-yellow-Adventure-City-Case-B-/132166371880?hash=item1ec5baca28:g:8voAAOSwzqFY-iPB
p16
aVhttp://www.ebay.com/itm/Taxi-The-Complete-Series-DVD-5030697035677-Judd-Hirsch-Danny-DeVito-Mari-/302135336114?epid=854114453&hash=item4658ab5cb2:g:Vg8AAOSwo4pYJYxY
p17
aVhttp://www.ebay.com/itm/TAXI-NEW-YORK-YELLOW-CAB-1-32-DIECAST-CAR-MUSIC-SOUND-LIGHT-OPENING-DOOR-/122224318907?var=&hash=item1c752319bb:m:mfV7TN3Ys5II5UzwEuiP6QQ
p18
aVhttp://www.ebay.com/itm/Vintage-Soviet-Russia-USSR-Rare-gas-24-volga-taxi-in-1-43-scale-a3-2402-/401228347780?hash=item5d6b12b984:g:yL0AAOSwal5YMBEF
p19
aVhttp://www.ebay.com/itm/JAMES-BOND-CAR-COLLECTION-007-CARS-1-43-SCALE-DIE-CAST-MODELS-BNIB-/152479260853?var=&hash=item238078e0b5:m:mdCrpIMimWpTCjUa5N4hgRQ
p20
aVhttp://www.ebay.com/itm/JAMES-BOND-TUK-TUK-OCTOPUSSY-TAXI-MODEL-1-43-ROGER-MOORE-MODEL-ISSUE-K8967Q-/191920092183?hash=item2caf543417:g:y98AAOSwRgJXg~Bf
p21
aVhttp://www.ebay.com/itm/SIKU-Blister-Carded-MINIATURE-Vehicles-BUSES-TAXIS-TRAINS-TRAMS-8-9cm-/311774234984?var=&epid=1609962126&hash=item4897314968:m:mxKV_1zizjN6svXjbataHhQ
p22
aVhttp://www.ebay.com/itm/SIKU-Blister-Carded-MINIATURE-Vehicles-BUSES-TAXIS-TRAINS-TRAMS-8-9cm-/311774234984?var=&epid=1609962126&hash=item4897314968:m:mxKV_1zizjN6svXjbataHhQ
p23
aVhttp://www.ebay.com/itm/NEW-YORK-TAXI-YELLOW-CAB-1-32-DIECAST-CAR-MUSIC-LIGHTS-OPENING-DOOR-/112209684518?var=&hash=item1a2037e826:m:mfV7TN3Ys5II5UzwEuiP6QQ
p24
aVhttp://www.ebay.com/itm/CORGI-VA06307-MORRIS-MARINA-YELLOW-CARS-TAXI-MODEL-CAR-1-43-SCALE-VANGUARD-K867Q-/321889571627?epid=1351274191&hash=item4af21d132b:g:NpEAAOSw~bFWGOpf
p25
aVhttp://www.ebay.com/itm/1-43-DIECAST-JAMES-BOND-007-CHECKER-MARATHON-TAXI-CAB-FROM-LIVE-AND-LET-DIE-/381671983479?epid=631062874&hash=item58dd6c4977:g:CJEAAOxyOlhS3A~A
p26
aVhttp://www.ebay.com/itm/LONDON-BUS-BLACK-TAXI-PHONE-POST-BOX-SET-METAL-SOUVENIR-GIFT-/152329567188?hash=item23778cbbd4:g:RGcAAOSwUV9Wnlud
p27
aVhttp://www.ebay.com/itm/Samy-Naceri-Frederic-Diefe-Taxi-4-DVD-NEW-/281939888969?epid=1204797446&hash=item41a4ed4b49:g:1AwAAOSwll1WxvGL
p28
aVhttp://www.ebay.com/itm/Taxi-Zum-Klo-Collectors-Edition-DVD-NEW-/220857346226?epid=894490151&hash=item336c1fa8b2:g:XH8AAOSwzrxUrSER
p29
aVhttp://www.ebay.com/itm/Taxi-Tehran-Bluray-Blu-Ray-NEW-/302129963648?epid=1657686888&hash=item4658596280:g:n3YAAOSwHMJYHdL1
p30
aVhttp://www.ebay.com/itm/SUPERB-1-43-JAMES-BOND-007-AUSTIN-A55-CAMBRIDGE-MKII-YELLOW-CAB-TAXI-FROM-DR-NO-/381222156332?hash=item58c29c782c:g:FHAAAOSwBLlVJ-zP
p31
aVhttp://www.ebay.com/itm/FORD-FAIRLANE-LA-HABANA-TAXI-1956-MODEL-CAR-1-43RD-GREEN-CREAM-EXAMPLE-T3412Z-/201279984425?epid=1538689726&hash=item2edd38d329:g:Dr4AAOSwBahU0f53
p32
aVhttp://www.ebay.com/itm/TAXI-DRIVER-40th-Anniversary-BLU-RAY-Sealed-Region-free-for-UK-/162234545099?epid=1792880465&hash=item25c5eeb3cb:g:vqkAAOSwOyJX--ed
p33
aVhttp://www.ebay.com/itm/Oxford-Diecast-Model-AFS-Low-Loader-Taxi-Car-1-43-Scale-AT003-New-/192023137271?epid=1823800723&hash=item2cb5788bf7:g:aREAAOSwmgJY7x-A
p34
aVhttp://www.ebay.com/itm/Sunstar-Silver-1998-TX1-London-Taxi-Cab-1-18-Diecast-Model-Car-/320748563540?epid=1230506077&hash=item4aae1aac54:g:8OwAAOxyBjBTU9Me
p35
aVhttp://www.ebay.com/itm/Corgi-Destination-London-2012-Olympics-Model-Taxi-3-Judo-/310841969585?epid=1356531418&hash=item485fa00bb1:g:TNcAAOxyVLNS0cN2
p36
aVhttp://www.ebay.com/itm/Taxi-Driver-DVD-/281782038680?epid=3947368&hash=item419b84b098:g:nqMAAOSwMmBV2~o0
p37
aVhttp://www.ebay.com/itm/Samy-Naceri-Marion-Cotillard-TAXI-TAXI-2-Luc-Besson-Rare-UK-DVD-Box-Set-/361477240693?epid=30861548&hash=item5429b8f775:g:c2wAAOSw3ydVpUKW
p38
aVhttp://www.ebay.com/itm/PLYMOUTH-SAVOY-JAMES-BOND-TAXI-CAR-1-43RD-SIZE-BLACK-COLOUR-EXAMPLE-T3412Z-/191575513765?hash=item2c9aca5aa5:g:HQ4AAOSwPhdVTIiO
p39
aVhttp://www.ebay.com/itm/Samy-Naceri-Marion-Cotillard-TAXI-TAXI-2-Luc-Besson-Rare-UK-DVD-Box-Set-/361477240693?epid=30861548&hash=item5429b8f775:g:c2wAAOSw3ydVpUKW
p40
aVhttp://www.ebay.com/itm/PLYMOUTH-SAVOY-JAMES-BOND-TAXI-CAR-1-43RD-SIZE-BLACK-COLOUR-EXAMPLE-T3412Z-/191575513765?hash=item2c9aca5aa5:g:HQ4AAOSwPhdVTIiO
p41
aVhttp://www.ebay.com/itm/BNIB-N-GAUGE-OXFORD-DIECAST-1-148-NAT001-BLACK-AUSTIN-LOW-LOADER-TAXI-/201941206569?epid=1440267991&hash=item2f04a24629:g:Kg0AAOSwX61ZLXDQ
p42
aVhttp://www.ebay.com/itm/FORD-CROWN-VICTORIA-1-24-TAXI-Model-Car-Metal-Models-Cars-Metal-Miniature-/191976241707?epid=1640885147&hash=item2cb2acfa2b:g:NlcAAOSw4shX4b3D
p43
aVhttp://www.ebay.com/itm/1-43-Greenlight-86075-1978-Checker-Yellow-Taxi-Scrooged-Bill-Murray-/182516056909?epid=533094203&hash=item2a7ece034d:g:eDoAAOSwo4pYlLbq
p44
aVhttp://www.ebay.com/itm/Corgi-1-43-58001-London-Taxi-British-Diabetic-Association-Damaged-Box-/332038865698?hash=item4d4f0f0322:g:L6gAAOSwnbZYCnRH
p45
aVhttp://www.ebay.com/itm/Oxford-diecast-Austin-low-loader-Westminster-taxi-/252480045873?hash=item3ac8fbc331:g:sYwAAOSwPRlXmzaJ
p46
aVhttp://www.ebay.com/itm/Samy-Naceri-Sylvester-Stallone-TAXI-3-Luc-Besson-French-Action-Film-UK-DVD-/222046911591?epid=53695849&hash=item33b306fc67:g:YesAAOSwfVpYpvOh
p47
aVhttp://www.ebay.com/itm/FIAT-SEAT-800-CAR-BLACK-YELLOW-TAXI-1-43-MODEL-4-DOOR-ISSUE-K8796Q-500-/200883325148?epid=1938575972&hash=item2ec59448dc:g:nH8AAMXQU6tQ-t3Q
p48
aVhttp://www.ebay.com/itm/LONDON-TAXI-BENDICKS-CAR-MODEL-NOT-IN-SHOPS-1-36TH-SIZE-FX4-LTI-HACKNEY-TYPE-/201171700314?epid=0&hash=item2ed6c48a5a:g:qZkAAOSwGvhUFyLs
p49
aVhttp://www.ebay.com/itm/Taxi-Driver-DVD-/281782038680?epid=3947368&hash=item419b84b098:g:nqMAAOSwMmBV2~o0
p50
aVhttp://www.ebay.com/itm/Corgi-The-Beatles-album-cover-die-cast-collectable-taxi-NEW-/182575416859?var=&hash=item2a8257c61b:m:mioBkb_pvk8WskhdTSqTUMA
p51
aVhttp://www.ebay.com/itm/MERCEDES-BENZ-180D-TAXI-TEL-AVIV-1962-MODEL-CAR-CLASSIC-SALOON-MINT-BOXED-AA-/190641095967?epid=1038725718&hash=item2c6318451f:m:meZY3-NKhpsdUtXyUgB7TYA
p52
aVhttp://www.ebay.com/itm/Taxi-Driver-Blu-ray-NEW-/121893383244?epid=102189711&hash=item1c61696c4c:g:6qgAAOSwCU1Y4iVn
p53
a.