(lp0
Vhttp://www.ebay.com/itm/VOTE-FOR-PEDRO-Napoleon-Dynamite-tribute-Retro-T-shirt-Sizes-from-Small-XXL-/161582104312?var=&hash=item259f0b3ef8:m:m0kk3TjLxlNNGZ40wX44ozA
p1
aVhttp://www.ebay.com/itm/Vote-for-Pedro-T-Shirt-Great-quality-100-cotton-and-dispatched-fast-/221424966441?var=&hash=item338df4db29:m:mvA4-vmrPv6VnseC2CZBfpQ
p2
aVhttp://www.ebay.com/itm/I-Think-Therefore-Vote-Conservative-T-shirt-BW-UK-Politics-Tory-Tories-Election-/182543034935?var=&epid=1067014330&hash=item2a8069aa37:m:mVgCKgGBHcJU1JsTR3TZ8BA
p3
aVhttp://www.ebay.com/itm/VOTE-FOR-PEDRO-T-shirt-from-Napolean-Dynamite-Film-Funny-Humour-Classic-Retro-/162116799527?var=&hash=item25beea0c27:m:mask4Wv-VzyYH98FkEQLIkg
p4
aVhttp://www.ebay.com/itm/JEREMY-CORBYN-JUST-DO-IT-VOTE-LABOUR-Election-Heavy-Cotton-t-shirt-All-Sizes-/263013778210?var=&hash=item3d3cd7c322:m:mN9efq2k7DKORF93OCfLHig
p5
aVhttp://www.ebay.com/itm/HEROES-VOTE-PETRELLI-FOR-CONGRESS-OFFICIAL-MENS-T-SHIRT-/171312191270?var=&hash=item27e3009726:m:mFWcdZm--fa4qRoVEDKQdzw
p6
aVhttp://www.ebay.com/itm/Vote-For-Pedro-mens-t-Shirt-Napoleon-Dynamite-/251466800917?var=&hash=item3a8c96df15:m:mMKTTadCn53tVEbyPA9t6ng
p7
aVhttp://www.ebay.com/itm/TEAM-CORBYN-VOTE-LABOUR-Election-Jeremy-Corbyn-Heavy-Cotton-t-shirt-All-Sizes-/162483291447?var=&hash=item25d4c24537:m:mhvR5RHNoR-3N-Ez1F4JYEQ
p8
aVhttp://www.ebay.com/itm/T-SHIRT-Napoleon-Dynamite-Cult-classic-funny-geek-fan-inspired-VOTE-FOR-PEDRO-/162451591394?var=&hash=item25d2de90e2:m:mng2diZsxGoWKMxFhvZ7uRA
p9
aVhttp://www.ebay.com/itm/VOTE-FOR-PEDRO-T-SHIRT-Napoleon-Dynamite-S-2XL-Cult-classic-funny-geek-tee-/361871644730?var=&hash=item54413b183a:m:m6UOcL4_zEQRfunbrNIBlsw
p10
aVhttp://www.ebay.com/itm/MAY-THE-SENSE-CONSERVATIVE-MENS-T-SHIRT-ELECTION-POLITICAL-POLITICS-VOTE-TORY-/252893203684?var=&hash=item3ae19c0ce4:m:m73Tvjr91QfSQcB4z6T331g
p11
aVhttp://www.ebay.com/itm/Keep-Calm-And-Vote-Conservatives-Party-Election-Mens-T-Tee-Shirt-Free-P-P-/192168238894?var=&hash=item2cbe1e9f2e:m:mGg2u_eKn15ctuTPGoXxSDA
p12
aVhttp://www.ebay.com/itm/VOTE-FOR-PEDRO-napoleon-dynamite-T-shirt-S-XXL-/191894844198?var=&hash=item2cadd2f326:m:mCiVu6hQEK0QUdFG_cC16bA
p13
aVhttp://www.ebay.com/itm/I-Think-Therefore-I-Vote-LABOUR-T-shirt-RW-UK-Politics-General-Election-Top-/182543031824?var=&hash=item2a80699e10:m:mun8YZq7_0Nfv6vzeU2ElSA
p14
aVhttp://www.ebay.com/itm/Strong-and-Stable-My-Arse-T-Shirt-Election-Jeremy-Corbyn-Tshirt-Vote-Labour-599-/262999459734?var=&hash=item3d3bfd4796:m:mpqPWHhMI4lDEvBnbYyd7ig
p15
aVhttp://www.ebay.com/itm/Keep-Calm-And-Vote-UKIP-GENERAL-ELECTION-Mens-Purple-T-Tee-Shirt-Free-P-P-/162490345689?var=&hash=item25d52de8d9:m:mvZB-vdVcXiWhEo-pQONavg
p16
aVhttp://www.ebay.com/itm/Still-Aye-T-shirt-Navy-Scottish-Independence-Referendum-Scotland-Vote-Yes-/182492795405?var=&hash=item2a7d6b120d:m:mADhqLM5DKbE1ydBFfkEqxg
p17
aVhttp://www.ebay.com/itm/The-English-Roses-Ready-Set-Vote-Madonna-/131843334128?epid=91475358&hash=item1eb2799ff0:g:2M8AAOSwMNxXWa0Q
p18
aVhttp://www.ebay.com/itm/I-VOTED-IN-EURO-REFERENDUM-VOTE-REMAIN-Heavy-Cotton-T-shirt-Sizes-Small-XXL-/152142020001?var=&hash=item236c5efda1:m:mEb9aHFwMcDu9RFh78JXJKQ
p19
aVhttp://www.ebay.com/itm/JEREMY-CORBYN-T-SHIRT-GOVERNMENT-LEADER-T-SHIRT-TEE-TOP-VOTE-LABOUR-UK-ELECTIONS-/322525617322?var=&hash=item4b18065caa:m:mqHWA73OoklSxVSD-PTGqlg
p20
aVhttp://www.ebay.com/itm/Only-Fools-Vote-Tories-T-Shirt-Only-Fools-Horses-parody-100-Cotton-/111961295413?var=&hash=item1a1169ca35:m:mxHyxSI_sb8p2C75yOFWBbA
p21
aVhttp://www.ebay.com/itm/BREXIT-T-SHIRT-EU-UK-REFERENDUM-POLITICS-POLITRICKS-FREXIT-EUROPE-VOTE-T-SHIRT-/201614599102?var=&hash=item2ef12aa3be:m:mQsxmuWepoMLWea4r-jtfdw
p22
aVhttp://www.ebay.com/itm/Napoleon-Dynamite-Portrait-Inspired-T-shirt-Movie-Geek-Vote-for-Pedro-comedy-/141383518079?var=&hash=item20eb1d477f:m:miXo5UJFricHyvLCDTc3Zhg
p23
aVhttp://www.ebay.com/itm/VOTE-NAW-T-shirt-Scottish-Independence-Tshirt-Referendum-AYE-Yes-Top-Scotland-NO-/321429633273?var=&hash=item4ad6b2f8f9:m:mpLwVG2jqWaDc-O45z9r1eA
p24
aVhttp://www.ebay.com/itm/YEEZY-2020-Vote-Kanye-Jumper-Sweat-President-Yeezus-All-That-Power-Kanye-West-/182317301591?var=&hash=item2a72f53f57:m:mi4YHfTTtWvzBaV7t1bvR9A
p25
aVhttp://www.ebay.com/itm/Vote-Labour-T-Shirt-Mens-Womens-Ladyfit-Goverment-Jeremy-Corbyn-Election-/142354907172?var=&hash=item2125038024:m:mi7FACYG6LAX9hAxz_tbpLw
p26
aVhttp://www.ebay.com/itm/Keep-Calm-And-Vote-UKIP-General-Election-T-Shirt-3-Colours-to-5XL-/141632618645?var=&hash=item20f9f64095:m:mkwNGa6CQYayGulucswmGMw
p27
aVhttp://www.ebay.com/itm/Malta-2-Euro-Coin-2011-Commemorative-First-Vote-New-BUNC-from-Roll-Democratic-/172720456695?hash=item2836f103f7:g:8V8AAOSwTuJYq1hw
p28
aVhttp://www.ebay.com/itm/Caspers-Scare-School-Vote-for-Casper-Scare-Day-DVD-/271968303627?epid=108858817&hash=item3f5292fa0b:g:CI0AAOSw~gRV3aCy
p29
aVhttp://www.ebay.com/itm/Keep-Calm-And-Vote-CONSERVATIVE-General-Election-T-Shirt-3-Colours-to-5XL-/201327477970?var=&hash=item2ee00d84d2:m:mN3e5Or7Kvu1yy2RnQ_LyBg
p30
aVhttp://www.ebay.com/itm/VOTE-LABOUR-T-SHIRT-MENS-LADIES-GOVERNMENT-JEREMY-CORBYN-LEADER-T-SHIRT-TEE-TOP-/322513443497?var=&hash=item4b174c9aa9:m:mKj20r8zJJp7tEmIAPcdytA
p31
aVhttp://www.ebay.com/itm/Suffragette-Penny-Defaced-Edward-VII-Coin-Votes-for-Women-Emily-Pankhurst-/352076302700?hash=item51f962096c:g:3GEAAOSwo4pYZ9ZC
p32
aVhttp://www.ebay.com/itm/Keep-Calm-And-Vote-LABOUR-General-Election-T-Shirt-3-Colours-to-5XL-/141632617680?var=&hash=item20f9f63cd0:m:mwe4HF7OedpgFJ2HUWv8ehQ
p33
aVhttp://www.ebay.com/itm/Keep-Calm-And-Vote-AYE-Scottish-Independence-Unisex-T-Shirt-16-Colours-to-5XL-/201125840649?var=&hash=item2ed408c709:m:mdFaESW778xMw6JZZf9oj-w
p34
aVhttp://www.ebay.com/itm/Vote-Out-European-Union-T-Shirt-Brexit-EU-Exit-Campaign-Rederendum-Leave-Unisex-/201589522804?var=&hash=item2eefac0174:m:m0xuxN3pjxwIjkvK0oWMrLQ
p35
aVhttp://www.ebay.com/itm/Yes-Scotland-EU-Remain-Referendum-Vote-Scottish-Independence-Mug-Royal-Blue-/322175399207?hash=item4b03267527:g:7JMAAOSwzJ5XdO-8
p36
aVhttp://www.ebay.com/itm/LOT-VOTES-FOR-WOMEN-SUFFRAGETTE-BADGE-PIN-SUFFRAGE-BUTTON-POLITICAL-PROTEST-/201973449992?hash=item2f068e4508:g:KpUAAOSwLsBZWSAu
p37
aVhttp://www.ebay.com/itm/EU-BREXIT-EURO-REFERENDUM-NO-VOTE-LEAVE-Heavy-Cotton-T-shirt-Sizes-Small-XXL-/161988863556?var=&hash=item25b749e644:m:mofzJ2P90aepRanPRiX7PMQ
p38
aVhttp://www.ebay.com/itm/Keep-Calm-And-Vote-SNP-Scottish-Nat-General-Election-T-Shirt-3-Colours-to-5XL-/141632618404?var=&hash=item20f9f63fa4:m:mWlRPzaB06bY4buBIRVqKQQ
p39
aVhttp://www.ebay.com/itm/Brexit-Vote-Out-European-Union-T-Shirt-EU-Exit-Campaign-Referend-Unisex-S-2xl-/201586197551?var=&hash=item2eef79442f:m:mropRF5Zomm8bLuGXIkGVsg
p40
aVhttp://www.ebay.com/itm/Vote-for-Pedro-Napoleon-Dynamite-NEW-T-shirt-Exact-replica-film-and-tv-Jon-Heder-/121159460435?var=&hash=item1c35aaa653:m:mTkxHRJjdJueOFLhdqn_3Qw
p41
aVhttp://www.ebay.com/itm/2003-Suffragette-Give-Women-The-Vote-50p-Commemorative-Unlimited-Supply-W-Sale-/361740014929?epid=524399197&hash=item5439629551:g:rRsAAOSwmfhX4rC~
p42
aVhttp://www.ebay.com/itm/WE-ARE-THE-48-T-SHIRT-VARIOUS-SIZES-AND-COLS-Referendum-EU-Europe-Vote-Brexit-/112040599992?var=&hash=item1a1623e1b8:m:mjL3l-7U26FQw62ngLdXKQA
p43
aVhttp://www.ebay.com/itm/Reasons-to-Vote-for-Democrats-A-Comprehensive-Guide-9781501180125-/252893967008?epid=237089777&hash=item3ae1a7b2a0:g:eZ4AAOSwSypY~ioy
p44
aVhttp://www.ebay.com/itm/Napoleon-Dynamite-Vote-For-Pedro-white-ringer-t-shirt-FN9384-/322158509947?var=&hash=item4b0224bf7b:m:mDuNl5F_jqwnUY7OdRNrDAw
p45
aVhttp://www.ebay.com/itm/Edward-VII-Defaced-Penny-Coin-Suffragette-KeyFob-Votes-for-Women-Emily-Pankhurst-/352073275508?hash=item51f933d874:g:Vh4AAOSwq7JUEYYH
p46
aVhttp://www.ebay.com/itm/Brexit-T-Shirt-Mens-Male-We-Can-Do-It-Euro-Vote-No-European-Exit-T-Shirt-Anti-/231891231193?var=&hash=item35fdcb61d9:m:mI16Tq12t-WpgXgvmGgndkw
p47
aVhttp://www.ebay.com/itm/New-Brexit-T-Shirt-IM-WITH-BORIS-VOTE-LEAVE-Small-to-5XL-EURO-REFERENDUM-/231880947011?var=&hash=item35fd2e7543:m:mnKlT_TjyCRdhQVA9gKxEqw
p48
aVhttp://www.ebay.com/itm/Kanye-For-President-t-shirt-shirt-funny-gift-tee-vote-2020-Christmas-slogan-/201710468366?var=&hash=item2ef6e17d0e:m:mx0Sn4-dfWkrdF95N3rz1sA
p49
aVhttp://www.ebay.com/itm/Keep-Calm-Vote-Theresa-May-Conservative-Election-Wall-Art-Poster-All-Sizes-10-/112387990579?var=&hash=item1a2ad8a433:m:mG70EaKU7enA102FoWu0VWA
p50
aVhttp://www.ebay.com/itm/SUFFRAGETTE-BADGE-PIN-LOT-SUFFRAGE-VOTES-FOR-WOMEN-PANKHURST-POLITICAL-UNION-/201973446211?hash=item2f068e3643:g:JOYAAOSwMvtZWR42
p51
aVhttp://www.ebay.com/itm/Vote-For-Pedro-Funny-Slogan-T-Shirt-/182018110920?var=&hash=item2a611ff5c8:m:mm9rSMAIPKTpnz8aZeYFwfA
p52
aVhttp://www.ebay.com/itm/Foul-The-Secret-World-of-FIFA-Bribes-Vote-Rigging-and-Ticket-Scandals-book-/361508306143?epid=87783886&hash=item542b92fcdf:g:RasAAOSwvgdW4aUw
p53
aVhttp://www.ebay.com/itm/1-oz-2016-Silver-Shield-Vote-Trump-He-Shall-Overcomb-/311779725702?hash=item4897851186:g:3MwAAOSw-itXver3
p54
aVhttp://www.ebay.com/itm/BREXIT-T-Shirt-Europe-EU-Referendum-Vote-Leave-/162091993608?var=&hash=item25bd6f8a08:m:m2EB4BxX9CejBKyPf1FDHaA
p55
aVhttp://www.ebay.com/itm/Brexit-The-Most-Important-Deal-Of-The-Day-Mens-100-cotton-tshirt-Vote-Leave-/231981693893?var=&hash=item36032fbbc5:m:mB7YbQgBn0Cqgbur8N8iVlA
p56
aVhttp://www.ebay.com/itm/1979-Conservative-Party-Vote-For-Margaret-Thatcher-Election-Poster-A3-Reprint-/291285317784?epid=526620940&hash=item43d1f53898:g:busAAMXQROxRFjAc
p57
aVhttp://www.ebay.com/itm/Vote-Labour-4x-90mm-Circular-Sticker-Pack-Vinyl-Decal-Sticker-Free-Post-/192177505034?var=&hash=item2cbeac030a:m:mjIQGbwGJ81YSBaDI6csIGw
p58
aVhttp://www.ebay.com/itm/VOTE-FOR-BATMAN-1-inch-25mm-Button-Badge-Novelty-Cute-Adam-West-/321312130992?epid=1332051305&hash=item4acfb207b0:g:MkcAAMXQVERS7D7J
p59
aVhttp://www.ebay.com/itm/Vote-Deez-Nuts-For-President-2016-Funny-Ladies-Mens-Tshirt-T-shirt-Womens-/182417375407?var=&hash=item2a78ec40af:m:mve_0rktwEoAxXpGsvMPfow
p60
aVhttp://www.ebay.com/itm/Yes-Lapel-Tie-Hat-or-Cap-Pin-Badge-Referendum-Vote-Election-Ballot-Brooch-/151767362585?epid=1088790650&hash=item23560a2c19:g:5l0AAOSwDNdVv59h
p61
aVhttp://www.ebay.com/itm/Keep-Calm-Vote-Jeremy-Corbyn-Labour-Election-Wall-Art-Poster-All-Sizes-17-/112387976896?var=&hash=item1a2ad86ec0:m:mycPyE4mvPqhjgRxBl2WBhQ
p62
aVhttp://www.ebay.com/itm/COMBO-RECEIVER-Golden-Media-WIZARD-VOTE-2-TWIN-TUNER-with-CI-slot-LAN-/281616927855?epid=1443083555&hash=item4191ad4c6f:g:LDgAAOSwjRpZVCRD
p63
aVhttp://www.ebay.com/itm/2003-Suffragettes-Give-Women-the-Right-to-Vote-50p-Circulated-/262961747795?hash=item3d39bdd753:g:SecAAOSw42JZByUm
p64
aVhttp://www.ebay.com/itm/2003-Suffragettes-Give-Women-the-Right-to-Vote-50p-Circulated-/262961747795?hash=item3d39bdd753:g:SecAAOSw42JZByUm
p65
aVhttp://www.ebay.com/itm/Rare-Circulated-50-Pence-Coins-Great-British-Coin-Hunt-/201692672955?var=&hash=item2ef5d1f3bb:m:miRUBdl047lRbaj_OAeDb3Q
p66
aVhttp://www.ebay.com/itm/MENS-VOTE-FOR-PEDRO-T-SHIRT-WIG-GLASSES-GEEK-NERD-FANCY-DRESS-COSTUME-/152382743043?var=&hash=item237ab82203:m:mW6AGKcPaQl2hJt7gMxO44g
p67
aVhttp://www.ebay.com/itm/Suffragettes-Give-Women-The-Vote-50p-Fifty-Pence-Coin-Rare-2003-/272725386325?epid=892346910&hash=item3f7fb32455:g:qpcAAOSwWiBY-Swx
p68
aVhttp://www.ebay.com/itm/JEZ-WE-CAN-1-inch-25mm-Button-Badge-Labour-Election-Jeremy-Corbyn-Vote-/322494390892?hash=item4b1629e26c:g:BHgAAOSw53NY~1SM
p69
aVhttp://www.ebay.com/itm/2003-Womens-Vote-Suffragettes-100th-Anniversary-50p-Fifty-Pence-Proof-Coin-/181727062770?hash=item2a4fc6eaf2:g:wb8AAOSwBahU35yB
p70
a.