(lp1
Vhttp://www.ebay.com/itm/Whoever-Fights-Monsters-by-Robert-K-Ressler-9780312950446-Paperback-1998-/332257948298?epid=87726661&hash=item4d5c1df28a:g:vJIAAOSwN2VZOsr5
p2
aVhttp://www.ebay.com/itm/All-the-Luck-the-light-for-whoever-wears-me-925-Silver-Earrings-Hallmarked-/282423983661?hash=item41c1c7fe2d:g:yQAAAOSwmgJY5nyG
p3
aVhttp://www.ebay.com/itm/WHOEVER-SAID-MONEY-CANT-BUY-HAPPINESS-SUBARU-IMPREZA-STI-PRODRIVE-11oz-MUG-/252767278208?epid=559328374&hash=item3ada1a9480:g:phUAAOSwOgdYoFSF
p4
aVhttp://www.ebay.com/itm/Whoever-Said-Diamonds-Girls-Best-Friend-Never-Owned-a-Ginger-Cat-Keyring-Gift-/182451114778?epid=557218302&hash=item2a7aef131a:g:opQAAOSw3v5YnihQ
p5
aVhttp://www.ebay.com/itm/Blair-Waldorf-Whoever-Said-Money-Quote-Typography-Art-Print-Gossip-Girl-/172642078832?hash=item2832451070:g:DpAAAOSwSypY~hbH
p6
aVhttp://www.ebay.com/itm/Whoever-Said-Diamonds-Girls-Best-Friend-Never-Owned-a-Border-Collie-Keyring-Gift-/182450014758?epid=555191453&hash=item2a7ade4a26:g:VyUAAOSwx6pYnNjx
p7
aVhttp://www.ebay.com/itm/Whoever-Said-Diamonds-Girls-Best-Friend-Never-Owned-a-Staffy-Keyring-Gift-/172528888879?epid=559745880&hash=item282b85ec2f:g:h80AAOSw4CFYoNhz
p8
aVhttp://www.ebay.com/itm/Whoever-Said-Diamonds-Girls-Best-Friend-Never-Owned-a-Springer-Spaniel-Keyring-/182453189101?epid=559744062&hash=item2a7b0eb9ed:g:6aQAAOSw~AVYoNbH
p9
aVhttp://www.ebay.com/itm/Whoever-Said-Diamonds-Girls-Best-Friend-Never-Owned-a-German-Shepherd-Keyring-/182451112597?epid=557003907&hash=item2a7aef0a95:g:DngAAOSw32lYnie1
p10
aVhttp://www.ebay.com/itm/Whoever-Said-Diamonds-Girls-Best-Friend-Never-Owned-a-French-Bulldog-Keyring-/182450073416?epid=555247263&hash=item2a7adf2f48:g:EscAAOSw4A5YnOdE
p11
aVhttp://www.ebay.com/itm/Whoever-Said-Diamonds-Girls-Best-Friend-Never-Owned-an-Akita-Keyring-Ideal-Gift-/182448995944?epid=552205463&hash=item2a7acebe68:g:-Z0AAOSwnHZYm5wQ
p12
aVhttp://www.ebay.com/itm/Whoever-Said-Diamonds-Are-Girls-Best-Friend-Ginger-Cat-Fridge-Magnet-Gift-/252263642089?hash=item3abc15b3e9:g:tKsAAOSwGotWo8FB
p13
aVhttp://www.ebay.com/itm/Whoever-Said-Diamonds-Girls-Best-Friend-Never-Owned-a-Staffy-Keyring-Gift-/172528888879?epid=559745880&hash=item282b85ec2f:g:h80AAOSw4CFYoNhz
p14
aVhttp://www.ebay.com/itm/Whoever-Said-Diamonds-Girls-Best-Friend-Never-Owned-a-Cocker-Spaniel-Keyring-/172523935593?epid=555205498&hash=item282b3a5769:g:bS4AAOSw32lYnN1B
p15
aVhttp://www.ebay.com/itm/NEW-WOODEN-QUOTE-PLAQUE-WHOEVER-SAID-MONEY-CANT-BUY-HAPPINESS-SIGN-SD-/311809109884?hash=item4899456f7c:g:19gAAOSwr~lYrvRT
p16
aVhttp://www.ebay.com/itm/Whoever-Said-Diamonds-Girls-Best-Friend-Never-Owned-a-Patterdale-Keyring-Gift-/172528762202?epid=559700038&hash=item282b83fd5a:g:uJMAAOSwx6pYoMQy
p17
aVhttp://www.ebay.com/itm/Whoever-Said-Diamonds-Girls-Best-Friend-Never-Owned-a-Chihuahua-Keyring-Gift-/172523933322?epid=555205820&hash=item282b3a4e8a:g:mUMAAOSw3v5YnNy8
p18
aVhttp://www.ebay.com/itm/Whoever-Said-Diamonds-Girls-Best-Friend-Never-Owned-a-Rottweiler-Keyring-Gift-/182453169479?epid=559733740&hash=item2a7b0e6d47:g:jXoAAOSwr~lYoMuL
p19
aVhttp://www.ebay.com/itm/Whoever-Said-Diamonds-Are-Girls-Best-Friend-Ragdoll-Cat-Fridge-Magnet-Gift-/401059931036?hash=item5d6108e39c:g:enoAAOSwUV9Wo8Be
p20
aVhttp://www.ebay.com/itm/Whoever-Said-Diamonds-Are-Girls-Best-Friend-Manx-Cat-Fridge-Magnet-Gift-Kitten-/252263638845?hash=item3abc15a73d:g:KoQAAOSwuYVWo8C1
p21
aVhttp://www.ebay.com/itm/Whoever-You-Are-by-Mem-Fox-9780152060305-Paperback-2007-/331992403329?epid=108506147&hash=item4d4c4a0d81:g:~VAAAOSw8gVX9rCq
p22
aVhttp://www.ebay.com/itm/Whoever-You-Choose-to-Love-Stories-Paul-Colette-Good-Books-/172259008040?epid=87052113&hash=item281b6fde28:g:iBsAAOSwOVpXdV2T
p23
aVhttp://www.ebay.com/itm/East-Of-India-Whoever-Said-Money-Porcelain-Mugs-Gift-Boxed-4157-EOI-/272234693368?epid=1371211512&hash=item3f6273c2f8:g:YaMAAOSwiYFXLGny
p24
aVhttp://www.ebay.com/itm/WHOEVER-SAID-MONEY-CANT-BUY-HAPPINESS-NISSAN-240SX-SILVA-DRIFT-JDM-11oz-MUG-/252767284805?epid=559333344&hash=item3ada1aae45:g:MbcAAOSw32lYoFac
p25
aVhttp://www.ebay.com/itm/Straight-Ally-LGBT-Love-Whoever-Lapel-Pin-Badge-/361709341147?epid=783541586&hash=item54378e89db:g:rwQAAOSwFV9XxVjg
p26
aVhttp://www.ebay.com/itm/Whoever-Said-Diamonds-Girls-Best-Friend-Never-Owned-a-Shih-Tzu-Keyring-Gift-/182453178778?epid=559739046&hash=item2a7b0e919a:g:7VQAAOSwB-1YoNPj
p27
aVhttp://www.ebay.com/itm/Whoever-Said-Diamonds-Girls-Best-Friend-Never-Owned-a-Greyhound-Keyring-Gift-/172525649948?epid=557012299&hash=item282b54801c:g:puwAAOSwOgdYnilR
p28
aVhttp://www.ebay.com/itm/Whoever-Said-Diamonds-Girls-Best-Friend-Didn-t-Own-A-Dog-Sign-Gift-For-Dog-Lover-/281034417520?hash=item416ef4e570:g:Vc4AAOSwmtJXaVM3
p29
aVhttp://www.ebay.com/itm/Whoever-Said-Diamonds-Girls-Best-Friend-Never-Owned-a-Sphynx-Cat-Keyring-Gift-/182453186167?epid=559742680&hash=item2a7b0eae77:g:gx4AAOSwTuJYoNUh
p30
aVhttp://www.ebay.com/itm/FUNNY-WINE-QUOTE-POSTER-PRINT-4-WHOEVER-SAID-LAUGHTER-WAS-THE-BEST-MEDICINE-/400676678482?epid=1188407516&hash=item5d4a30eb52:g:6xYAAOxyeR9TH4nk
p31
aVhttp://www.ebay.com/itm/Whoever-Said-Diamonds-Girls-Best-Friend-Never-Owned-a-Maltese-Keyring-Ideal-Gift-/172525673063?hash=item282b54da67:g:0hUAAOSwax5YnjE0
p32
aVhttp://www.ebay.com/itm/Whoever-Said-Diamonds-Girls-Best-Friend-Never-Owned-a-Dog-Keyring-Ideal-Gift-/172523982677?epid=555220922&hash=item282b3b0f55:g:jgwAAOSw3v5YnOMi
p33
aVhttp://www.ebay.com/itm/Whoever-Said-Diamonds-Girls-Best-Friend-Never-Owned-a-Black-Cat-Keyring-Gift-/172523911677?epid=555192618&hash=item282b39f9fd:g:IykAAOSwfVpYnNhx
p34
aVhttp://www.ebay.com/itm/Whoever-Said-Diamonds-Girls-Best-Friend-Never-Owned-Miniature-Schnauzer-Keyring-/172525691796?hash=item282b552394:g:raQAAOSwfVpYnjKC
p35
aVhttp://www.ebay.com/itm/Whoever-Said-Diamonds-Girls-Best-Friend-Never-Owned-a-Weimaraner-Keyring-/182453209908?epid=559754450&hash=item2a7b0f0b34:g:aFkAAOSwTuJYoNz6
p36
aVhttp://www.ebay.com/itm/Whoever-Said-Diamonds-Girls-Best-Friend-Never-Owned-a-Labradoodle-Keyring-Gift-/172525661367?epid=557031963&hash=item282b54acb7:g:O4kAAOSwx6pYni1X
p37
aVhttp://www.ebay.com/itm/Whoever-Said-Diamonds-Girls-Best-Friend-Never-Owned-a-Pug-Keyring-Ideal-Gift-/172528785834?epid=559705019&hash=item282b8459aa:g:qh0AAOSw32lYoMZb
p38
aVhttp://www.ebay.com/itm/Whoever-Said-Diamonds-Girls-Best-Friend-Never-Owned-a-Saint-Bernard-Keyring-Gift-/182453171077?hash=item2a7b0e7385:g:cakAAOSwfVpYoNFV
p39
aVhttp://www.ebay.com/itm/Whoever-Said-Diamonds-Girls-Best-Friend-Never-Owned-a-Lurcher-Keyring-Ideal-Gift-/172525670386?epid=557049061&hash=item282b54cff2:g:pZsAAOSwx6pYnjBJ
p40
aVhttp://www.ebay.com/itm/Whoever-Said-Diamonds-Are-Girls-Best-Friend-Never-Owned-A-Cat-Magnet-Ideal-Gift-/400901236049?var=&hash=item5d57936551:m:m6nWxt1Hhz2a-dDNWKXwZLw
p41
aVhttp://www.ebay.com/itm/Whoever-Said-Diamonds-Are-Girls-Best-Friend-Never-Owned-A-Dog-L-Y-Magnet-Gift-/251914935681?var=&hash=item3aa74cdd81:m:mHNOglUF-QLFy_K3pd0POQQ
p42
aVhttp://www.ebay.com/itm/Whoever-Said-Diamonds-Girls-Best-Friend-Never-Owned-a-Saint-Bernard-Keyring-Gift-/182453171077?hash=item2a7b0e7385:g:cakAAOSwfVpYoNFV
p43
aVhttp://www.ebay.com/itm/Whoever-Said-Diamonds-Girls-Best-Friend-Never-Owned-a-Persian-Cat-Keyring-Gift-/182453121846?epid=559701766&hash=item2a7b0db336:g:Nr8AAOSwtfhYoMUK
p44
aVhttp://www.ebay.com/itm/Whoever-Said-Diamonds-Girls-Best-Friend-Never-Owned-a-Jack-Russell-Keyring-Gift-/182451127255?epid=557283287&hash=item2a7aef43d7:g:GHkAAOSwtfhYninV
p45
aVhttp://www.ebay.com/itm/WHOEVER-SAID-DIAMONDS-ARE-GIRLS-BEST-FRIEND-NEVER-OWNED-A-DOG-A-J-Magnet-Gift-/400899889348?var=&hash=item5d577ed8c4:m:mHNOglUF-QLFy_K3pd0POQQ
p46
a.