(lp1
Vhttp://www.ebay.com/itm/4-5-6ft-Folding-Table-Trestle-Camping-Party-Picnic-BBQ-Stall-Graden-Indoor-/191873832984?var=&epid=1770042423&hash=item2cac925818:m:mS6qkuzF6u_Bn3QFk8POIOA
p2
aVhttp://www.ebay.com/itm/spandex-lycra-cover-tablecloth-4-ft-foot-trestle-1side-arched-BUFFET-DJ-BAR-ARCH-/321842908167?var=&hash=item4aef550c07:m:mVkXfAVNrFlUWOD3n_dV9kg
p3
aVhttp://www.ebay.com/itm/HEAVY-DUTY-FOLDING-TABLE-TRESTLE-CAMPING-PICNIC-GARDEN-MARKET-PARTY-BBQ-MARKET-/222040408965?var=&epid=1163381114&hash=item33b2a3c385:m:mVJGWFukKGGHJJTxpp7EeDw
p4
aVhttp://www.ebay.com/itm/Two-Pairs-of-200mm-8-CNS-1561-Trestle-Joint-Hinge-Malleable-Iron-Heavy-Duty-/162328809661?hash=item25cb8d10bd:g:slYAAOSw44BYWkjc
p5
aVhttp://www.ebay.com/itm/Pair-of-200mm-8-CNS-1561-Trestle-Joint-Hinge-Malleable-Iron-Heavy-Duty-/162328808452?hash=item25cb8d0c04:g:zWcAAOSwEzxYWkhJ
p6
aVhttp://www.ebay.com/itm/spandex-lycra-cover-tablecloth-6-ft-foot-trestle-1side-arched-BUFFET-DJ-BAR-ARCH-/322010606691?var=&epid=1461498277&hash=item4af953ec63:m:mKMyVx04PaMnKxaSuT9PlXA
p7
aVhttp://www.ebay.com/itm/HEAVY-DUTY-FOLDING-TRESTLE-TABLE-PICNIC-CAMPING-BBQ-BANQUET-PARTY-MARKET-GARDEN-/351086495715?var=&hash=item51be62c7e3:m:mKkWQvxAQw_JgZfNHpcyjhQ
p8
aVhttp://www.ebay.com/itm/ADJUSTABLE-BODYSHOP-PANEL-STAND-TRESTLE-TABLE-FOR-CAR-VAN-GARAGE-BODY-WORK-SHOP-/371084566568?hash=item56665d2028:g:ml0AAOSwDNdVksPP
p9
aVhttp://www.ebay.com/itm/3-X-FOLDING-TABLE-TRESTLE-PORTABLE-ALUMINIUM-CAMPING-PARTY-PICNIC-TABLE-GARDEN-/321819381587?epid=1940435740&hash=item4aedee0f53:g:5MEAAOSwMmBVueE3
p10
aVhttp://www.ebay.com/itm/Heavy-Duty-Trestle-150Kg-DIY-Tools-/222429957471?hash=item33c9dbcd5f:g:MMgAAOSwK6RZEqaS
p11
aVhttp://www.ebay.com/itm/2-x-TRESTLE-SAW-HORSE-STEEL-STANDS-FOLDING-780MM-NON-SLIP-TOP-CARPENRTY-/221917786668?epid=1342133071&hash=item33ab54b22c:g:me0AAOSwhcJWJOM8
p12
aVhttp://www.ebay.com/itm/LARGE-OUTDOOR-FOLDING-BEER-TABLE-BENCH-SET-TRESTLE-GARDEN-PUB-FURNITURE-PARTY-/222456673478?epid=1440402721&hash=item33cb7374c6:g:mcgAAOSwB-1Y3MIF
p13
aVhttp://www.ebay.com/itm/2-x-TRESTLE-SAW-HORSE-STEEL-STANDS-FOLDING-780MM-NON-SLIP-TOP-CARPENRTY-/221917786668?epid=1342133071&hash=item33ab54b22c:g:me0AAOSwhcJWJOM8
p14
aVhttp://www.ebay.com/itm/2x-Trestle-builders-telescopic-work-stand-saw-horse-foldable-adjustable-81-130cm-/272610070948?hash=item3f78d391a4:g:6WIAAOSwWxNY2RqD
p15
aVhttp://www.ebay.com/itm/Vintage-Industrial-Style-6ft-Pine-Cafe-Bar-Garden-Trestle-Tables-25-AVAILABLE-/142441439058?hash=item212a2bdf52:g:BTEAAOSwjDZYmZyj
p16
aVhttp://www.ebay.com/itm/Single-200mm-8-CNS-1561-Trestle-Joint-Hinge-Malleable-Iron-Heavy-Duty-/152364386142?hash=item2379a0075e:g:XiwAAOSw5cNYWkej
p17
aVhttp://www.ebay.com/itm/5x-6ft-Fitted-Black-Rectangular-Trestle-Exhibition-Tablecloth-/272200941994?epid=926259070&hash=item3f6070c1aa:g:baUAAOSwmrlUxN2V
p18
aVhttp://www.ebay.com/itm/Trestle-Table-cover-spandex-Fitted-Black-to-fit-6-foot-market-fair-weding-party-/122199408897?epid=719274142&hash=item1c73a70101:g:ubkAAOSwo4pYLmeH
p19
aVhttp://www.ebay.com/itm/ADJUSTABLE-BODYSHOP-PANEL-STAND-TRESTLE-TABLE-FOR-CAR-VAN-GARAGE-BODY-WORK-SHOP-/132241863951?hash=item1eca3ab50f:g:B3oAAOSwc-tY0-xs
p20
aVhttp://www.ebay.com/itm/FoxHunter-6-6FT-2-Section-Portable-Folding-Trestle-Wall-Paper-Pasting-Table-New-/121718306690?epid=1440545783&hash=item1c56f9f782:g:bVkAAOSwnipWXy8r
p21
aVhttp://www.ebay.com/itm/New-Ply-Wooden-6-x-2-Trestle-table-folds-flat-very-strong-/122468631172?hash=item1c83b30284:g:jIUAAOSwX61ZA1co
p22
aVhttp://www.ebay.com/itm/5x-6ft-Fitted-White-3-sided-Rectangular-Trestle-Exhibition-Tablecloth-/271753071278?hash=item3f45becaae:g:MEoAAOSw1ZBUxN5X
p23
aVhttp://www.ebay.com/itm/4ft-Folding-Trestle-Table-Portable-Height-Adjustable-Strong-Camping-Garden-/141990550277?epid=891528927&hash=item210f4bdb05:g:5MAAAOSw0TxZX4zT
p24
aVhttp://www.ebay.com/itm/5x-6ft-Fitted-White-Rectangular-Trestle-Exhibition-Tablecloth-/381136204708?epid=680738166&hash=item58bd7cf3a4:g:pmQAAOSwa39UxN1L
p25
aVhttp://www.ebay.com/itm/2-SAW-HORSE-STAND-TRESTLES-FOLDING-WORK-BENCH-TRESTLE-STEEL-WORKSTAND-/222155245291?epid=1873868119&hash=item33b97c06eb:g:Xo0AAOSwepJXYqXk
p26
aVhttp://www.ebay.com/itm/6FT-FOLDING-TRESTLE-TABLE-MARKET-STALL-FAIR-TRADE-SHOWS-DISPLAY-FOLDABLE-/201583153059?hash=item2eef4acfa3:g:vhIAAOSwcL5XNIpk
p27
aVhttp://www.ebay.com/itm/spandex-lycra-stretch-TOPPER-for-4ft-120-cm-trestle-rectangular-table-/321784870574?var=&epid=1565636965&hash=item4aebdf76ae:m:mMz3Oof1Ev1AliqY4y9payg
p28
aVhttp://www.ebay.com/itm/6ft-Folding-Trestle-Table-Strong-Blow-Moulded-Portable-Worktop-Camping-/141615856644?epid=694292273&hash=item20f8f67c04:g:5HgAAOSw0TxZX4zO
p29
aVhttp://www.ebay.com/itm/ADJUSTABLE-BODYSHOP-PANEL-STAND-TRESTLE-TABLE-FOR-CAR-VAN-GARAGE-BODY-WORK-SHOP-/192195319397?hash=item2cbfbbd665:g:TU0AAOSwfRdZJHvV
p30
aVhttp://www.ebay.com/itm/FoxHunter-Portable-Folding-Trestle-Table-Heavy-Duty-Plastic-Camping-Garden-Party-/122154536079?var=&hash=item1c70fa4c8f:m:mbJwTUnKG9MF3QMy3b-MhiQ
p31
aVhttp://www.ebay.com/itm/FOLDING-WORKBENCH-PORTABLE-WORK-BENCH-TABLE-TRESTLE-FOLDING-WORKTOP-CLAMPING-/321973961417?epid=1940448427&hash=item4af724c2c9:g:dPMAAOSwDNdVufKj
p32
aVhttp://www.ebay.com/itm/spandex-lycra-cover-tablecloth-6ft-6-foot-rectangular-trestle-table-20-colours-/221431326645?var=&epid=1955561811&hash=item338e55e7b5:m:msJcy1pp1Oz4Ii54hRv_a2A
p33
aVhttp://www.ebay.com/itm/spandex-lycra-cover-tablecloth-4ft-4-foot-rectangular-trestle-table-UK-STOCK-/321713093520?var=&epid=1863402847&hash=item4ae7983b90:m:m2I-JlZWQ-aSL-s1qjuiPnw
p34
aVhttp://www.ebay.com/itm/Saw-Horse-Telescopic-Legs-Wooden-Boards-Steel-Trestle-Stand-Carpenter-/322416492939?hash=item4b1185418b:g:97YAAOSw4DJYmhB-
p35
aVhttp://www.ebay.com/itm/5x-6ft-Fitted-Black-Rectangular-Trestle-Exhibition-Tablecloth-With-Flap-/272550118244?epid=621670735&hash=item3f7540c364:g:vJcAAOSwNnRYmxzt
p36
aVhttp://www.ebay.com/itm/Adjustable-Height-FINNVARD-TRESTLE-TABLE-Wooden-Stand-Legs-Shelf-Beech-White-/252417884693?var=&hash=item3ac5474215:m:mnhyXUNEnFUXqHOiHZ_dIUg
p37
aVhttp://www.ebay.com/itm/1x-pcs-Rectangular-6ft-Fitted-Trestle-Banquet-Exhibition-Tablecloth-10-Colours-/272525392508?var=&hash=item3f73c77a7c:m:mhs-2JmtXUs2eq5lqhe0gDw
p38
aVhttp://www.ebay.com/itm/BLACK-spandex-lycra-stretch-TOPPER-for-4ft-120-cm-trestle-rectangular-table-/321784871072?var=&epid=1565636965&hash=item4aebdf78a0:m:mEdWJASkYrnJ1w--yZWogag
p39
aVhttp://www.ebay.com/itm/FoxHunter-2M-2-Section-Portable-Folding-Trestle-Wall-Paper-Pasting-Table-Steel-/381347913298?epid=1440545783&hash=item58ca1b5e52:g:JWEAAOSwcBhWXy60
p40
aVhttp://www.ebay.com/itm/5x-6ft-Fitted-Ivory-Rectangular-Trestle-Exhibition-Tablecloth-/272573491320?hash=item3f76a56878:g:EFYAAOSwax5Ytr06
p41
aVhttp://www.ebay.com/itm/XXL-3M-LONG-3-SECTION-FOLDING-WALL-PAPER-PASTING-TRESTLE-TABLE-WORK-ALMUMINIUM-/271770955891?epid=1339976034&hash=item3f46cfb073:g:FDYAAOxyzpdTjwXn
p42
aVhttp://www.ebay.com/itm/FOLDING-TRESTLE-TABLE-PICNIC-CAMPING-BBQ-BANQUET-PARTY-MARKET-GARDEN-HEAVY-DUTY-/331735981057?epid=1454916283&hash=item4d3d015c01:g:GBsAAOSwBLlVBs0X
p43
aVhttp://www.ebay.com/itm/1x-6ft-Fitted-White-3-sided-Rectangular-Trestle-Exhibition-Tablecloth-/262811951149?hash=item3d30d0202d:g:MEoAAOSw1ZBUxN5X
p44
aVhttp://www.ebay.com/itm/Wholesale-6ft-Folding-Trestle-Table-Heavy-Duty-Plastic-Camping-Garden-Party-UK-/182614362717?epid=12002775291&hash=item2a84aa0a5d:g:b7cAAOSw9~5ZOx0M
p45
aVhttp://www.ebay.com/itm/2-x-FOLDING-WOODEN-TRESTLE-PAIR-UK-SELLER-UK-MADE-/172748149978?hash=item28389794da:g:yv8AAOSwY3BZEeOt
p46
aVhttp://www.ebay.com/itm/spandex-lycra-stretch-TOPPER-for-6ft-180cm-trestle-rectangular-table-/221887006642?var=&epid=1458865695&hash=item33a97f07b2:m:mxGkPztM6MymVD4GLriCtdg
p47
aVhttp://www.ebay.com/itm/1x-6ft-Fitted-White-Rectangular-Trestle-Exhibition-Tablecloth-With-Flap-/262842961924?epid=622464148&hash=item3d32a95004:g:wDgAAOSwUKxYfjiM
p48
aVhttp://www.ebay.com/itm/FTAL1-Sealey-Tools-Fold-Down-Trestle-Adjustable-Legs-Trestles-Workbenches-/311813514384?epid=1105263311&hash=item489988a490:g:XYIAAOSwnQhXofTr
p49
aVhttp://www.ebay.com/itm/SAW-HORSES-WITH-TELESCOPIC-LEGS-WOOD-BOARD-STEEL-FRAME-TRESTLE-STANDS-CARPENTRY-/322110563754?epid=1169377461&hash=item4aff4925aa:g:DRYAAOSwH71XOa3O
p50
aVhttp://www.ebay.com/itm/1x-6ft-Fitted-Black-3-sided-Rectangular-Trestle-Exhibition-Tablecloth-/381927288874?epid=888081601&hash=item58eca3f02a:g:GSQAAOSw-W5UxN4f
p51
aVhttp://www.ebay.com/itm/Trestle-Computer-Desk-PC-Laptop-Table-Wood-Workstation-Study-Home-Office-Room-/182620263586?var=&epid=521136452&hash=item2a850414a2:m:mm0D5mqxibWv4PnL4NocPeA
p52
aVhttp://www.ebay.com/itm/spandex-lycra-cover-fitted-tablecloth-6ft-6-foot-rectangular-trestle-table-/221431326643?var=&epid=1155626476&hash=item338e55e7b3:m:m1KbfYGQVzVLgMyd_IXvjqw
p53
aVhttp://www.ebay.com/itm/2-X-WOODEN-TRESTLE-VERY-STURDY-EASY-TO-DISMANTLE-UK-SELLER-UK-MADE-/172615335346?hash=item2830acfdb2:g:ntkAAOSw5cNYNWYY
p54
aVhttp://www.ebay.com/itm/5x-90-x132-Inch-White-Rectangular-6ft-Trestle-Table-Tablecloths-Exhibition-/381632306240?hash=item58db0edc40:g:eb4AAOSw34FVEnu5
p55
aVhttp://www.ebay.com/itm/New-Ply-Wooden-4-x-2-Trestle-table-folds-flat-very-strong-/311218513572?hash=item487611a6a4:g:Zb8AAOSwiCRUkDBS
p56
aVhttp://www.ebay.com/itm/6-FEET-FOLDING-HEAVY-DUTY-BANQUET-TRESTLE-TABLE-CHAIRS-outdoor-picnic-bbq-boat-/182007781188?var=&hash=item2a60825744:m:mD4qhk59NCLX_NdqoYrcRsw
p57
aVhttp://www.ebay.com/itm/Wholesale-6ft-Folding-Trestle-Table-Heavy-Duty-Plastic-Camping-Garden-Party-UK-/182614362717?epid=12002775291&hash=item2a84aa0a5d:g:b7cAAOSw9~5ZOx0M
p58
aVhttp://www.ebay.com/itm/HUSKY-5ft-Folding-Plastic-Table-Banquet-Trestle-BBQ-DIY-Camping-Picnic-Catering-/201966573931?epid=1238355271&hash=item2f0625596b:g:Gu8AAOSwal5YKvoA
p59
aVhttp://www.ebay.com/itm/Trestle-Table-Flight-Case-DJ-Equipment-Work-Table-3-in-stock-1200mm-R0661-/162548849846?hash=item25d8aa9cb6:g:lswAAOSw6YtZPBJT
p60
aVhttp://www.ebay.com/itm/Sealey-Heavy-Duty-Folding-Composite-Work-Drilling-Sawing-Cutting-Trestle-FDT4-/141616527848?epid=1229412378&hash=item20f900b9e8:g:d40AAOSw7aBVEyuj
p61
aVhttp://www.ebay.com/itm/Folding-Plastic-Sawhorse-Trestle-Saw-Horse-Cutting-Stands-Multi-Pack-/331981910855?var=&hash=item4d4ba9f347:m:mT-kMvDfgqRu8oC7Dgwz3cg
p62
aVhttp://www.ebay.com/itm/Bodyshop-Adjustable-Panel-Stand-Trestle-Table-UK-Mainland-Delivery-/271545047337?epid=708006378&hash=item3f39589929:m:mdhNK_7nDjKUFU1odOG-nsQ
p63
aVhttp://www.ebay.com/itm/Home-Creation-Premium-White-Trestle-Desk-Brand-New-/332244275716?hash=item4d5b4d5204:g:4iAAAOSwIQdZLWSd
p64
aVhttp://www.ebay.com/itm/Silverline-Heavy-Duty-Trestle-150kg-/121801701352?epid=1123831309&hash=item1c5bf277e8:g:f~wAAOSw~y9ZAc53
p65
aVhttp://www.ebay.com/itm/POWER-TEC-EXTENSION-ARM-CLAMP-KIT-FOR-TRESTLE-PANEL-STANDS-2-MOUNTS-2-ARMS-/361370515894?epid=1923873895&hash=item54235c79b6:g:wLcAAOSwHnFV10jN
p66
aVhttp://www.ebay.com/itm/Triton-Multi-Adjustable-Work-Stand-Clamp-Trestle-MSA200-/290345902784?epid=1188171584&hash=item4399f6e2c0:m:me8tr3XfzL9ZXcYxdcKTASA
p67
aVhttp://www.ebay.com/itm/HARDCASTLE-FOLDING-TRESTLE-WORK-BENCH-STAND-MATE-FOLDABLE-TABLE-CLAMP-WORKBENCH-/122598584462?epid=2058449270&hash=item1c8b71f08e:g:DTQAAOSwqVBZaKIE
p68
aVhttp://www.ebay.com/itm/1-pair-of-6-aliminium-Ramsay-trestle-ladders-/302344941164?hash=item466529ae6c:g:LqoAAOSwDrNZOrXt
p69
aVhttp://www.ebay.com/itm/spandex-lycra-cover-tablecloth-5ft-5-foot-rectangular-trestle-table-BLACK-WHITE-/221481523037?var=&epid=1561963754&hash=item339153d75d:m:mNWnN17lejbuo9DrW-2zY2g
p70
aVhttp://www.ebay.com/itm/New-6ft-1-8m-Folding-Heavy-Duty-Outdoor-Trestle-Party-Garden-Table-UK-Seller-/112396918858?epid=919454026&hash=item1a2b60e04a:g:B7EAAOSwt0FZDIzA
p71
aVhttp://www.ebay.com/itm/2x-ToughBuilt-TOU-C700-C700-Adjustable-Leg-Folding-Saw-Horse-Trestle-Twin-Pack-/252914038314?epid=1257429739&hash=item3ae2d9f62a:g:QKcAAOSw~y9ZCDOd
p72
aVhttp://www.ebay.com/itm/DIY-1pair-2legs-Trestle-Bench-Set-of-Raw-Steel-Legs-Handmade-/321986241004?hash=item4af7e021ec:g:JlsAAOSwtfhYrth3
p73
aVhttp://www.ebay.com/itm/1x-6ft-Fitted-Royal-Blue-3-sided-Rectangular-Trestle-Exhibition-Tablecloth-/381927276429?hash=item58eca3bf8d:g:opkAAOSweW5VDviR
p74
aVhttp://www.ebay.com/itm/New-4-x-2-Wooden-Trestle-table-folds-flat-very-strong-/310094649414?hash=item483314d846:m:m0KmfpwdRpR85pNEq7_h6Lw
p75
aVhttp://www.ebay.com/itm/1x-6ft-Fitted-Hunter-Green-Rectangular-Trestle-Exhibition-Tablecloth-/381986476813?hash=item58f02b130d:g:TwoAAOxy4dNS6hlg
p76
aVhttp://www.ebay.com/itm/5x-90-x132-Inch-Grey-Silver-Rectangular-6ft-Trestle-Tablecloths-Exhibition-/381212972105?hash=item58c2105449:g:w3oAAOSwNSxVHGn8
p77
aVhttp://www.ebay.com/itm/Black-6-ft-Fitted-3-Sided-Rectangular-Trestle-Exhibition-Tablecloth-Venue-Table-/192196002307?epid=1595021075&hash=item2cbfc64203:g:mY4AAOSw5cRZJXUx
p78
aVhttp://www.ebay.com/itm/1x-6ft-Fitted-White-Spandex-Rectangular-Trestle-Exhibition-Tablecloth-/381136364595?hash=item58bd7f6433:g:ffAAAOSw8d9UxRRR
p79
aVhttp://www.ebay.com/itm/5x-6ft-Fitted-Navy-Blue-Rectangular-Trestle-Exhibition-Tablecloth-/381201879849?hash=item58c1671329:g:t~QAAOSwPhdVDvXN
p80
aVhttp://www.ebay.com/itm/5x-6ft-Fitted-Purple-Rectangular-Trestle-Exhibition-Tablecloth-/261386715937?hash=item3cdbdcc321:g:d4sAAOxyRhBS6hdc
p81
aVhttp://www.ebay.com/itm/5x-70-x108-Inch-White-Rectangular-Trestle-Table-Tablecloths-Exhibition-/381632316451?hash=item58db0f0423:g:eb4AAOSw34FVEnu5
p82
aVhttp://www.ebay.com/itm/1x-6ft-Fitted-Ivory-Rectangular-Trestle-Exhibition-Tablecloth-/272573491774?epid=719278047&hash=item3f76a56a3e:g:EFYAAOSwax5Ytr06
p83
aVhttp://www.ebay.com/itm/5x-6ft-Fitted-Red-3-sided-Rectangular-Trestle-Exhibition-Tablecloth-/261821229328?hash=item3cf5c2e910:g:gDwAAOSwBahVDvfL
p84
aVhttp://www.ebay.com/itm/FoxHunter-4FT-1-2M-Folding-Trestle-Table-Heavy-Duty-Plastic-Camping-Garden-Party-/112150401448?epid=884554668&hash=item1a1caf51a8:g:5sgAAOSw8w1X6lqv
p85
aVhttp://www.ebay.com/itm/5x-70-x144-Inch-White-Rectangular-6ft-Trestle-Table-Tablecloths-Exhibition-/381632573026?hash=item58db12ee62:g:eb4AAOSw34FVEnu5
p86
aVhttp://www.ebay.com/itm/5x-8ft-Fitted-Black-Rectangular-Trestle-Exhibition-Tablecloth-/381136211493?hash=item58bd7d0e25:g:XNMAAOSw0e9UxN9w
p87
aVhttp://www.ebay.com/itm/1-x-FOLDING-WOODEN-TRESTLE-UK-MADE-UK-SELLER-/172557836205?hash=item282d3f9fad:g:RTgAAOSw9mFWKzYk
p88
aVhttp://www.ebay.com/itm/2-x-FOLDING-STEEL-TRESTLE-SAW-HORSE-STANDS-WORK-BENCH-CARPENTER-BUILDER-100KG-/322153599515?epid=1773996842&hash=item4b01d9d21b:g:9SoAAOSwbYZXYoJC
p89
aVhttp://www.ebay.com/itm/1x-ToughBuilt-TOU-C700-C700-Adjustable-Leg-Folding-Saw-Horse-Trestle-Single-Pack-/252905847203?epid=1342199999&hash=item3ae25cf9a3:g:KvcAAOSw~y9ZBGeP
p90
aVhttp://www.ebay.com/itm/Used-2-metre-Folding-German-wooden-beer-festival-trestle-table-and-bench-sets-/272767126102?hash=item3f82300a56:g:ii8AAOSwA29Y3~3E
p91
aVhttp://www.ebay.com/itm/5-ft-Foldable-Camping-Trestle-Carry-Table-Party-Picnic-BBQ-Stall-Garden-Indoors-/122529179270?hash=item1c874ee686:g:0V4AAOSwPh5ZMSYi
p92
aVhttp://www.ebay.com/itm/Plain-Wood-Trestle-Table-Doll-House-Miniature-1-12th-scale-/201453114291?hash=item2ee78a93b3:g:lGUAAOSwPYZU60pT
p93
aVhttp://www.ebay.com/itm/X-LARGE-OUTDOOR-FOLDING-BEER-TABLE-BENCH-SET-TRESTLE-GARDEN-PUB-FURNITURE-PARTY-/322467783811?epid=714297061&hash=item4b1493e483:g:ax0AAOSwA29Y3MLB
p94
aVhttp://www.ebay.com/itm/HARTLEYS-4FT-FOLDING-TRESTLE-TABLE-CAMPING-FESTIVAL-FETE-GARDEN-CATERING-OUTDOOR-/231714224541?hash=item35f33e799d:g:rKoAAOSwYHxWFiBN
p95
aVhttp://www.ebay.com/itm/HEAVY-DUTY-FOLDING-CAMPING-TABLE-TRESTLE-PLASTIC-PICNIC-BBQ-GARDEN-4FT-UK-STOCK-/322460762066?epid=675855216&hash=item4b1428bfd2:g:choAAOSwuxFY04QN
p96
aVhttp://www.ebay.com/itm/NEW-6ft-1-8m-Folding-Heavy-Duty-Outdoor-Trestle-Party-Garden-BBQ-Camping-Table-/122511873855?epid=707982052&hash=item1c8646d73f:g:6tAAAOSwq1JZJB8G
p97
aVhttp://www.ebay.com/itm/BEAUTIFUL-RUSTIC-OLD-WORLD-RECLAIMED-TIMBER-TRESTLE-TABLE-Made-Up-To-7-Ft-X-3ft-/301833496134?hash=item4646ada646:g:zksAAOxyBotTZpnH
p98
aVhttp://www.ebay.com/itm/4ft-Folding-Trestle-Table-Rattan-Effect-Heavy-Duty-Blow-Moulded-Garden-Counter-/111982699315?epid=1467958214&hash=item1a12b06333:g:u3wAAOSwWdZZZIb0
p99
aVhttp://www.ebay.com/itm/1-pair-of-8-aliminum-decorators-trestle-ladders-/302344935257?hash=item4665299759:g:ZMcAAOSwceNZOrLp
p100
aVhttp://www.ebay.com/itm/1x-6ft-Fitted-Black-Rectangular-Trestle-Exhibition-Tablecloth-With-Flap-/272550117021?epid=621667660&hash=item3f7540be9d:g:jhAAAOSwLEtYmxyY
p101
aVhttp://www.ebay.com/itm/New-5-x-2-Wooden-trestle-table-folds-flat-very-strong-/310155233498?hash=item4836b148da:m:mUBfXNj9eOx5XmT3uHYr9WQ
p102
aVhttp://www.ebay.com/itm/5x-6ft-Fitted-Red-Rectangular-Trestle-Exhibition-Tablecloth-/380830366840?hash=item58ab423c78:g:lNEAAOxyRhBS6hjY
p103
aVhttp://www.ebay.com/itm/IKEA-ALL-PURPOSE-LERBERG-TRESTLE-TABLE-Metal-Stand-Legs-70x60-cm-Grey-Brand-New-/252416668421?epid=538036078&hash=item3ac534b305:g:b~0AAOSwuhhXVrVg
p104
aVhttp://www.ebay.com/itm/2-x-Telescopic-Builders-Trestle-Work-Bench-Carpenter-Folding-Saw-Horse-Tools-/122566287651?epid=1954071547&hash=item1c89852123:g:AwsAAOSwrfVZUNYB
p105
aVhttp://www.ebay.com/itm/spandex-lycra-cover-stretch-tablecloth-6-ft-rectangular-trestle-PURPLE-GRAPE-/321687305871?var=&epid=1055652166&hash=item4ae60ebe8f:m:mtndKa1-Tmv4UTztAkFvMzA
p106
aVhttp://www.ebay.com/itm/4ft-Folding-Trestle-Table-Rattan-Effect-Heavy-Duty-Blow-Moulded-Garden-Counter-/111982699315?epid=1467958214&hash=item1a12b06333:g:u3wAAOSwWdZZZIb0
p107
aVhttp://www.ebay.com/itm/Builders-Trestles-All-Sizes-Trestle-Band-Stands-Painted-450-Kg-SWL-BS1139-/272176389119?var=&hash=item3f5efa1bff:m:mq6U4pIih1I1a0VN-FiS-kw
p108
aVhttp://www.ebay.com/itm/1x-6ft-Fitted-Black-Spandex-Rectangular-Trestle-Exhibition-Tablecloth-/381136363556?epid=888081601&hash=item58bd7f6024:g:QKoAAOSw1ZBUxRPf
p109
aVhttp://www.ebay.com/itm/Trestle-Table-cover-spandex-Fitted-white-fit-6-foot-market-fair-weding-party-/122190843433?hash=item1c73244e29:g:GEMAAOSwXeJYLmdg
p110
aVhttp://www.ebay.com/itm/5x-8ft-Fitted-White-Rectangular-Trestle-Exhibition-Tablecloth-/271753073246?hash=item3f45bed25e:g:pmQAAOSwa39UxN1L
p111
aVhttp://www.ebay.com/itm/BEAUTIFUL-RUSTIC-OLD-WORLD-RECLAIMED-TIMBER-TRESTLE-TABLE-Made-Up-To-7-Ft-X-3ft-/301833496134?hash=item4646ada646:g:zksAAOxyBotTZpnH
p112
aVhttp://www.ebay.com/itm/New-4-x-26-Wooden-Trestle-table-folds-flat-/120333875180?hash=item1c047537ec:m:m0KmfpwdRpR85pNEq7_h6Lw
p113
aVhttp://www.ebay.com/itm/5x-90-x132-Ivory-Rectangular-6ft-Trestle-Table-Tablecloths-Exhibition-/261386727606?hash=item3cdbdcf0b6:g:rRMAAOxy4dNS6h6c
p114
aVhttp://www.ebay.com/itm/New-6-x-26-Wooden-trestle-table-folds-flat-DIY-Table-Exhibition-Tables-/311029562985?hash=item486ace7e69:m:m1PsIxX7i3ad0brF6z9PBjA
p115
aVhttp://www.ebay.com/itm/spandex-lycra-cover-tablecloth-4ft-rectangular-for-trestle-table-WHITE-4-foot-/321712737772?var=&epid=1163322151&hash=item4ae792cdec:m:mTiXQjHUDo5nbxJqg40KW8w
p116
aVhttp://www.ebay.com/itm/spandex-lycra-cover-stretch-cloth-6ft-6-foot-rectangular-trestle-PURPLE-CADBURY-/221450742008?var=&epid=1655680859&hash=item338f7e28f8:m:mcf4ZcEi44sJjqdtHhKYYtg
p117
aVhttp://www.ebay.com/itm/HEAVY-DUTY-FOLDING-CAMPING-TABLE-TRESTLE-Aluminium-PICNIC-BBQ-GARDEN-4FT-Tables-/272600087593?epid=675855216&hash=item3f783b3c29:g:wJQAAOSwYXVY0jaN
p118
aVhttp://www.ebay.com/itm/Trestle-Table-cover-spandex-Fitted-Black-to-fit-8-foot-market-fair-weding-party-/122209823753?epid=867089566&hash=item1c7445ec09:g:WgkAAOSw4GVYLmkH
p119
aVhttp://www.ebay.com/itm/Folding-6ft-Table-Heavy-Duty-Catering-Camping-Trestle-Picnic-BBQ-Party-Paste-/162141545679?epid=934082011&hash=item25c063a4cf:g:E~oAAOSwbsBXjjyi
p120
a.