(lp1
Vhttp://www.ebay.com/itm/Sliding-Door-Signs-Entry-Control-Engaged-RED-Vacant-GREEN-Slider-/263085107004?hash=item3d4118273c:g:iX4AAOSwkttZZhfl
p2
aVhttp://www.ebay.com/itm/Lovely-Decorative-Handcrafted-Wooden-sign-ENGAGED-VACANT-White-Black-/382161159336?hash=item58fa9484a8:g:No4AAOSwF1dUL7uv
p3
aVhttp://www.ebay.com/itm/Lovely-Decorative-Handcrafted-Purple-Haze-ENGAGED-VACANT-Sign-/122594176213?hash=item1c8b2eacd5:g:vVkAAOSwoydWseYu
p4
aVhttp://www.ebay.com/itm/Lovely-Decorative-Handcrafted-Wooden-sign-Black-White-ENGAGED-VACANT-/122594176217?hash=item1c8b2eacd9:g:7XgAAOSwX~dWseXd
p5
aVhttp://www.ebay.com/itm/Decorative-Handcrafted-Bathshaped-Duck-Egg-Blue-ENGAGED-VACANT-Wooden-Sign-/122594176219?hash=item1c8b2eacdb:g:cIUAAOSwh-1W4VWp
p6
aVhttp://www.ebay.com/itm/Decorative-Hand-crafted-Plaque-ENGAGED-VACANT-Door-Room-Sign-Dark-Duck-Egg-/122594176220?hash=item1c8b2eacdc:g:xDQAAOSw~bFWPfz-
p7
aVhttp://www.ebay.com/itm/Decorative-Hand-crafted-Plaque-ENGAGED-VACANT-Door-Room-Sign-Jaded-Teal-/382161158419?hash=item58fa948113:g:w2IAAOSw5VFWPf5g
p8
aVhttp://www.ebay.com/itm/The-Sex-Pistols-PRETTY-VACANT-Record-Cover-JAMIE-REID-NEW-25mm-1-Badge-/272756420699?hash=item3f818cb05b:g:gdEAAOxy8HlSdjwa
p9
a.