(lp0
Vhttp://www.ebay.com/itm/Honda-XL-600-V-Transalp-x-PD10-1999-2000-Oil-temperature-gauge-dipstick-/332234186892?hash=item4d5ab3608c:g:K50AAOSwZKBZMfxG&vxp=mtr
p1
aVhttp://www.ebay.com/itm/PS2561-OPTOISOLATOR-TRANS-4DIP-PS2561A-/321998947696?epid=2075072561&hash=item4af8a20570:g:9RIAAOSwv0tU9b4l
p2
aVhttp://www.ebay.com/itm/PS2561-1-OPTOISOLATOR-5KV-TRANS-4DIP-/322175615905?hash=item4b0329c3a1:g:9RIAAOSwv0tU9b4l
p3
aVhttp://www.ebay.com/itm/TLP251-PHOTOCOUPLER-HS-TRANS-OUT-DIP-8-TLP251-/190980289413?hash=item2c774ff385:g:PSYAAOxyXDhSkLXL
p4
aVhttp://www.ebay.com/itm/TLP504A-OPTOISOLTR-2-5KV-2CH-TRANS-8-DIP-/201689012140?epid=713002618&hash=item2ef59a17ac:g:FrQAAOSwbqpT7HSW
p5
aVhttp://www.ebay.com/itm/SFH610A-4-OPTOISOLATOR-5-3KV-TRANS-4-DIP-/321517132219?hash=item4adbea19bb:g:9Q8AAOSwEK9UDvE4
p6
aVhttp://www.ebay.com/itm/SFH610A-4-OPTOISOLATOR-5-3KV-TRANS-4-DIP-/321517132219?hash=item4adbea19bb:g:9Q8AAOSwEK9UDvE4
p7
aVhttp://www.ebay.com/itm/FOR-VOLKSWAGEN-VW-UNIVERSAL-HEADLIGHT-BULB-RETAINING-SPRING-CLIP-H1-H3-H4-H7-/221553922244?fits=Model%3ATrans+Sport&hash=item3395a490c4:g:7hEAAOSwnDZUHVPx
p8
aVhttp://www.ebay.com/itm/FOR-BMW-UNIVERSAL-HEADLIGHT-BULB-RETAINING-SPRING-CLIP-H1-H3-H4-H7-/221553922056?fits=Model%3ATrans+Sport&hash=item3395a49008:g:oqwAAOSwEK9UHVPS
p9
aVhttp://www.ebay.com/itm/CNY75B-OPTOISO-5KV-TRANS-W-BASE-6DIP-CNY75GB-/322362362208?hash=item4b0e4b4960:g:k08AAOSwksVTznjb
p10
aVhttp://www.ebay.com/itm/FOR-PEUGEOT-UNIVERSAL-HEADLIGHT-BULB-RETAINING-SPRING-CLIP-H1-H3-H4-H7-/321528927035?fits=Model%3ATrans+Sport&hash=item4adc9e133b:g:kW8AAOSwPe1UHVPb
p11
aVhttp://www.ebay.com/itm/CNY74-4H-OPTOISO-5-3KV-4CH-TRANS-16-DIP-/191891755657?hash=item2cada3d289:g:rpUAAOxyhXRTKr~S
p12
aVhttp://www.ebay.com/itm/FOR-RENAULT-UNIVERSAL-HEADLIGHT-BULB-RETAINING-SPRING-CLIP-H1-H3-H4-H7-/321528927055?fits=Model%3ATrans+Sport&hash=item4adc9e134f:g:AFgAAOSwQItUHVPg
p13
aVhttp://www.ebay.com/itm/UNIVERSAL-HEADLAMP-HEAD-LIGHT-BULB-RETAINING-SPRING-CLIP-H7-2-TYPES-INCLUDED-/321973944767?fits=Model%3ATrans+Sport&epid=1888889671&hash=item4af72481bf:g:L04AAOSwTapV3XYv
p14
aVhttp://www.ebay.com/itm/CQY80NG-OPTOISO-5KV-TRANS-W-BASE-6DIP-/201614254283?hash=item2ef12560cb:g:7~8AAOSweW5U9bga
p15
aVhttp://www.ebay.com/itm/TIL111-OPTOISO-5-3KV-TRANS-W-BASE-6DIP-LOT-OF-5-/201423230317?hash=item2ee5c2956d:g:h3EAAOSwT6pV7XgP
p16
aVhttp://www.ebay.com/itm/UNIVERSAL-HEADLAMP-HEAD-LAMP-BULB-RETAINING-SPRING-CLIP-H1-2-TYPES-INCLUDED-/321844368987?fits=Model%3ATrans+Sport&epid=1888763398&hash=item4aef6b565b:g:L04AAOSwTapV3XYv
p17
aVhttp://www.ebay.com/itm/UNIVERSAL-HEADLAMP-HEAD-LAMP-BULB-RETAINING-SPRING-CLIP-H4-2-TYPES-INCLUDED-/331638230901?fits=Model%3ATrans+Sport&epid=1088808622&hash=item4d372dcf75:g:L04AAOSwTapV3XYv
p18
aVhttp://www.ebay.com/itm/FRONT-FOG-SPOT-LIGHT-LAMP-HEADLIGHT-WIRE-SPRING-BULB-RETAINING-CLIP-H1-H3-H4-H7-/161453286497?fits=Model%3ATrans+Sport&epid=1688621282&hash=item25975da461:g:TUEAAOSwRLZT1W32
p19
aVhttp://www.ebay.com/itm/FOR-TOYOTA-UNIVERSAL-HEADLIGHT-BULB-RETAINING-SPRING-CLIP-H1-H3-H4-H7-/221553922168?fits=Model%3ATrans+Sport&hash=item3395a49078:g:7fcAAOSwd4tUHVPl
p20
aVhttp://www.ebay.com/itm/FOR-CITROEN-FIAT-UNIVERSAL-HEADLIGHT-BULB-RETAINING-SPRING-CLIP-H1-H3-H4-H7-/321528927007?fits=Model%3ATrans+Sport&hash=item4adc9e131f:g:H34AAOSwVFlUHVPV
p21
aVhttp://www.ebay.com/itm/TLP557-PHOTOCPLR-TRANS-BASE-DRIVE-8-DIP-/322147810428?hash=item4b01817c7c:g:AvUAAOSwGiRTqW7F
p22
aVhttp://www.ebay.com/itm/FOR-SEAT-SKODA-UNIVERSAL-HEADLIGHT-BULB-RETAINING-SPRING-CLIP-H1-H3-H4-H7-/321528927074?fits=Model%3ATrans+Sport&hash=item4adc9e1362:g:0ucAAOSwxH1UHVPi
p23
aVhttp://www.ebay.com/itm/HEADLAMP-HEADLIGHT-DIP-DIPPED-BEAM-HEAD-LAMP-BULB-RETAINING-SPRING-CLIP-H1-H4-H7-/171401284517?fits=Model%3ATrans+Sport&epid=1088537176&hash=item27e8500ba5:g:ThEAAOSwd4tT1W3~
p24
aVhttp://www.ebay.com/itm/MOC8101-OPTOISOLATOR-5-3KV-TRANS-6-DIP-/191992950935?hash=item2cb3abf097:g:IOgAAOxyyFhTef0r
p25
aVhttp://www.ebay.com/itm/FOR-ALFA-ROMEO-AUDI-UNIVERSAL-HEADLIGHT-BULB-RETAINING-SPRING-CLIP-H1-H3-H4-H7-/221553922022?fits=Model%3ATrans+Sport&hash=item3395a48fe6:g:uXYAAOSwRLZUHVPQ
p26
aVhttp://www.ebay.com/itm/FOR-FORD-HONDA-UNIVERSAL-HEADLIGHT-BULB-RETAINING-SPRING-CLIP-H1-H3-H4-H7-/221553922092?fits=Model%3ATrans+Sport&hash=item3395a4902c:g:pTsAAOSwq7JUHVPa
p27
aVhttp://www.ebay.com/itm/FOR-MERCEDES-UNIVERSAL-HEADLIGHT-BULB-RETAINING-SPRING-CLIP-H1-H3-H4-H7-/321528926995?fits=Model%3ATrans+Sport&hash=item4adc9e1313:g:orQAAOSwEK9UHVPT
p28
aVhttp://www.ebay.com/itm/FOR-MAZDA-MITSUBISHI-UNIVERSAL-HEADLIGHT-BULB-RETAINING-SPRING-CLIP-H1-H3-H4-H7-/221553922023?fits=Model%3ATrans+Sport&hash=item3395a48fe7:g:HxsAAOSwVFlUHVPR
p29
aVhttp://www.ebay.com/itm/FOR-VAUXHALL-UNIVERSAL-HEADLIGHT-BULB-RETAINING-SPRING-CLIP-H1-H3-H4-H7-/321528927153?fits=Model%3ATrans+Sport&hash=item4adc9e13b1:g:NJIAAOSwfcVUHVPt
p30
aVhttp://www.ebay.com/itm/UNIVERSAL-HEAD-LAMP-REPLACEMENT-HEADLAMP-BULB-RETAINING-SPRING-CLIP-H1-H3-H4-H7-/171373896250?fits=Model%3ATrans+Sport&hash=item27e6ae223a:g:4HUAAOSwGzlTsaz3
p31
aVhttp://www.ebay.com/itm/FOR-NISSAN-UNIVERSAL-HEADLIGHT-BULB-RETAINING-SPRING-CLIP-H1-H3-H4-H7-/221553922082?fits=Model%3ATrans+Sport&hash=item3395a49022:g:MrwAAOSwfcVUHVPY
p32
aVhttp://www.ebay.com/itm/FOR-VOLVO-UNIVERSAL-HEADLIGHT-BULB-RETAINING-SPRING-CLIP-H1-H3-H4-H7-/221553922196?fits=Model%3ATrans+Sport&hash=item3395a49094:g:7aQAAOSwnDZUHVPq
p33
aVhttp://www.ebay.com/itm/UNIVERSAL-HEADLAMP-HEAD-LAMP-BULB-RETAINING-SPRING-CLIP-H3-2-TYPES-INCLUDED-/331638231252?fits=Model%3ATrans+Sport&epid=1188825557&hash=item4d372dd0d4:g:L04AAOSwTapV3XYv
p34
aVhttp://www.ebay.com/itm/HB4-9006-501-55w-White-Xenon-HID-Look-Headlight-Dip-Low-Beam-Bulbs-E-Marked-/360714931983?fits=Model%3ATrans+Sport&epid=1883360667&hash=item53fc490f0f:g:9coAAOSwEeFU-anH
p35
aVhttp://www.ebay.com/itm/FOR-HYUNDAI-JEEP-UNIVERSAL-HEADLIGHT-BULB-RETAINING-SPRING-CLIP-H1-H3-H4-H7-/321528927043?fits=Model%3ATrans+Sport&hash=item4adc9e1343:g:7QYAAOSwnDZUHVPe
p36
aVhttp://www.ebay.com/itm/FOR-ROVER-UNIVERSAL-HEADLIGHT-BULB-RETAINING-SPRING-CLIP-H1-H3-H4-H7-/321528927079?fits=Model%3ATrans+Sport&hash=item4adc9e1367:g:uvoAAOSwRLZUHVPi
p37
aVhttp://www.ebay.com/itm/UNIVERSAL-HEADLAMP-HEAD-LAMP-BULB-RETAINING-SPRING-CLIP-H7-2-TYPES-INCLUDED-/161779048567?fits=Model%3ATrans+Sport&epid=1888042884&hash=item25aac86077:g:0sMAAOSwu4BVugLq
p38
aVhttp://www.ebay.com/itm/HEADLIGHT-FOGLIGHT-DIPPED-MAIN-BEAM-UNIVERSAL-BULB-RETAINING-CLIP-H1-H3-H4-H7-/171503903884?fits=Model%3ATrans+Sport&epid=1188589592&hash=item27ee6de48c:g:Jm8AAOSwxCxT1W3l
p39
aVhttp://www.ebay.com/itm/FOR-LANDROVER-RANGE-ROVER-UNIVERSAL-HEADLIGHT-BULB-SPRING-CLIP-H1-H3-H4-H7-/221553922140?fits=Model%3ATrans+Sport&hash=item3395a4905c:g:OhAAAOSwGvhUHVPk
p40
aVhttp://www.ebay.com/itm/UNIVERSAL-HEAD-LAMP-HEADLAMP-SPOT-FOG-REPLACEMENT-BULB-RETAINING-SPRING-CLIP-H1-/171875340718?fits=Model%3ATrans+Sport&epid=1288880969&hash=item28049191ae:g:0sMAAOSwu4BVugLq
p41
aVhttp://www.ebay.com/itm/FOR-SAAB-UNIVERSAL-HEADLIGHT-BULB-RETAINING-SPRING-CLIP-H1-H3-H4-H7-/321528927050?fits=Model%3ATrans+Sport&hash=item4adc9e134a:g:4oIAAOSw7NNUHVPf
p42
aVhttp://www.ebay.com/itm/Genuine-Gates-Belt-Idler-Pulley-T38001-/311694921533?fits=Model%3ATrans+Sport&epid=1437978299&hash=item4892770f3d:g:IMMAAOSwvUlWtiz0
p43
aVhttp://www.ebay.com/itm/UNIVERSAL-HEAD-LAMP-HEADLAMP-REPLACEMENT-BULB-RETAINING-SPRING-CLIP-H4-2-TYPES-/171875341356?fits=Model%3ATrans+Sport&epid=1188810051&hash=item280491942c:g:0sMAAOSwu4BVugLq
p44
aVhttp://www.ebay.com/itm/TIL111-OPTOISO-5-3KV-TRANS-W-BASE-6DIP-LOT-OF-5-/201423230317?hash=item2ee5c2956d:g:h3EAAOSwT6pV7XgP
p45
aVhttp://www.ebay.com/itm/ULN2803APG-TRANS-8-NPN-DARL-50V-500MA-18DIP-ULN2803APG-/201616348742?hash=item2ef1455646:g:YsIAAMXQVT9S81GF
p46
aVhttp://www.ebay.com/itm/UNIVERSAL-SPOT-FOG-SPOTLAMP-FOGLAMP-REPLACEMENT-BULB-RETAINING-SPRING-CLIP-H3-/171875342111?fits=Model%3ATrans+Sport&epid=1088793349&hash=item280491971f:g:0sMAAOSwu4BVugLq
p47
aVhttp://www.ebay.com/itm/H4-55-60W-XENON-HEADLIGHT-BULBS-TO-FIT-Chevrolet-MODELS-LOW-DIPPED-FREE-501S-/330938011264?fits=Model%3ATrans+Sport&hash=item4d0d714e80:g:4akAAOSwceNZPsMU
p48
aVhttp://www.ebay.com/itm/Genuine-Gates-Belt-Idler-Pulley-T38009-/371733066131?fits=Model%3ATrans+Sport&epid=1837927414&hash=item568d047193:g:vQYAAOSwXshWtiz8
p49
aVhttp://www.ebay.com/itm/UNIVERSAL-HEAD-LAMP-REPLACEMENT-HEADLAMP-BULB-RETAINING-SPRING-CLIP-H1-H3-H4-H7-/221553922124?fits=Model%3ATrans+Sport&hash=item3395a4904c:g:IB8AAOSwVFlUHVPd
p50
aVhttp://www.ebay.com/itm/HB4-9006-501-80w-White-Xenon-HID-Look-Headlight-Dip-Low-Beam-Bulbs-/360714923485?fits=Model%3ATrans+Sport&epid=1883360667&hash=item53fc48eddd:g:YOYAAOSwqu9U-ayn
p51
a.