(lp1
Vhttp://www.ebay.com/itm/Tranquillity-K-Tel-10-CD-200-Instrumental-Relaxing-Music-Tracks-New-Sealed-/351919347142?hash=item51f00715c6:g:E8wAAOSwiONYPLEn
p2
aVhttp://www.ebay.com/itm/DARK-TRANQUILITY-We-Are-The-Void-Tour-Edition-CD-NEW-/351980829945?epid=1448167651&hash=item51f3b13cf9:g:cTUAAOSwr~lYoULZ
p3
aVhttp://www.ebay.com/itm/Dark-Tranquillity-Exposures-In-Retrospect-Denial-2004-2CD-NEW-SEALED-/231915444271?epid=30594973&hash=item35ff3cd82f:g:ERYAAOSwqu9U3Hkb
p4
aVhttp://www.ebay.com/itm/TRANQUILITY-TREE-WALLPAPER-ROLLS-GREY-SILVER-GLITTER-FINE-DECOR-FD41712-/391617066475?epid=1795693211&hash=item5b2e3235eb:m:mHaI1qxpxBaiRJXhVnbnPcw
p5
aVhttp://www.ebay.com/itm/Ahmad-Jamal-Tranquility-Outertimeinnerspace-NEW-CD-/391328054987?epid=1444533092&hash=item5b1cf83ecb:g:~zgAAOSwxN5WVEBL
p6
aVhttp://www.ebay.com/itm/TRANQUILLITY-TREE-WALLPAPER-DUCK-EGG-SILVER-FINE-DECOR-FD41713-NEW-/132156265277?epid=1595865788&hash=item1ec520933d:g:udIAAOSwAANY5taq
p7
aVhttp://www.ebay.com/itm/Joma-Jewellery-Bracelet-a-little-Tranquility-/172310126323?epid=1880658375&hash=item281e7bdef3:g:GN0AAOSwU-pXtNm2
p8
aVhttp://www.ebay.com/itm/Dark-Tranquillity-Projector-Haven-2008-2-CD-BOXSET-FREE-FASTPOST-/181144303132?epid=71130757&hash=item2a2d0ab61c:g:4akAAOxyEjpRmpWe
p9
aVhttp://www.ebay.com/itm/Transfered-Embroidery-Kit-Tranquility-Brights-Beautiful-Kits-by-Maggie-Gee-/201975697435?var=&hash=item2f06b0901b:m:mwS-MjAMzWks5MBKrMc5g-g
p10
aVhttp://www.ebay.com/itm/Phil-Coulter-Scottish-Tranquillity-Piano-Orchestral-Classics-CD-/201294004238?hash=item2ede0ec00e:g:pogAAOSw5dNWoP5b
p11
aVhttp://www.ebay.com/itm/NEW-Mocha-97980-Tranquility-Buddha-Calligraphy-Elephant-Orchids-Wallpaper-/272652249852?var=&epid=1623981453&hash=item3f7b572afc:m:mLx9I2kPJuz0kaiqQRFWf3A
p12
aVhttp://www.ebay.com/itm/Dark-Tranquillity-Atoma-New-CD-Album-/162251570073?epid=1295856430&hash=item25c6f27b99:g:V04AAOSwal5YDRcG
p13
aVhttp://www.ebay.com/itm/Dark-Tranquillity-Manifesto-Of-Dark-Tranquillity-CD-NEW-/282308997729?epid=181666293&hash=item41baed7261:g:6uUAAOSwEzxYZyhs
p14
aVhttp://www.ebay.com/itm/ROYAL-ALBERT-TRANQUILLITY-VEGETABLE-TUREEN-PERFECT-/322274069130?hash=item4b09080a8a:g:dLwAAOSwAuZX6YaU
p15
aVhttp://www.ebay.com/itm/TAI-CHI-MUSIC-CD-FOR-RELAXATION-MEDITATION-PEACE-TRANQUILITY-/332137137362?hash=item4d54ea84d2:m:mcrh8265MVKj5_V9i3rX_ZQ
p16
aVhttp://www.ebay.com/itm/Phil-Coulter-Celtic-Tranquillity-NEW-AND-SEALED-CD-/182374315619?epid=47792203&hash=item2a765b3663:m:m3DwgDc1oSgBTfmyqWtipmQ
p17
aVhttp://www.ebay.com/itm/David-Sun-Tranquility-CD-/381081405438?hash=item58ba38c7fe:g:rjIAAOSw5dNWpk7o
p18
aVhttp://www.ebay.com/itm/FINE-DECOR-DUCK-EGG-TEAL-WALLPAPER-FLORAL-BIRDS-FLOWERS-TREE-DAMASK-STRIPE-/192167329797?var=&epid=1595865788&hash=item2cbe10c005:m:mqqsm2PvZBODsATG--3hTSA
p19
aVhttp://www.ebay.com/itm/Vango-Tranquility-250-Square-Sleeping-Bag-Cobalt-Blue-/322480509549?epid=559689513&hash=item4b1556126d:g:NegAAOSw3utY7Tio
p20
aVhttp://www.ebay.com/itm/GUIDED-MEDITATION-CD-FOR-INNER-PEACE-TRANQUILITY-SERENITY-RELAXATION-/231746483560?hash=item35f52ab568:g:YzoAAOxyTjNShcvL
p21
aVhttp://www.ebay.com/itm/Ultimate-Yoga-for-Health-Tranquillity-6-DVD-set-Beginners-Healthy-Back-More-/182382147156?epid=168219968&hash=item2a76d2b654:g:wPMAAOSwcUBYSXRc
p22
aVhttp://www.ebay.com/itm/Tranquility-Global-Journey-/152365875978?epid=1305669214&hash=item2379b6c30a:g:Oo4AAOSwZQRYW9MW
p23
aVhttp://www.ebay.com/itm/Dark-Tranquillity-Construct-CD-NEW-/351945915623?epid=194068047&hash=item51f19c7ce7:g:JHIAAOSw9GhYZyhl
p24
aVhttp://www.ebay.com/itm/Vintage-Duchess-TRANQUILITY-Bone-China-TRIO-Cup-Saucer-Plate-VGC-/112413545391?hash=item1a2c5e93af:g:eLAAAOSwR29ZH~6Y
p25
aVhttp://www.ebay.com/itm/Heron-Jade-Earrings-Tranquility-With-Sterling-Silver-Earwires-Pagan-Wicca-/152298110809?hash=item2375acbf59:g:6mMAAOSw44BYFI2W
p26
aVhttp://www.ebay.com/itm/Madrugada-Tranquillity-CD-ALBUM-/201215907249?hash=item2ed96715b1:g:tdMAAOSwGotWnjaP
p27
aVhttp://www.ebay.com/itm/Dark-Tranquillity-Yesterworlds-The-Early-Demos-CD-NEW-/302341963769?epid=182296714&hash=item4664fc3ff9:g:S5YAAOSwlMFZNtei
p28
aVhttp://www.ebay.com/itm/Ahmad-Jamal-Tranquility-Outertimeinnerspace-CD-NEW-/352094799264?epid=1444533092&hash=item51fa7c45a0:g:u6gAAOSwFJBZS0UH
p29
aVhttp://www.ebay.com/itm/Dark-Tranquillity-We-Are-the-Void-CD-NEW-/302164859400?epid=1205134026&hash=item465a6dda08:g:unEAAOSwnHZYT07l
p30
aVhttp://www.ebay.com/itm/REALM-OF-TRANQUILITY-Fairy-Griffin-Fantasy-Art-Cushion-By-Anne-Stokes-/182118743088?hash=item2a671f7c30:g:R40AAOSw0HVWBD2x
p31
aVhttp://www.ebay.com/itm/DARK-TRANQUILITY-We-Are-The-Void-Tour-Edition-CD-NEW-/351978323873?epid=1025101020&hash=item51f38affa1:g:YAcAAOSw2gxYnR3L
p32
aVhttp://www.ebay.com/itm/NATURAL-SOUNDS-OF-THE-JUNGLE-CD-RELAXATION-SLEEP-AID-NATURE-TRANQUILITY-/231962371291?hash=item360208e4db:m:m9xZSMudnvB6gCFrlK-xqgg
p33
aVhttp://www.ebay.com/itm/Neom-Organics-London-Tranquillity-Reed-Diffuser-Refill-100-ml-UK-SELLER-/142252762643?epid=18003656436&hash=item211eece613:g:oF8AAOSwNnRYgtRq
p34
aVhttp://www.ebay.com/itm/The-Spa-Series-Tranquillity-Various-Very-Good-Single-/222535538728?epid=1305848509&hash=item33d026d828:g:rWUAAOSw1WJZNRfd
p35
aVhttp://www.ebay.com/itm/Vango-Tranquility-250-Sleeping-Bag-Single-Deep-Purple-/322500860666?epid=559689070&hash=item4b168c9afa:g:biYAAOSwjL5ZBwtg
p36
aVhttp://www.ebay.com/itm/TAI-CHI-MUSIC-CD-FOR-RELAXATION-MEDITATION-PEACE-TRANQUILITY-INNER-CALM-/222014180216?epid=921019582&hash=item33b1138b78:g:gBoAAOSwFqJWskNX
p37
aVhttp://www.ebay.com/itm/TRANQUILLITY-a-Handmade-Themed-POWER-BRACELET-based-on-my-POWER-for-LIFE-books-/131324478642?hash=item1e938c84b2:g:aN0AAOSwdsFUQTsh
p38
aVhttp://www.ebay.com/itm/Neom-Organics-London-Tranquillity-Reed-Diffuser-Refill-100-ml-/142160358610?epid=652913634&hash=item21196aecd2:g:zVEAAOSwnbZYD4KB
p39
aVhttp://www.ebay.com/itm/TRANQUILITY-TREE-WALLPAPER-DUCK-EGG-SILVER-FINE-DECOR-FD41713-/201888137294?epid=1595865788&hash=item2f0178804e:g:CEUAAOSwU8hY5y0L
p40
aVhttp://www.ebay.com/itm/GUIDED-MEDITATION-CD-FOR-INNER-PEACE-TRANQUILITY-SERENITY-RELAXATION-/330662632294?epid=1488254111&hash=item4cfd075b66:g:VV0AAOxyMKNSJi3c
p41
aVhttp://www.ebay.com/itm/RURAL-TRANQUILLITY-TO-NATIONAL-CRISIS-A-FARM-VETS-STORY-DAVID-HARWOOD-PAPERBACK-/391831735605?epid=209682493&hash=item5b3afdcd35:g:c5kAAOSwyQtVoPM8
p42
aVhttp://www.ebay.com/itm/CHINESE-CALLIGRAPHY-WALL-HANGING-SCROLL-JING-TRANQUILITY-/371844375522?hash=item5693a6e3e2:g:6wQAAOSw-0xYgiYd
p43
aVhttp://www.ebay.com/itm/TRANQUILITY-TREE-WALLPAPER-BLACK-COPPER-FINE-DECOR-FD41714-/401221542194?epid=1295712759&hash=item5d6aaae132:g:yL0AAOSwls5Y55Zn
p44
aVhttp://www.ebay.com/itm/Satya-Nagchampa-Incense-Super-Hit-Yoga-Series-Celestial-Romance-Aastha-Natural-/150616459515?var=&hash=item231170c8fb:m:mMp90wUWA3x5QWPqgcWljGA
p45
aVhttp://www.ebay.com/itm/voices-of-tranquillity-soothing-sounds-of-gregorian-chant-CD-/381172511299?hash=item58bfa6f243:g:SxoAAOSwX~dWplB5
p46
aVhttp://www.ebay.com/itm/Vango-Tranquility-250-Sleeping-Bag-2017-Square-/182622207691?var=&epid=559689513&hash=item2a8521becb:m:mL5l1PofLDHxjiD987x30rA
p47
aVhttp://www.ebay.com/itm/TAI-CHI-MUSIC-CD-FOR-RELAXATION-MEDITATION-PEACE-TRANQUILITY-/230756199342?epid=1688281467&hash=item35ba242bae:m:mcrh8265MVKj5_V9i3rX_ZQ
p48
aVhttp://www.ebay.com/itm/Emerald-Tranquillity-Various-Artists-2003-CD-/381049800018?hash=item58b8568552:g:8aEAAOSwxH1UH~30
p49
aVhttp://www.ebay.com/itm/Spa-Series-Tranquillity-CD-/111886617837?epid=1305848509&hash=item1a0cf64ced:g:WN4AAOSwGotWp3zx
p50
aVhttp://www.ebay.com/itm/A-DUCHESS-TRANQUILLITY-6-5-8-TEA-SIDE-PLATE-/331113145163?hash=item4d17e1a34b:g:cgkAAOSw8lBTns1h
p51
aVhttp://www.ebay.com/itm/Neom-Organics-London-Tranquillity-Intensive-Deep-Sleep-Treatment-/252950644374?epid=1852772401&hash=item3ae5088696:g:g-UAAOSwrhBZIcIQ
p52
aVhttp://www.ebay.com/itm/Dark-Tranquillity-Haven-ECD-2006-12-track-cd-new-/181614721308?hash=item2a4914b91c:g:ZkgAAOSwiCRUj8E0
p53
aVhttp://www.ebay.com/itm/ROYAL-ALBERT-TRANQUILITY-SIDE-TEA-PLATE-/152608045028?hash=item238825f7e4:g:FzUAAOSw54xUWOt1
p54
aVhttp://www.ebay.com/itm/Dark-Tranquillity-Construct-CD-NEW-/282308763149?epid=1704957230&hash=item41bae9de0d:g:GxcAAOSwA3dYZtJn
p55
aVhttp://www.ebay.com/itm/Neom-Organics-London-Tranquillity-Scented-Candle-420-g-/122197734312?hash=item1c738d73a8:g:GA0AAOSwo4pYD4I5
p56
aVhttp://www.ebay.com/itm/PHIL-COULTER-AMERICAN-TRANQUILITY-14-TRACKS-NEW-SEALED-CD-1995-/391377074648?epid=30647386&hash=item5b1fe439d8:g:F8MAAOxyJmhSDVLN
p57
aVhttp://www.ebay.com/itm/Textured-Glitter-Tree-Branch-Copper-Fine-Decor-Tranquility-Wallpaper-FD41714-/332007454056?hash=item4d4d2fb568:g:Xz4AAOSw4CFYsfmB
p58
aVhttp://www.ebay.com/itm/Dimensions-D73262-Beach-Tranquility-Counted-Cross-Stitch-Kit-with-Mat-Clip-Frame-/182549961520?epid=1923206636&hash=item2a80d35b30:g:SysAAOSwCQZZAwwi
p59
a.