(lp0
Vhttps://www.amazon.co.uk/Regatta-UTRG2050-18-Nielson-III/dp/B01N3BE09Z/ref=sr_1_1/258-0032192-2226056?ie=UTF8&qid=1500121221&sr=8-1&keywords=Nielson
p1
aVhttps://www.amazon.co.uk/Regatta-UTRG2050-36-Nielson-III/dp/B01N7ZOD90/ref=sr_1_2/258-0032192-2226056?ie=UTF8&qid=1500121221&sr=8-2&keywords=Nielson
p2
aVhttps://www.amazon.co.uk/Gospel-Centered-Youth-Ministry-Practical-Guide-ebook/dp/B01BU6F64C/ref=sr_1_3/258-0032192-2226056?ie=UTF8&qid=1500121221&sr=8-3&keywords=Nielson
p3
aVhttps://www.amazon.co.uk/NIELSON-150MM-STAINLESS-STEEL-CONVERSION/dp/B00Q6I6DZQ/ref=sr_1_4/258-0032192-2226056?ie=UTF8&qid=1500121221&sr=8-4&keywords=Nielson
p4
aVhttps://www.amazon.co.uk/Nielson-Brothers/dp/B003I1FJQ8/ref=sr_1_5/258-0032192-2226056?ie=UTF8&qid=1500121221&sr=8-5&keywords=Nielson
p5
aVhttps://www.amazon.co.uk/CoreLogic-Chris-Nielson-Mobile-MLS/dp/B00UC6PEDA/ref=sr_1_6/258-0032192-2226056?ie=UTF8&qid=1500121221&sr=8-6&keywords=Nielson
p6
aVhttps://www.amazon.co.uk/Regatta-UTRG2050-21-Nielson-III/dp/B01N6YFBTF/ref=sr_1_7/258-0032192-2226056?ie=UTF8&qid=1500121221&sr=8-7&keywords=Nielson
p7
aVhttps://www.amazon.co.uk/Spy-Hard-Leslie-Nielson/dp/B00LLPVOV2/ref=sr_1_8/258-0032192-2226056?ie=UTF8&qid=1500121221&sr=8-8&keywords=Nielson
p8
aVhttps://www.amazon.co.uk/Damage-Felix-Francis/dp/1486230806/ref=sr_1_9/258-0032192-2226056?ie=UTF8&qid=1500121221&sr=8-9&keywords=Nielson
p9
aVhttps://www.amazon.co.uk/Nielson-Priscilla-Presley-Montalban-autographed/dp/B0036VD7S2/ref=sr_1_10/258-0032192-2226056?ie=UTF8&qid=1500121221&sr=8-10&keywords=Nielson
p10
aVhttps://www.amazon.co.uk/Metal-money-Connie-Nielson-Alpacino/dp/B072BYXNQB/ref=sr_1_11/258-0032192-2226056?ie=UTF8&qid=1500121221&sr=8-11&keywords=Nielson
p11
aVhttps://www.amazon.co.uk/Stamps-collectors-perforated-featuring-Democratic/dp/B01N4X717Z/ref=sr_1_12/258-0032192-2226056?ie=UTF8&qid=1500121221&sr=8-12&keywords=Nielson
p12
aVhttps://www.amazon.co.uk/dp/B07171B3SG/ref=sr_1_13/258-0032192-2226056?ie=UTF8&qid=1500121221&sr=8-13&keywords=Nielson
p13
aVhttps://www.amazon.co.uk/q32524-b-NIELSON-Family-Name-Cheers/dp/B009XBMNTS/ref=sr_1_14/258-0032192-2226056?ie=UTF8&qid=1500121221&sr=8-14&keywords=Nielson
p14
aVhttps://www.amazon.co.uk/Connie-Nielson-Alpacino-printed-Tote/dp/B072Y4ZJ51/ref=sr_1_15/258-0032192-2226056?ie=UTF8&qid=1500121221&sr=8-15&keywords=Nielson
p15
aVhttps://www.amazon.co.uk/Pink-baby-Connie-Nielson-Alpacino/dp/B072J5B786/ref=sr_1_16/258-0032192-2226056?ie=UTF8&qid=1500121221&sr=8-16&keywords=Nielson
p16
aVhttps://www.amazon.co.uk/NIELSON-150MM-STAINLESS-STEEL-CONVERSION/dp/B00Q6I6BDK/ref=sr_1_17/258-0032192-2226056?ie=UTF8&qid=1500121224&sr=8-17&keywords=Nielson
p17
aVhttps://www.amazon.co.uk/Regatta-UTRG2050-42-Nielson-III/dp/B01MZH93ID/ref=sr_1_18/258-0032192-2226056?ie=UTF8&qid=1500121224&sr=8-18&keywords=Nielson
p18
aVhttps://www.amazon.co.uk/d/Software/LIFT-Nielson-Norman-Macromedia-Dreamweaver/B000079XVO/ref=sr_1_19/258-0032192-2226056?ie=UTF8&qid=1500121224&sr=8-19&keywords=Nielson
p19
aVhttps://www.amazon.co.uk/Regatta-UTRG2050-20-Nielson-III-x/dp/B01MTGHZP6/ref=sr_1_20/258-0032192-2226056?ie=UTF8&qid=1500121224&sr=8-20&keywords=Nielson
p20
aVhttps://www.amazon.co.uk/Your-First-Grandchild-first-time-grandparents-ebook/dp/B008CBDDJY/ref=sr_1_21/258-0032192-2226056?ie=UTF8&qid=1500121224&sr=8-21&keywords=Nielson
p21
aVhttps://www.amazon.co.uk/Two-Ronnies-Best-VHS/dp/B00004CK87/ref=sr_1_22/258-0032192-2226056?ie=UTF8&qid=1500121224&sr=8-22&keywords=Nielson
p22
aVhttps://www.amazon.co.uk/Regatta-UTRG2050-17-Nielson-III/dp/B01MUIA2Q9/ref=sr_1_23/258-0032192-2226056?ie=UTF8&qid=1500121224&sr=8-23&keywords=Nielson
p23
aVhttps://www.amazon.co.uk/NIELSON-150MM-STAINLESS-STEEL-CONVERSION-x/dp/B00R2MFMP2/ref=sr_1_24/258-0032192-2226056?ie=UTF8&qid=1500121224&sr=8-24&keywords=Nielson
p24
aVhttps://www.amazon.co.uk/Without-You-Best-Harry-Nilsson/dp/B001WSTNIY/ref=sr_1_25/258-0032192-2226056?ie=UTF8&qid=1500121224&sr=8-25&keywords=Nielson
p25
aVhttps://www.amazon.co.uk/The-Ballad-of-Amy-Nielson/dp/B01N2Z7P91/ref=sr_1_26/258-0032192-2226056?ie=UTF8&qid=1500121224&sr=8-26&keywords=Nielson
p26
aVhttps://www.amazon.co.uk/Facts-About-Shakespeare-William-Nielson/dp/0554197642/ref=sr_1_27/258-0032192-2226056?ie=UTF8&qid=1500121224&sr=8-27&keywords=Nielson
p27
aVhttps://www.amazon.co.uk/Our-God-Reigns-Piano-Duets/dp/1423408268/ref=sr_1_28/258-0032192-2226056?ie=UTF8&qid=1500121224&sr=8-28&keywords=Nielson
p28
aVhttps://www.amazon.co.uk/d/Concertos-Orchestras/Violin-Sibelius/B005CNKTCO/ref=sr_1_29/258-0032192-2226056?ie=UTF8&qid=1500121224&sr=8-29&keywords=Nielson
p29
aVhttps://www.amazon.co.uk/d/DVD-Blu-ray/Norman-Wisdom-Collection/B001CWLFIQ/ref=sr_1_30/258-0032192-2226056?ie=UTF8&qid=1500121224&sr=8-30&keywords=Nielson
p30
aVhttps://www.amazon.co.uk/Cupcake-World-Caramel-Intense-Flavouring/dp/B00XTA0L98/ref=sr_1_31_a_it/258-0032192-2226056?ie=UTF8&qid=1500121224&sr=8-31&keywords=Nielson
p31
aVhttps://www.amazon.co.uk/Metal-money-Connie-Nielson-Alpacino/dp/B071HXRWHH/ref=sr_1_32/258-0032192-2226056?ie=UTF8&qid=1500121224&sr=8-32&keywords=Nielson
p32
a.