(lp1
Vhttp://www.ebay.com/itm/THYROID-ENERGY-Thyroid-Support-90VCaps-NOW-Foods-24Hr-Dispatch-/271404378241?epid=1705241185&hash=item3f30f62881:g:UbYAAOSw9uFW8-O2
p2
aVhttp://www.ebay.com/itm/Health-Aid-Iodine-300ug-60-Tablets-Promotes-healthy-thyroid-function-/172709764514?epid=1719564385&hash=item28364ddda2:g:RL0AAOSwKtlWs16o
p3
aVhttp://www.ebay.com/itm/Potassium-Iodide-32-5mg-x-60Tablets-Source-Naturals-Uk-Stocks-Thyroid-/232312065510?epid=1441569140&hash=item3616e0cde6:g:-y8AAOSwvihY~cfh
p4
aVhttp://www.ebay.com/itm/NATURAL-SOURCES-RAW-THYROID-60-x-390mg-CAPSULES-ENERGY-THYROID-SUPPORT-/191589310614?epid=1810242187&hash=item2c9b9ce096:g:WxwAAOSw-W5UvU~u
p5
aVhttp://www.ebay.com/itm/Sea-Kelp-Tablets-Iodine-Thyroid-Rich-In-Minerals-Hair-Nail-Detox-Slimming-Pill-/181999386759?var=&epid=1355239410&hash=item2a60024087:m:mlkvVBLuo3eA7OjfjPJV-OQ
p6
aVhttp://www.ebay.com/itm/LINDENS-Selenium-100mcg-with-zinc-immune-system-thyroid-skin-100-tablets-/152118302520?epid=1723520533&hash=item236af51738:g:LjoAAOSwnNBXZXjf
p7
aVhttp://www.ebay.com/itm/Iodine-150mcg-Tablets-Thyroid-Health-Mineral-Slimming-Pills-Hair-Supplement-/321733787700?var=&epid=1624026558&hash=item4ae8d40034:m:mF6zlumndsG_0iNcUnz-8jA
p8
aVhttp://www.ebay.com/itm/Vegan-Thyroid-gland-vitamins-supplements-Manganese-Chromium-L-Tyrosine-T3-T4-/391820870937?epid=1239337479&hash=item5b3a580519:g:GAoAAOxyMKNSJbkP
p9
aVhttp://www.ebay.com/itm/RAW-THYROID-Freeze-Dried-390mg-x-90Caps-Natural-Sources-24Hr-Dispatch-/271683550535?epid=1012042521&hash=item3f4199fd47:g:DB4AAOxy5jxSdnG8
p10
aVhttp://www.ebay.com/itm/Thyroid-Support-Supplement-100-MONEY-BACK-GUARANTEE-FREE-SHIPPING-Natu-/182446864294?hash=item2a7aae37a6:g:4qkAAOSw241YmPHI
p11
aVhttp://www.ebay.com/itm/Absolute-Nutrition-Thyroid-T-3-Original-Formula-180-Capsules-/282473549064?epid=1105231920&hash=item41c4bc4d08:g:vyAAAOSw0hlZFNMv
p12
aVhttp://www.ebay.com/itm/LINDENS-Selenium-100mcg-with-zinc-100-tablets-immune-system-thyroid-skin-/191878119351?epid=1852267672&hash=item2cacd3bfb7:g:RBkAAOSwM4xXZXi5
p13
aVhttp://www.ebay.com/itm/Absolute-Nutrition-Thyroid-T-3-Original-Formula-2-Bottles-60-Capsules-Each-/282365193302?epid=1627959944&hash=item41be46ec56:g:-NoAAOSw4DJYfJgA
p14
aVhttp://www.ebay.com/itm/KELP-600mg-180-CAPSULES-Sea-Kelp-natural-source-of-Iodine-thyroid-/121425863630?epid=1441339765&hash=item1c458ba3ce:g:05sAAOSwFqJWmMae
p15
aVhttp://www.ebay.com/itm/Natural-Sources-Raw-Thyroid-60-Capsules-/302327729315?epid=1810242187&hash=item4664230ca3:g:HFkAAOSwlMFZJuD5
p16
aVhttp://www.ebay.com/itm/THYROSENSE-Thyroid-Support-60VCaps-Natural-Factors-24Hr-Dispatch-/351002753397?epid=1219258931&hash=item51b964f975:g:cpwAAOxyM89SdoSw
p17
aVhttp://www.ebay.com/itm/MAGNASCENT-2-NASCENT-IODINE-1oz-THYROID-THERAPY-ANTI-BACTERIAL-ANTI-VIRAL-SAFE-/182650742993?hash=item2a86d528d1:g:LSQAAOSwX9FZG2jl
p18
aVhttp://www.ebay.com/itm/Sea-Kelp-Seaweed-500mg-100-Tablets-Thyroid-Detox-Hair-Skin-Nails-Supplements-/282129472240?epid=1605428678&hash=item41b03a1af0:g:QD0AAOSwaB5Xn3Kd
p19
aVhttp://www.ebay.com/itm/Now-Foods-Potassium-Plus-Iodine-180-Tablets-THYROID-/272509808420?hash=item3f72d9af24:g:ghoAAOSwmLlYAR2i
p20
aVhttp://www.ebay.com/itm/KC-Iodine-15ml-drops-boosts-energy-supports-thyroid-and-immune-system-detox-/252111163294?epid=864526941&hash=item3ab2ff0f9e:g:2YoAAOSwPe1UHZKn
p21
aVhttp://www.ebay.com/itm/Natural-Sources-Raw-Thyroid-180-Capsules-/272686641961?epid=1623225701&hash=item3f7d63f329:g:8r8AAOSwjqVZJt9v
p22
aVhttp://www.ebay.com/itm/Viridian-Thyroid-Complex-60-Vegetarian-Capsules-/162111786405?epid=1063892868&hash=item25be9d8da5:g:UMUAAOSw3YNXaPJG
p23
aVhttp://www.ebay.com/itm/THYROID-FUNCTION-UNTERSTUTZT-ZU-DEN-NORMAL-MIT-VITAMIN-D3-TABLETTEN-/121846413239?hash=item1c5e9cb7b7:g:i-kAAOSwpDdVDg6v
p24
aVhttp://www.ebay.com/itm/Enzymatic-Therapy-Metabolic-Advantage-Thyroid-Formula-100-Capsules-/302106543426?epid=1105224456&hash=item4656f40542:g:pZ4AAOSwzaJYAJwK
p25
aVhttp://www.ebay.com/itm/Thyroid-ENERGY-Thyroid-Support-90VCaps-NOW-Foods-24Hr-Dispatch-/232252243268?hash=item36134ffd44:g:UbYAAOSw9uFW8-O2
p26
aVhttp://www.ebay.com/itm/Absolute-Nutrition-Thyroid-T-3-Original-Formula-2-Bottles-60-Capsules-Each-/152389426356?epid=1627959944&hash=item237b1e1cb4:g:BY0AAOSwA3tXogf-
p27
aVhttp://www.ebay.com/itm/NatraBio-Thyroid-Support-60-Tablets-/301907271566?epid=1610101347&hash=item464b135f8e:g:Nm4AAOSwyQtVpqT-
p28
aVhttp://www.ebay.com/itm/60-THYROID-FUNCTION-TABLETTEN-FUR-NORMALE-MIT-VITAMIN-D3-/371514583114?hash=item567ffea84a:g:uXsAAOSwv0tVU32B
p29
aVhttp://www.ebay.com/itm/Now-Foods-L-Tyrosine-100-Pure-Powder-4oz-113g-Thyroid-Neurotransmitter-/251840383113?epid=1010248492&hash=item3aa2db4889:g:ni0AAOSwLEtYk8nX
p30
aVhttp://www.ebay.com/itm/THYROID-FUNCTION-CONTRIBUTES-TO-THE-NORMAL-THYROID-FUNCTION-WITH-VIT-D3-PILLS-/371290696556?hash=item5672a66b6c:g:i-kAAOSwpDdVDg6v
p31
aVhttp://www.ebay.com/itm/Higher-Nature-Thyroid-Support-Formula-60-veg-caps-/171439240976?epid=1105256152&hash=item27ea933710:g:XToAAOSw-jhUAEms
p32
aVhttp://www.ebay.com/itm/60-THYROID-FUNCTION-PILLS-FOR-NORMAL-THYROID-FUNCTION-WITH-VIT-D3-PILLS-/371460461565?hash=item567cc4d3fd:g:uXsAAOSwv0tVU32B
p33
aVhttp://www.ebay.com/itm/Sea-Kelp-500mg-Capsules-NATURAL-IODINE-METABOLISM-BOOST-HEALTHY-THYROID-/231545358926?var=&hash=item35e92dca4e:m:m33KaSM05AF3QsB5DUC5M-Q
p34
aVhttp://www.ebay.com/itm/Higher-Nature-Thyroid-Support-Formula-60-veg-capsules-/250838187952?epid=1031699125&hash=item3a671effb0:g:DvkAAOSwcu5UP5fp
p35
aVhttp://www.ebay.com/itm/Nutri-Advanced-Thyro-Complex-Thyroid-Support-60-Vegetarian-Tablets-/162363940949?epid=1205273332&hash=item25cda52055:g:kqAAAOSwopRYgJEz
p36
aVhttp://www.ebay.com/itm/SEA-KELP-500MG-X100-TABLETS-THYROID-DETOX-HAIR-SKIN-NAILS-HEALTH-SUPPLEMENT-/172468273044?epid=1605428678&hash=item2827e8ff94:g:h-0AAOSw5cNYaRrk
p37
aVhttp://www.ebay.com/itm/Now-Foods-Thyroid-Energy-Thyroid-Support-90-Veggie-Caps-/152526830303?epid=1705241185&hash=item23834ebadf:g:MccAAOSwtGlZAeYk
p38
aVhttp://www.ebay.com/itm/Organic-Dulse-Capsules-500mg-Thyroid-Nerves-Brain-Immunity-Circulation-/131971417241?hash=item1eba1c0499:g:~wcAAOSwYIxYAj7A
p39
aVhttp://www.ebay.com/itm/Natural-Sources-Raw-Thyroid-90-Capsules-/302327723759?epid=1012042521&hash=item466422f6ef:g:~xQAAOSwYvFZJuAP
p40
aVhttp://www.ebay.com/itm/KELP-600mg-CAPSULES-Sea-Kelp-natural-source-of-Iodine-thyroid-/111750421227?var=&epid=1441339765&hash=item1a04d81aeb:m:m8EGh4io-McVoYeTjQZrPMQ
p41
aVhttp://www.ebay.com/itm/Absolute-Nutrition-Thyroid-T-3-Original-Formula-180-Capsules-/302197569969?epid=1105231920&hash=item465c60f9b1:g:WbUAAOSwLEtYfJcN
p42
aVhttp://www.ebay.com/itm/RAW-THYROID-Freeze-Dried-390mg-x180Caps-Natural-Sources-24Hr-Dispatch-/231811581507?epid=1623225701&hash=item35f90c0643:g:IisAAOSwX~dWlQlF
p43
aVhttp://www.ebay.com/itm/THYROID-FUNCTION-CONTRIBUTES-TO-THE-NORMAL-THYROID-FUNCTION-WITH-VIT-D3-PILLS-/121602057651?hash=item1c500c25b3:g:i-kAAOSwpDdVDg6v
p44
aVhttp://www.ebay.com/itm/Vegan-Thyroid-support-L-tyrosine-Chromium-Selenium-Kelp-Manganese-vitamins-/253000040503?hash=item3ae7fa4037:g:2HEAAOSwpLNYB07s
p45
aVhttp://www.ebay.com/itm/60-THYROID-FUNCTION-PILLS-FOR-NORMAL-THYROID-FUNCTION-WITH-VIT-D3-PILLS-/121650684585?hash=item1c52f222a9:g:uXsAAOSwv0tVU32B
p46
aVhttp://www.ebay.com/itm/Sea-Kelp-500mg-source-of-iodine-contributing-towards-normal-thyroid-function-/142163183524?hash=item21199607a4:g:XcMAAOSwn7JYE2q-
p47
aVhttp://www.ebay.com/itm/Kelp-600mg-180-CAPSULES-Sea-Kelp-natural-source-of-Iodine-thyroid-/122092682251?hash=item1c6d4a7c0b:g:05sAAOSwFqJWmMae
p48
aVhttp://www.ebay.com/itm/2-x-KC-Iodine-30ml-drops-boosts-energy-supports-thyroid-immune-system-detox-/181890984734?hash=item2a598c2b1e:g:XdMAAOxy3zNSh0J0
p49
aVhttp://www.ebay.com/itm/Now-Foods-Potassium-plus-Iodine-180-Tablets-Thyroid-Support-/152537465538?hash=item2383f102c2:g:3QcAAOSwONBZDErr
p50
aVhttp://www.ebay.com/itm/Selenium-antioxidant-thyroid-function-male-health-fertility-50-tablets-/391721050307?epid=1439309834&hash=item5b3464e0c3:g:J-cAAOSwMVFXIfQv
p51
aVhttp://www.ebay.com/itm/Organic-Dulse-Capsules-1000mg-Thyroid-Nerves-Brain-Immunity-Circulation-/131971415591?hash=item1eba1bfe27:g:t8cAAOSwYIxYAj0g
p52
aVhttp://www.ebay.com/itm/Higher-Nature-Thyroid-Support-Formula-Pack-Of-60-Capsules-Packaging-May-Vary-/262085874962?epid=1105256152&hash=item3d05891512:g:u7sAAOSw5ZBWF8ul
p53
aVhttp://www.ebay.com/itm/Lindens-Selenium-100mcg-With-Zinc-Immune-System-Health-Hair-Nails-and-Thyroid-/142251225328?hash=item211ed570f0:g:7hkAAOSwNnRYgO8A
p54
aVhttp://www.ebay.com/itm/100-ORGANIC-Cleanse-Detox-Thyroid-Function-Antioxidant-Weightloss-Menopause-/282415194887?hash=item41c141e307:g:wmUAAOSwzaJX-U1u
p55
aVhttp://www.ebay.com/itm/Higher-Nature-Ocean-Kelp-180-Tablets-Natural-Supplement-Iodine-Thyroid-Support-/302254526747?epid=880943658&hash=item465fc6111b:g:mfYAAOSwax5YysAU
p56
aVhttp://www.ebay.com/itm/Higher-Nature-Thyroid-Support-Formula-60-caps-/251825326946?epid=1505531746&hash=item3aa1f58b62:g:6nAAAOSwAoRXF5uX
p57
aVhttp://www.ebay.com/itm/Thyroid-Support-Formula-UK-ONLY-60caps-/152239205364?epid=1105256152&hash=item237229ebf4:g:Mi8AAOSwsXFZNtfC
p58
aVhttp://www.ebay.com/itm/Thyroid-Support-Supplement-100-MONEY-BACK-GUARANTEE-and-FREE-SHIPPING-To-D-/332190978981?hash=item4d582013a5:g:gpQAAOSwmCVY-nGv
p59
aVhttp://www.ebay.com/itm/Kelp-Alfalfa-100-Tablets-Weight-Loss-and-Water-Retention-Thyroid-Health-/152566681474?var=&hash=item2385aecf82:m:mXeZxSCMW5wDwm3jjUpfIrA
p60
aVhttp://www.ebay.com/itm/Rosehip-2000mg-Capsules-100-pack-Lindens-Health-Supplements-Max-Strength-Thyroid-/162326588172?epid=1705424460&hash=item25cb6b2b0c:g:bcQAAOSw5cNYV~IN
p61
aVhttp://www.ebay.com/itm/ThyroLibrium-Thyroid-Energy-and-Support-Supplement-for-Men-and-Women-/253026266715?hash=item3ae98a6e5b:g:sGYAAOSw4GVYJ3hJ
p62
aVhttp://www.ebay.com/itm/Kelp-60-x-500mg-High-Strength-VEGETARAN-Tablets-Iodine-Thyroid-Gland-/221686516134?epid=1388645511&hash=item339d8bc9a6:g:ODMAAOSwX~dWtluq
p63
aVhttp://www.ebay.com/itm/sea-kelp-tablets-365-tablets-12-month-supply-thyroid-function-/161981053436?hash=item25b6d2b9fc:g:rK0AAOSwB4NWxO53
p64
aVhttp://www.ebay.com/itm/Live-Well-Iodine-150mcg-Tablets-High-Strength-Healthy-Thyroid-Solution-Mineral-/152322902513?var=&hash=item23772709f1:m:mtJH3oDPDvaDfLlnfW0RHqg
p65
aVhttp://www.ebay.com/itm/Kelp-30-x-500mg-High-Strength-VEGETARIAN-Tablets-Iodine-Thyroid-Gland-/361169004825?epid=1488642899&hash=item541759a919:g:QjQAAOSwJb9WtlyM
p66
aVhttp://www.ebay.com/itm/Selenium-100mcg-Zinc-Tablets-100-pack-Immune-System-Health-Hair-Nails-Thyroid-/162041467037?epid=1723520533&hash=item25ba6c909d:g:VAgAAOSw14xXE-M3
p67
aVhttp://www.ebay.com/itm/Potassium-Iodide-32-5mg-x60tabs-Thyroid-Support-/291699058141?hash=item43ea9e65dd:g:ElwAAOSwWTRW15UE
p68
aVhttp://www.ebay.com/itm/Seleno-Excell-Selenium-for-Thyroid-Function-200mcg-x180tabs-/290453888694?hash=item43a0669eb6:g:F9IAAOSwjVVV0xpz
p69
aVhttp://www.ebay.com/itm/Higher-Nature-Thyroid-Support-Formula-60-Capsules-Pack-of-2-/252800461311?epid=1105256152&hash=item3adc14e9ff:g:rycAAOSwfVpYvVLV
p70
aVhttp://www.ebay.com/itm/KELP-600mg-90-CAPSULES-Sea-Kelp-natural-source-of-Iodine-thyroid-/111453549822?epid=1441339765&hash=item19f32634fe:g:DtAAAOSwL7VWmMaL
p71
aVhttp://www.ebay.com/itm/THYROID-FUNCTION-CONTRIBUTES-TO-THE-NORMAL-THYROID-FUNCTION-WITH-VIT-D3-PILLS-/121783523196?hash=item1c5add177c:g:i-kAAOSwpDdVDg6v
p72
aVhttp://www.ebay.com/itm/KC-Iodine-30ml-drops-boosts-energy-supports-thyroid-immune-system-detox-/252111154595?hash=item3ab2feeda3:g:XdMAAOxy3zNSh0J0
p73
aVhttp://www.ebay.com/itm/THYROID-FUNCTION-CONTRIBUTES-TO-THE-NORMAL-THYROID-FUNCTION-WITH-VIT-D3-PILLS-/371460477563?hash=item567cc5127b:g:i-kAAOSwpDdVDg6v
p74
a.