(lp1
Vhttp://www.ebay.com/itm/Men-s-Polar-Fleece-Jacket-Full-Zip-Military-Tad-Tactical-Coat-Gilet-Soft-Warm-/172469660361?var=&hash=item2827fe2ac9:m:mZ_9aJEecYWU9KR2BdhURMw
p2
aVhttp://www.ebay.com/itm/Technora-950-Neckless-Bracelet-Edc-Escape-Tool-Tad-5-11-Maxpedition-/322591912528?hash=item4b1bf9f250:g:sWIAAOSwdzVXmfov
p3
aVhttp://www.ebay.com/itm/Velvet-Underground-Tad-Nirvana-2-Sided-Punk-Rock-Mini-Poster-Art-14x10-Ref-177-/322565353208?hash=item4b1a64aef8:g:qxwAAOSw9uFW8rPz
p4
aVhttp://www.ebay.com/itm/Tad-Gods-Balls-LOSER-EDITION-COLOURED-VINYL-LP-/282381872384?epid=1991858546&hash=item41bf456d00:g:iJsAAOSwSlBYuXH0
p5
aVhttp://www.ebay.com/itm/Tad-Doyle-Jack-Pepsi-Inspired-Grunge-Rock-Metal-Music-T-Shirt-8-Way-Santa-150-/232215777527?var=&hash=item36112390f7:m:mCkAAn8XmKaCNEN8zsU9krg
p6
aVhttp://www.ebay.com/itm/MUDHONEY-SUPERFUZZ-BIG-MUFF-WHITE-T-SHIRT-grunge-nirvana-tad-surgery-vinyl-cd-/201954665814?var=&hash=item2f056fa556:m:mFFkiEHFDuc8K9cXksKYxtg
p7
aVhttp://www.ebay.com/itm/SCREAMING-TREES-DUST-T-SHIRT-Mudhoney-Soundgarden-Alice-Chains-Tad-Temple-Pilots-/292086526532?var=&hash=item4401b6b244:m:mcdvhjc6ZmTelhWX05tHPqg
p8
aVhttp://www.ebay.com/itm/Loic-Blejean-Tad-Sargent-CD-/351936886048?epid=2111731922&hash=item51f112b520:g:ZRgAAOSw44BYV9H4
p9
aVhttp://www.ebay.com/itm/My-Dad-Had-That-Car-by-Tad-Burness-Hardback-Book-New-/201924483475?epid=235054134&hash=item2f03a31993:g:~KMAAOSwurZZGYoH
p10
aVhttp://www.ebay.com/itm/MUDHONEY-FUDGE-SHIRT-sub-pop-nirvana-tad-hole-babes-in-toyland-/201791019366?var=&hash=item2efbae9966:m:m5_ygdr4-vqb4PSAI9LSXgw
p11
aVhttp://www.ebay.com/itm/Good-Calibans-Hour-Williams-Tad-Book-/382023859642?epid=87682432&hash=item58f2657dba:g:BHwAAOxySoJTSOxp
p12
aVhttp://www.ebay.com/itm/Benro-Advenrure-8X-Carbon-Fibre-Tripod-With-Balhead-TAD28CB2-/322255484308?epid=1856674149&hash=item4b07ec7594:g:2pIAAOSwxg5X0Wz4
p13
aVhttp://www.ebay.com/itm/MELT-BANANA-T-SHIRT-Boredoms-Deerhoof-Big-Black-Scratch-Acid-Tad-Melvins-Shellac-/291904826049?var=&hash=item43f6e22ac1:m:meWihCVNsB0X5yvGtEhzqxw
p14
aVhttp://www.ebay.com/itm/SOUNDGARDEN-PATCH-Screaming-Life-Embroidered-Iron-On-Badge-Green-River-Tad-NEW-/222256051806?hash=item33bf7e365e:g:ylMAAOSwv0tVXKYk
p15
aVhttp://www.ebay.com/itm/LAND-ROVER-DISCOVERY-2-4-0-V8-98-04-SET-OF-4-FRONT-REAR-WHEEL-BEARINGS-HUBS-/271595988370?hash=item3f3c61e592:g:Ep8AAOxyHBBSOGiH
p16
aVhttp://www.ebay.com/itm/SUB-POP-RECORDS-LOGO-SHIRT-nirvana-mudhoney-tad-soundgarden-vinyl-cd-/192060848116?var=&hash=item2cb7b7f7f4:m:mxll-aXLFI8Sfm-49iDATXA
p17
aVhttp://www.ebay.com/itm/Land-Rover-Discovery-2-TD5-V8-Front-Wheel-Bearing-Hub-ABS-Sensor-1998-2004-/112470445210?hash=item1a2fc2cc9a:g:B1MAAOxyMd1SHfhg
p18
aVhttp://www.ebay.com/itm/Land-Rover-Discovery-2-TD5-V8-Front-Wheel-Bearing-Hub-ABS-Sensor-1998-2004-/112470445210?hash=item1a2fc2cc9a:g:B1MAAOxyMd1SHfhg
p19
aVhttp://www.ebay.com/itm/Tad-Salt-Lick-LOSER-EDITION-COLOURED-VINYL-LP-/282381889681?epid=1891954693&hash=item41bf45b091:g:lD4AAOSw~AVYuXZX
p20
aVhttp://www.ebay.com/itm/Barnyard-Friends-by-Tad-Carpenter-Board-book-2015-/252458617690?epid=212914030&hash=item3ac7b4cb5a:g:LVEAAOSwARZXiMVH
p21
aVhttp://www.ebay.com/itm/BRAND-NEW-Animal-Crossing-Amiibo-Card-Series-5-Welcome-Amiibo-UPDATED-STOCK-/322330149437?var=&hash=item4b0c5fc23d:m:mF_CvJipTnKycbtppg9nzjQ
p22
aVhttp://www.ebay.com/itm/Benro-TAD18AIB1-Adventure-Series-1-4-Section-Aluminium-Tripod-Ball-Head-Kit-/121955015737?epid=1265882426&hash=item1c6515dc39:g:xmwAAOSwhDdXDmj6
p23
aVhttp://www.ebay.com/itm/Benro-TAD27A-Adventure-Aluminum-Tripod-/322252716621?epid=1187199794&hash=item4b07c23a4d:g:sjwAAOSwknJXzYxf
p24
aVhttp://www.ebay.com/itm/Tad-8-Way-Santa-LOSER-EDITION-COLOURED-VINYL-LP-/282381867244?epid=1591917932&hash=item41bf4558ec:g:RdQAAOSwB-1YuXAz
p25
aVhttp://www.ebay.com/itm/Tad-the-Explorer-DVD-/291558357683?epid=1533340152&hash=item43e23b7ab3:g:Y-cAAOSwrklVU2am
p26
aVhttp://www.ebay.com/itm/Tadpole-bead-Running-rig-stop-Tapered-multi-bead-HLS-Terminal-tackle-TAD-/261970854448?var=&hash=item3cfeae0230:m:meZlFYfKBO-ELVUgDJtfk9w
p27
aVhttp://www.ebay.com/itm/When-I-Grow-Up-by-Tad-Carpenter-9781454912286-Board-book-2015-/232139512652?epid=214626031&hash=item360c97db4c:g:uEYAAOSwImRYJD-g
p28
aVhttp://www.ebay.com/itm/Hypnosis-A-Comprehensive-Guide-by-Tad-James-Hardback-1999-/201526355316?epid=86602938&hash=item2eebe82574:g:UD0AAOSw4A5YydJe
p29
aVhttp://www.ebay.com/itm/Leisure-Aquadisc-2-Monobloc-Kitchen-Tap-Chrome-TAD2CM-/311887064093?epid=1905115282&hash=item489deaec1d:g:pb4AAOSwBt5ZMWDM
p30
aVhttp://www.ebay.com/itm/Duck-and-Goose-1-2-3-by-Tad-Hills-Paperback-2010-/252273364385?epid=92362156&hash=item3abcaa0da1:g:e3EAAOSw3mpXJSxf
p31
aVhttp://www.ebay.com/itm/Benro-TAD28AHD2-Adventure-Series-2-4-Section-Aluminium-Tripod-3-Way-Head-Kit-/121955015659?epid=1465804405&hash=item1c6515dbeb:g:8JAAAOSwUUdXDmjy
p32
aVhttp://www.ebay.com/itm/Drop-It-Rocket-by-Tad-Hills-9780385372541-Paperback-2014-/252819797115?epid=209719118&hash=item3add3bf47b:g:xngAAOSwsW9YzW6r
p33
aVhttp://www.ebay.com/itm/Phil-Taylor-Power-Bolt-Brass-Steel-Tip-Darts-by-Target-Knurled-Ringed-/131110699719?var=&epid=1843736907&hash=item1e86ce82c7:m:m6ubRJ8a0rbNxPKSrUs7ugw
p34
aVhttp://www.ebay.com/itm/Phil-Taylor-Power-Bolt-Brass-Steel-Tip-Darts-by-Target-Knurled-Ringed-/131110699719?var=&epid=1843736907&hash=item1e86ce82c7:m:m6ubRJ8a0rbNxPKSrUs7ugw
p35
aVhttp://www.ebay.com/itm/MB-Shadowrise-Shadowmarch-Quartet-Book-3-Tad-Williams-/352013520619?epid=89715605&hash=item51f5a40eeb:g:u5YAAOSwSlBY1TSB
p36
aVhttp://www.ebay.com/itm/Leisure-Rangemaster-TAD4-Aquanomic-Aquadisc-4-Kitchen-Taps-inc-Stabiliser-/263087090312?hash=item3d41366a88:g:XGAAAOSwaeRZGIRv
p37
aVhttp://www.ebay.com/itm/Stephen-Bunting-90-Tungsten-Steel-Tip-Darts-by-Target-12g-17g-21g-or-23g-/121635222949?var=&epid=1042122386&hash=item1c520635a5:m:mUFnF40hq6dJ5-T-Vrfwxvg
p38
aVhttp://www.ebay.com/itm/TA-Single-Speed-Chainring-Bolts-5-Bolts-/361468168061?hash=item54292e877d:g:2BgAAOSwa-dWlxcd
p39
aVhttp://www.ebay.com/itm/Storm-Memory-Sorrow-and-Thorn-Book-Four-Memory-Sorrow-Thorn-Tad-William-/131743246435?epid=87356028&hash=item1eac826863:g:IXgAAOSwu1VW2ZZy
p40
aVhttp://www.ebay.com/itm/LAND-ROVER-DISCOVERY-2-TD5-V8-REAR-WHEEL-BEARING-HUB-ABS-SENSOR-TAY100050-R-NEW-/332022512890?hash=item4d4e157cfa:g:-1gAAOxyLchRvv9W
p41
a.