(lp0
Vhttp://www.ebay.com/itm/Sadist-Hyaena-NEW-CD-/351557355782?hash=item51da738906:g:ZyUAAOSw5ZBWKKYS
p1
aVhttp://www.ebay.com/itm/MTG-Card-x-4-Qarsi-Sadist-Dragons-of-Tarkir-1st-Class-Postage-/321899252194?hash=item4af2b0c9e2:g:yWkAAOSw14xWJ3-V
p2
aVhttp://www.ebay.com/itm/MTG-M15-Choose-your-Black-Rare-card-includes-foils-M-NM-Free-1st-Class-Post-/201333682403?var=&hash=item2ee06c30e3:m:mjwmxRf7FPOWFcEpq1Ct9Yg
p3
aVhttp://www.ebay.com/itm/Sadist-Cinema-A-Serbian-Film-Volume-1-Paperback-New-Gift-UK-SELLER-New-/262233341950?epid=1143090492&hash=item3d0e533ffe:g:DrQAAOSwL7VWkhKd
p4
aVhttp://www.ebay.com/itm/Sadist-Ring-Sensation-Play-Fetish-Bondage-Fantasy-Adult-Fun-/302371278811?hash=item4666bb8fdb:g:P04AAOSw241YW~Gz
p5
aVhttp://www.ebay.com/itm/Darkest-Hour-Hidden-Hands-of-a-Sadist-Nation-CD-/301805521845?epid=1505538447&hash=item464502cbb5:g:TcgAAOSwpdpVb3p3
p6
aVhttp://www.ebay.com/itm/Darkest-Hour-Hidden-Hands-of-a-Sadist-Nation-CD-/301738338689?epid=4010217&hash=item464101a981:g:yVsAAOSwBLlVejCu
p7
aVhttp://www.ebay.com/itm/Diary-of-a-Sadist-CD-2005-/381277657334?epid=48431643&hash=item58c5eb58f6:g:S8EAAOSwZd1VaSHQ
p8
aVhttp://www.ebay.com/itm/Bible-John-Search-for-a-Sadist-Stoddart-Charles-Hardback-Book-The-Cheap-Fast-/301929616585?epid=91553503&hash=item464c6854c9:g:B3cAAOSwFe5XxbZo
p9
aVhttp://www.ebay.com/itm/MTG-MAGIC-2015-CORE-SET-M15-Cruel-Sadist-/251802965493?hash=item3aa0a055f5:g:-QAAAOSw241YlDnP
p10
a.