(lp1
Vhttp://www.ebay.com/itm/5-Piece-Canister-Set-Bread-Bin-Sugar-Coffee-Tea-Biscuits-Tin-By-Home-Discount-/201360265064?var=&epid=1163605247&hash=item2ee201cf68:m:mSf6TnPXJLq5PJ1Fmh59fsw
p2
aVhttp://www.ebay.com/itm/Swan-Retro-Set-of-3-Canisters-Tea-Coffee-Sugar-Grey-SWKA1020GRN-/182613701940?epid=1789532321&hash=item2a849ff534:g:J6EAAOSw1BlZOpUu
p3
aVhttp://www.ebay.com/itm/Certified-Organic-Coconut-Blossom-Palm-Sugar-/221684484155?var=&epid=1966843829&hash=item339d6cc83b:m:mMFPYT2uHKPuYE_tbdHL2Iw
p4
aVhttp://www.ebay.com/itm/Total-Sweet-Total-Sweet-1kg-Xylitol-Sugar-Free-/271899001880?epid=1408159487&hash=item3f4e718418:g:M-sAAOSwKrhVefbG
p5
aVhttp://www.ebay.com/itm/Vintage-Style-Sunny-Days-Set-of-3-tins-Tea-Coffee-and-Sugar-Caddies-/251959819999?hash=item3aa9f9bedf:g:uIgAAOSwNSxVVLfN
p6
aVhttp://www.ebay.com/itm/700ml-Cream-Enamel-Bee-Happy-Tea-Coffee-Sugar-Canisters-Storage-Jars-Containers-/401307780807?epid=761261321&hash=item5d6fcec6c7:g:GSsAAOSwc-tY725Y
p7
aVhttp://www.ebay.com/itm/Tate-Lyle-Dark-Soft-Brown-Sugar-10kg-Bulk-Pack-Catering-/272154289136?epid=1164267618&hash=item3f5da8e3f0:g:4jwAAOSwoBtW12sF
p8
aVhttp://www.ebay.com/itm/Ceramic-Tea-Coffee-Sugar-Canister-Set-of-3-Container-Home-Kitchen-Storage-Cream-/132248931688?epid=1376421391&hash=item1ecaa68d68:g:APoAAOSwPK1ZWoM9
p9
aVhttp://www.ebay.com/itm/SET-3-CREAM-CERAMIC-TEA-COFFEE-SUGAR-CANISTERS-STORAGE-CADDIES-JARS-LEONARDO-/152218821173?epid=1376421391&hash=item2370f2e235:g:GfQAAOSwZVlXv2vr
p10
aVhttp://www.ebay.com/itm/3-x-Premier-SKETCH-STORAGE-TINS-Tea-Coffee-Sugar-Canisters-CREAM-Barrel-/351692191416?epid=1437727154&hash=item51e27cf6b8:g:pIoAAOSwgApW-~a5
p11
aVhttp://www.ebay.com/itm/Kitchen-Canisters-Coffee-Tea-Sugar-Biscuits-Cream-Round-with-Lid-Storage-Jars-/122583116072?var=&hash=item1c8a85e928:m:m6F6kfbTWYIFaDMWAD9LtXw
p12
aVhttp://www.ebay.com/itm/Cream-Ceramic-Tea-Coffee-Sugar-Canister-kitchen-storage-set-/172748317482?epid=1376421391&hash=item28389a232a:g:pxoAAOSw1BlZUC1~
p13
aVhttp://www.ebay.com/itm/Monin-Sugar-Cane-1ltr-/141950121304?epid=1864731413&hash=item210ce2f558:g:owUAAOSwAPVZGHp~
p14
aVhttp://www.ebay.com/itm/Typhoon-Tea-Coffee-Sugar-Bread-Bin-In-Pastel-Blue-With-Bamboo-Lid-Bread-Crock-/201958408055?var=&hash=item2f05a8bf77:m:mfVsWK8XnFPz0jT1O3I88og
p15
aVhttp://www.ebay.com/itm/5-Piece-Canister-Set-Lime-Bread-Bin-Sugar-Coffee-Tea-Biscuits-By-Home-Discount-/201925948293?hash=item2f03b97385:g:jEkAAOSwPh5ZIsvX
p16
aVhttp://www.ebay.com/itm/SET-OF-3-TEA-COFFEE-SUGAR-CANISTERS-KITCHEN-STORAGE-POTS-/262943976596?var=&epid=1828941082&hash=item3d38aeac94:m:m95mv-KmOBqf9-FrHkPdvhg
p17
aVhttp://www.ebay.com/itm/Chantico-Cinnamon-Organic-Pure-Agave-Sweetener-335g-Sugar-and-Honey-Alternative-/320982708438?epid=900910669&hash=item4abc0f70d6:g:6HUAAOxy015SJeW~
p18
aVhttp://www.ebay.com/itm/Black-Ceramic-Text-Jars-Tea-Coffee-Sugar-Canisters-/263090810783?var=&epid=1612664496&hash=item3d416f2f9f:m:mvYUbL8kHJeLvQwKYJ1dAJQ
p19
aVhttp://www.ebay.com/itm/BLACK-LIBERTY-TEA-COFFEE-SUGAR-SET-CANISTERS-STAINLESS-STEEL-LIDS-MATT-ENAMEL-/260427238552?epid=1312669958&hash=item3ca2ac4c98:g:2JsAAOSwo4pYjSpb
p20
aVhttp://www.ebay.com/itm/500g-ORGANICALLY-PRODUCED-COCONUT-PALM-BLOSSOM-SUGAR-/282565065801?hash=item41ca30bc49:g:Pm4AAOSw8w1X8~qV
p21
aVhttp://www.ebay.com/itm/Cardew-Alice-in-Wonderland-Covered-Sugar-/201927043382?epid=1112023073&hash=item2f03ca2936:g:BsEAAOSwZKBZHFen
p22
aVhttp://www.ebay.com/itm/Tate-Lyle-Granulated-Sugar-10kg-Bulk-Pack-Catering-/272289889498?hash=item3f65bdfcda:g:wIQAAOSwFNZWya~h
p23
aVhttp://www.ebay.com/itm/5-Piece-Canister-Set-Lime-Bread-Bin-Sugar-Coffee-Tea-Biscuits-By-Home-Discount-/201925948293?hash=item2f03b97385:g:jEkAAOSwPh5ZIsvX
p24
aVhttp://www.ebay.com/itm/Suma-Light-Muscovado-Sugar-3-kg-/142298942768?epid=0&hash=item2121ad8d30:g:ikgAAOSw~AVYuHCb
p25
aVhttp://www.ebay.com/itm/Milk-Thistle-Raw-Honey-400g-1-25kg-Sweet-Natural-Detox-from-non-sugar-fed-bees-/322417844082?var=&hash=item4b1199df72:m:m3MHiFJD26EAWzWXQDkoKgQ
p26
aVhttp://www.ebay.com/itm/Set-of-3-Vintage-Shabby-Chic-Tea-Coffee-Sugar-Kitchen-Storage-Jars-Pot-Container-/162467372705?var=&hash=item25d3cf5ea1:m:mJDZM5B_1CL9c80NpXYpE5g
p27
aVhttp://www.ebay.com/itm/Set-of-3-Kitchen-Food-Tea-Coffee-Sugar-Pasta-Rice-Storage-Glass-Jars-Containers-/142112274949?epid=1305513395&hash=item21168d3a05:g:M3cAAOSwi0RX0oyM
p28
aVhttp://www.ebay.com/itm/Set-of-3-New-Tea-Coffee-Sugar-Kitchen-Storage-Canisters-Jars-Pots-Containers-Set-/311167170899?var=&epid=1650699987&hash=item4873023953:m:mVxMY5pUF_b0iEDG7ovdjjw
p29
aVhttp://www.ebay.com/itm/100-pure-yemeni-sidr-honey-Raw-organic-No-Sugar-High-Quality-250g-Grade-A-/112202572493?hash=item1a1fcb62cd:g:vM0AAOSw44BYJ3qc
p30
aVhttp://www.ebay.com/itm/Organic-Coconut-Palm-Sugar-Certified-Organic-/262175303541?var=&hash=item3d0adda775:m:mrwjjUWVbLGlphXzjr23F3A
p31
aVhttp://www.ebay.com/itm/5-Piece-Storage-Set-Bread-Bin-Sugar-Coffee-Tea-Biscuits-Tin-New-By-Home-Discount-/201360265585?var=&epid=1363842150&hash=item2ee201d171:m:mlbHN5jueC38nHW1IvTBTiA
p32
aVhttp://www.ebay.com/itm/Tate-Lyle-Granulated-Sugar-1kg-Pack-Case-of-15-Catering-/272289889535?hash=item3f65bdfcff:g:QLUAAOSwPc9Wya-u
p33
aVhttp://www.ebay.com/itm/Suma-Organic-Raw-Cane-Sugar-3-kg-/111616846084?epid=1131026205&hash=item19fce1e904:g:550AAOSwQiRUrCS0
p34
aVhttp://www.ebay.com/itm/PREMIER-HOUSEWARES-CHAI-TEA-COFFEE-AND-SUGAR-CANISTERS-STORAGE-TIN-CONTAINER-NEW-/142389793591?epid=1738954284&hash=item212717d337:g:KKYAAOSwurZZIW98
p35
aVhttp://www.ebay.com/itm/OFFICIAL-PEANUTS-SNOOPY-SET-OF-THREE-IM-AWAKE-TEA-COFFEE-SUGAR-CANISTERS-TINS-/361882468909?hash=item5441e0422d:g:8r4AAOSwjVVVuinQ
p36
aVhttp://www.ebay.com/itm/MYPROTEIN-Sugar-Free-Syrup-400ml-maple-blueberry-chocolate-vanilla-my-protein-/252457292749?var=&hash=item3ac7a093cd:m:mZFaf356NirVS7Zb9ksNvlA
p37
aVhttp://www.ebay.com/itm/Premier-Housewares-Tea-Coffee-Sugar-Canisters-Storage-Jar-Set-of-3-Lime-Green-/172112064108?epid=1625218933&hash=item2812adae6c:g:UU0AAOSwll1WzJJ-
p38
aVhttp://www.ebay.com/itm/LIBERTY-SET-OF-3-TEA-COFFEE-SUGAR-CANISTERS-KITCHEN-STORAGE-POTS-MATT-ENAMEL-/281178350268?var=&epid=1008163408&hash=item41778922bc:m:mB438HEoC8vVa8aj0EpN66Q
p39
aVhttp://www.ebay.com/itm/5-Piece-Storage-Set-Kitchen-Bread-Bin-Sugar-Coffee-Tea-Biscuits-By-Home-Discount-/201462545974?var=&epid=1442346976&hash=item2ee81a7e36:m:mlbHN5jueC38nHW1IvTBTiA
p40
aVhttp://www.ebay.com/itm/TATE-LYLE-LIGHT-AT-HEART-WHITE-SUGAR-STEVIA-BLEND-500G-/321767783261?hash=item4aeadabb5d:g:S4wAAOSwBahVZzmL
p41
aVhttp://www.ebay.com/itm/White-Ceramic-Georgia-Kichenware-Tea-Coffee-Sugar-Storage-Jars-Egg-Cups-Pots-New-/361894247255?var=&hash=item544293fb57:m:mU6_ZxbHUKE753SfVOpDYjw
p42
aVhttp://www.ebay.com/itm/5-Pc-Canister-Tea-Coffee-Sugar-Salt-And-Pepper-Enamel-Jars-Set-Various-Colours-/331591699265?var=&hash=item4d3467cb41:m:maYUzmtawb1GghZd-X6iSug
p43
aVhttp://www.ebay.com/itm/COCONUT-PALM-SUGAR-THE-AUTHENTIC-FLAVOUR-OF-ASIA-350g-FREE-INT-POSTAGE-/262194527620?hash=item3d0c02fd84:g:FUsAAOSwMVdYEZz6
p44
aVhttp://www.ebay.com/itm/PYREX-CLASSIC-GLASS-DRY-FLOUR-SUGAR-MEASURE-MEASURING-JUG-500ML-/141548914448?epid=1406181408&hash=item20f4f90710:g:D7AAAOSw~y9ZIupQ
p45
aVhttp://www.ebay.com/itm/FMM-Cutter-Rose-Petal-Set-of-5-Cake-Cutting-Tool-Flower-Sugar-Craft-Cake-Fondant-/121887368916?epid=1839687705&hash=item1c610da6d4:g:md0AAOSwX~dWtfPz
p46
aVhttp://www.ebay.com/itm/Addis-Set-of-3-Copper-Tea-Coffee-Sugar-Canisters-Jar-With-Window-Stainless-Steel-/222530186337?epid=928570463&hash=item33cfd52c61:g:~rMAAOSwuMZZLrdd
p47
aVhttp://www.ebay.com/itm/CANISTER-SET-5-Piece-Black-Sugar-Tea-Coffee-Biscuits-Bread-Kitchen-Storage-Set-/252450264748?hash=item3ac73556ac:g:Nv8AAOSwXetZVhmP
p48
aVhttp://www.ebay.com/itm/Set-of-3-Stainless-Steel-Glass-Tea-Coffee-Sugar-Canister-Caddy-Set-Cream-Red-/191803625972?var=&epid=1204310598&hash=item2ca86311f4:m:mENP-cpgVW3Hnjsg6_ewclw
p49
aVhttp://www.ebay.com/itm/Premier-Housewares-Liberty-Tea-Coffee-and-Sugar-Canisters-Pistachio-Set-of-3-/112310044732?epid=1740780368&hash=item1a2633483c:g:xtQAAOSw4A5Yqwsc
p50
aVhttp://www.ebay.com/itm/3-x-Stainless-Steel-New-Tea-Coffee-Sugar-Kitchen-Storage-Canisters-Jars-Pots-Set-/311656617931?epid=1079773258&hash=item48902e97cb:g:fy4AAOSwhOVXf4F6
p51
aVhttp://www.ebay.com/itm/5-Piece-Storage-Set-Purple-Bread-Bin-Sugar-Coffee-Tea-Biscuits-By-Home-Discount-/221786485543?epid=1363842150&hash=item33a3813327:g:nHcAAOSw1BlZVj-X
p52
aVhttp://www.ebay.com/itm/Sabichi-Tea-Coffee-Sugar-Jar-Canister-Set-Red-Glass-/311901566259?epid=846125342&hash=item489ec83533:g:c0cAAOSwcgNZD1QP
p53
aVhttp://www.ebay.com/itm/Wrendale-Tea-Coffee-Sugar-Canisters-Suitable-Perfect-Food-Kitchen-Storage-New-/252835165830?epid=1477542943&hash=item3ade267686:g:or0AAOSwzgBY24ir
p54
aVhttp://www.ebay.com/itm/Organic-Coconut-Palm-Sugar-1kg-Low-GI-Sweetener-Rich-In-Potassium-/112063985750?hash=item1a1788b856:g:6vYAAOSwj2dXkJlK
p55
aVhttp://www.ebay.com/itm/Set-of-3-Stainless-Steel-Storage-Canisters-Tea-Coffee-and-Sugar-Storage-Jars-BN-/251961424854?epid=1027696405&hash=item3aaa123bd6:g:mCsAAOSwrklVVmrF
p56
aVhttp://www.ebay.com/itm/TATE-LYLE-LIGHT-AT-HEART-BROWN-SUGAR-STEVIA-BLEND-3-x-500G-/222135140699?hash=item33b849415b:g:R30AAOSwstxVZzlw
p57
aVhttp://www.ebay.com/itm/Premier-Housewares-Liberty-Tea-Coffee-And-Sugar-Canisters-White-Set-Of-3-/301999833942?epid=815210017&hash=item465097c356:g:l7QAAOSwwo1Xc8b8
p58
aVhttp://www.ebay.com/itm/CONTEMPORARY-BAMBOO-LID-CERAMIC-TEA-COFFEE-SUGAR-STORAGE-JARS-SET-OF-3-CANISTERS-/262947095664?epid=887602060&hash=item3d38de4470:g:SYQAAOSwjqVZGY0g
p59
aVhttp://www.ebay.com/itm/PINEAPPLE-JARS-SET-OF-3-TEA-SUGAR-COFFEE-BISCUIT-COLOUR-ROMANY-ORNAMENTS-STORAGE-/122251422621?var=&hash=item1c76c0ab9d:m:mQzy2auMACQZv8xbvbo8XCg
p60
aVhttp://www.ebay.com/itm/Floral-Pink-Shabby-Chic-Vintage-Style-Tea-Coffee-Sugar-Canisters-/112188963524?hash=item1a1efbbac4:g:YBgAAOSwRMtZZM6~
p61
aVhttp://www.ebay.com/itm/3Pc-Mirror-Finish-Stainless-Steel-Glass-Front-Tea-Coffee-Sugar-Jar-Canisters-Set-/232240235381?epid=1937597575&hash=item361298c375:g:lIcAAOSwB-1Yoz5Z
p62
aVhttp://www.ebay.com/itm/Dolomite-Black-Hex-Tea-Coffee-Sugar-Canister-Bamboo-Lid-Kitchen-Food-Storage-Jar-/401306772337?var=&epid=759177631&hash=item5d6fbf6371:m:mqfQg7Z3KZmAtGu8bOiqRHA
p63
aVhttp://www.ebay.com/itm/Typhoon-Coated-Steel-Sugar-Canister-Cream-with-Bamboo-Lid-Kitchen-Storage-Tin-/401285094178?epid=520352099&hash=item5d6e749b22:g:u4cAAOSw~y9ZAccR
p64
aVhttp://www.ebay.com/itm/STORAGE-SET-5-Piece-Purple-Sugar-Tea-Coffee-Biscuits-Bread-Kitchen-Canister-Set-/252450382131?epid=1442346976&hash=item3ac7372133:g:gkAAAOSw6YtZVh31
p65
aVhttp://www.ebay.com/itm/Morphy-Richards-Set-of-3-Accents-Titanium-Tea-Coffee-Sugar-Storage-Canisters-Tin-/272740844793?hash=item3f809f04f9:g:27AAAOSwXYtYtUGI
p66
aVhttp://www.ebay.com/itm/Set-Of-3-Kitchen-Tea-Coffee-Sugar-Canisters-Stainless-Steel-Storage-Pots-Jars-/321914321764?var=&hash=item4af396bb64:m:mGdjgBnZtHW3_rppvJGFdNg
p67
aVhttp://www.ebay.com/itm/Set-of-4-Flour-Sugar-Baking-Powder-Kitchen-Storage-Tins-Vintage-Retro-Containers-/401257868186?hash=item5d6cd52b9a:g:WGoAAOSw2xRYdlij
p68
aVhttp://www.ebay.com/itm/Emma-Bridgewater-Black-Toast-Marmalade-Tea-Coffee-Sugar-Storage-Canisters-Set-/401239778840?epid=1637537716&hash=item5d6bc12618:g:TPsAAOSwPcVV1HjS
p69
aVhttp://www.ebay.com/itm/Tea-Coffee-Sugar-Storage-Jars-Canisters-Set-Of-3-Colour-Enamel-On-Steel-Glass-/131393783533?var=&hash=item1e97ae06ed:m:msvfd3CusWE6Z7JiUNsN_0Q
p70
aVhttp://www.ebay.com/itm/Total-Sweet-Total-Sweet-1kg-Xylitol-sugar-free-/121588635542?hash=item1c4f3f5796:g:CcQAAOSw1ZBUx9JD
p71
aVhttp://www.ebay.com/itm/TATE-LYLE-LIGHT-AT-HEART-WHITE-SUGAR-STEVIA-BLEND-3-x-500G-/322061781760?hash=item4afc60cb00:g:rnIAAOSwl8NVZzmD
p72
aVhttp://www.ebay.com/itm/Organic-Shop-Body-Scrub-Natural-Brazilian-Coffee-and-Sugar-250ml-/252794821365?epid=1864802503&hash=item3adbbedaf5:g:CXQAAOSwhQhY447w
p73
aVhttp://www.ebay.com/itm/Tate-Lyle-Demerara-Sugar-3kg-Bulk-Pack-Catering-/272154289524?epid=1528589501&hash=item3f5da8e574:g:8PUAAOSwZ8ZW12sH
p74
aVhttp://www.ebay.com/itm/Leonardo-Countryside-Cockerel-Tin-Tea-Coffee-Sugar-Canister-Set-BRAND-NEW-BOXED-/152436801928?epid=1504311124&hash=item237df10188:g:rAoAAOSwax5YouXP
p75
aVhttp://www.ebay.com/itm/Prestige-Enamel-Tea-Coffee-Sugar-Storage-Canister-Set-Blue-Stripe-Container-Tin-/172547785291?epid=1548021995&hash=item282ca6424b:g:izcAAOSw3v5YsDz2
p76
aVhttp://www.ebay.com/itm/Organic-Coconut-Palm-Sugar-500-grms-Soil-Association-Certified-/332281049868?hash=item4d5d7e730c:g:WcgAAOSwdpxUW~le
p77
aVhttp://www.ebay.com/itm/Tea-Coffee-Sugar-Kitchen-Storage-Canister-Jars-Pots-Containers-Set-Air-Tight-Lid-/221788214005?var=&hash=item33a39b92f5:m:mWnFzcnq__T1Oqhntye6NDQ
p78
aVhttp://www.ebay.com/itm/Metal-Tea-Coffee-Sugar-Kitchen-Storage-Canisters-Set-Caddies-Jars-Containers-/401243407566?var=&hash=item5d6bf884ce:m:mEhOURWt6dlM70gWoRxjlBw
p79
aVhttp://www.ebay.com/itm/Culpitt-100pk-MINI-FLOWERS-Pink-Edible-Cupcake-Sugar-Pipings-Decorations-Toppers-/401141163310?hash=item5d65e0652e:g:DOYAAOSw6WdXiQsX
p80
aVhttp://www.ebay.com/itm/Vintage-Retro-Cream-Tea-Coffee-Sugar-Kitchen-Storage-Canisters-Jars-Pots-tin-Set-/282320260360?hash=item41bb994d08:g:iQ4AAOxyZwpSXWzr
p81
aVhttp://www.ebay.com/itm/SET-OF-3-CERAMIC-HEART-TEA-COFFEE-SUGAR-JARS-KITCHEN-STORAGE-CANISTERS-NEW-/252700778519?var=&hash=item3ad623e017:m:mxEhPDtsv0AGNsYyxRC7gbQ
p82
aVhttp://www.ebay.com/itm/Kitchen-Canisters-Coffee-Tea-Sugar-Biscuits-Grey-Round-with-Lid-Storage-Jars-/122583133488?var=&hash=item1c8a862d30:m:m68sX-wtLSIGoXPUNBFY5hw
p83
aVhttp://www.ebay.com/itm/VINTAGE-English-Bone-China-Milk-Jug-Sugar-Bowl-Mint-Green-GLADE-GREEN-/142444762990?hash=item212a5e976e:g:2ocAAOSwYS9ZZ957
p84
aVhttp://www.ebay.com/itm/DMD-BEE-HAPPY-Cream-TEA-COFFEE-SUGAR-Storage-TINS-SET-Kitchen-Canisters-/352055009449?epid=873795668&hash=item51f81d20a9:g:nIwAAOSwblZZFYGC
p85
aVhttp://www.ebay.com/itm/Set-Of-3-Square-Glass-Storage-Jars-Kitchen-Tea-Coffee-Sugar-Sweets-Containers-/351966739601?var=&hash=item51f2da3c91:m:mQPCLfahTWLD5l_4Ya_cS7w
p86
aVhttp://www.ebay.com/itm/SET-OF-3-VINTAGE-RETRO-CANISTER-SET-SUGAR-TEA-COFFEE-STORAGE-JARS-LIDDED-KITCHEN-/132099487421?var=&hash=item1ec1be36bd:m:mP-U0Jd14ozblz6BlNQAE-w
p87
aVhttp://www.ebay.com/itm/Set-of-Coffee-Sugar-Canisters-Jars-Kitchen-Storage-Containers-Tea-Caddy-Teabags-/401269838169?hash=item5d6d8bd159:g:APIAAOSwjDZYkwfS
p88
aVhttp://www.ebay.com/itm/Kitchen-Storage-Canisters-Bread-Biscuits-Coffee-Sugar-Tea-Utensils-Grey-Set-of-6-/112469003542?hash=item1a2faccd16:g:ZJAAAOSwiQ9ZW7NR
p89
aVhttp://www.ebay.com/itm/5PC-METAL-BREAD-BIN-AND-CANISTERS-SET-SUGAR-COFFEE-TEA-ENAMEL-EFFECT-PURPLE-/111437261926?epid=1588587657&hash=item19f22dac66:g:cg4AAOSwVFlT7x5T
p90
aVhttp://www.ebay.com/itm/Premier-Housewares-3-Whitby-Square-Storage-Canisters-Jar-Tea-Coffee-Sugar-Green-/172009943467?epid=1937570810&hash=item280c9771ab:g:d44AAOSwys5WVaw3
p91
aVhttp://www.ebay.com/itm/Katie-Alice-COTTAGE-FLOWERS-STORAGE-TINS-SHABBY-CHIC-Tea-Coffee-Sugar-SET-OF-3-/232258522394?epid=1675518592&hash=item3613afcd1a:g:G9AAAOxyuuJR1KjZ
p92
aVhttp://www.ebay.com/itm/Martin-Wiscombe-The-Specialist-Retro-Style-Tea-Coffee-Sugar-Storage-Tin-Canister-/192029103181?epid=1229628264&hash=item2cb5d3944d:g:a0sAAOSwHMJYLJNF
p93
aVhttp://www.ebay.com/itm/Morphy-Richards-Large-Round-Canister-Tea-Coffee-Sugar-Container-Storage-Black-/142330867477?epid=578614895&hash=item212394af15:g:WOAAAOSwzgBY3QYc
p94
aVhttp://www.ebay.com/itm/Morphy-Richards-Chroma-Set-of-3-Tea-Coffee-Sugar-Food-Kitchen-Canisters-Orchid-/132032385737?epid=2100525423&hash=item1ebdbe52c9:g:Q6sAAOSw5cNYTtIm
p95
aVhttp://www.ebay.com/itm/Set-of-4-Flour-Sugar-Baking-Powder-Kitchen-Storage-Tins-Vintage-Retro-Containers-/401257868186?hash=item5d6cd52b9a:g:WGoAAOSw2xRYdlij
p96
aVhttp://www.ebay.com/itm/Tea-Coffee-Sugar-Bread-Jar-Vinyl-Decals-Stickers-Kitchen-Set-of-4-Decals-/172256365479?hash=item281b478ba7:g:hgIAAOSwAKxWVFZF
p97
aVhttp://www.ebay.com/itm/Set-Of-3-Chai-Stainless-Steel-Tins-Tea-Coffee-Sugar-Jars-Storage-Canisters-Lids-/401137933433?epid=1712622908&hash=item5d65af1c79:g:AlkAAOSwzJ5XYmQd
p98
aVhttp://www.ebay.com/itm/Anchor-Hocking-Glass-Square-Stacking-Jar-Container-with-Lid-Coffee-Tea-Sugar-/200970757753?var=&epid=1805734684&hash=item2ecaca6679:m:m31fv6Erf3oSKe4cwhEZ1jg
p99
aVhttp://www.ebay.com/itm/Royal-Worcester-Wrendale-Sugar-Canister-Caddy-Storage-Container-Hedgehog-New-/192116064284?epid=1687444120&hash=item2cbb02801c:g:d0oAAOSw3v5YtZRC
p100
aVhttp://www.ebay.com/itm/Set-Of-3-Bright-Colour-Tea-Coffee-Sugar-Storage-Canisters-Containers-Caddy-Set-/261594572924?var=&epid=1842126749&hash=item3ce840687c:m:mvWP7IUlJzEXmXX1qUgJN6Q
p101
aVhttp://www.ebay.com/itm/Copper-Tea-Coffee-Sugar-Canisters-Storage-Jar-Set-3-/322379056878?hash=item4b0f4a06ee:g:gQMAAOSw-0xYbATQ
p102
aVhttp://www.ebay.com/itm/Premier-Housewares-Purple-Tea-Coffee-Sugar-Storage-Canisters-Jars-Set-of-3-New-/400997329336?epid=1213333889&hash=item5d5d4da9b8:g:KRoAAOSw0HVWC-1B
p103
aVhttp://www.ebay.com/itm/Premier-Housewares-Tea-Coffee-Sugar-Canisters-Storage-Jar-Set-of-3-White-Kitchen-/192081746892?epid=1712655466&hash=item2cb8f6dbcc:g:SSAAAOSwNnRYf549
p104
aVhttp://www.ebay.com/itm/Set-Of-3-Storage-Tea-Coffee-Sugar-Metal-Canisters-Jars-Enamel-Tin-Kitchen-/182330393592?hash=item2a73bd03f8:g:gr8AAOSw8w1X57tj
p105
aVhttp://www.ebay.com/itm/SWAN-SET-OF-3-TEA-COFFEE-SUGAR-CREAM-CANISTERS-JAR-KITCHEN-STORAGE-CONTAINERS-/131901672278?epid=1142240805&hash=item1eb5f3cb56:g:eUcAAOSwIgNXp1YT
p106
aVhttp://www.ebay.com/itm/Russell-Hobbs-3-Piece-Marble-Tea-Coffee-Sugar-Canisters-Storage-Jar-Set-/322183960241?hash=item4b03a916b1:g:zgUAAOSwwo1XfVIi
p107
aVhttp://www.ebay.com/itm/SWAN-SET-OF-3-TEA-COFFEE-SUGAR-BLACK-CANISTERS-JAR-KITCHEN-STORAGE-CONTAINERS-/131896753983?epid=527712921&hash=item1eb5a8bf3f:g:kG4AAOSwA3tXoKOE
p108
aVhttp://www.ebay.com/itm/Set-of-3-Stainless-Steel-Canister-Sugar-Coffee-Tea-Jars-Tins-Lid-Kitchen-Storage-/132059307634?hash=item1ebf591e72:g:IGkAAOSw5cNYc5lV
p109
aVhttp://www.ebay.com/itm/Coffee-Tea-Sugar-Jars-Glass-Airtight-containers-Canisters-Set-Single-Jar-Storage-/311782270700?var=&hash=item4897abe6ec:m:ml8f3TETAu6FQ6jrUBCWl4A
p110
aVhttp://www.ebay.com/itm/Morphy-Richards-Large-Round-Canister-Tea-Coffee-Sugar-Container-Storage-White-/132143060605?epid=556705383&hash=item1ec457167d:g:kfkAAOSwB-1Y3QX5
p111
aVhttp://www.ebay.com/itm/SET-OF-3-TOWER-STAINLESS-STEEL-TEA-COFFEE-SUGAR-CANISTERS-STORAGE-JARS-KITCHEN-/162451690341?epid=1234457491&hash=item25d2e01365:g:mw8AAOSwA29Y3m4L
p112
aVhttp://www.ebay.com/itm/Set-of-County-Kitchen-Cream-Ceramic-Tea-Coffee-and-Sugar-Jars-Pots-STC781001-/262806053029?epid=1556792111&hash=item3d307620a5:g:u4IAAOSw241YhKUC
p113
aVhttp://www.ebay.com/itm/Purple-Enamel-Storage-Canisters-Set-Tea-Coffee-Sugar-Biscuits-Jars-Bread-Bin-New-/132086761039?var=&hash=item1ec0fc064f:m:mA_nYGTMdV_mHeKwiX9r0xQ
p114
aVhttp://www.ebay.com/itm/New-best-quality-Tea-coffee-and-Sugar-Jars-Ceramic-with-bamboo-lid-and-Holder-/122265090012?hash=item1c779137dc:g:xz0AAOSwA3dYTRAZ
p115
aVhttp://www.ebay.com/itm/Tate-Lyle-Brown-Demerara-Sugar-Bulk-Pack-of-1000-Sticks-Catering-/272289889485?epid=1660017031&hash=item3f65bdfccd:g:7oYAAOSw~OVWya-a
p116
aVhttp://www.ebay.com/itm/3pc-Liberty-Tea-Coffee-Sugar-Canisters-Set-Kitchen-Storage-Jars-Pink-Blue-Enamel-/172565467771?var=&epid=604417365&hash=item282db4127b:m:mGygY62THjAF4NyYQuDFv0w
p117
aVhttp://www.ebay.com/itm/5-Piece-Canister-Set-Red-Bread-Bin-Sugar-Coffee-Tea-Biscuits-By-Home-Discount-/221786485150?epid=1763083718&hash=item33a381319e:g:WTAAAOSwIWVY~2do
p118
aVhttp://www.ebay.com/itm/TEA-COFFEE-SUGAR-BREAD-BISCUIT-PASTA-STORAGE-CANISTERS-BLACK-/262943791596?var=&epid=1312669958&hash=item3d38abd9ec:m:mvue1054-2ugrJv9TvYoi0w
p119
aVhttp://www.ebay.com/itm/Morphy-Richards-Accents-Series-Set-of-3-Tea-Coffee-Sugar-Food-Canisters-Pebble-/132032394575?epid=2102844834&hash=item1ebdbe754f:g:hLMAAOSw-0xYTtV1
p120
aVhttp://www.ebay.com/itm/Tate-Lyle-Dark-Soft-Brown-Sugar-3kg-Bulk-Pack-Catering-/272154289741?epid=1864234312&hash=item3f5da8e64d:g:dS8AAOSwWTRW12nY
p121
aVhttp://www.ebay.com/itm/Brabantia-Tea-Coffee-and-Sugar-Canister-Set-Storage-Jars-Canisters-/291756997682?epid=1137264230&hash=item43ee127c32:g:z10AAOSwKfVXLFwt
p122
aVhttp://www.ebay.com/itm/Set-of-Tea-Coffee-Sugar-Retro-Treats-Canisters-Cream-Enamel-Kitchen-Storage-Jars-/401088780172?hash=item5d62c1178c:g:NvUAAOSwmNlZZP72
p123
aVhttp://www.ebay.com/itm/KITCHEN-STAINLES-3PCS-TEA-COFFEE-SUGAR-STORAGE-CANISTERS-POTS-JARS-CONTAINER-SET-/182325071403?var=&hash=item2a736bce2b:m:mK9WXOkNVO0lu1HoJ0oSZRw
p124
aVhttp://www.ebay.com/itm/Orla-Kiely-Handmade-Vintage-Retro-Kitchen-Storage-Sugar-Canister-Jar-Stem-Bowl-/152581785923?hash=item2386954943:g:cpcAAOSwvflZPVRO
p125
aVhttp://www.ebay.com/itm/Vintage-home-cream-enamel-tea-coffee-sugar-jars-canisters-storage-retro-/272551213053?hash=item3f755177fd:g:DSIAAOSwx6pYnEt4
p126
aVhttp://www.ebay.com/itm/Nicola-Spring-Retro-Kitchen-Jars-Canisters-Set-of-3-Tea-Coffee-Sugar-Storage-/152522903266?epid=1589289423&hash=item238312cee2:g:hywAAOSwmCVY~dKs
p127
aVhttp://www.ebay.com/itm/Tate-Lyle-Light-Soft-Brown-Sugar-3kg-Bulk-Pack-Catering-/272154289850?epid=1164268023&hash=item3f5da8e6ba:g:-1YAAOSwh-1W12nZ
p128
aVhttp://www.ebay.com/itm/FOOTED-GLASS-TEA-COFFEE-SUGAR-CANDY-STORAGE-JARS-CANISTERS-DRY-FRUIT-COOKIE-JAR-/222119877385?var=&hash=item33b7605b09:m:mlriu9rILIFz_hB_BnhC1Vw
p129
aVhttp://www.ebay.com/itm/Sabichi-Set-of-3-Aqua-Canisters-Tea-Coffee-Sugar-Kitchen-Food-Containers-180407-/292063775021?epid=1269461452&hash=item44005b892d:g:~pwAAOSwOgdY0kyY
p130
aVhttp://www.ebay.com/itm/3pc-Black-Rectangular-Coffee-Tea-Sugar-Kitchen-Storage-Caddies-Tins-Canister-Set-/332294183826?epid=1379257617&hash=item4d5e46db92:g:pBsAAOSwi8VZXg2H
p131
aVhttp://www.ebay.com/itm/Organic-Coconut-Palm-Sugar-Low-GI-Various-Quantities-/301499728175?var=&hash=item4632c8c12f:m:myJAndltrXVVIYwly37hyjQ
p132
aVhttp://www.ebay.com/itm/New-Star-Wars-Kitchen-Storage-Tin-Set-Of-3-Retro-Planets-Coffee-Sugar-Official-/302219024434?epid=2133017548&hash=item465da85832:g:0zcAAOSw2xRYmwwf
p133
aVhttp://www.ebay.com/itm/Premier-Housewares-Tea-Coffee-Sugar-Canisters-Storage-Jar-Set-of-3-Cream-Kitchen-/191375392306?epid=1008163408&hash=item2c8edcbe32:g:IqsAAOSwsB9WC-2F
p134
aVhttp://www.ebay.com/itm/Morphy-Richards-Chroma-Set-of-3-Tea-Coffee-Sugar-Kitchen-Storage-Canisters-Iris-/132032387027?epid=2100877856&hash=item1ebdbe57d3:g:qqIAAOSwJ7RYTtO3
p135
aVhttp://www.ebay.com/itm/Premier-Housewares-Liberty-Tea-Coffee-and-Sugar-Canisters-Black-Set-of-3-NEW-/371837688503?hash=item569340dab7:g:3OwAAOSwa~BYd5Wo
p136
aVhttp://www.ebay.com/itm/Orla-Kiely-Handmade-Vintage-Retro-Kitchen-Storage-Sugar-Canister-Jar-Bowl-Set-/152522871679?epid=1111337431&hash=item238312537f:g:t9sAAOSwHptY~cjB
p137
aVhttp://www.ebay.com/itm/Tea-Coffee-Sugar-Storage-Canisters-Set-800ml-Glass-Containers-Jars-Rice-Pasta-/141696540834?epid=1639200369&hash=item20fdc5a0a2:g:nnoAAOSwyQtVguSu
p138
aVhttp://www.ebay.com/itm/SET-OF-3-CERAMIC-POLKA-DOT-STORAGE-JARS-WITH-BAMBOO-LID-TEA-COFFEE-SUGAR-JARS-/262633611136?hash=item3d262edf80:g:FDQAAOSwYIxX4GYY
p139
aVhttp://www.ebay.com/itm/CANISTER-SET-5-Piece-Lime-Sugar-Tea-Coffee-Biscuits-Bread-Kitchen-Storage-Set-/252978400926?hash=item3ae6b00e9e:g:6uQAAOSw0j9ZVh1a
p140
aVhttp://www.ebay.com/itm/Tea-Coffee-Sugar-Jars-with-Screw-lids-STAINLESS-STEEL-GLASS-CANISTER-/262943710754?var=&hash=item3d38aa9e22:m:mK9ecP3ENUT4eB1qF6C3nhA
p141
aVhttp://www.ebay.com/itm/1200ml-Glass-Tea-Coffee-Sugar-Storage-Canisters-Set-Containers-Jars-Rice-Pasta-/121681366794?epid=1639200245&hash=item1c54c64f0a:g:rg0AAOSw9N1VguYb
p142
aVhttp://www.ebay.com/itm/Set-of-3-KATIE-ALICE-Cottage-Flower-SHABBY-CHIC-Storage-Tins-TEA-Coffee-SUGAR-/291090693161?epid=1604308124&hash=item43c65b7c29:g:fSUAAOSwrklVeXJp
p143
aVhttp://www.ebay.com/itm/Metallic-Tea-Coffee-Sugar-Storage-Canister-Tin-Jar-Pot-Container-Bread-Bin-Set-/271785644424?var=&hash=item3f47afd188:m:mLpF_s_S1N4dBA7J8LkXoqA
p144
aVhttp://www.ebay.com/itm/Set-of-3-KATIE-ALICE-Cottage-Flower-SHABBY-CHIC-Storage-Tins-TEA-Coffee-SUGAR-/291090693161?epid=1604308124&hash=item43c65b7c29:g:fSUAAOSwrklVeXJp
p145
aVhttp://www.ebay.com/itm/White-Enamel-Storage-Canisters-Set-Tea-Coffee-Sugar-Biscuits-Jars-Bread-Bin-New-/142366249455?var=&hash=item2125b091ef:m:m9-3lU039JaFnefVRaGFGEw
p146
aVhttp://www.ebay.com/itm/Cream-Dolomite-Storage-Jars-Bread-Bin-Crock-Kitchen-Tea-Coffee-Sugar-Containers-/401279827838?var=&hash=item5d6e243f7e:m:m3H5Kvwztv0QcVzK_hDdNIg
p147
aVhttp://www.ebay.com/itm/Shabby-Chic-3-Piece-Cream-Heart-Kitchen-Tea-Coffee-Sugar-Storage-Canisters-Set-/142259148932?hash=item211f4e5884:g:n8AAAOSw4DJYgexq
p148
aVhttp://www.ebay.com/itm/Morphy-Richards-Chroma-Set-of-3-Tea-Coffee-Sugar-Food-Kitchen-Canisters-Poppy-/401241733158?epid=2100757692&hash=item5d6bdef826:g:sIgAAOSwnHZYTtFL
p149
aVhttp://www.ebay.com/itm/Morphy-Richards-Large-Round-Canister-Tea-Coffee-Sugar-Storage-Container-Titanium-/132143060644?epid=556701185&hash=item1ec45716a4:g:Me4AAOSwuLZY3QYD
p150
aVhttp://www.ebay.com/itm/RETRO-VINTAGE-KITCHEN-Jar-Storage-Canister-Tea-Coffee-Sugar-3-Canisters-Jars-Set-/332127001120?epid=1604308124&hash=item4d544fda20:g:IP8AAOSwax5Yo6df
p151
aVhttp://www.ebay.com/itm/SET-3-CREAM-TEA-COFFEE-SUGAR-CANISTERS-STORAGE-CADDIES-JARS-ENAMEL-BY-LEONARDO-/381220452593?epid=1559357602&hash=item58c28278f1:g:mOcAAOSw-dBTwGyh
p152
aVhttp://www.ebay.com/itm/4-x-Kilner-Vintage-Glass-Preserve-Jar-1L-Screw-Top-Storage-Jam-Chutney-Sugar-/252532363384?hash=item3acc1a1078:g:jHgAAOSw1DtXIgAl
p153
aVhttp://www.ebay.com/itm/Tala-5-pc-Vintage-Style-Kitchen-Storage-Canisters-Flour-Tins-Tea-Coffee-Sugar-/400900278219?epid=1464547386&hash=item5d5784c7cb:g:Or0AAOSws65TnwHT
p154
aVhttp://www.ebay.com/itm/500g-Natco-Jaggery-Goor-Gur-Indian-Cane-Sugar-Kohlapuri-Unrefined-Panela-brown-/262600032769?epid=1273900542&hash=item3d242e8201:g:EnYAAOSwaB5XnSQR
p155
aVhttp://www.ebay.com/itm/New-Heartlines-Tea-Coffee-Sugar-Canisters-Kitchen-Storage-Ceramic-Jars-Clip-Top-/351755652352?var=&epid=1674361330&hash=item51e6454d00:m:mQFEb2AQz3co5V91qsuuAqQ
p156
aVhttp://www.ebay.com/itm/New-680ml-Ornate-Ribbed-Glass-Tea-Coffee-Sugar-Candy-Bonbon-Biscuit-Storage-Jar-/171895047927?var=&hash=item2805be46f7:m:m993127IOxW_wlgnHSe8xbw
p157
aVhttp://www.ebay.com/itm/SET-OF-3-CREAM-VINTAGE-TEA-COFFEE-SUGAR-JARS-CERAMIC-KITCHEN-STORAGE-JARS-NEW-/272627662632?var=&hash=item3f79dfff28:m:mscioBSMsWwBRzdChQKCQGw
p158
aVhttp://www.ebay.com/itm/BLACK-RECTANGULAR-TIN-FINEST-SELECTION-COFFEE-TEA-SUGAR-SET-OF-3-19X11CM-/142086591823?epid=1379257617&hash=item211505554f:g:edkAAOSw6n5XsZOz
p159
aVhttp://www.ebay.com/itm/Set-of-3-Gold-Vintage-Kitchen-Tins-Jars-Canisters-Tea-Coffee-Sugar-Storage-/152529904343?hash=item23837da2d7:g:8-8AAOSwX61ZBNNX
p160
aVhttp://www.ebay.com/itm/Next-Set-of-3-Studio-Teal-Geo-Modish-Storage-Tins-Coffee-Sugar-Tea-Canisters-/282519896019?hash=item41c77f7fd3:g:M6cAAOSwFqNZPSa1
p161
aVhttp://www.ebay.com/itm/Purple-Enamel-Tea-Coffee-and-Sugar-Canister-Tins-Kitchen-Storage-Containers-Set-/142353467441?epid=1213333889&hash=item2124ed8831:g:Wa8AAOSwvihY9jo5
p162
aVhttp://www.ebay.com/itm/Kanata-Tea-Coffee-Sugar-Canister-Set-Ceramic-Jars-Bamboo-Lids-With-Tray-/181850662477?hash=item2a5724e64d:g:XXIAAOSw14xWH77G
p163
aVhttp://www.ebay.com/itm/Typhoon-Vintage-Kit-Tea-Coffee-and-Sugar-Set-Red-/141793052515?epid=1506238197&hash=item2103864763:g:3rcAAMXQVT9TCMBN
p164
aVhttp://www.ebay.com/itm/Tea-Coffee-Sugar-Jars-with-easy-screw-lids-RED-GLASS-CANISTER-/262943710760?var=&epid=1330348742&hash=item3d38aa9e28:m:mO4NQpzUqPtrX61AvGlhP1Q
p165
aVhttp://www.ebay.com/itm/Tuftop-Company-Ascot-Black-Sugar-Storage-Canister-Jar-Container-Pot-Ceramic-New-/401054041387?epid=1250413166&hash=item5d60af052b:g:tnoAAOSwoydWlOqr
p166
aVhttp://www.ebay.com/itm/Retro-Vintage-Kitchen-Tins-Jars-Canisters-Tea-Coffee-Sugar-Storage-3-Set-New-/152489940000?epid=729451156&hash=item23811bd420:g:0U0AAOSwTuJYtCGc
p167
aVhttp://www.ebay.com/itm/Kanata-Tea-Coffee-Sugar-Canister-Set-Ceramic-Jars-Bamboo-Lids-With-Tray-/181850662477?hash=item2a5724e64d:g:XXIAAOSw14xWH77G
p168
aVhttp://www.ebay.com/itm/Sugar-bowl-bucjet-with-spoon-and-lid-salt-spices-wood-wooden-14-cm-5-5-inches-/331826471549?hash=item4d4266227d:g:bJcAAOSwz2lXCAzg
p169
aVhttp://www.ebay.com/itm/SET-OF-3-COPPER-TEA-SUGAR-COFFEE-KITCHEN-TIN-CANISTERS-Next-Day-Despatch-/162579603692?hash=item25da7fe0ec:g:8k0AAOSwB-1YqtYb
p170
aVhttp://www.ebay.com/itm/Tea-Coffee-And-Sugar-Canisters-Set-Kitchen-Food-Airtight-Jars-Durable-Steel-/252491631692?epid=1181033876&hash=item3ac9ac8c4c:g:DgIAAOSwImRYP9xg
p171
aVhttp://www.ebay.com/itm/Anglaise-Tea-Coffee-and-Sugar-Canisters-Jars-Set-of-3-Cream-And-Red-Home-Storage-/331563309411?hash=item4d32b69963:g:dIUAAOSwstxVYFtf
p172
aVhttp://www.ebay.com/itm/Jamie-Oliver-Coffee-Tea-And-Sugar-Canister-Set-Blue-/272627351745?epid=525431846&hash=item3f79db40c1:g:cF0AAOSwnF9Y7Q6X
p173
aVhttp://www.ebay.com/itm/Russell-Hobbs-Legacy-3-Piece-Marble-Tea-Coffee-Sugar-Canisters-Storage-Jar-Set-/142043418174?epid=1875874295&hash=item2112728e3e:g:sgEAAOSwhQhY2~6V
p174
aVhttp://www.ebay.com/itm/SWAN-SET-OF-3-TEA-COFFEE-SUGAR-RED-CANISTERS-JAR-KITCHEN-STORAGE-CONTAINERS-TIN-/131636542114?epid=2125358416&hash=item1ea6263aa2:g:4WoAAOSw9mFWK6kD
p175
aVhttp://www.ebay.com/itm/Ball-Low-or-no-Sugar-Jam-Setting-Mix-with-Pectin-/172601574421?epid=716723220&hash=item282fdb0415:g:7lAAAOSwdGFY3NWj
p176
aVhttp://www.ebay.com/itm/Tea-Coffee-Sugar-Kitchen-Ribbed-Jars-Ceramic-Canisters-with-bamboo-Lids-/122329842819?hash=item1c7b6d4483:g:MroAAOSw-0xYjLSG
p177
aVhttp://www.ebay.com/itm/Mason-Cash-VARSITY-TEA-COFFEE-SUGAR-Stacking-CANISTERS-Storage-Jars-CREAM-Blue-/232258504075?epid=532325147&hash=item3613af858b:g:dIcAAOSwjDZYj75U
p178
aVhttp://www.ebay.com/itm/Culpitt-100pk-MINI-FLOWERS-Pink-Edible-Cupcake-Sugar-Pipings-Decorations-Toppers-/122023220362?epid=1074650816&hash=item1c6926948a:g:~ikAAOSwARZXiQr~
p179
aVhttp://www.ebay.com/itm/PME-Cake-Icing-Sugar-Modelling-Sugarpaste-Gum-Paste-Decoration-Black-200g-7oz-/121942458472?epid=1337791799&hash=item1c64564068:g:Q20AAOSwnTJW~npm
p180
aVhttp://www.ebay.com/itm/Vintage-Retro-VW-Kitchen-Tin-Container-Canister-Tea-Coffee-Sugar-Storage-/152512772410?epid=1134491414&hash=item238278393a:g:PVoAAOSwBOtY80bs
p181
aVhttp://www.ebay.com/itm/Set-of-3-Airtight-Round-Tea-Sugar-and-Coffee-Storage-Canister-Jars-Grey-/172778904926?epid=11004228770&hash=item283a6cdd5e:g:hB8AAOSwqVBZZ1-r
p182
aVhttp://www.ebay.com/itm/175-ML-CLASSIC-CAFE-GLASS-SUGAR-DISPENSER-POURER-CRUET-CONDIMENT-CANISTER-/201871779995?epid=1460387004&hash=item2f007ee89b:g:Q8EAAOSwWxNY29A7
p183
aVhttp://www.ebay.com/itm/METALLIC-TEA-COFFEE-SUGAR-CANISTER-BREAD-BIN-JAR-POT-CONTAINER-STORAGE-KITCHEN-/221399292559?var=&epid=12003035929&hash=item338c6d1a8f:m:mg6YX1KUDZd3P-lJHapROmA
p184
aVhttp://www.ebay.com/itm/3-PIECE-MARBLE-TEA-COFFEE-SUGAR-JARS-CANISTERS-KITCHEN-STORAGE-JARS-NEW-/262797445283?hash=item3d2ff2c8a3:g:4XkAAOSw5cNYaCT7
p185
aVhttp://www.ebay.com/itm/Set-of-3-Hammered-Embossed-Chrome-Kitchen-Storage-Tin-Canisters-Tea-Coffee-Sugar-/262931188785?epid=2114763319&hash=item3d37eb8c31:g:j14AAOSw~y9ZCamQ
p186
aVhttp://www.ebay.com/itm/Bee-Happy-Set-of-3-Storage-Canisters-for-Tea-Coffee-and-Sugar-/162503107954?epid=840493382&hash=item25d5f0a572:g:MJsAAOSwrhBZCygP
p187
aVhttp://www.ebay.com/itm/ORGANICALLY-PRODUCED-COCONUT-PALM-BLOSSOM-SUGAR-15G-TO-1KG-/282565070585?var=&epid=1165827133&hash=item41ca30cef9:m:m56IzfH9WI2O83hiYF0cObQ
p188
aVhttp://www.ebay.com/itm/Peter-Rabbit-Contemporary-Design-Creamer-Milk-Jug-Sugar-Bowl-NEW-in-Box-23920-/371347588874?hash=item56760a870a:g:Mb8AAOSw3xJVdt~r
p189
aVhttp://www.ebay.com/itm/Copper-Hammered-Stainless-Steel-Tea-Coffe-Sugar-Canister-Container-Jar-Set-of-3-/152554286330?hash=item2384f1acfa:g:PcoAAOSw~e5ZWLlF
p190
aVhttp://www.ebay.com/itm/PME-Cake-Icing-Sugar-Modelling-Sugarpaste-Gum-Paste-Decoration-White-200g-7oz-/141946399697?epid=1637823721&hash=item210caa2bd1:g:obMAAOSwJQdW~nlV
p191
aVhttp://www.ebay.com/itm/Harbour-Housewares-Metal-Tea-Coffee-Sugar-Canister-Set-White-/182432989689?epid=0&hash=item2a79da81f9:g:lEEAAOSw44BYh9NT
p192
aVhttp://www.ebay.com/itm/SET-OF-5-TEA-SUGAR-COFFEE-BISCUIT-BREAD-BIN-BOX-JAR-CANISTERS-KITCHEN-STORAGE-/201079396409?var=&hash=item2ed1441839:m:m36ztOaysodcCGgOR2UYhhQ
p193
aVhttp://www.ebay.com/itm/Swan-Retro-Design-Set-of-3-Sugar-Coffee-Tea-Kitchen-Storage-Canisters-Pink-New-/142087785970?epid=1983041918&hash=item2115178df2:g:sfwAAOSw0UdXszHm
p194
aVhttp://www.ebay.com/itm/vintage-storage-set-sugar-tea-coffee-kitchen-canisters-retro-bread-cream-biscuit-/122373898956?hash=item1c7e0d82cc:g:dIgAAOSwfVpYtEpf
p195
aVhttp://www.ebay.com/itm/6-x-BLACK-TEA-COFFEE-SUGAR-BISCUITS-VINYL-ADHESIVE-JAR-LABELS-STICKERS-/371594529773?hash=item5684c28bed:g:EgAAAOSw0QFXBktA
p196
aVhttp://www.ebay.com/itm/Ceramic-Tea-Coffee-Sugar-Jars-Storage-Canister-Set-of-3-with-Bamboo-Tray-/182142288132?var=&epid=1060817016&hash=item2a6886c104:m:m5NyyBQxUtttsYfxdFAeQew
p197
aVhttp://www.ebay.com/itm/5-Piece-Kitchen-Storage-Set-Bread-Bin-Biscuit-Tea-Coffee-Sugar-Canisters-/142212022929?hash=item211c7f4291:g:L~sAAOSwcUBYUV6i
p198
aVhttp://www.ebay.com/itm/SET-OF-3-CERAMIC-HEART-TEA-COFFEE-SUGAR-JARS-KITCHEN-STORAGE-CANISTERS-NEW-/252700778519?var=&hash=item3ad623e017:m:mxEhPDtsv0AGNsYyxRC7gbQ
p199
aVhttp://www.ebay.com/itm/RETRO-STACKING-TEA-COFFEE-SUGAR-JARS-CERAMIC-STACKABLE-STORAGE-CANISTERS-NEW-/272039607101?var=&hash=item3f56d2fb3d:m:mNW49H6LbTx3PXSUxk2Rf8Q
p200
aVhttp://www.ebay.com/itm/Tea-Coffee-Sugar-Canister-Set-in-Vintage-Olive-Colour-Retro-Kitchen-Storage-/152150942370?epid=1075974295&hash=item236ce722a2:g:M-cAAOSwuzRXdi0R
p201
aVhttp://www.ebay.com/itm/4pc-Metal-Bread-Bin-Storage-Canister-Set-Tea-Sugar-Coffee-Kitchen-Jar-Cream-New-/322509572608?hash=item4b17118a00:g:~dAAAOSwvPRZX1zM
p202
aVhttp://www.ebay.com/itm/COFFEE-SUGAR-TEA-JARS-STAINLESS-STEEL-STORAGE-POT-NEW-JAR-CANISTERS-3PC-SET-/262574761261?var=&epid=1027696405&hash=item3d22ace52d:m:mSxuwiRws7ZoIeRZdAMngLA
p203
aVhttp://www.ebay.com/itm/Organic-Coconut-Palm-Sugar-300g-Certified-Organic-/262972811326?hash=item3d3a66a83e:g:kXQAAOSwlndZD5ML
p204
aVhttp://www.ebay.com/itm/5-Piece-Storage-Set-Lime-Bread-Bin-Sugar-Coffee-Tea-Biscuits-By-Home-Discount-/201360297234?epid=1763955630&hash=item2ee2024d12:g:JMYAAOSwceNZVkAa
p205
aVhttp://www.ebay.com/itm/Shabby-Chic-Vintage-Style-Set-of-3-Storage-Tins-caddies-TEA-COFFEE-SUGAR-/262891954661?hash=item3d3594e1e5:g:DKwAAOSwax5YxUNc
p206
aVhttp://www.ebay.com/itm/Emma-Bridgewater-Polka-Dot-Boxed-Set-of-3-Round-Caddies-Tea-Coffee-Sugar-/171842618820?epid=1741231802&hash=item28029e45c4:g:aLkAAOSw~gRVlrMI
p207
aVhttp://www.ebay.com/itm/Sabichi-Red-Tea-Coffee-Sugar-Jars-Set-Of-3-with-easy-screw-lids-/351901273794?epid=2009474904&hash=item51eef34ec2:g:gkYAAOSw44BYI0db
p208
aVhttp://www.ebay.com/itm/SET-OF-3-CERAMIC-STORAGE-JARS-TEA-COFFEE-SUGAR-STORAGE-CANISTERS-JARS-CLIP-TOP-/252135326649?hash=item3ab46fc3b9:g:OJAAAOSwhcJWJ6b6
p209
aVhttp://www.ebay.com/itm/Morphy-Richards-Accents-Series-Set-of-3-Tea-Coffee-Sugar-Food-Canisters-Sand-New-/401241740935?epid=2102855416&hash=item5d6bdf1687:g:93MAAOSw5cNYTtZM
p210
aVhttp://www.ebay.com/itm/Ceramic-Lace-Tea-Coffee-Sugar-or-Biscuits-Canister-Storage-Jars-Cream-Home-/321903665528?var=&hash=item4af2f42178:m:mdW-0Nmf2ui5N3x4BxWA29g
p211
a.