(lp1
Vhttp://www.ebay.com/itm/6-pack-Bali-Skimp-Skamp-Brief-Panties-Style-2633-Assorted-Colors-/371248063704?var=&hash=item56701be4d8:m:mocFM1Xolm-B20KM2KDn_Og
p2
aVhttp://www.ebay.com/itm/BALI-6-M-V633-2633-Solid-Apple-Blossom-Red-Skimp-Skamp-Nylon-Brief-Panty-/362020898206?epid=1635256559&hash=item544a20859e:g:YKIAAOSwbtVZUVaM
p3
aVhttp://www.ebay.com/itm/Bali-Cool-Cotton-Skimp-Skamp-Briefs-Style-2332-3-Pack-/292141338139?var=&epid=1000783065&hash=item4404fb0e1b:m:mvHK3WaiXO1Og-Cc2hIskAQ
p4
aVhttp://www.ebay.com/itm/BALI-Skimp-Skamp-Nylon-Spandex-Cosmetic-Dots-Full-Cut-Brief-Size-9-2XL-/122061701431?hash=item1c6b71c137:g:NokAAOSwENxXmNZw
p5
aVhttp://www.ebay.com/itm/3-Pack-Bali-Skimp-Skamp-Briefs-Style-2633-Size-5-10-/191887393143?var=&hash=item2cad614177:m:m67Fb2qFfrxJ4uqE3g21czQ
p6
aVhttp://www.ebay.com/itm/Salad-Samurai-100-Cutting-Edge-Ultra-Hearty-Easy-To-Make-Sala-9780738214870-/332282671756?epid=176903738&hash=item4d5d97328c:g:uyoAAOSwXXxZUXT-
p7
aVhttp://www.ebay.com/itm/OTR-Lum-and-Abner-Over-1600-Old-Time-Radio-Shows-/321720343551?epid=714905053&hash=item4ae806dbff:g:U1AAAOSwajVUN5rN
p8
aVhttp://www.ebay.com/itm/5-Nutrition-Rich-Piana-1800-grams-60-Servings-Real-Food-Free-P-P-/182300372888?var=&epid=1839769024&hash=item2a71f2ef98:m:mO9pQR-ZR5I4KuJv8UF6RxQ
p9
aVhttp://www.ebay.com/itm/British-Seagull-Outboard-Fuel-Tap-Cork-Seal-/111333111311?epid=1288514228&hash=item19ebf8760f:m:myGckJu6Xn1p4gfBQJDyXtA&vxp=mtr
p10
aVhttp://www.ebay.com/itm/SPEEDOMETER-Triumph-BSA-Black-Face-0-120MPH-Motorbike-Speedo-Gauge-/252832913024?hash=item3ade041680:g:ldIAAOSw4CFY2W1m&vxp=mtr
p11
aVhttp://www.ebay.com/itm/ELM327-Bluetooth-OBD-2-CAN-V1-4-Scan-use-with-Tuneecu-motorcycle-OBD-/152592984449?hash=item2387402981:g:97EAAOSwU-pXuGYQ
p12
aVhttp://www.ebay.com/itm/Genuine-Lucas-Universal-7-Chrome-Headlamp-Headlight-Shell-Rim-LU5411506UC-/262053308403?epid=2033434715&hash=item3d039827f3:g:YZYAAOSwEetV-xMJ&vxp=mtr
p13
aVhttp://www.ebay.com/itm/UNIVERSAL-CHROME-19-SLASH-CUT-MOTORBIKE-EXHAUST-SILENCER-CAFE-RACER-CUSTOM-/262089353983?epid=719044875&hash=item3d05be2aff:g:ghMAAOSwAYtWGwYU&vxp=mtr
p14
aVhttp://www.ebay.com/itm/FORD-FOCUS-RS-MK2-ST225-Decat-pipe-T304-Stainless-Steel-3-Bore-BEST-VALUE-/351209525342?epid=2008234972&hash=item51c5b8105e:g:~JgAAOSwF1dUT5hr&vxp=mtr
p15
aVhttp://www.ebay.com/itm/Best-of-Terry-Kimbrough-Baby-Afghans-by-Terry-Kimbrough-9781574867282-/332174889125?epid=201914724&hash=item4d572a90a5:g:8BYAAOSwB-1Y5Svy
p16
aVhttp://www.ebay.com/itm/GENUINE-LUCAS-MAIN-WIRING-HARNESS-AJS-Matchless-Heavyweight-Singles-1945-55-AMC1-/252635944915?epid=2084531610&hash=item3ad24697d3:g:prEAAOSwal5YKeUO&vxp=mtr
p17
a.