(lp1
Vhttp://www.ebay.com/itm/PHENTRAMINE-STRONGEST-LEGAL-DIET-SLIMMING-WEIGHT-LOSS-PILLS-SUPPRESS-APPETITE-/331925319668?var=&epid=1937930874&hash=item4d484a6ff4:m:mo6TuVDPg_QLA8YF2oOd5Wg
p2
aVhttp://www.ebay.com/itm/GYM-BUNNY-CURB-THE-CRAVING-APPETITE-SUPPRESSANT-PILLS-SUPPRESS-HUNGER-CRAVE-/262616078349?epid=1539857420&hash=item3d2523580d:g:Bk8AAOSwvzRX0ceB
p3
aVhttp://www.ebay.com/itm/GYM-BUNNY-CURB-THE-CRAVING-APPETITE-SUPPRESSANT-PILLS-SUPPRESS-HUNGER-CRAVE-/231797686915?epid=1539857420&hash=item35f8380283:g:pNUAAOSwJcZWgtWj
p4
aVhttp://www.ebay.com/itm/GYM-BUNNY-CURB-THE-CRAVING-APPETITE-SUPPRESSANT-PILLS-SUPPRESS-HUNGER-CRAVE-/171898347021?epid=1539857420&hash=item2805f09e0d:g:uCEAAOSwDNdV0zc7
p5
aVhttp://www.ebay.com/itm/GYM-BUNNY-CURB-THE-CRAVING-APPETITE-SUPPRESSANT-PILLS-SUPPRESS-HUNGER-CRAVE-/281781753211?epid=1539857420&hash=item419b80557b:g:3A8AAOSwuYVWnskN
p6
aVhttp://www.ebay.com/itm/BLUE-APATITE-CHIP-BEAD-BRACELET-SUPPRESS-APPETITE-/232402889087?hash=item361c4aa97f:g:tJ4AAOSwJq1ZZ25Z
p7
aVhttp://www.ebay.com/itm/Oral-Sex-Essentials-Kit-numb-suppress-gag-reflex-/381816578729?hash=item58e60aa2a9:g:OS8AAOSw-CpYA~Xb
p8
aVhttp://www.ebay.com/itm/BOROLA-Calorex-Apetin-Food-Supplement-Suppress-Appetite-30-Solucaps-839mg-/262902480325?hash=item3d36357dc5:g:IjAAAOSwSlBYz4xf
p9
aVhttp://www.ebay.com/itm/Garcinia-Cambogia-Hoodia-Patch-Suppress-Appetite-Diet-Weight-Loss-Slimming-/301582510690?hash=item4637b7ea62:g:oQsAAOSw-7RVHWz3
p10
aVhttp://www.ebay.com/itm/APPLE-CIDER-VINEGAR-weight-loss-suppress-appetite-90-x-750mg-HPMC-CAPSULES-/152229583673?hash=item2371971b39:g:W2EAAOSw3KFWb6yL
p11
aVhttp://www.ebay.com/itm/Deep-Throat-Spray-Spearmint-numb-suppress-gag-reflex-/381718545126?epid=1441947082&hash=item58e032c2e6:g:vdMAAOSwwo1XeXix
p12
aVhttp://www.ebay.com/itm/APPLE-CIDER-VINEGAR-support-weight-loss-suppress-appetite-180-x-HPMC-CAPSULES-/161830686332?hash=item25addc4e7c:g:NukAAOSwmrlUwnVV
p13
aVhttp://www.ebay.com/itm/Deter-Suppress-Extract-Richard-E-Keightley-/382064692330?epid=209617695&hash=item58f4d48c6a:g:8SIAAOSwX61ZBLRc
p14
aVhttp://www.ebay.com/itm/Breaking-the-Mirror-of-Heaven-The-Conspiracy-to-Suppress-the-Voice-of-Ancient-E-/130901541924?epid=1605480872&hash=item1e7a570424:g:uNQAAMXQ-KRRg9i6
p15
aVhttp://www.ebay.com/itm/GYM-BUNNY-CURB-THE-CRAVING-APPETITE-SUPPRESSANT-PILLS-SUPPRESS-HUNGER-CRAVE-/121698069427?epid=1539857420&hash=item1c55c52bb3:g:yWQAAOSw3ydVm98M
p16
aVhttp://www.ebay.com/itm/GYM-BUNNY-CURB-THE-CRAVING-APPETITE-SUPPRESSANT-PILLS-SUPPRESS-HUNGER-CRAVE-/271923536772?epid=1539857420&hash=item3f4fe7e384:g:QzgAAOSwGotWniXO
p17
aVhttp://www.ebay.com/itm/CAPACITOR-AUTO-SUPPRESS-2-2UF-Suppressors-CC86585-/261815159612?hash=item3cf5664b3c:g:UAsAAOSwstxVCBlQ
p18
aVhttp://www.ebay.com/itm/Comfortably-Numb-Deep-Throat-Spray-Mint-Chocolate-suppress-gag-reflex-/351796498755?epid=1755605336&hash=item51e8b49143:g:2YUAAOSwwo1XeXmt
p19
aVhttp://www.ebay.com/itm/4-Four-NGK-PLUG-CAPS-W-Resist-End-Caps-Straight-Body-Suppress-for-1950-80-/331091974436?epid=1923095257&hash=item4d169e9924:m:m5AtidmwEogBzGJpajQcuTQ
p20
aVhttp://www.ebay.com/itm/FE-SC-FR-0-5-NT-Ampohm-Wound-Products-Capacitor-Auto-Suppress-0-5Uf-/140938497416?hash=item20d096cd88:g:ypQAAOSwoBtW23dO
p21
aVhttp://www.ebay.com/itm/How-to-Suppress-Womens-Writing-Russ-Joanna-Paperback-Book-The-Cheap-Fast-Free-/142119398540?epid=89730370&hash=item2116f9ec8c:g:h24AAOSw3YJZP6vq
p22
aVhttp://www.ebay.com/itm/DETER-SUPPRESS-EXTRACT-ROYAL-MILITARY-POLICE-CLOSE-PROTECTION-AUTHORISED-HISTORY-/400867661879?epid=209617695&hash=item5d55931837:g:N54AAOSwj0NUhadD
p23
aVhttp://www.ebay.com/itm/Deter-Suppress-Extract-Royal-Military-Police-Close-Pro-Paperback-NEW-Richard-/351670217489?epid=208897165&hash=item51e12dab11:g:jbkAAOSwoudW2sod
p24
aVhttp://www.ebay.com/itm/ANABOLIC-BCAA-SYSTEM-Supports-Muscle-Energy-and-Suppress-Muscle-/191542470180?var=&epid=1608099872&hash=item2c98d22624:m:m05vi0lFc-_3X5_w4fOfkFg
p25
aVhttp://www.ebay.com/itm/How-to-Suppress-Womens-Writing-Russ-Joanna-Paperback-Book-The-Cheap-Fast-Free-/391482728300?epid=89730370&hash=item5b26305f6c:g:pCgAAOSwwvZZQQaB
p26
a.