(lp1
Vhttp://www.ebay.com/itm/The-Ubiquitous-Pig-By-Susan-Jonas-Marilyn-Nissenson-/381519709626?epid=95583406&hash=item58d458c5ba:g:rngAAOSwJkJWl6Ij
p2
aVhttp://www.ebay.com/itm/Sony-PSP-Winning-Eleven-9-Ubiquitous-Evolution-VideoGames-/291562169335?epid=1805670004&hash=item43e275a3f7:g:4EkAAOSw~OdVZoJc
p3
aVhttp://www.ebay.com/itm/The-Ubiquitous-Pig-By-Susan-Jonas-Marilyn-Nissenson-/381519709626?epid=95583406&hash=item58d458c5ba:g:rngAAOSwJkJWl6Ij
p4
aVhttp://www.ebay.com/itm/Sony-PSP-Winning-Eleven-9-Ubiquitous-Evolution-VideoGames-/291562169335?epid=1805670004&hash=item43e275a3f7:g:4EkAAOSw~OdVZoJc
p5
aVhttp://www.ebay.com/itm/The-Ubiquitous-Pig-By-Susan-Jonas-Marilyn-Nissenson-/381519709626?epid=95583406&hash=item58d458c5ba:g:rngAAOSwJkJWl6Ij
p6
aVhttp://www.ebay.com/itm/Sony-PSP-Winning-Eleven-9-Ubiquitous-Evolution-VideoGames-/291562169335?epid=1805670004&hash=item43e275a3f7:g:4EkAAOSw~OdVZoJc
p7
aVhttp://www.ebay.com/itm/The-Ubiquitous-Pig-By-Susan-Jonas-Marilyn-Nissenson-/381519709626?epid=95583406&hash=item58d458c5ba:g:rngAAOSwJkJWl6Ij
p8
aVhttp://www.ebay.com/itm/Sony-PSP-Winning-Eleven-9-Ubiquitous-Evolution-VideoGames-/291562169335?epid=1805670004&hash=item43e275a3f7:g:4EkAAOSw~OdVZoJc
p9
a.