(lp1
Vhttp://www.ebay.com/itm/Shockproof-360-Silicone-Protective-Clear-Case-Cover-For-Apple-iPhone-7-6s-plus-/381785178043?var=&epid=1337114363&hash=item58e42b7fbb:m:m58VzKvj1lrTuTQojBIOF9w
p2
aVhttp://www.ebay.com/itm/Women-Silicone-Bra-Adhesive-Stick-On-Push-Up-Gel-Strapless-Backless-Nude-Black-/222090944792?var=&hash=item33b5a6e118:m:mR7hOi-WmiJh7JQ16flQmMg
p3
aVhttp://www.ebay.com/itm/Luxury-Ultra-Slim-Shockproof-Bumper-Case-Cover-for-Apple-iPhone-7-6s-6-Plus-5s-/112227177686?var=&hash=item1a2142d4d6:m:mgiuDZn3SduJu-n3HPC6E9A
p4
aVhttp://www.ebay.com/itm/Strapless-Invisible-Bra-Silicone-Self-Adhesive-Stick-On-Push-Up-Gel-Bra-Backless-/332154275416?var=&hash=item4d55f00658:m:mkCDPwSltdTwF3YsK-Ro-Aw
p5
aVhttp://www.ebay.com/itm/Luxury-Bling-Glitter-Shockproof-Soft-Silicone-Case-Cover-For-iPhone-5s-6S-7-Plus-/191780319526?var=&hash=item2ca6ff7126:m:mWPebM3FVxBfyubULvMAx-A
p6
aVhttp://www.ebay.com/itm/3D-Food-Novelty-Retro-Cute-Silicone-Rubber-Case-Cover-For-iPhone-5-6-7-Plus-SE-/272689123897?var=&hash=item3f7d89d239:m:mMbtMqYcjQwJezhd6f5Z3dQ
p7
aVhttp://www.ebay.com/itm/Black-Tyre-Silicone-Gel-Skin-Case-for-Sony-Xperia-Z3-D6603-Rubber-Cover-/131416696187?epid=1337110896&hash=item1e990ba57b:g:aMoAAOSwDFNWEt4r
p8
aVhttp://www.ebay.com/itm/FRAMES-ORNATE-x-3-Craft-Sugarcraft-Fimo-Chocolate-Silicone-Rubber-Mould-Mold-/292162085445?epid=1679759387&hash=item440637a245:g:yC4AAOSwPRlXm07Q
p9
aVhttp://www.ebay.com/itm/TPU-Gel-Silicone-Rubber-Soft-Jelly-Case-Smoke-Black-for-Samsung-Galaxy-S7-Edge-/401194388885?var=&epid=1256585541&hash=item5d690c8d95:m:mCHIQL9m7ELdXVl8sWl4GJw
p10
aVhttp://www.ebay.com/itm/Genuine-Apple-Original-Silicone-Protective-Case-Cover-for-iPhone-7-6-6S-PLUS-/172651340373?var=&hash=item2832d26255:m:mWXHdwUP5-8_0yu-sFfv6QA
p11
aVhttp://www.ebay.com/itm/New-ShockProof-Silicone-TPU-Soft-Case-Cover-for-Samsung-Galaxy-S8-S8-Plus-/152524442257?var=&epid=719400502&hash=item23832a4a91:m:m7QuYp71PwSTBMrbt5qCJkA
p12
aVhttp://www.ebay.com/itm/New-Official-Soft-Silicone-Gel-Leather-Case-Cover-for-Apple-iPhone-6-6S-7-Plus-/272579241617?var=&hash=item3f76fd2691:m:m9ft514eK9V12eRH6bfHVgw
p13
aVhttp://www.ebay.com/itm/Shockproof-360-Silicone-Protective-Clear-Case-Cover-For-Apple-iPhone-7-6s-plus-/222445508791?var=&epid=1973469044&hash=item33cac918b7:m:mrrUER_ZKfoftcdzI0QGe3Q
p14
aVhttp://www.ebay.com/itm/Silicone-Self-Adhesive-Stick-On-Push-Up-Gel-Strapless-Invisible-Bra-Backless-UK-/122514883747?var=&hash=item1c8674c4a3:m:mQs58skNNSrDhg2vRLekzWg
p15
aVhttp://www.ebay.com/itm/Luxury-Bling-Glitter-Shockproof-Soft-Silicone-Case-Cover-For-iPhone-5s-6S-7-Plus-/152391034058?var=&hash=item237b36a4ca:m:mcoqHCnVu8XuBR2y97qRz1Q
p16
aVhttp://www.ebay.com/itm/Cute-Unicorn-Animal-Silicone-Rubber-Kawaii-3D-Case-Cover-For-iPhone-5-6-7-Plus-/272689123905?var=&hash=item3f7d89d241:m:mAG4slVITDs1FxJkHSuQjSQ
p17
aVhttp://www.ebay.com/itm/iPhone-4-4S-Silicone-Bumper-Case-Soft-Rubber-Cover-Skin-/360462976884?var=&epid=1255850842&hash=item53ed448774:m:mhCfXxuzTIjIQ6zAGziDfAg
p18
aVhttp://www.ebay.com/itm/New-ShockProof-Silicone-TPU-Rugged-Case-Cover-for-Samsung-Galaxy-S8-S8-Plus-/292072454023?var=&hash=item4400dff787:m:mBqUiJ7by7fcUQyoNjNBlqg
p19
aVhttp://www.ebay.com/itm/For-Nokia-150-New-Black-Clear-Gel-Silicone-Rubber-Phone-Case-Cover-/253008106575?var=&hash=item3ae875544f:m:mAtDEUlBU6UvQjc4MOP6j4A
p20
aVhttp://www.ebay.com/itm/PLAIN-SUPER-SOFT-SILICONE-RUBBER-GEL-CASE-COVER-SKIN-PROTECTOR-FOR-IPHONE-5-5S-/301284044431?var=&hash=item4625edae8f:m:mawgSETZtqO9gxMM4Dkq7qQ
p21
aVhttp://www.ebay.com/itm/Cartoon-Animal-3D-Silicone-Soft-Rubber-Case-Cover-Tpu-For-iPhone-4-5-6-SE-7-Plus-/272689123906?var=&hash=item3f7d89d242:m:mhFbHxf4SBIDVbl0YkdAG2w
p22
aVhttp://www.ebay.com/itm/3D-High-Heel-Shoe-Kit-Silicone-Fondant-Mould-Sugar-Cake-Decorating-Template-Mold-/182577736095?epid=883737317&hash=item2a827b299f:g:RssAAOSw1WJZG0x6
p23
aVhttp://www.ebay.com/itm/Silicone-Invisible-Push-Up-Strapless-Backless-Self-Adhesive-Gel-Magic-Stick-Bra-/162526234336?var=&hash=item25d75186e0:m:mOIFQBnou5X204-kbKnybZQ
p24
aVhttp://www.ebay.com/itm/Luxury-Ultra-Thin-Slim-Silicone-TPU-Soft-Case-Cover-For-Apple-iPhone-6-7-7-Plus-/112359844972?var=&hash=item1a292b2c6c:m:mQstPuT-KsGPPRxJ0NMc9jQ
p25
aVhttp://www.ebay.com/itm/BABY-SHOWER-BABY-CLOTHES-Party-3D-Silicone-Mould-Fondant-Cake-Decorating-Topper-/302251940339?hash=item465f9e99f3:g:yvMAAOSw65FXvtdS
p26
aVhttp://www.ebay.com/itm/Soft-Silicone-3D-M-M-Bean-Chocolate-Candy-Case-Cover-For-Apple-iPad-4-3-2-Mini-/272441151883?var=&hash=item3f6ec2118b:m:m5Gz5v3ZRQu8xYoAy1bNGCA
p27
aVhttp://www.ebay.com/itm/Emoji-Silicone-Mold-Chocolate-Candy-Making-Crafts-Ice-Cube-Cake-Fondant-Birthday-/252770102331?hash=item3ada45ac3b:g:L9wAAOSwCU1Yop0Y
p28
aVhttp://www.ebay.com/itm/3D-VW-BEETLE-SILICONE-MOULD-FOR-CAKE-TOPPERS-CHOCOLATE-CLAY-ETC-/201718192828?hash=item2ef7575abc:g:rAsAAOSwNSxU5nXE
p29
aVhttp://www.ebay.com/itm/Women-Invisible-Bra-Silicone-Gel-Strapless-Backless-Adhesive-Stick-On-Push-Up-/332245119768?var=&hash=item4d5b5a3318:m:m-GyoAZD4ErRmtkyx6A8ebQ
p30
aVhttp://www.ebay.com/itm/3D-PETER-RABBIT-SILICONE-MOULD-FOR-CAKE-TOPPER-CHOCOLATE-CLAY-ETC-/201718197715?hash=item2ef7576dd3:g:K8wAAOSwu4BV6vOh
p31
aVhttp://www.ebay.com/itm/Silicone-Cake-Mould-Bake-DIY-Cake-Shape-Nonstick-Pastry-Tool-Tray-Magic-Baking-/332198407792?hash=item4d58916e70:g:rlAAAOSwuMZZAxEh
p32
aVhttp://www.ebay.com/itm/Silicone-Cake-Mold-Craft-Fondant-Mould-Decorating-Baking-Tools-Peacock-Pattern-/272186123660?epid=1261534745&hash=item3f5f8ea58c:g:d78AAOSwol5YwQyE
p33
aVhttp://www.ebay.com/itm/1Pcs-Birthday-Food-Grade-Moulds-Silicone-Number-Cake-Moulds-Kitchen-Tools-Large-/182651766528?var=&hash=item2a86e4c700:m:mnLCvAh1keD5P7KTAR3E3Jw
p34
aVhttp://www.ebay.com/itm/4pcs-Nonstick-Silicone-Cake-Mold-Magic-Bake-Snakes-DIY-Cake-Shape-Tray-Baking-/112450550889?hash=item1a2e933c69:g:BnYAAOSwbtVZSfRT
p35
aVhttp://www.ebay.com/itm/3D-TELETUBBIES-SILICONE-MOULD-FOR-CHOCOLATE-CAKE-TOPPERS-ETC-/192150471502?hash=item2cbd0f834e:g:n08AAOSwc-tY5mzB
p36
aVhttp://www.ebay.com/itm/Waffles-Bakeware-Hot-Mold-New-Silicone-Cake-Tools-Baking-Kitchen-Muffins-/182649340123?hash=item2a86bfc0db:g:Cv0AAOSwwvZZWrJo
p37
aVhttp://www.ebay.com/itm/Silicone-Fondant-Cake-Decorating-Mould-Chocolate-Baking-Sugarcraft-Mold-Tool-UK-/311751132026?var=&hash=item4895d0c37a:m:mHUJyw5e4_ec0Cgs3bawnWw
p38
aVhttp://www.ebay.com/itm/3D-Baby-Shower-Silicone-Mold-Mould-Fondant-Cake-Decoration-Baking-Tool-/261258445869?epid=703743474&hash=item3cd437842d:g:bQUAAOSw4A5Y1PLg
p39
aVhttp://www.ebay.com/itm/6-Tea-Spoon-Silicone-Mould-Chocolate-Fondant-Sugarcraft-Cake-Baking-Teaspoon-new-/232300934582?hash=item361636f5b6:g:Z8AAAOSwc49Y7u~7
p40
aVhttp://www.ebay.com/itm/13-Styles-Silicone-Mould-Dolls-Face-Sugarcraft-Cake-Decorating-Fondant-Mold-Set-/252799933196?epid=934569524&hash=item3adc0cdb0c:g:WWgAAOSwfVpYsTir
p41
aVhttp://www.ebay.com/itm/DIY-Silicone-Fondant-Cake-Chocolate-Cookie-Baking-Mould-Mold-Jelly-Baking-Tray-/282411164570?var=&hash=item41c104639a:m:mQM5hOlM9KAxC8sxIo75PRg
p42
aVhttp://www.ebay.com/itm/Silicone-Waffles-Pan-Cake-Baking-Baked-Muffin-Cake-Chocolate-Mold-Mould-Tray-Red-/362002037272?var=&hash=item544900ba18:m:mASl1DmYDpqe-yBgCDir7tw
p43
aVhttp://www.ebay.com/itm/3D-Feather-Fondant-Mold-Cake-Soap-Fimo-Clay-Chocolate-Silicone-Decoration-Mould-/381051683810?epid=1688633235&hash=item58b87343e2:g:fzAAAOSwvg9XbiIt
p44
aVhttp://www.ebay.com/itm/Original-PU-Soft-Silicone-Leather-Slim-Case-Cover-For-Apple-iPhone-7-7-Plus-6s-/112370397561?var=&hash=item1a29cc3179:m:mdMJVkXhL0Z0StI7nxALrKA
p45
aVhttp://www.ebay.com/itm/DIY-Man-Tools-Set-Hammer-Spanner-Silicone-Mould-Sugarcraft-Cup-Cake-Chocolate-/252377025255?epid=683105475&hash=item3ac2d7cae7:g:akAAAOSwn9lXKJXx
p46
aVhttp://www.ebay.com/itm/Gothic-Cross-Jesus-Silicone-Fondant-Mould-Cake-Decorating-Chocolate-Baking-Mold-/262416108357?hash=item3d19380b45:g:ZnEAAOSwxp9W2S~6
p47
aVhttp://www.ebay.com/itm/Joy-Silicone-Alphabet-Letter-Trays-Chocolate-Mold-Cake-Fondant-Decorating-Tools-/201412404268?epid=1089871316&hash=item2ee51d642c:g:qR8AAOSwDNdV1tjQ
p48
aVhttp://www.ebay.com/itm/3D-Baby-Sleeping-Shower-Silicone-Cake-Fondant-Mold-Chocolate-Pastry-Baking-Mould-/262430323428?epid=942911670&hash=item3d1a10f2e4:g:ggEAAOSwjVVVr18f
p49
aVhttp://www.ebay.com/itm/Long-Chain-Silicone-Fondant-Mould-Purse-Bag-Cake-Mold-Sugarcraft-Decorating-Tool-/252209803895?epid=720436344&hash=item3ab8e03277:g:66gAAOSwd0BV3DIB
p50
aVhttp://www.ebay.com/itm/3D-WESTIE-DOG-SILICONE-MOULD-FOR-CAKE-TOPPERS-CHOCOLATE-CLAY-ETC-/201718194074?hash=item2ef7575f9a:g:mOgAAOSw7aBVDK3F
p51
aVhttp://www.ebay.com/itm/Luxury-Carbon-Fiber-Silicone-protective-cover-case-for-Samsung-galaxy-S6-S7-edge-/252861176592?var=&hash=item3adfb35b10:m:mJkKaxbO9tlTLLV9MTboqgQ
p52
aVhttp://www.ebay.com/itm/FRAMES-OVAL-x-3-Craft-Sugarcraft-Fimo-Chocolate-Silicone-Rubber-Mould-Mold-/292162083150?epid=1279791499&hash=item440637994e:g:kX0AAOSwENxXm02W
p53
aVhttp://www.ebay.com/itm/Nonstick-4Pcs-Silicone-Cake-Mold-Magic-Bake-Snakes-Diy-Cake-Mould-Baking-Tools-/361964684803?hash=item5446c6c603:g:ffEAAOSwuMZZAjWc
p54
aVhttp://www.ebay.com/itm/5-Cake-Decorating-Silicone-Icing-Brush-Pen-Tools-for-Sugarcraft-New-Design-/400799888510?epid=1488619684&hash=item5d5188f47e:g:1OAAAOSwXeJXc5Ax
p55
aVhttp://www.ebay.com/itm/Silicone-Bra-Push-Up-Backless-Self-Adhesive-Gel-Wedding-Party-Invisible-Bra-/172670721196?var=&hash=item2833fa1cac:m:m9IdLy-vZj8emjgpTd1HNZA
p56
aVhttp://www.ebay.com/itm/Silicone-Mould-3D-Sleeping-Baby-Christening-Cake-Topper-Modelling-Tools-UK-/222075974847?epid=515239800&hash=item33b4c274bf:g:WjcAAOSwiylXA677
p57
aVhttp://www.ebay.com/itm/For-iPhone-6-6S-7-Plus-5-5S-Rubber-TPU-Silicone-Gel-Pattern-Phone-Case-Cover-/322563285518?var=&hash=item4b1a45220e:m:m7-fVTRyBO1mDNzl1uj3Q1Q
p58
aVhttp://www.ebay.com/itm/SMALL-MOTORBIKE-3D-SILICONE-MOULD-FOR-CAKE-TOPPERS-CHOCOLATE-CLAY-ETC-/201891720935?hash=item2f01af2ee7:g:iPsAAOSw3utY8SQF
p59
aVhttp://www.ebay.com/itm/3D-SPANIEL-DOG-SILICONE-MOULD-FOR-CAKE-TOPPERS-CHOCOLATE-CLAY-ETC-/192027091508?hash=item2cb5b4e234:g:nmYAAOSwXshWsPpf
p60
aVhttp://www.ebay.com/itm/3D-High-Heel-Shoe-Kit-Silicone-Fondant-Mould-Sugar-Cake-Decorating-Template-Mold-/222374683204?epid=542127451&hash=item33c6906244:g:lfgAAOSwHMJYCCJ1
p61
aVhttp://www.ebay.com/itm/3D-RACING-CAR-SILICONE-MOULD-FOR-CAKE-TOPPER-CHOCOLATE-CLAY-ETC-/201718194071?hash=item2ef7575f97:g:5rUAAOSw~CFY65WR
p62
aVhttp://www.ebay.com/itm/3D-MINIATURE-TEAPOT-SILICONE-MOULD-FOR-CAKE-TOPPERS-CHOCOLATE-CLAY-ETC-/192077794940?hash=item2cb8ba8e7c:g:PYsAAOSwVL1WEFgw
p63
aVhttp://www.ebay.com/itm/Silicone-Fondant-Cake-Decorating-Mould-Chocolate-Baking-Sugarcraft-Mold-Tool-UK-/252408207643?var=&hash=item3ac4b3991b:m:mGvfTt0U0zW5SyJrBfUcMaQ
p64
aVhttp://www.ebay.com/itm/2x-3D-Xmas-Silicone-Fondant-Cake-Sugarcraft-Decorating-Mould-043-/401213435411?hash=item5d6a2f2e13:g:GmAAAOSwXeJYDxZu
p65
aVhttp://www.ebay.com/itm/New-ShockProof-Silicone-TPU-Soft-Case-Cover-for-Samsung-Galaxy-S8-S8-Plus-/361957395907?var=&epid=0&hash=item5446578dc3:m:mv-iIMzIrx_V-IGBlqqyuNw
p66
aVhttp://www.ebay.com/itm/New-Pattern-Silicone-Protective-Gel-Case-Cover-For-Samsung-Galaxy-Phones-/282561598291?var=&hash=item41c9fbd353:m:mHhxI8Tnlah-rPXWgztPw0A
p67
aVhttp://www.ebay.com/itm/For-Nokia-216-New-Black-Clear-Gel-Silicone-Rubber-Phone-Case-Cover-/263053042553?var=&hash=item3d3f2ee379:m:mAtDEUlBU6UvQjc4MOP6j4A
p68
aVhttp://www.ebay.com/itm/3D-Sugarcraft-Silicone-Angel-Mould-Baking-Cake-Chocolate-Decorating-Tool-/132135630470?hash=item1ec3e5b686:g:8J8AAOSwcj5ZR1lI
p69
aVhttp://www.ebay.com/itm/Silicone-Cake-Mold-Fondant-Mould-Cake-Decorating-Baking-Tools-Peacock-Pattern-/282186404751?epid=1261534745&hash=item41b39ed38f:g:J1kAAOSwtnpXjKda
p70
aVhttp://www.ebay.com/itm/PEPPA-PIG-3D-SILICONE-MOULD-FOR-CAKE-TOPPER-CHOCOLATE-CLAY-ETC-/192027085658?hash=item2cb5b4cb5a:g:JS8AAOSw9OFZEKvD
p71
aVhttp://www.ebay.com/itm/NEW-SILICONE-SOFT-FLEXIBLE-GEL-RUBBER-SKIN-BACK-CASE-COVER-FOR-iPHONE-4-4S-UK-/222409483110?var=&epid=1264275458&hash=item33c8a36366:m:m-Fa9SuJ536aQGQzipe3LTA
p72
aVhttp://www.ebay.com/itm/Shockproof-iPhone-6s-Plus-7-Case-Clear-TPU-Silicone-Protective-Bumper-Back-Cover-/192142625816?var=&hash=item2cbc97cc18:m:mwis9bjCE71ul0a25WHer1Q
p73
aVhttp://www.ebay.com/itm/Cookingmould-Hot-Kitchen-Home-Tool-Smileface-Cooking-1-Pcs-DIY-Silicone-Eggs-/272645783976?epid=811797071&hash=item3f7af481a8:g:rO0AAOSwN6JZAFbB
p74
aVhttp://www.ebay.com/itm/2x-Baby-Themed-Silicone-Sugar-Mold-Fondant-Mould-Cake-Baking-Tool-/311823805782?hash=item489a25ad56:g:YdAAAOSw0fhXjZep
p75
aVhttp://www.ebay.com/itm/For-Vodafone-Smart-Platinum-7-New-Gel-Silicone-Phone-Case-Cover-/252542348996?var=&hash=item3accb26ec4:m:mmloMixjQMpWG4OhvR4GvFg
p76
aVhttp://www.ebay.com/itm/Wedding-Diamond-Gem-Ice-Cube-Tray-Chocolate-Fondant-Silicone-Cake-Mold-Mould-51-/322077996106?epid=1841824364&hash=item4afd58344a:g:QToAAOSw3mpXE5yp
p77
aVhttp://www.ebay.com/itm/NEW-PLAIN-BLACK-SOFT-SILICONE-GEL-RUBBER-CASE-COVER-SKIN-FOR-IPHONE-4-4S-/291281890092?epid=1587662816&hash=item43d1c0eb2c:g:IAAAAOSwPe1T5Itq
p78
aVhttp://www.ebay.com/itm/New-Pattern-Silicone-Protective-Gel-Case-Cover-For-Samsung-Galaxy-Phones-/172752809809?var=&hash=item2838deaf51:m:m96BtckZt9VDOi7I6LLP_Jw
p79
aVhttp://www.ebay.com/itm/Silicone-Baby-Shower-Shapes-Mould-Mold-Chocolate-Christening-Cake-Decorating-UK-/261655272301?hash=item3cebde9b6d:g:GmQAAOSwepJXaXV2
p80
aVhttp://www.ebay.com/itm/Strapless-Invisible-Bra-Silicone-Self-Adhesive-Stick-On-Push-Up-Gel-Bra-Backless-/112476316638?var=&hash=item1a301c63de:m:maXtwwPsysCosBo29G-mveg
p81
aVhttp://www.ebay.com/itm/3D-CINDERELLA-SILICONE-MOULD-FOR-CAKE-TOPPERS-CHOCOLATE-CLAY-ETC-/192027092328?hash=item2cb5b4e568:g:xAMAAOSw0j9ZQ-Tl
p82
aVhttp://www.ebay.com/itm/Belt-Buckle-Silicone-3D-Mould-Cooking-Fondant-Cake-Decorating-Tools-Chocolate-/252440393644?hash=item3ac69eb7ac:g:w8oAAOSwM4xXcQrQ
p83
aVhttp://www.ebay.com/itm/Silicone-Invisible-Push-Up-Strapless-Backless-Self-Adhesive-Gel-Magic-Stick-Bra-/252857917559?var=&hash=item3adf81a077:m:mw2D-e3X5QTV3u2h_ysqfpg
p84
aVhttp://www.ebay.com/itm/8-Shapes-Silicone-Cake-Decorating-Moulds-Candy-Cookies-Chocolate-Baking-Mold-/272739667275?hash=item3f808d0d4b:g:zSIAAOSwCkZZU8gr
p85
aVhttp://www.ebay.com/itm/Rubber-Silicone-Skin-Case-Cover-For-New-iPhone-5-5S-SE-Black-/381577985918?epid=2032738528&hash=item58d7d1ff7e:g:j1wAAOSwabhUVn1B
p86
aVhttp://www.ebay.com/itm/3D-VW-CAMPERVAN-SILICONE-MOULD-FOR-CAKE-TOPPERS-CHOCOLATE-CLAY-ETC-/201718191923?hash=item2ef7575733:g:2P4AAOSw9GhYdrIe
p87
aVhttp://www.ebay.com/itm/Massive-Silicone-Pastry-Cake-Decorating-Mat-Fondant-Rolling-Work-Sugarcraft-/291245751892?hash=item43cf997e54:g:9isAAOSwxH1UGnlx
p88
aVhttp://www.ebay.com/itm/3D-CHIHUAHUA-SILICONE-MOULD-FOR-CAKE-TOPPERS-CHOCOLATE-CLAY-/201725200138?hash=item2ef7c2470a:g:YKsAAOSwHsRYC2TW
p89
aVhttp://www.ebay.com/itm/Silicone-Mould-Sugarcraft-Mold-Cake-Decorating-Crafts-Icing-Sleeping-Dog-2103-/252337688119?hash=item3ac07f8e37:g:0ZUAAOxyXzxTG20Q
p90
aVhttp://www.ebay.com/itm/MASSIVE-Fondant-Pastry-Silicone-Rolling-Work-Mat-Mould-Sugarcraft-Cake-Colorful-/291245749909?hash=item43cf997695:g:9owAAOSwcaFZH6~-
p91
aVhttp://www.ebay.com/itm/Set-of-5-Dinosaur-Silicone-Moulds-Cake-Decorating-Chocolate-Sugarcraft-Fondant-/191396828154?epid=591904397&hash=item2c9023d3fa:g:SWUAAOSwhwdVUcr1
p92
aVhttp://www.ebay.com/itm/Soft-Silicone-Case-Matte-Plain-Gel-Rubber-Grip-Cover-For-Apple-iPhone-6-Plus-5-4-/221819847526?var=&epid=1155689661&hash=item33a57e4366:m:m3r5fSWsT-Kzbmx-OzayrMQ
p93
aVhttp://www.ebay.com/itm/12-Silicone-Flower-Soap-Cake-Mold-Chocolate-Jelly-Baking-Mould-Muffin-Tray-Green-/282547436010?epid=12004144725&hash=item41c923b9ea:g:zF8AAOSwTf9ZU8vI
p94
aVhttp://www.ebay.com/itm/3D-GUINEA-PIG-SILICONE-MOULD-FOR-CAKE-TOPPERS-CHOCOLATE-CLAY-ETC-/192084726768?hash=item2cb92453f0:g:-D4AAOSwFMZWsPJV
p95
aVhttp://www.ebay.com/itm/For-Nokia-3310-2017-New-Black-Gel-Silicone-Rubber-Phone-Case-Cover-/262962240666?var=&hash=item3d39c55c9a:m:mBWkZBadLawz3lGSogeDDPg
p96
aVhttp://www.ebay.com/itm/3D-Elephant-Animal-Fondant-Silicone-Mould-Icing-Cake-Decoration-Chocolate-Fimo-/262548724949?hash=item3d211f9cd5:g:tLEAAOSwqfNXmPxx
p97
aVhttp://www.ebay.com/itm/4-X-Silicone-Fondant-Cake-Chocolate-Cookie-Baking-Mould-Mold-Jelly-Baking-Tray-/272737399090?epid=14004146969&hash=item3f806a7132:g:yZAAAOSwd~RZUi4b
p98
aVhttp://www.ebay.com/itm/3D-Pearl-Beads-Silicone-Mould-Lace-Cake-Decorating-Border-Fondant-Baking-Icing-/261915346950?hash=item3cfb5f0806:g:bqgAAOSwIgNXtBa1
p99
aVhttp://www.ebay.com/itm/Jet-Black-Bumper-with-Clear-Back-Case-for-iPhone-7-Plus-Cover-Soft-Silicone-Gel-/351885909344?hash=item51ee08dd60:g:iF0AAOSw5cNYHJQR
p100
aVhttp://www.ebay.com/itm/DIY-High-Heel-Shoes-Silicone-Cake-Mould-Fondant-Baking-Mold-Sugarcraft-Decore-UK-/132133488797?epid=1162100104&hash=item1ec3c5089d:g:XeEAAOSwuxFY0MzA
p101
aVhttp://www.ebay.com/itm/4pcs-DIY-Cake-Shape-Silicone-Cake-Tray-Mould-Bake-Nonstick-Pastry-Baking-Tool-/201921591295?hash=item2f0376f7ff:g:8BwAAOSw8HBZFGGf
p102
aVhttp://www.ebay.com/itm/Silicone-Invisible-Strapless-Bra-Self-Adhesive-Stick-On-Push-Up-Gel-Backless-Bra-/382160469012?var=&hash=item58fa89fc14:m:mMKqxrLYzi6tzSQXXTeFudw
p103
aVhttp://www.ebay.com/itm/silicone-decorating-mold-mould-sugarcraft-cake-decoration-teapots-cake-3101-/351691920535?hash=item51e278d497:g:J10AAOxyUI1THJF-
p104
aVhttp://www.ebay.com/itm/Silicone-Easter-Egg-Mould-Baking-Cake-Crafts-Chocolate-Fondant-Decorating-Random-/262876021488?epid=594363415&hash=item3d34a1c2f0:g:IgAAAOSwCU1Ytt9m
p105
aVhttp://www.ebay.com/itm/For-Samsung-Galaxy-S6-S7-S8-J3-Shockproof-360-Silicone-Protective-Gel-Case-Cover-/322342880529?var=&hash=item4b0d220511:m:mdIxzpLzmLBJ4K4W_130t-A
p106
aVhttp://www.ebay.com/itm/For-Huawei-Honor-8-New-Gel-Silicone-Rubber-Phone-Case-Cover-Tempered-Glass-/252564251333?var=&hash=item3ace00a2c5:m:m5B4dLT5KzJ0gys2M9d-_SQ
p107
aVhttp://www.ebay.com/itm/Silicone-Fondant-Cake-Chocolate-Baking-Cookie-Mould-Mold-Jelly-Candy-Tray-UK-/252861682275?hash=item3adfbb1263:g:i0gAAOSww3tY7rcv
p108
aVhttp://www.ebay.com/itm/For-Vodafone-Smart-Turbo-7-New-Black-Pink-Gel-Silicone-Rubber-Phone-Case-Cover-/252565531478?var=&hash=item3ace142b56:m:mdAKPAOs07khtHuku2lvEtw
p109
aVhttp://www.ebay.com/itm/New-Lace-Silicone-Adhesive-Stick-On-Push-Up-Gel-Strapless-Invisible-Bra-Backless-/131525835215?var=&hash=item1e9f8cf9cf:m:mAxHXXMODdfmNIt2NGEERng
p110
aVhttp://www.ebay.com/itm/Silicone-Waffles-Pan-Cake-Baking-Baked-Muffin-Cake-Chocolate-Mold-Mould-Tray-Red-/252793606175?hash=item3adbac501f:g:6HMAAOSwax5YtxDF
p111
aVhttp://www.ebay.com/itm/3D-CAT-5-X-2cm-SILICONE-MOULD-FOR-CAKE-TOPPERS-CHOCOLATE-CLAY-ETC-/192027089376?hash=item2cb5b4d9e0:g:wLAAAOSwFMZWsPiw
p112
aVhttp://www.ebay.com/itm/Rubber-Silicone-Soft-Colorful-Case-Cover-For-Samsung-LG-Huawei-Apple-iPhone4-5-6-/152510647242?var=&hash=item238257cbca:m:mOpeMTh_8ZJSA7zGZ-bwlTg
p113
aVhttp://www.ebay.com/itm/2-x-Lace-Silicone-Fondant-Mould-Baking-Mold-Cake-Decorating-Sugarcraft-DIY-Tool-/222212848918?hash=item33bceafd16:g:LkAAAOSwUFtZZds9
p114
aVhttp://www.ebay.com/itm/Grass-Silicone-Mould-Fondant-Cake-Decor-Chocolate-Sugarcraft-Lace-Icing-Mold-Mat-/252504441794?hash=item3aca7003c2:g:o8oAAOSw2GlXHx-q
p115
aVhttp://www.ebay.com/itm/3x-Alphabet-Number-Letters-Silicone-Fondant-Mold-Birthday-Cake-Decorating-Tool-/400806238550?epid=1190167086&hash=item5d51e9d956:g:13cAAOSwzJ5XbiJS
p116
aVhttp://www.ebay.com/itm/6x-Shapes-Chocolate-Cake-Xmas-Jelly-Ice-Silicone-Fondant-Mold-Mould-Baking-/262722346272?epid=703727429&hash=item3d2b78dd20:g:XHAAAOSw2gxY1PAG
p117
aVhttp://www.ebay.com/itm/Lace-Silicone-Mold-Mould-Fondant-Sugar-Craft-Cake-Decoration-Baking-Tool-2PCS-/380914984638?epid=721988803&hash=item58b04d66be:g:hlUAAOSwvg9Xcrj9
p118
aVhttp://www.ebay.com/itm/3D-Xmas-Snowflake-Fondant-Cake-Chocolate-Sugarcraft-Mold-Cutter-Silicone-Tool-/252122053112?epid=1187865114&hash=item3ab3a539f8:g:UsEAAOSwdj9XTjGX
p119
aVhttp://www.ebay.com/itm/NEW-Clear-Back-Leather-Flip-Case-Silicone-Cover-Wallet-for-iPhone-6s-7-7-plus-/182424775554?var=&hash=item2a795d2b82:m:mecRcNBdAn5hYsY5aEKb8AA
p120
aVhttp://www.ebay.com/itm/Jet-Black-Case-for-New-Apple-iPhone-7-PLUS-Thin-Cover-Soft-Silicone-Gloss-Gel-/351884678993?hash=item51edf61751:g:wkIAAOSwHsRYCiOj
p121
aVhttp://www.ebay.com/itm/3-Sizes-Silicone-Pearl-String-Beads-Cake-Decorating-Edging-Fondant-Baking-Mould-/262441540295?epid=505904933&hash=item3d1abc1ac7:g:2nAAAOSwdWBXPBkP
p122
aVhttp://www.ebay.com/itm/3D-Baby-Clothes-Shower-Silicone-Mould-Fondant-Kitchen-Cake-Chocolate-Baking-Tool-/172437080264?hash=item28260d08c8:g:SVoAAOSw8w1X5O1-
p123
aVhttp://www.ebay.com/itm/Home-Sea-shell-Design-Silicone-Cake-Fondant-Chocolate-Candy-Mold-Baking-Tool-/222581517351?hash=item33d2e46c27:g:iwwAAOSwidlZaJRx
p124
aVhttp://www.ebay.com/itm/3x-Sugarcraft-Moulds-Lace-Silicone-Mold-Cake-Decorating-Tool-alphabet-number-/331378442417?epid=22004853103&hash=item4d27b1c0b1:g:sD0AAOSwepJXbdew
p125
aVhttp://www.ebay.com/itm/0-3mm-Ultra-Slim-Soft-Silicone-Case-TPU-Cover-for-Apple-iPhone-4-5-6-7-/282556902617?var=&hash=item41c9b42cd9:m:m4tUGePQoorMfrDlgnKLoHA
p126
aVhttp://www.ebay.com/itm/Silicone-Fondant-Cake-Decorating-Mould-Mold-for-Baby-Birthday-Party-shower-/290955762977?hash=item43be509d21:g:Q8QAAOSw0OBYKXfE
p127
aVhttp://www.ebay.com/itm/1-4PCS-Silicone-Cake-Topper-Mold-Chocolate-Fondant-Sugar-Mould-Biscuit-Dessert-/172619919744?var=&hash=item2830f2f180:m:mv5buEVcxc2HOny5FCfiqrg
p128
aVhttp://www.ebay.com/itm/GEORGE-PIG-3D-SILICONE-MOULD-FOR-CAKE-TOPPER-CHOCOLATE-CLAY-ETC-/201718191898?hash=item2ef757571a:g:v8oAAOSwtGlZEKzQ
p129
aVhttp://www.ebay.com/itm/Soft-Silicone-Case-Gel-Rubber-Cover-Skin-for-Samsung-Galaxy-S3-S4-S5-Mini-S6-S7-/221859902662?var=&epid=1555745530&hash=item33a7e174c6:m:mBxTKA2XrDy4R6qbbY5AVbw
p130
aVhttp://www.ebay.com/itm/2x-Strapless-Invisible-Bra-Silicone-Self-Adhesive-Stick-On-Push-Up-Gel-Backless-/132242696993?var=&hash=item1eca476b21:m:m-pIKc8ITAd2vkXSw7GOs6Q
p131
aVhttp://www.ebay.com/itm/Jet-Black-Bumper-with-Clear-Back-Case-for-iPhone-7-Thin-Cover-Soft-Silicone-Gel-/291919781964?hash=item43f7c6604c:g:ZaUAAOSwo4pYC~Ev
p132
aVhttp://www.ebay.com/itm/High-Heel-Shoe-Kit-Silicone-Fondant-Mould-Sugar-Cake-Decorating-Template-Mold-3D-/262915270143?epid=738945728&hash=item3d36f8a5ff:g:9yAAAOSwKytZGvXy
p133
aVhttp://www.ebay.com/itm/Silicone-Protective-Gel-Case-Cover-Skin-For-Samsung-Galaxy-Phones-/172754262044?var=&hash=item2838f4d81c:m:mL5Lnp9QyzRW1HnNpZtWN4g
p134
aVhttp://www.ebay.com/itm/Silicone-Mould-New-Baby-Vest-Sugarcraft-Modelling-Fimo-Cup-Cake-Pop-Chocolate-/261993495577?hash=item3d00077c19:g:KOQAAOSwd0BVwgqq
p135
aVhttp://www.ebay.com/itm/NEW-SILICONE-3-CAKE-BAKING-MOULD-SET-MUFFIN-ROUND-LOAF-NON-STICK-BLUE-RED-PURPLE-/292075481062?var=&epid=1845386434&hash=item44010e27e6:m:mSllk20NgI5vjE1HAQ2ObtQ
p136
aVhttp://www.ebay.com/itm/Luxury-Bling-Glitter-Shockproof-Soft-Silicone-Case-Cover-For-iPhone-5s-6S-7-Plus-/142383641499?var=&hash=item2126b9f39b:m:mYMQCBOeo6MWuPVgJc4Hswg
p137
aVhttp://www.ebay.com/itm/Silicone-Push-Up-Strapless-Backless-Self-Adhesive-Gel-Magic-Stick-Invisible-Bra-/152622821902?var=&hash=item238907720e:m:m5xGB-ByCHwrhxoMZ8JJ2Hw
p138
aVhttp://www.ebay.com/itm/3D-NEW-6cm-PUG-SILICONE-MOULD-FOR-CAKE-TOPPERS-CHOCOLATE-CLAY-/192030372573?hash=item2cb5e6f2dd:g:rQ8AAOSwh2xYBPyI
p139
aVhttp://www.ebay.com/itm/For-Nokia-3310-2017-New-Black-Gel-Silicone-SLine-Rubber-Phone-Case-Cover-/182604830682?var=&hash=item2a841897da:m:m5LzagJia1Joyw86EjweTvQ
p140
aVhttp://www.ebay.com/itm/High-Heel-Shoe-Fondant-Mould-Party-Cake-Decorating-Template-Silicone-Mold-DIY-/371897742622?epid=1661471540&hash=item5696d5351e:g:0QUAAOSwOgdYz7Qm
p141
aVhttp://www.ebay.com/itm/Silicone-Flower-Lace-Shaped-Mold-Mould-Fondant-Sugar-Craft-Cake-Decorating-Tools-/161448525698?epid=545939793&hash=item259714ff82:g:BxcAAOSwAHZUOYqe
p142
aVhttp://www.ebay.com/itm/4-Different-Baby-Shower-Christening-Birthday-Silicone-Mould-Mold-Cup-Cake-Topper-/261661037626?hash=item3cec36943a:g:0q0AAOSwLVZVhsQ4
p143
aVhttp://www.ebay.com/itm/5-CM-SUNFLOWER-SHAPE-SILICONE-MOLD-DIY-SOAP-CAKE-BAKING-DECORATION-FONDANT-/162398172305?hash=item25cfaf7491:g:nPYAAOSwt0FZDZB4
p144
aVhttp://www.ebay.com/itm/3D-WELLINGTON-BOOT-SILICONE-MOULD-FOR-CAKE-TOPPERS-CHOCOLATE-/192027091507?hash=item2cb5b4e233:g:EBQAAOSwv0tVC1Fj
p145
aVhttp://www.ebay.com/itm/360-Shockproof-Silicone-Full-Body-cover-Clear-TPU-Case-For-Apple-iPhone-6-/162589779360?hash=item25db1b25a0:g:rkMAAOSwkttZZ4Ri
p146
aVhttp://www.ebay.com/itm/Elegant-Chocolate-Silicone-Fondant-Lace-Sugarpaste-Mould-Cake-Ice-Mold-Baking-/272160650754?epid=1861057967&hash=item3f5e09f602:g:8awAAOSwwpdW3oFg
p147
aVhttp://www.ebay.com/itm/2PCS-Silicone-Cake-Decor-Fondant-Bakeware-Mold-FIMO-Baby-Shower-party-/222329703550?hash=item33c3e20c7e:g:IYMAAOSwImRYPT1J
p148
aVhttp://www.ebay.com/itm/PERSONALISED-CUSTOM-PRINTED-gift-Silicone-Soft-Rubber-Case-Cover-for-iPhone-/252015548468?var=&hash=item3aad4c1834:m:mQrwA8Av-pa3nj3RTfBPVAg
p149
aVhttp://www.ebay.com/itm/3D-DIY-Icing-Silicone-Mold-Mould-Lace-Shaped-Baking-Cake-Fondant-Decoration-Tool-/252826638306?hash=item3adda457e2:g:wgUAAOSwvjdZR9qE
p150
aVhttp://www.ebay.com/itm/Silicone-Fondant-Cake-Chocolate-Baking-Cookie-Seashell-Mould-Mold-Candy-Tray-UK-/282431332597?hash=item41c23820f5:g:RSsAAOSwrddY7rnR
p151
aVhttp://www.ebay.com/itm/ULTRA-SOFT-RED-SILICONE-GEL-RUBBER-SKIN-CASE-BACK-COVER-FOR-IPHONE-MODELS-/222551144574?var=&hash=item33d114f87e:m:mJrRbs5RlDzsW3J4qgH-2eQ
p152
aVhttp://www.ebay.com/itm/3D-Minions-Despicable-Me-Silicone-Mould-Fondant-Cake-Topper-Modelling-Tools-Mold-/222020392704?hash=item33b1725700:g:vjMAAOSwe7BWu1JX
p153
aVhttp://www.ebay.com/itm/4pcs-Silicone-Cake-Mold-Bake-Bakeware-Snakes-Magic-DIY-Cake-Shape-Nonstick-Tray-/152533723538?hash=item2383b7e992:g:wcAAAOSwcgNZCKS1
p154
aVhttp://www.ebay.com/itm/For-Alcatel-Pixi-4-4-5-3-5-New-Gel-Silicone-Phone-Case-Cover-Screen-Guard-/272396078014?var=&hash=item3f6c124bbe:m:mrWw_aSuKrcQ7rkTWAMWujw
p155
aVhttp://www.ebay.com/itm/DIY-TOOLS-002-SILICONE-MOULD-FOR-CAKE-TOPPERS-CHOCOLATE-CLAY-ETC-/201719466049?hash=item2ef76ac841:g:UZoAAOSwpkFY6Sof
p156
aVhttp://www.ebay.com/itm/Wedding-Diamond-Gem-Ice-Cube-Tray-Chocolate-Fondant-Silicone-Cake-Mold-Mould-/172772917001?hash=item283a117f09:g:qJkAAOSw8w1X9IwE
p157
aVhttp://www.ebay.com/itm/For-Alcatel-Shine-Lite-New-Gel-Silicone-Rubber-Black-Pink-Phone-Case-Cover-/262821161448?var=&hash=item3d315ca9e8:m:mZ50RnnWuBaOxOtGbMxajTA
p158
aVhttp://www.ebay.com/itm/3D-WINE-BOTTLE-SILICONE-MOULD-FOR-CAKE-TOPPERS-CHOCOLATE-CLAY-ETC-/192026775271?hash=item2cb5b00ee7:g:m5MAAOSwoydWnUKx
p159
aVhttp://www.ebay.com/itm/Thin-Soft-Silicone-Gel-Cover-Rubber-TPU-Case-For-Apple-iPhone-6-6S-/141820871350?epid=1488923334&hash=item21052ec2b6:g:oOIAAOSw7hRWO8lk
p160
aVhttp://www.ebay.com/itm/Silicone-Flower-Lace-Fondant-Embossed-Mold-Sugarcraft-Cake-Decorating-Mould-Tool-/191926079327?epid=1872596452&hash=item2cafaf8f5f:g:nd0AAOSwx6pYnYaU
p161
aVhttp://www.ebay.com/itm/Wedding-Mirror-Frame-Silicone-Fondant-Mould-Cake-Decorating-Sugar-Baking-Mold-/252484178710?hash=item3ac93ad316:g:epEAAOSwbsBXnyzS
p162
aVhttp://www.ebay.com/itm/New-Ultra-Slim-Clear-Crystal-Silicone-Gel-Case-Cover-For-Samsung-Galaxy-Phones-/272683470928?var=&hash=item3f7d339050:m:m-DPhEpe3NbUBJtkgI3mhsw
p163
aVhttp://www.ebay.com/itm/12-Silicone-Flower-Soap-Cake-Bread-Mold-Chocolate-Jelly-Baking-Mould-Muffin-Tray-/252794698147?epid=596237391&hash=item3adbbcf9a3:g:9isAAOSwd~RZUW4H
p164
aVhttp://www.ebay.com/itm/Silicone-Peacock-Pattern-Cake-Mold-Fondant-Mould-Cake-Decorating-Baking-Tools-UK-/262695373391?epid=1261534745&hash=item3d29dd4a4f:g:K58AAOSwImRYE6wC
p165
aVhttp://www.ebay.com/itm/3-Silicone-Fondant-Cake-Chocolate-Baking-Cookie-Mould-Mold-Jelly-Candy-Tray-UK-/262934747557?hash=item3d3821d9a5:g:AlUAAOSwU8hY7q~3
p166
aVhttp://www.ebay.com/itm/2-x-SILICONE-NON-STICK-ROUND-BAKING-CAKE-TRAY-BAKEWARE-KITCHEN-8-20cm-/222399076854?epid=542729725&hash=item33c80499f6:g:7CIAAOSw8GtZTO6Q
p167
aVhttp://www.ebay.com/itm/TYRE-THREAD-SOFT-SILICONE-BACK-RUBBER-GEL-SKIN-CASE-COVER-FOR-APPLE-IPHONE-5-5S-/171299766226?var=&epid=1663439510&hash=item27e242ffd2:m:mFMCBXYviZdVl3zk6Fc-acQ
p168
aVhttp://www.ebay.com/itm/NEW-High-heel-shoe-kit-silicone-fondant-cake-template-mold-mould-decorating-/302103217865?hash=item4656c146c9:g:Ht0AAOSwYIxX~F3b
p169
aVhttp://www.ebay.com/itm/NEW-SILICONE-CAKE-BAKING-3-SET-ROUND-LOAF-MOULD-MAT-RED-BLUE-OR-PURPLE-/292063808925?var=&epid=1845386434&hash=item44005c0d9d:m:mqF7kzT0KDFcOOqRADm_0Wg
p170
aVhttp://www.ebay.com/itm/New-With-Dust-plug-shell-Silicone-Soft-Case-Cover-For-iPhone-5s-6-7-Plus-/262937351433?var=&hash=item3d38499509:m:mF5sswYg7b45-thrJPz4LZA
p171
aVhttp://www.ebay.com/itm/Lace-Daisy-Silicone-Mold-Mould-Sugar-Craft-Cake-Fondant-Decorating-Baking-Tool-/262637232376?hash=item3d266620f8:g:IZ8AAOSwstJZVL2U
p172
aVhttp://www.ebay.com/itm/NEW-SILICONE-BABY-TEDDY-BEAR-MOULD-MOLD-SUGARCRAFT-DECORATING-CAKE-FIMO-CLAY-/311627139860?hash=item488e6ccb14:m:mOoKR6K4EkorHbO0kZgMojg
p173
aVhttp://www.ebay.com/itm/2x-3D-Silicone-Fondant-Sugar-Mold-Cake-Decorating-Baby-Shower-party-/361841483155?hash=item543f6edd93:g:qUgAAOSw44BYPT1H
p174
aVhttp://www.ebay.com/itm/For-Apple-IPod-Touch-5-Touch-6-New-Black-Gel-Silicone-Rubber-Phone-Case-Cover-/252944716417?var=&hash=item3ae4ae1281:m:mO_7tVxzPF3I_ktGIDf1hQQ
p175
aVhttp://www.ebay.com/itm/Silicone-Fondant-Cake-Chocolate-Baking-Cookie-Mould-Mold-Jelly-Candy-Tray-UK-/262934765619?hash=item3d38222033:g:mqoAAOSwpP9Y7rf1
p176
aVhttp://www.ebay.com/itm/17-Styles-Silicone-Mould-Dolls-Face-Sugarcraft-Cake-Decorating-Fondant-Mold-Set-/322509328387?epid=847668377&hash=item4b170dd003:g:NasAAOSwBt5ZEEq3
p177
aVhttp://www.ebay.com/itm/Bird-Silicone-Bakeware-Tool-Cake-Decorating-Clay-Mold-Mould-Fondant-Embossed-/311838357515?hash=item489b03b80b:g:dyEAAOSww3tY4Ksw
p178
aVhttp://www.ebay.com/itm/Soft-Plain-Silicone-Case-Gel-Rubber-Cover-for-Samsung-Galaxy-Note-3-N9005-Note-4-/321792909786?var=&epid=1066703254&hash=item4aec5a21da:m:mhx5gf1PUd7lG4PFLa2wEqA
p179
aVhttp://www.ebay.com/itm/3D-MORRIS-MINOR-TRAVELLER-SILICONE-MOULD-FOR-CAKE-TOPPERS-CHOCOLATE-ETC-/192027083174?hash=item2cb5b4c1a6:g:soIAAOSw2xRYkiBR
p180
aVhttp://www.ebay.com/itm/New-Pattern-Silicone-Protective-Gel-Case-Cover-For-Apple-iPhone-/282558590952?var=&hash=item41c9cdefe8:m:mtnVOrkKJKLj_vh9sk5gYQg
p181
aVhttp://www.ebay.com/itm/LARGE-NUMBER-ONE-1-SILICONE-BIRTHDAY-CAKE-MOULD-BAKEWARE-PAN-TIN-BAKING-MOLD-/182501391695?epid=1155925103&hash=item2a7dee3d4f:m:mEsY8IahHyb0hThk5mZLDxQ
p182
aVhttp://www.ebay.com/itm/1Pcs-Mold-Cooking-Mold-Chocolate-Waffles-Cake-Pan-4-Cavities-Silicone-Pop-Tool-/272566278420?hash=item3f76375914:g:UF4AAOSw3v5YrqYu
p183
aVhttp://www.ebay.com/itm/New-TPU-Gel-Jelly-Rubber-Silicone-Phone-Case-Cover-For-iPhone-5C-/191172152331?var=&epid=1860939992&hash=item2c82bf8c0b:m:mlrvnW1Tu1T3PXQ-o56rjkQ
p184
aVhttp://www.ebay.com/itm/Non-Stick-Round-Baking-Tray-Silicone-Mould-Oven-Bun-Cake-Bakeware-Kitchen-Pans-/322413058758?epid=542729725&hash=item4b1150dac6:g:YooAAOSwvjdZTO7V
p185
aVhttp://www.ebay.com/itm/UK-4x-Silicone-Cake-Mold-Magic-Bake-Snakes-DIY-Nonstick-Tray-Baking-Mould-Tools-/322495734839?epid=799446467&hash=item4b163e6437:g:2EcAAOSwvihZAOjL
p186
aVhttp://www.ebay.com/itm/3D-Sea-Beach-Fondant-Cake-Chocolate-Sugarcraft-Mold-Cutter-Silicone-Tool-/261921590755?epid=703720292&hash=item3cfbbe4de3:g:FysAAOSwmgJY1O7h
p187
aVhttp://www.ebay.com/itm/5Cavity-Silicone-Round-Waffles-Baking-Mould-Cake-Chocolate-Muffin-Pan-Mold-HEART-/272568810444?hash=item3f765dfbcc:g:VCIAAOSw4CFYsYYc
p188
aVhttp://www.ebay.com/itm/1Pcs-Hot-Colorful-Floral-Soft-Clear-Case-Mandala-Cover-Silicone-Henna-For-iPhone-/272636170227?var=&hash=item3f7a61cff3:m:mNeyKXNPeHJmsHH840OBLZw
p189
aVhttp://www.ebay.com/itm/Silicone-Invisible-Push-Up-Strapless-Backless-Self-Adhesive-Gel-Magic-Stick-Bra-/182568198778?var=&hash=item2a81e9a27a:m:mw2D-e3X5QTV3u2h_ysqfpg
p190
aVhttp://www.ebay.com/itm/PAIR-OF-3D-BABY-GIRL-BUTTERFLY-SHOES-SILICONE-MOULD-CAKE-TOPPERS-CHOCOLATE-ETC-/192027085653?hash=item2cb5b4cb55:g:ISYAAOSw2xRYmjrJ
p191
aVhttp://www.ebay.com/itm/Silicone-Lace-Flower-Mat-Cake-Mould-Fondant-Chocolate-Bakeware-Decorating-Tools-/172630869309?epid=1580576481&hash=item28319a053d:g:E-QAAOSwzqFY9br-
p192
aVhttp://www.ebay.com/itm/3D-Silicone-Baby-Clothes-Fondant-Mould-Birthday-Shower-Cake-Decoration-Sugar-DIY-/142439111937?epid=25002526718&hash=item212a085d01:g:4bgAAOSwu2VZYGRE
p193
aVhttp://www.ebay.com/itm/4-Pcs-Nonstick-Silicone-Cake-Mold-Magic-Bake-Snakes-Diy-Cake-Mould-Baking-Tools-/272629501708?hash=item3f79fc0f0c:g:7RcAAOSwJ4hY9Z4G
p194
aVhttp://www.ebay.com/itm/3-X-Silicone-Chocolate-Mould-Tray-Round-Icing-Craft-Cake-Jelly-Baking-Ice-/272581849540?epid=606209301&hash=item3f7724f1c4:g:kTcAAOSwB-1Yv9~J
p195
aVhttp://www.ebay.com/itm/Silicone-Mould-New-Baby-Rabbit-Toy-Sugarcraft-Cake-Decorating-Topper-Sculpey-Ice-/262022715621?hash=item3d01c558e5:g:pPAAAOSwMmBV3sW9
p196
aVhttp://www.ebay.com/itm/gel-rubber-case-cover-for-Mobile-phones-marble-effect-silicone-/262657948683?var=&hash=item3d27a23c0b:m:m_4WpaPa9n0hDW1MOKjEyug
p197
aVhttp://www.ebay.com/itm/2pcs-Snowman-Christmas-Cake-Jelly-Ice-Chocolate-Silicone-Fondant-Mold-Mould-Tray-/381854880756?hash=item58e85313f4:g:MuEAAOSw4GVYMTGV
p198
aVhttp://www.ebay.com/itm/Strapless-Bra-Invisible-Stick-Gel-Push-Up-Backless-Silicone-Adhesive-Rope-/252451211828?var=&hash=item3ac743ca34:m:m32sO4c7jT630LU7d1MBFJA
p199
aVhttp://www.ebay.com/itm/3D-Fairy-Elf-House-Door-Silicone-Fondant-Mould-Decorating-Cake-Chocolate-Mold-UK-/262417688472?var=&hash=item3d19502798:m:m4U9KeyGmqNtzTW4rn5M-YQ
p200
a.