(lp1
Vhttp://www.ebay.com/itm/7mm-Linen-Weave-Tonal-Effect-Chevron-Stripes-on-White-100-Cotton-Fabric-/201700420119?var=&hash=item2ef6482a17:m:m1VJU82ooBaxox4RqGJQ7dQ
p2
aVhttp://www.ebay.com/itm/Marvel-Comic-Fabric-Light-Grey-Tonal-100-Cotton-/172488045302?hash=item282916b2f6:g:7nAAAOSwUKxYe8wg
p3
aVhttp://www.ebay.com/itm/Max-Factor-Eye-Brightening-Tonal-Volumising-Mascara-Various-Shades-New-/122212175696?var=&epid=1805885878&hash=item1c7469cf50:m:mdMg6LBMDiAHLID_DvHkIwQ
p4
aVhttp://www.ebay.com/itm/Linea-Tonal-Texture-100-Quality-Cotton-Quilting-Patchwork-Fabric-Makower-/191783430782?var=&hash=item2ca72eea7e:m:mBN1wYM5140h4kHtLolw3mg
p5
aVhttp://www.ebay.com/itm/DC-Comics-Originals-Fabric-Tonal-Classic-Comic-Red-100-Cotton-/182638193957?hash=item2a8615ad25:g:1XUAAOSwEppUNv2g
p6
aVhttp://www.ebay.com/itm/PUMA-SUEDE-CLASSIC-TRAINERS-BLACK-BLUE-BURGUNDY-GREY-NAVY-GREEN-MORE-/132170561433?var=&epid=575296540&hash=item1ec5fab799:m:mU1_ZJ_C-q6Si31xqF934Ow
p7
aVhttp://www.ebay.com/itm/Dimples-Honeycomb-Tonal-100-Quality-Cotton-Quilting-Patchwork-Fabric-Makower-/201503467002?var=&hash=item2eea8ae5fa:m:mjNG0z4GSqjoVPAQtTYQUAw
p8
aVhttp://www.ebay.com/itm/Linea-Tonal-Fabric-The-Henley-Studio-Makower-100-cotton-material-2-colours-FQ-/182410224803?var=&hash=item2a787f24a3:m:mNT-BO5Mq2ZHorkT2jk75xg
p9
aVhttp://www.ebay.com/itm/MANCHESTER-UNITED-OFFICIAL-BASEBALL-CAP-BLACK-TONAL-SLOUCH-/362026480700?hash=item544a75b43c:g:oBUAAOSwHQ9WVGiX
p10
aVhttp://www.ebay.com/itm/MAKOWER-SPRAYTIME-FABULOUS-TONAL-FABRICS-CHOICE-OF-SHADES-100-COTTON-/131930791886?var=&hash=item1eb7b01fce:m:moldTOtlmZ3H2T43-O3ZSBw
p11
aVhttp://www.ebay.com/itm/Penguin-Mens-Pillo-Trainers-Laced-Casual-Shoes-Panelled-Tonal-Stitching-Sneakers-/351939995721?var=&epid=1293652246&hash=item51f1422849:m:mJ9vQY042T4klMF4NFIQQtQ
p12
aVhttp://www.ebay.com/itm/Plain-Two-Tonal-printed-chiffon-dress-and-scarf-fabric-58-wide-M698-Mtex-/192184001798?var=&hash=item2cbf0f2506:m:mszabxm21lsNEljQ7lrqMvQ
p13
aVhttp://www.ebay.com/itm/Natural-Floral-Tonal-Jacquard-Damask-Heavy-Upholstery-Fabric-By-NEXT-/311864248178?hash=item489c8ec772:g:51YAAOSw~y9ZDPaP
p14
aVhttp://www.ebay.com/itm/adidas-Mens-VS-Set-Canvas-Trainers-Lace-Up-Shoes-Tonal-Stitching-Casual-Textile-/391792551635?var=&hash=item5b38a7e6d3:m:mxWHwrH-xVdNF65sMTl5tOA
p15
aVhttp://www.ebay.com/itm/Puma-Womens-Suede-Classic-Tonal-Lace-Up-Trainer-Natural-Vachetta-/361929264193?var=&epid=575296243&hash=item5444aa4c41:m:mG3N2W2nN3_H0-AFa3YCYpA
p16
aVhttp://www.ebay.com/itm/Sik-Silk-SS-10775-Tonal-Bobble-Hat-Black-/172453697275?hash=item28270a96fb:g:4kEAAOSw44BYWl1y
p17
aVhttp://www.ebay.com/itm/New-Era-Black-9Fifty-Tonal-Logo-Weld-Anaheim-Mighty-Ducks-Kids-Snapback-Cap-/282504608545?epid=932229851&hash=item41c6963b21:g:FaQAAOSw-3FZME95
p18
aVhttp://www.ebay.com/itm/Makower-Linea-tonal-texture-100-patchwork-quilting-fabric-colour-choice-/282380826065?var=&hash=item41bf3575d1:m:mtD9nzF36xjDXhg9J95u9DQ
p19
aVhttp://www.ebay.com/itm/Simply-Gorjuss-fabric-Rainbow-Dreams-Celestial-Scenic-Unicorn-Horses-Santoro-QT-/182410170906?var=&hash=item2a787e521a:m:mZPAfajugtNda09Gemgk1uQ
p20
aVhttp://www.ebay.com/itm/Elegant-Ladies-Sheer-Silky-Shimmery-2-Tonal-Scarf-Wrap-Stole-Wedding-Party-Prom-/302237828092?var=&hash=item465ec743fc:m:metsRSwNqYyyifxrMbCdtaw
p21
aVhttp://www.ebay.com/itm/Airwalk-Mens-Tempo-Canvas-Lace-Up-Suede-Tonal-Stitching-Chunky-Sole-Shoes-/371795417460?var=&epid=2075733433&hash=item5690bbd974:m:m9BzsjOkOGC1aquXtmqQfSw
p22
aVhttp://www.ebay.com/itm/Fat-Quarter-Ginkgo-Tonal-Leaves-Gold-Cotton-Quilting-Fabric-Kona-Bay-/390894491461?hash=item5b03209745:g:WKUAAOSwDk5T0mj0
p23
aVhttp://www.ebay.com/itm/K-Swiss-Mens-Thelen-Trainers-Sneakers-Lace-Up-Shoes-Tonal-Stitching-Textile-/371959156424?var=&hash=item569a7e4ec8:m:mapMpv_BHRjFnCWGmOQKqvw
p24
aVhttp://www.ebay.com/itm/New-Era-9FIFTY-MLB-Tonal-Unstructured-New-York-Yankees-Snapback-Camo-/232258470895?var=&hash=item3613af03ef:m:mZQHdEYplBljKus9NpasaCQ
p25
aVhttp://www.ebay.com/itm/Derwent-Drawing-24-Tin-Soft-Tonal-Drawing-Pencils-/290433075944?epid=1708045214&hash=item439f290ae8:g:UsQAAOSwKytZICp5
p26
aVhttp://www.ebay.com/itm/INDIAN-MOROCCAN-MINI-IRON-TONAL-GLASS-LANTERN-TEA-LIGHT-HOLDER-HOME-GARDEN-/191903274637?var=&epid=1537634639&hash=item2cae53968d:m:m-F44MThsFSsrXGZzha_QPg
p27
aVhttp://www.ebay.com/itm/SONGBIRD-TONAL-in-TEAL-FABRIC-by-Studio-e-100-quilting-cotton-BIRDS-LEAVES-BLUE-/272535862910?var=&hash=item3f74673e7e:m:mg3J3WqKXrtgk15Epr2Q5bA
p28
aVhttp://www.ebay.com/itm/Hummel-Slimmer-Stadil-Tonal-Lo-Mens-Classic-Retro-Casual-Trainers-Grey-/282300885747?var=&epid=2117113623&hash=item41ba71aaf3:m:m2PmTqfI2PQN1LUEL56venA
p29
aVhttp://www.ebay.com/itm/Firetrap-Mens-Blackseal-Multi-Skull-T-Shirt-Lightweight-Pattern-Tonal-Stitching-/371810270287?var=&epid=2100666194&hash=item56919e7c4f:m:m10IFYVzSLlDaCakSXYCNVA
p30
aVhttp://www.ebay.com/itm/Penguin-Mens-Legal-Chukka-Boots-Shoes-Lace-Up-Leather-Trim-Tonal-Stitching-/391730809564?var=&hash=item5b34f9cadc:m:m9knhlZbpUqJFmYjVPWyBPg
p31
aVhttp://www.ebay.com/itm/Max-Factor-Eye-Brightening-Tonal-Volumising-Mascara-Various-Shades-New-/162599799190?var=&epid=1805885878&hash=item25dbb40996:m:m1JmiefHnkFCIQJcde4wwuA
p32
aVhttp://www.ebay.com/itm/Firetrap-Mens-Blackseal-Renaissance-T-Shirt-Lightweight-Tonal-Stitching-/371810270205?var=&epid=2100579023&hash=item56919e7bfd:m:mqf_Mgj7w5vFkUdSoZjQNjQ
p33
aVhttp://www.ebay.com/itm/Light-Gold-Womens-Paisley-Glitter-Shimmery-Tonal-Scarf-Shawl-Wrap-Pashmina-PSK-/302144542505?epid=503132652&hash=item465937d729:g:qGsAAOSwux5YMt2j
p34
aVhttp://www.ebay.com/itm/Fat-Quarter-Ginkgo-Tonal-Leaves-Scarlet-Red-Cotton-Quilting-Fabric-Kona-Bay-/331270685747?hash=item4d21458433:g:mVsAAOSwPe1T0mQ3
p35
aVhttp://www.ebay.com/itm/Grey-Floral-Tonal-Jacquard-Damask-Heavy-Upholstery-Fabric-By-NEXT-/311918797300?hash=item489fcf21f4:g:LDcAAOSw3~tZbixJ
p36
aVhttp://www.ebay.com/itm/FLORAL-VARIETY-Fat-Quarter-Bundle-craft-quilting-fabric-BLENDERS-GREY-TONAL-/272730386042?hash=item3f7fff6e7a:g:yA8AAOSw-29ZS8jP
p37
aVhttp://www.ebay.com/itm/Makower-Fabric-Linea-Tonal-Heron-Grey-100-Cotton-/172571977110?epid=628408415&hash=item282e176596:g:sxoAAOSwxEpYxPvs
p38
aVhttp://www.ebay.com/itm/Michelsons-UK-Tonal-Paisley-Tie-Pocket-Square-Set-/232089992130?var=&hash=item3609a43bc2:m:m91Skof6SHdbqJVfUUVFeaA
p39
aVhttp://www.ebay.com/itm/New-Era-NFL-Tonal-Bob-Oakland-Raiders-Bobble-Hat-Black-BNWT-/222380956111?hash=item33c6f019cf:g:TlEAAOSwnHZYfkA5
p40
aVhttp://www.ebay.com/itm/Firetrap-Mens-Giedo-Loafers-Slip-On-Shoes-Tonal-Stitching-Leather-Smart-/371959156941?var=&hash=item569a7e50cd:m:m6u_3C9hQnr_aB0BDIEy88g
p41
aVhttp://www.ebay.com/itm/Brand-New-Sew-Easy-Colour-Wheel-with-Tonal-Tone-Estimator-Guide-ER995-Free-Post-/112191253085?epid=1911737612&hash=item1a1f1eaa5d:m:m6vNkxf570wsmN4trR0tpoA
p42
aVhttp://www.ebay.com/itm/Purdey-Khaki-Green-Pure-Cashmere-Knit-Tonal-Check-Crew-Sweater-RRP-545-/112450794047?var=&hash=item1a2e96f23f:m:mhnWjolYn6h7TQb16UBvpSQ
p43
aVhttp://www.ebay.com/itm/Firetrap-Mens-Blackseal-Multi-Skull-T-Shirt-Lightweight-Pattern-Tonal-Stitching-/371810270287?var=&epid=2100666194&hash=item56919e7c4f:m:m10IFYVzSLlDaCakSXYCNVA
p44
aVhttp://www.ebay.com/itm/Artistic-Two-Tonal-Shaded-Royal-Micro-Matt-Satin-Fabric-58-M168-Mtex-/201590665565?var=&hash=item2eefbd715d:m:mS4ldXQJqimQKShYdFgRbdw
p45
aVhttp://www.ebay.com/itm/INDIAN-MOROCCAN-MINI-IRON-TONAL-GLASS-LANTERN-TEA-LIGHT-HOLDER-HOME-GARDEN-/191903274637?var=&epid=1537634639&hash=item2cae53968d:m:m-F44MThsFSsrXGZzha_QPg
p46
aVhttp://www.ebay.com/itm/Firetrap-Mens-Blackseal-Renaissance-T-Shirt-Lightweight-Tonal-Stitching-/371810270205?var=&epid=2100579023&hash=item56919e7bfd:m:mqf_Mgj7w5vFkUdSoZjQNjQ
p47
aVhttp://www.ebay.com/itm/Vivienne-Westwood-Tonal-Orb-Boxershorts-in-various-sizes-RRP-39-/292190224453?var=&hash=item4407e50045:m:mtmwg_HmN2ehAvaKPl0F7yQ
p48
aVhttp://www.ebay.com/itm/New-Era-Limited-Edition-Star-Wars-Darth-Vader-Tonal-Black-9FIFTY-Snapback-Cap-/272534369311?var=&hash=item3f7450741f:m:mVoyGjuCBX0E1vHp0F1CEjQ
p49
aVhttp://www.ebay.com/itm/LADIES-LARGE-PINK-TONAL-STRIPY-PRINT-STRIPED-SCARF-WRAP-WITH-FEATHERED-EDGE-SS17-/291996690275?hash=item43fc5be763:g:CsQAAOSwopRYdpCp
p50
aVhttp://www.ebay.com/itm/New-Era-9Fifty-MLB-Melton-Tonal-New-york-Yankees-Snapback-Cap-Grey-BNWT-/222403125546?var=&hash=item33c842612a:m:mkv5iQeYTCax-2P4wr1O9xQ
p51
aVhttp://www.ebay.com/itm/Vacation-Tonal-Scooters-Blue-Holidays-100-Patchwork-Cotton-Fabric-Makower-/401054081732?var=&hash=item5d60afa2c4:m:mwdmpqFtSvBkOc6w9lIuMjg
p52
aVhttp://www.ebay.com/itm/NEW-BALANCE-420-LADIES-WHITE-TONAL-WELD-DECONSTRUCT-TRAINERS-RRP-65-/311752477584?var=&hash=item4895e54b90:m:mNSsWmjL5xLr7HMtZzXhR2A
p53
aVhttp://www.ebay.com/itm/Mens-Under-Armour-Warm-Double-Layer-Knit-Beanie-Golf-Hat-Tonal-Black-Silver-New-/371888749697?var=&epid=1879216075&hash=item56964bfc81:m:mIkCB46bp5FJgSoJopFymMQ
p54
aVhttp://www.ebay.com/itm/Pierre-Cardin-Mens-Webbing-Belt-Shorts-Pants-Trousers-Bottoms-Tonal-Stitching-/391775528348?var=&hash=item5b37a4259c:m:mcsfQ1VEWo8VZn89ZS-IHxQ
p55
aVhttp://www.ebay.com/itm/SUPERNOVA-Black-Tonal-Signature-Paisley-Silk-Mod-Scarf-Scooter-60s-Rare-Unique-/322306797018?hash=item4b0afb6dda:g:rvoAAOSwol5YveA9
p56
aVhttp://www.ebay.com/itm/Firetrap-Mens-Blackseal-Night-City-T-Shirt-Lightweight-Ribbed-Tonal-Stitching-/351929225344?var=&epid=2100974047&hash=item51f09dd080:m:mC-72r6uRVjyT_FFhyX-vGw
p57
aVhttp://www.ebay.com/itm/883-Police-Men-Lando-Logo-Tee-Shirt-Top-Lightweight-Cotton-Print-Tonal-Stitching-/371895229270?var=&epid=689596341&hash=item5696aedb56:m:mMboyRlZkB7fwlvC-h_kctw
p58
aVhttp://www.ebay.com/itm/PATCHWORK-CRAFT-FABRIC-RILEY-BLAKE-JUST-DREAMY-100-COTTON-TONAL-RINGS-RED-/141522498419?var=&hash=item20f365f373:m:mAs_oEpf2vDGyMtvGl9Vj0Q
p59
aVhttp://www.ebay.com/itm/NEW-ERA-9FIFTY-SNAP-BACK-CAP-NFL-TONAL-WORD-DALLAS-COWBOYS-OTC-/201754441122?var=&hash=item2ef98075a2:m:mwmD5t9lvvRsNlzxdpPHFBQ
p60
aVhttp://www.ebay.com/itm/Tie-Dye-t-shirt-top-tee-music-festival-dance-gay-pride-fancy-dress-small-2XL-/302016769081?var=&hash=item46519a2c39:m:mp4-__VVyGJperyVceD8aeg
p61
aVhttp://www.ebay.com/itm/Orla-Kiely-Quite-Big-Multi-Tonal-Flower-Mug-Blue-/311803831425?epid=566507745&hash=item4898f4e481:g:~iAAAOSwax5YpXfj
p62
aVhttp://www.ebay.com/itm/RFU-Mens-England-Heritage-Long-Sleeve-Rugby-Jersey-Ribbed-Cotton-Tonal-Stitching-/371875032798?var=&hash=item56957aaede:m:mPfBTb0OpLKCy2qTOxJhyyA
p63
aVhttp://www.ebay.com/itm/Michelsons-UK-Tonal-Paisley-Ties-/331977391518?var=&hash=item4d4b64fd9e:m:mHFx9ozayHbfUrxyArPWXxw
p64
aVhttp://www.ebay.com/itm/Firetrap-Mens-Blackseal-Lightening-Bridge-T-Shirt-Lightweight-Tonal-Stitching-/371938019580?var=&epid=2100871053&hash=item56993bc8fc:m:m--BXgqYlS-umQfdCTicayg
p65
aVhttp://www.ebay.com/itm/5-11-TONAL-STARS-STRIPES-JOGGING-HIKING-MENS-COTTON-T-SHIRT-ARMY-TOP-OD-GREEN-/281319293400?var=&hash=item417fefc1d8:m:moyKOPfj_hkAZRWoeNH-k1w
p66
aVhttp://www.ebay.com/itm/FLANNEL-Brushed-Cotton-Yellow-tonal-polka-dot-spotty-fabric-Various-sizes-/122535512270?var=&hash=item1c87af88ce:m:mJbXs6y9Fj3IHi4aJpBX0ug
p67
aVhttp://www.ebay.com/itm/KANGOL-Hat-504-Flat-Cap-K3004HT-Court-Beret-Tonal-Marl-Knit-Black-Grey-S-XL-/262083811359?var=&hash=item3d0569981f:m:meNE_EOzX3dz35WJ5MgToog
p68
aVhttp://www.ebay.com/itm/HYPE-Tonal-Duffle-Bag-Black-Sports-Bag-35001-HYPE-Bags-FREE-HARIBO-/122375364370?hash=item1c7e23df12:g:VCoAAOSwXYtYtZ08
p69
aVhttp://www.ebay.com/itm/NEXT-TONAL-TREES-WALLPAPER-Roll-Brown-Mink-Batch-12-New-Sealed-/222514361542?hash=item33cee3b4c6:g:7awAAOSw5cRZHDfh
p70
aVhttp://www.ebay.com/itm/TIE-DYE-HOODY-RETRO-RAINBOW-PSYCHEDELIC-FESTIVAL-60s-SIXTIES-HEAVYWEIGHT-UNISEX-/181104999309?var=&hash=item2a2ab2fb8d:m:mi5uIYaGrcw2q2yGG-bUQUg
p71
aVhttp://www.ebay.com/itm/Brick-Lane-Bikes-Clothing-Mens-Tonal-Shield-T-Shirt-Black-NEW-Cycling-/112305491300?var=&epid=1379976405&hash=item1a25edcd64:m:miSeD37xXqxLRRB6j7yIjoA
p72
aVhttp://www.ebay.com/itm/Stussy-Tonal-Stock-Low-Cap-Green-RRP-34-99-/112331512540?var=&epid=624716710&hash=item1a277adadc:m:miDldHN3hD_16Lm0mXChGJg
p73
aVhttp://www.ebay.com/itm/NEW-MENS-ROCK-RELIGION-TONAL-LACE-UP-CASUAL-TRAINERS-SNEAKERS-SHOES-SIZE-7-11-/281867242881?var=&hash=item41a098cd81:m:mHL_hB2KkC2wrOmzSASv1GA
p74
aVhttp://www.ebay.com/itm/Tonal-Blue-Lily-Flower-with-Feather-glitter-Polka-dots-Headband-Fascinator-/111838299203?hash=item1a0a150443:g:AEAAAOSw3QpZbS5M
p75
aVhttp://www.ebay.com/itm/Remnant-Linea-Tonal-Stitch-Lines-Orange-100-Cotton-Fabric-100cm-x-110cm-R-/401274215054?hash=item5d6dce9a8e:g:BPQAAOSw3v5YnZSO
p76
aVhttp://www.ebay.com/itm/Makower-Spraytime-Beautiful-100-cotton-Fabric-Tonal-Just-8-96-per-metre-/191426282106?var=&hash=item2c91e5427a:m:mUAH_w8D2WeAH66uHmOHDVQ
p77
aVhttp://www.ebay.com/itm/Relco-Mens-Multi-Tonal-Paisley-Print-Shirt-NEW-Long-Sleeve-Mod-Retro-Vintage-60s-/272050463595?var=&epid=1954371747&hash=item3f5778a36b:m:mrW4xlXdRHHhh1POpJXgeqA
p78
aVhttp://www.ebay.com/itm/BNWT-Fred-Perry-Womens-Tonal-Gingham-Sleeve-Black-Pique-Polo-Shirt-Size-10-UK-/142435328297?hash=item2129cea129:g:IbIAAOSwXXxZW7s7
p79
aVhttp://www.ebay.com/itm/FLANNEL-Brushed-Cotton-Heather-Rose-Blue-tonal-dot-polka-Various-sizes-/122347998392?var=&hash=item1c7c824cb8:m:mbEwD9S1_Xr6OJGHBdiBy9g
p80
aVhttp://www.ebay.com/itm/Polo-Ralph-Lauren-Short-Sleeve-Slim-Fit-Oxford-Shirt-With-Tonal-Polo-Player-Navy-/282570759113?var=&hash=item41ca879bc9:m:mFEVwDSLMh8x9QXN-RjIxgA
p81
aVhttp://www.ebay.com/itm/New-Nike-SB-Tonal-Skateboarding-Mens-T-shirt-ALL-SIZES-/302136460913?var=&epid=2037835150&hash=item4658bc8671:m:mMzBRbI9bQKz6KGRaUJ_pyA
p82
aVhttp://www.ebay.com/itm/Sik-Silk-Tonal-Bobble-Hat-White-Free-Next-Day-Delivery-/232183888007?var=&hash=item360f3cf887:m:mI9u9upsmkfXRjbamkoxwGg
p83
aVhttp://www.ebay.com/itm/Fat-Quarter-100-Cotton-Christmas-Tonal-Green-spot-Riley-Blake-FQ-/121749784553?hash=item1c58da47e9:g:TKYAAOSwd0BV6Dk4
p84
aVhttp://www.ebay.com/itm/New-Era-9Fifty-Tonal-Team-Oakland-Raiders-Snapback-Cap-Heather-Black-BNWT-/222405413269?var=&epid=1077866229&hash=item33c8654995:m:m9SAecWxfMt5xh1VhYeKWQw
p85
aVhttp://www.ebay.com/itm/883-Police-Men-Sigma-Check-Shirt-Lightweight-Cotton-Tonal-Stitching-Chest-Pocket-/352046628718?var=&epid=760820869&hash=item51f79d3f6e:m:mRxCcDo6cKRwxfoqncDyacA
p86
aVhttp://www.ebay.com/itm/NEW-Tesco-Basics-Tonal-Stripe-Double-Duvet-Set-Natural-/292092501006?epid=789190740&hash=item440211dc0e:g:0JYAAOSw2kZZbjhf
p87
aVhttp://www.ebay.com/itm/Adidas-2017-Golf-Climachill-Tonal-Stripe-Polo-Mens-Performance-Golf-Polo-Shirt-/142271122356?var=&epid=714326881&hash=item2120050bb4:m:mih5bgBlZkBubq0KGlFlRQw
p88
aVhttp://www.ebay.com/itm/FLORAL-VARIETY-Fat-Quarter-Bundle-craft-quilting-fabric-BLENDER-SAGE-GREEN-TONAL-/282538369576?hash=item41c8996228:g:SoMAAOSw~XpZS8ij
p89
aVhttp://www.ebay.com/itm/Stussy-Tonal-Stock-Low-Cap-Navy-RRP-34-99-/112331511144?var=&hash=item1a277ad568:m:mcjUCSe93sPU2M0ufDFLUHQ
p90
aVhttp://www.ebay.com/itm/Tonal-Blue-Lily-Hair-Flower-Feather-Fascinator-on-slim-satin-Headband-Hair-band-/121803462186?hash=item1c5c0d562a:g:058AAOSwo4pYDpIv
p91
aVhttp://www.ebay.com/itm/Green-White-Tonal-Check-100-Cotton-Fabric-Ex-Mamas-Papas-Per-Metre-/251556057996?hash=item3a91e8d38c:g:d~wAAOSwoQ1TmDRS
p92
aVhttp://www.ebay.com/itm/Hellgold-Damen-Paisley-Glitzer-Schimmernd-Tonal-Schal-Wickel-Pashmina-PSK-/292004365585?hash=item43fcd10511:g:qGsAAOSwux5YMt2j
p93
aVhttp://www.ebay.com/itm/Bright-Neon-Tonal-Coral-Yellow-Orange-Orchid-Hair-Flowers-on-Slim-Black-Headband-/112153877552?hash=item1a1ce45c30:g:nVsAAOSwmfhX2cRB
p94
aVhttp://www.ebay.com/itm/Michelsons-of-London-Boys-Tonal-Paisley-Tie-Pocket-Square-Set-/232380081734?var=&hash=item361aeea646:m:maHHFHdcGQM-8xJBOQEdx4Q
p95
aVhttp://www.ebay.com/itm/FLORAL-VARIETY-Fat-Quarter-Bundle-craft-quilting-fabric-BLENDERS-ROSE-TONAL-PINK-/282538362530?hash=item41c89946a2:g:nzIAAOSwXXxZS8dS
p96
aVhttp://www.ebay.com/itm/Tonal-Coloured-Bead-Drop-Burn-Silver-Tone-Chandelier-Earrings-Costume-Jewellery-/131857672656?var=&hash=item1eb35469d0:m:mEOEdtQjbx1R3QQh3A71ZdQ
p97
aVhttp://www.ebay.com/itm/New-Era-9Fifty-Tonal-Team-New-York-Yankees-Snapback-Cap-Heather-Navy-BNWT-/222405437940?var=&hash=item33c865a9f4:m:m8e60y9wBvTAcexz3T8rywQ
p98
aVhttp://www.ebay.com/itm/Star-Wars-Baseball-Cap-official-Force-Awakens-BB8-Darth-Vader-kylo-ren-snapback-/301991040434?var=&epid=1867528749&hash=item46501195b2:m:mFM1v6ci7y2uBiGv5auW4fQ
p99
aVhttp://www.ebay.com/itm/Dreamin-Vintage-Pink-Pattern-DV-50023-Tonal-Melodie-Blush-FQ-Fabric-Art-Gallery-/291195050770?hash=item43cc93db12:g:FVAAAOSwd4tTys1E
p100
aVhttp://www.ebay.com/itm/Firetrap-Mens-Blackseal-Girl-Collage-T-Shirt-Lightweight-Pattern-Tonal-Stitching-/391773266762?var=&epid=2100935716&hash=item5b3781a34a:m:m6ijeCDT-Y1UJAWSc8qu9bg
p101
aVhttp://www.ebay.com/itm/MAX-FACTOR-MASCARA-EYE-BRIGHTENING-TONAL-BLACK-VOLUMISING-CHOOSE-BRAND-NEW-/192126252424?var=&hash=item2cbb9df588:m:mjaWuxbAt4GT_HZW271WD6g
p102
aVhttp://www.ebay.com/itm/Polo-Ralph-Lauren-Short-Sleeve-Slim-Fit-Oxford-Shirt-Tonal-Polo-Player-In-White-/282570761103?var=&hash=item41ca87a38f:m:mNsJYj74yMprozF71zEanAQ
p103
aVhttp://www.ebay.com/itm/New-Era-9Fifty-Tonal-Sports-Jersey-Chicago-White-Sox-Snapback-Cap-Black-BNWT-/322419287747?var=&hash=item4b11afe6c3:m:mW_PUhBoio0fo7eHkDHsvDw
p104
aVhttp://www.ebay.com/itm/MARKS-AND-SPENCER-PEACH-CREAM-TONAL-FLORAL-PRINT-MAXI-DRESS-SIZES-8-22-/231637654348?var=&hash=item35eeae1b4c:m:moeFvEvQy_bR3wvxt2rth2A
p105
aVhttp://www.ebay.com/itm/New-Era-9Fifty-Tonal-Perf-Vize-New-York-Yankees-Snapback-Cap-Black-BNWT-/322419349311?var=&hash=item4b11b0d73f:m:muzazJccjyexafQPD1tSg1w
p106
aVhttp://www.ebay.com/itm/New-Era-9FIFTY-Melton-Tonal-New-York-Yankees-Red-Strapback-Cap-/282015116231?var=&hash=item41a9692bc7:m:mp699XBJcV3XdrZqYD4vIcA
p107
aVhttp://www.ebay.com/itm/NEW-ERA-NY-SNAPBACK-POP-TONAL-NEYYAN-YEL-HEATHER-S-M-YELLOW-GREY-NY-YANKEES-/112354283045?hash=item1a28d64e25:g:L5wAAOSwSlBY3o-H
p108
aVhttp://www.ebay.com/itm/Official-Gas-Monkey-Garage-GMG-Tonal-Swirls-Tank-Top-T-Shirt-Fast-N-Loud-/222409330063?var=&hash=item33c8a10d8f:m:my3hL5MwgbozJBj0M8JXdbg
p109
aVhttp://www.ebay.com/itm/NEW-MENS-WOMENS-TONAL-SPIDER-TIE-DYE-SHORT-SLEEVE-COLOUR-T-SHIRT-SIZES-S-2XL-/311544939522?var=&hash=item4889868402:i:311544939522
p110
aVhttp://www.ebay.com/itm/Chase-Bliss-Audio-Tonal-Recall-Analog-Delay-/232345109985?epid=849619655&hash=item3618d905e1:g:PokAAOSwNsdXSCwg
p111
aVhttp://www.ebay.com/itm/Copper-Kettle-Multi-tonal-Rose-Gold-Pressed-Glitter-/302268799360?epid=718931337&hash=item46609fd980:g:VSAAAOSwB-1Y5QtA
p112
aVhttp://www.ebay.com/itm/Adidas-Originals-ClimaCool-1-UK-Sizes-5-6-Tonal-Pack-Full-Red-Latest-/272367974484?var=&hash=item3f6a657854:m:mLATIbNdrlyBDob2gsRfHRA
p113
aVhttp://www.ebay.com/itm/Los-Angeles-Lakers-34-Flat-Bill-Unisex-Baseball-Cap-Black-Tonal-Grey-/232131286488?hash=item360c1a55d8:g:pSgAAOSwA3dYGPj9
p114
aVhttp://www.ebay.com/itm/SUPERNOVA-SCARVES-Black-Tonal-Paisley-Polyester-Mod-Scarf-Scooter-Indie-Retro-/321558869097?hash=item4ade66f469:g:nC0AAOSwajVURkv0
p115
aVhttp://www.ebay.com/itm/Six-Row-Multi-6-Strand-Curb-Style-Tonal-Chain-Bracelet-Costume-Jewellery-/131857512144?var=&hash=item1eb351f6d0:m:mniPz12iKYyR20Fx_da3W3w
p116
aVhttp://www.ebay.com/itm/BENCH-Baseball-Cap-Grey-FETCH-Cotton-Hat-Structured-Tonal-Logo-Sport-Caps-BNWT-/252828691102?hash=item3addc3aa9e:g:i7UAAOSwB-1Yn29O
p117
aVhttp://www.ebay.com/itm/Mitchell-Ness-NHL-Anaheim-Mighty-Ducks-Tonal-Team-Arch-Hood-/272131975526?var=&epid=1743485523&hash=item3f5c546966:m:mZxPeqYoVsqx-4_Oti2Jy6g
p118
aVhttp://www.ebay.com/itm/DOROTHY-PERKINS-TONAL-FLORAL-PRINT-WHITE-TEE-TOP-TSHIRT-3-4-SLEEVES-Sizes-8-20-/331577614171?var=&hash=item4d3390df5b:m:mB0ZbXOJjh8v8baXRav_Qiw
p119
aVhttp://www.ebay.com/itm/Colour-Wheel-with-Tonal-Tone-Estimator-Guide-Ideal-For-Curtain-Upholstery-Fabric-/142248926587?hash=item211eb25d7b:g:a3YAAOSwA3dYfi4H
p120
aVhttp://www.ebay.com/itm/Dovecraft-A5-Multipack-Tonal-Colours-Foam-Sheets-Pack-of-8-/252560853777?var=&epid=1013507055&hash=item3acdcccb11:m:mXazkS1B68eWjdf0ByavhNg
p121
aVhttp://www.ebay.com/itm/SUPERNOVA-SCARVES-Black-Tonal-Paisley-Silk-Skinny-Mod-Scarf-Indie-Scooter-60s-/321947688931?hash=item4af593dfe3:g:V~YAAOSwfZ1WbX8I
p122
aVhttp://www.ebay.com/itm/Liquid-Gold-Multi-tonal-Metallic-Pressed-Glitter-/302268799600?epid=718938045&hash=item46609fda70:g:08wAAOSwuxFY3hOT
p123
aVhttp://www.ebay.com/itm/Pistachio-Black-Tonal-Geometric-Twist-3-4-Sleeve-Dress-Yellow-Purple-UK-8-22-/352026413775?var=&hash=item51f668cacf:m:mn0VVR7V8s-2td0wY52x7Zg
p124
a.