(lp1
Vhttp://www.ebay.com/itm/Vintage-shirt-collar-size-18-inch-UNUSED-mens-stiff-starched-separate-detachable-/401348045403?hash=item5d72352a5b:g:eoIAAOSw0j9ZQvU0
p2
aVhttp://www.ebay.com/itm/4-x-40mm-Threaded-Screw-Suction-Cup-with-Separate-M4-Nut-Suckers-for-Glass-/382026537170?hash=item58f28e58d2:g:cq4AAOSwuLZY4BC2
p3
aVhttp://www.ebay.com/itm/Vintage-semi-stiff-collar-CLIMAX-separate-shirt-collar-UNUSED-size-15-detachable-/132038555917?hash=item1ebe1c790d:g:IBIAAOSw5HJXJ1Za
p4
aVhttp://www.ebay.com/itm/ALPHABET-STENCIL-MODERN-CAPITAL-LETTERS-NUMBERS-5-Sizes-36-SEPARATE-STENCILS-/222262291908?var=&hash=item33bfdd6dc4:m:mZ6xGEzMBQZns2jo6-EgNZw
p5
aVhttp://www.ebay.com/itm/Digital-Clock-with-5-x-Separate-Alarms-Stop-Watch-Timer-Pill-Box-Reminder-Pocket-/291784603741?hash=item43efb7b85d:g:1VYAAOSwLnBXW9rE
p6
aVhttp://www.ebay.com/itm/2018-Diary-Hardback-Day-to-View-Page-a-Day-Saturday-Sunday-on-Separate-Page-/192205513898?var=&hash=item2cc05764aa:m:mteZJyAfpZ0lx07VZDhJZYQ
p7
aVhttp://www.ebay.com/itm/Mobile-Rolling-Tool-Box-Storage-With-Wheels-And-2-Separate-Units-Stanley-/322333317562?epid=2130934261&hash=item4b0c9019ba:g:uV8AAOSwImRYMBSk
p8
aVhttp://www.ebay.com/itm/Sybil-The-True-Story-of-a-Woman-Possessed-by-Sixteen-Separate-Personalities-P-/352047896001?epid=176480061&hash=item51f7b095c1:g:5yAAAOSwd0BV4tWH
p9
aVhttp://www.ebay.com/itm/Scuba-Ladies-Mix-Match-Plain-Colour-Swim-Beach-Skirt-Wrap-Cover-Up-Separates-/281962071092?var=&hash=item41a63fc434:m:mNNL1hYV7ZGKP0RnD65BJFw
p10
aVhttp://www.ebay.com/itm/Trent-Miniatures-POLISH-LEGION-ELITES-CZAPKAS-SEPARATE-HEADS-EDZ-15-/401341528959?hash=item5d71d1bb7f:g:akwAAOSws5pZNWvv
p11
aVhttp://www.ebay.com/itm/NEW-BIKINI-CORAL-TURQ-STRIPE-BLUE-DITSY-PINK-STAR-SKIRTED-sold-as-separates-/181740822520?var=&hash=item2a5098dff8:m:mAzzO_-RghP6vJ4MysR4UvA
p12
aVhttp://www.ebay.com/itm/1-43rd-scale-Dunlop-wheels-with-separate-3-ear-spinners-by-K-R-Replicas-/162525420414?hash=item25d7451b7e:g:fS8AAOSw1WJZI0hk
p13
aVhttp://www.ebay.com/itm/BIG-ALPHABET-STENCIL-LETTERS-OR-NUMBERS-140mm-HIGH-5-1-2inch-separate-stencils-/322290171076?var=&hash=item4b09fdbcc4:m:mxGeQKh3BNTJCAZNjjn2hAA
p14
aVhttp://www.ebay.com/itm/Kitchen-Curtains-Coffee-Pots-Pelmet-Sold-Separate-/391638385873?var=&hash=item5b2f7784d1:m:m-E9B9sMMHdcbfcBWot9bkw
p15
aVhttp://www.ebay.com/itm/Artists-Trio-Triple-Paint-Brush-Wash-Water-Pot-Clip-Together-Separate-/151948918072?epid=1654313072&hash=item2360dc7d38:g:ztkAAOSwZG9Wllqn
p16
aVhttp://www.ebay.com/itm/Semi-stiff-officers-shirt-collar-Vintage-1970s-Size-16-5-separate-detachable-/132169132345?var=&hash=item1ec5e4e939:m:m5Iub2pIh2EEodcwUuptQIg
p17
aVhttp://www.ebay.com/itm/FULL-SET-Separate-1-Pound-Coin-Capital-City-London-Belfast-Cardiff-Edinburgh-/112433509899?var=&hash=item1a2d8f360b:m:mw-x70Ib4q-8O2isiMVXy4Q
p18
aVhttp://www.ebay.com/itm/Mens-cork-wallet-100-vegan-slim-bi-fold-wallet-separate-card-holder-/252712721094?var=&hash=item3ad6da1ac6:m:mch0K-ERGwszgIK3s6n8PYQ
p19
aVhttp://www.ebay.com/itm/Tamiya-1-35-German-Panther-Ausf-D-Separate-Track-Link-Set-12665-/371877483141?epid=1051166292&hash=item5695a01285:g:tJsAAOSwtfhYsrWy
p20
aVhttp://www.ebay.com/itm/ROYAL-ENFIELD-MOTORCYCLE-SLIM-HARLEY-TYPE-SEPARATES-DUEL-SEATS-SEAT-BLACK-FITTIN-/222346949126?hash=item33c4e93206:g:kNIAAOSw241YUtf7&vxp=mtr
p21
aVhttp://www.ebay.com/itm/Luxury-Soft-Cow-Leather-Wallet-with-three-Separate-Money-Sections-and-Cards-Slot-/142004146825?hash=item21101b5289:g:ceYAAOSw65FXswr9
p22
aVhttp://www.ebay.com/itm/RADLEY-Womens-Blue-Leather-Trifold-Wallet-Separate-Inner-Zip-Purses-Pockets-/401292320240?hash=item5d6ee2ddf0:g:zjMAAOSwKytZDfT8
p23
aVhttp://www.ebay.com/itm/BLACK-RED-VINYL-CUSTOM-FITS-GILERA-NEXUS-125-500-SEPARATE-DUAL-SEAT-COVER-/352036052275?epid=788563835&hash=item51f6fbdd33:g:ofgAAOSwJ4hY-dmi&vxp=mtr
p24
aVhttp://www.ebay.com/itm/4-x-52mm-Threaded-Screw-Suction-Cups-with-Separate-M4-Nut-Suckers-for-Glass-/222459825273?hash=item33cba38c79:g:KeEAAOSww3tY4CbA
p25
aVhttp://www.ebay.com/itm/Jade-Green-Separates-padded-underwired-bikini-top-shorts-BNWT-11-/371847457981?var=&hash=item5693d5ecbd:m:mF-zip64Et5xImeNlCoQOFQ
p26
aVhttp://www.ebay.com/itm/Trent-Miniatures-HIGHLAND-BONNET-Feathered-Hackle-SEPARATE-HEADS-EDZ-11-/381740700103?hash=item58e184d1c7:g:GSIAAOSw0UdXtbMY
p27
aVhttp://www.ebay.com/itm/Navy-Polka-Dot-Separates-padded-underwired-bikini-top-shorts-BNWT-/371784307994?var=&hash=item569012551a:m:mFwN9MwNMs3s-U7mrZabLKg
p28
aVhttp://www.ebay.com/itm/Vintage-shirt-collar-separate-Detachable-Stiff-starched-choice-of-style-and-size-/401219406546?var=&hash=item5d6a8a4ad2:m:mCn-LIDURe4HF4mfFuBpWkA
p29
aVhttp://www.ebay.com/itm/Separate-Tables-New-DVD-/391439091598?epid=46408261&hash=item5b2396878e:g:T7UAAOSwRUhY~dat
p30
aVhttp://www.ebay.com/itm/Midnight-Blue-Separates-padded-non-padded-underwired-bikini-top-shorts-BNWT-8-/371843524019?var=&hash=item569399e5b3:m:mVa1iKcvRraOrkr_N10IH4A
p31
aVhttp://www.ebay.com/itm/Gel-Toe-Socks-Yoga-Massage-Separate-Straighten-Cushion-Comfort-Protect-Feet-/261271112838?hash=item3cd4f8cc86:g:sOwAAOSwCU1Y1PLk
p32
aVhttp://www.ebay.com/itm/SKYE-GENEVA-LILY-LINED-EYELET-CURTAINS-PANELS-BEDDING-SET-SOLD-SEPARATE-/390749813168?var=&hash=item5afa80f9b0:m:mY566QamBPKvq9a_zXM36aA
p33
aVhttp://www.ebay.com/itm/NEW-LOOK-PATTERN-Misses-Easy-Separates-PANTS-TOPS-SIZE-8-18-6403-/361995231423?hash=item544898e0bf:g:zYAAAOSwEHpZLrie
p34
aVhttp://www.ebay.com/itm/Kitchen-Curtains-Red-Poppy-includes-Tie-Backs-Pelmet-Sold-Separate-/221239539125?var=&epid=1941138987&hash=item3382e775b5:m:mwUF6_Hi1EfmEjxTAMf_KJA
p35
aVhttp://www.ebay.com/itm/Free-P-P-navy-crochet-padded-tankini-top-separates-BNWOT-Ex-Matalan-R-/371743764564?var=&hash=item568da7b054:m:meSCn-G49-sKElURqEaM2fw
p36
aVhttp://www.ebay.com/itm/Avsl-410-501-Separate-Controller-LED-Light-up-the-Night-Fun-and-Funky-Funglasses-/401236316964?hash=item5d6b8c5324:g:--AAAOSwA3dYQWp4
p37
aVhttp://www.ebay.com/itm/McDonalds-x-nanoblock-Limited-Edition-Food-Icons-Model-Full-Set-Separate-/272186857986?var=&hash=item3f5f99da02:m:mfs6J3fYGKOYLv3ayEwYtIg
p38
aVhttp://www.ebay.com/itm/Trent-Miniatures-SEPARATE-HEADS-Bare-Heads-Wargames-EDZ-08-28mm-/181752196269?hash=item2a51466cad:g:VmAAAOSweW5VXeqP
p39
aVhttp://www.ebay.com/itm/Longline-bralet-pink-floral-Separates-padded-underwired-bikini-top-BNWT-9-/371867139413?var=&hash=item5695023d55:m:mbPkZoP9YrRrFtxjange5RQ
p40
aVhttp://www.ebay.com/itm/Scuba-Ladies-Mix-Match-Plain-Colour-Swim-Shorts-Bottoms-Separates-Black-Navy-/282510882264?var=&hash=item41c6f5f5d8:m:mJsCu4uYZ_gxnzIlKGcT-rg
p41
aVhttp://www.ebay.com/itm/Navy-Jade-Coral-Print-separates-bottoms-tankini-top-padded-BNWT-10-12-14-8-/371846390445?var=&hash=item5693c5a2ad:m:m6GHa2qtx38XijKXMA08O2A
p42
aVhttp://www.ebay.com/itm/SPECIAL-MIX-CUP-AND-SAUCER-SEPARATE-TWO-COLOURS-Cobaea-scandens-16-Seeds-/222161750075?hash=item33b9df483b:g:CrIAAOSwc1FXacqz
p43
aVhttp://www.ebay.com/itm/Trent-Miniatures-SEPARATE-HEADS-Bare-Heads-Wargames-EDZ-08-28mm-/181752196269?hash=item2a51466cad:g:VmAAAOSweW5VXeqP
p44
aVhttp://www.ebay.com/itm/NEW-LOOK-SEWING-PATTERN-MISSES-SEPARATES-JACKET-SKIRT-TOP-TROUSERS-8-18-6163-/361367647622?epid=1512007725&hash=item542330b586:g:o0YAAOSwHnFV0wbl
p45
aVhttp://www.ebay.com/itm/1960s-Sewing-Pattern-RARE-Vogue-Fitted-Cloche-Hat-Separate-Bow-Size-21-5-/262697939927?epid=1117433284&hash=item3d2a0473d7:g:Z8cAAOSwkd5YFhUd
p46
aVhttp://www.ebay.com/itm/Splendour-Nero-Effetto-coppe-separate-Raso-Reggiseno-Scollatura-Profonda-36A-/252426512995?hash=item3ac5caea63:g:glYAAMXQUmFSigvL
p47
aVhttp://www.ebay.com/itm/Rita-Hayworth-Burt-Lancaster-SEPARATE-TABLES-1958-Classic-UK-DVD-/222428268537?epid=46408261&hash=item33c9c207f9:g:o34AAOSwax5Yuaav
p48
aVhttp://www.ebay.com/itm/Trent-Miniatures-SEPARATE-HEADS-Cylindrical-Bearskin-Wargames-EDZ-2-28mm-/381642860843?hash=item58dbafe92b:g:lncAAOSw71BXPvt2
p49
aVhttp://www.ebay.com/itm/Lunch-Box-Cutlery-Set-For-Work-Picnic-Office-School-3-Separate-Compartments-/162432094267?var=&hash=item25d1b5103b:m:mnu9V1SRchzbNBt7Yj7x-ug
p50
aVhttp://www.ebay.com/itm/Separate-Tables-DVD-/231674356681?epid=46408261&hash=item35f0de23c9:m:marEczoBBM-SiG9KVEGI0ng
p51
aVhttp://www.ebay.com/itm/Brazilian-Bikini-Bottom-Adjustable-Thong-String-Tie-Up-Skimpy-Tanga-Separates-/191540828173?var=&hash=item2c98b9180d:m:muqy6XZE3x4YZOnkLaOy0dw
p52
aVhttp://www.ebay.com/itm/Kitchen-Recycling-Pedal-Bin-With-3-x-11-Litre-Separate-Compartments-Vanilla-/322380743366?epid=1578461746&hash=item4b0f63c2c6:g:C0sAAOSwUKxYbjER
p53
aVhttp://www.ebay.com/itm/ALPHABET-STENCIL-ROMAN-LOWER-CASE-and-5-Sizes-36-SEPARATE-STENCILS-/222262294564?var=&hash=item33bfdd7824:m:mZG-WkYF0h9j0lwSMgwjP0A
p54
aVhttp://www.ebay.com/itm/3x-DAddario-EJ15-Phosphor-Bronze-Acoustic-Guitar-Strings-10-47-3-Separate-Packs-/230318075334?epid=1424677503&hash=item35a006edc6:g:XNMAAOSw4bVTmxX4
p55
aVhttp://www.ebay.com/itm/Black-separates-string-bikini-top-bottoms-BNWT-Tie-Side-Triangle-/252960331319?var=&hash=item3ae59c5637:m:m5eAvUcIOTiDSG4CbmtIbJQ
p56
aVhttp://www.ebay.com/itm/2-x-52mm-Threaded-Screw-Suction-Cups-with-Separate-M4-Nut-Suckers-for-Glass-/382026611506?hash=item58f28f7b32:g:eAwAAOSwdGFY4CWf
p57
aVhttp://www.ebay.com/itm/Rita-Hayworth-Burt-Lancaster-SEPARATE-TABLES-1958-Classic-UK-DVD-/222428268537?epid=46408261&hash=item33c9c207f9:g:o34AAOSwax5Yuaav
p58
aVhttp://www.ebay.com/itm/Crystal-Planet-Saturn-and-star-can-be-separate-stud-earrings-multiple-choices-/131815811205?var=&hash=item1eb0d5a885:m:mj6mgXzB2cO-_R9oY53U0Og
p59
aVhttp://www.ebay.com/itm/3-Sets-DAddario-EXL117-Electric-Guitar-Strings-Drop-D-11-56-3-SEPARATE-PACKETS-/230513053854?epid=1905102333&hash=item35aba6109e:g:d5gAAMXQNo5TcK~0
p60
aVhttp://www.ebay.com/itm/Pink-Tile-Print-Bandeau-separates-bikini-BNWT-8-10-12-14-16-18-Ex-Matalan-/371849239043?var=&hash=item5693f11a03:m:mShQSkCuq_iLu_xD4GW79GA
p61
aVhttp://www.ebay.com/itm/3-WAYS-TO-WEAR-Bandeau-separates-bikini-top-bottoms-BNWT-S-M-L-XL-/252741561987?var=&hash=item3ad8922e83:m:mkm6Gj9vV_DnMJasVPGVZlA
p62
aVhttp://www.ebay.com/itm/Makita-P-83652-Coloured-Makpac-Case-Organiser-Insert-with-Separate-Compartments-/332083582161?epid=1566476756&hash=item4d51b954d1:g:-fkAAOSwA3dYb7y0
p63
aVhttp://www.ebay.com/itm/Vertical-Lunch-Cooler-with-Three-Separate-Zippered-Compartments-Lunch-Box-/300873887518?var=&hash=item460d7b2f1e:m:mZzN4ODVr1LEvjjVmiJ-UBg
p64
aVhttp://www.ebay.com/itm/FILOFAX-RARE-Personal-UK-Road-Map-Insertsx4-Separate-Areas-8-Sides-In-Total-/162569888042?hash=item25d9eba12a:g:ljUAAOSwTZ1XoGWT
p65
aVhttp://www.ebay.com/itm/2-x-40mm-Threaded-Screw-Suction-Cups-with-Separate-M4-Nut-Suckers-for-Glass-/222459694056?hash=item33cba18be8:g:qyMAAOSwzgBY4A-t
p66
aVhttp://www.ebay.com/itm/20-x-40mm-Threaded-Screw-Suction-Cups-with-Separate-M4-Nut-Suckers-for-Glass-/382026552918?hash=item58f28e9656:g:1WcAAOSwc-tY4BNO
p67
aVhttp://www.ebay.com/itm/2-X-Hydracups-make-your-selection-dual-shakers-Separate-the-liquid-/152033209645?var=&hash=item2365e2ad2d:m:mN6L6KBoCXYTkUXteteNgtw
p68
aVhttp://www.ebay.com/itm/SPECIAL-MIX-BALL-FLOWER-SEPARATE-TWO-COLOURS-Chrysanthemum-parthenium-1000-SEEDS-/322233488048?epid=883674445&hash=item4b069cd2b0:g:GPYAAOSwZVlXtvDJ
p69
aVhttp://www.ebay.com/itm/ALPHABET-STENCIL-MODERN-LOWER-CASE-and-5-Sizes-36-SEPARATE-STENCILS-/322273927019?var=&hash=item4b0905df6b:m:mptZK930aLh_ymFIEoHdoEg
p70
aVhttp://www.ebay.com/itm/Longline-bralet-multi-print-Separates-padded-underwired-bikini-top-BNWT-/371748788686?var=&hash=item568df459ce:m:mevP1i7HoOTS6-YRwvjlaAA
p71
aVhttp://www.ebay.com/itm/Spray-Gun-Holder-Gravity-Gun-Upright-Bench-Stand-With-Separate-Strainer-Holder-/332183977471?hash=item4d57b53dff:m:mikTTK_tqruSRv549j6y0ZQ
p72
aVhttp://www.ebay.com/itm/Black-White-Contrast-Sports-separates-bikini-top-bottoms-BNWT-2-/252805041980?var=&hash=item3adc5acf3c:m:mFBwA65XZ4wmYds-_290jzw
p73
aVhttp://www.ebay.com/itm/Bright-Coral-separates-bikini-top-bottoms-BNWT-Tie-Side-Triangle-/371861291308?var=&hash=item5694a9012c:m:mV6xDjzGsFh9b0BLgU80rAw
p74
aVhttp://www.ebay.com/itm/3-WAYS-TO-WEAR-Bandeau-separates-bikini-top-bottoms-BNWT-S-M-L-XL-/252741561987?var=&hash=item3ad8922e83:m:mkm6Gj9vV_DnMJasVPGVZlA
p75
aVhttp://www.ebay.com/itm/Luxury-single-Rose-gift-box-Green-17-inch-with-separate-lid-satin-lining-ribbon-/182431441912?hash=item2a79c2e3f8:m:m_OHfMfrhJGJqkMD5ouYL5A
p76
aVhttp://www.ebay.com/itm/Snuff-Kit-and-Snorting-Set-Sniff-Bottle-and-Spoon-bottle-spoons-snuff-tube-whit-/282283299374?var=&hash=item41b965522e:m:mbW0VR7II1mz9ZL3JSFrI7A
p77
aVhttp://www.ebay.com/itm/CAFE-RACER-ENDURANCE-STYLE-STAINLESS-STEEL-EXHAUST-WITH-SEPARATE-BRACKET-/262895806665?epid=854009690&hash=item3d35cfa8c9:g:kWAAAOSwYXVYySna&vxp=mtr
p78
aVhttp://www.ebay.com/itm/LIGHT-UP-MARQUEE-LETTERS-SYMBOLS-LED-Lights-Black-Fairground-Style-Lamps-Sign-/121806623000?var=&hash=item1c5c3d9118:m:mGIOuf39FF7_3jf6yqQollA
p79
aVhttp://www.ebay.com/itm/Blue-White-Paisley-bikini-tankini-top-bottoms-separates-BNWT-10-12-14-18-20-22-/371730902930?var=&hash=item568ce36f92:m:mFsN1kSRsiPFC9fz7Ld6CsA
p80
aVhttp://www.ebay.com/itm/Mens-Brown-Herringbone-Check-3-Piece-Suit-Sold-Separate-Blazer-Trouser-Waistcoat-/222276079482?var=&epid=1587147851&hash=item33c0afcf7a:m:mPU5N72jQkmEK-HZ-xi9HYQ
p81
aVhttp://www.ebay.com/itm/LINEA-HOUSE-OF-FRASER-PURE-WOOL-NAVY-SUIT-JACKET-TROUSERS-SEPARATES-BNWOT-/391312615432?var=&hash=item5b1c0ca808:m:mzyUj-g82yiDv_Q-t2CLQUw
p82
aVhttp://www.ebay.com/itm/jade-crochet-separates-padded-tankini-top-bottoms-8-10-12-14-16-20-BNWT-3-/252517715307?var=&hash=item3acb3a8d6b:m:mf0RywjtN93pu5X-Y1kFV9g
p83
aVhttp://www.ebay.com/itm/Ladies-Scuba-Swimwear-Separates-Frilled-Tankini-Top-or-Briefs-Black-Pink-Purple-/272273148578?var=&hash=item3f64be8aa2:m:mJcANl98AqVZaLQFOV36fbg
p84
a.