(lp0
Vhttp://www.ebay.com/itm/Children-Kids-Wooden-Bead-Abacus-Counting-Maths-Educational-Numbers-Maths-Toy-/291990068753?epid=1009961261&hash=item43fbf6de11:g:N9YAAOSw-K9ZFB8Y
p1
aVhttp://www.ebay.com/itm/Childrens-27cm-Wooden-Bead-Abacus-Counting-Frame-Educational-Maths-Toy-19518-/351130190919?epid=1823201519&hash=item51c0fd8447:g:nN8AAOxyEoFSYTwR
p2
aVhttp://www.ebay.com/itm/IKEA-Mula-Toddler-Childrens-Wooden-Abacus-Learning-Maths-Counting-Toy-NEW-/222563984603?epid=676122920&hash=item33d1d8e4db:g:ucQAAOSw-3FZBhhY
p3
aVhttp://www.ebay.com/itm/Maths-game-fractions-multiplication-Abacus-1-to-1-10th-teaching-aid-for-ages-7-/201703309566?hash=item2ef67440fe:g:1PMAAOSwnbZYFbOi
p4
aVhttp://www.ebay.com/itm/Maths-game-learning-maths-teaching-times-tables-maths-multiplication-abacus-/161438680699?epid=1442454941&hash=item25967ec67b:g:23cAAOxy69JTDeuJ
p5
aVhttp://www.ebay.com/itm/Large-Wooden-Childrens-Educational-Learning-Mathematics-Abacus-Bead-Toy-/382004666386?epid=1404859257&hash=item58f140a012:g:ZY4AAMXQmUpR7Tzh
p6
aVhttp://www.ebay.com/itm/Wooden-Abacus-10-row-Colorful-Beads-Counting-Kid-Maths-Learning-educational-toy-/252903878755?hash=item3ae23ef063:g:UDUAAOSw7GRZA3zK
p7
aVhttp://www.ebay.com/itm/Lewo-Wooden-Counting-Frame-Bead-Maze-Abacus-Preschool-Children-Educational-Toys-/302205145799?hash=item465cd492c7:g:O~YAAOSw4DJYh8bw
p8
aVhttp://www.ebay.com/itm/WOODEN-ABACUS-TRADITIONAL-COLOURFUL-CHILDRENS-TOY-CLASSIC-LEARNING-COUNTING-ED-/252842865369?epid=1823201519&hash=item3ade9bf2d9:g:~gUAAOSwol5Y4m7u
p9
aVhttp://www.ebay.com/itm/2-in-1-Classic-Wooden-Bead-Abacus-Blackboard-Childs-Educational-Learning-Toy-/391523445981?epid=1489974406&hash=item5b289dacdd:g:zQsAAOSwbsBXodFP
p10
aVhttp://www.ebay.com/itm/Wooden-Childrens-Counting-Bead-Abacus-Educational-Frame-Maths-Toy-For-Kids-Gift-/252845619852?hash=item3adec5fa8c:g:hI4AAOSwSlBYvBmg
p11
aVhttp://www.ebay.com/itm/Wooden-Abacus-Melissa-Doug-/191674282794?hash=item2ca0ad732a:g:lC8AAOSwpDdVEAnv
p12
aVhttp://www.ebay.com/itm/Japanese-Calculator-Soroban-17-Digit-Abacus-For-Office-Visual-Math-Aid-Learning-/222418127994?epid=1376184233&hash=item33c9274c7a:g:K8AAAOSwtfhYra~J
p13
aVhttp://www.ebay.com/itm/WOODEN-TIMES-TABLE-MULTIPLICATION-MATHEMATICAL-ABACUS-EDUCATIONAL-TOY-SCHOOL-AID-/251727337803?epid=1305627233&hash=item3a9c1e594b:g:OyIAAOSwuMFUb4eX
p14
aVhttp://www.ebay.com/itm/10-row-Wooden-Abacus-Colorful-Beads-Counting-Kid-Maths-Learning-educational-toy-/272718492484?hash=item3f7f49f344:g:UDUAAOSw7GRZA3zK
p15
aVhttp://www.ebay.com/itm/Wooden-Abacus-Educational-Toys-and-Games-/112477682969?hash=item1a30313d19:g:tasAAOSwWdZZZL8i
p16
aVhttp://www.ebay.com/itm/TININNA-Colorful-Beads-Wooden-Wood-Abacus-Desk-Soroban-Childs-Mathematics-Toy-/132135530236?hash=item1ec3e42efc:g:rA8AAOSw2gxY031l
p17
aVhttp://www.ebay.com/itm/HANDMADE-WOODEN-TRADITIONAL-EDUCATIONAL-TOY-CHINESE-ABACUS-BRAND-NEW-FREE-POST-/161513991969?hash=item259afbef21:g:RVYAAOSwg3FUhh3m
p18
aVhttp://www.ebay.com/itm/2-in-1-Classic-Wooden-Bead-Abacus-Blackboard-Childs-Educational-Learning-Toy-/331927448808?epid=1489974406&hash=item4d486aece8:g:U~EAAOSw3xJXoeK1
p19
aVhttp://www.ebay.com/itm/15-Digits-Plastic-Abacus-Arithmetic-Soroban-School-Maths-Kids-Calculating-Tool-/252989202553?hash=item3ae754e079:g:HhEAAOSwzqFY9VZa
p20
aVhttp://www.ebay.com/itm/Wooden-Wood-Childrens-Counting-Abacus-Counting-Educational-Frame-Maths-Toy-19518-/161901133079?epid=1524060691&hash=item25b20f3d17:g:CRYAAOSwlY1ZGD-k
p21
aVhttp://www.ebay.com/itm/Nexus-Teacher-Abacus-100-Beads-String-Numeracy-Tens-Units-/152138227829?epid=1674591055&hash=item236c252075:g:vyYAAOSwjXRXaQj9
p22
aVhttp://www.ebay.com/itm/ABACUS-COLOURED-BEAD-EDUCATION-TOY-MATHS-BOY-GIRL-GIFT-TRADITIONAL-WOODEN-FUN-/371175622988?epid=1823201519&hash=item566bca894c:g:5IQAAOSw~1FUW~7J
p23
aVhttp://www.ebay.com/itm/Lelin-Childrens-Kids-Wood-Wooden-2-in-1-Abacus-Rocket-Learning-Number-Abacus-/351595348283?hash=item51dcb7413b:g:~ikAAOSwsW9Y3RxY
p24
aVhttp://www.ebay.com/itm/Tobar-Wooden-Abacus-Brain-Activity-Toy-Improve-Math-Skills-/262914864973?hash=item3d36f2774d:g:sl8AAOSwax5Y26T0
p25
aVhttp://www.ebay.com/itm/New-Wooden-Children-Toy-Bead-Abacus-Counting-Number-Frame-Educational-Maths-/252918896317?epid=1191224190&hash=item3ae32416bd:g:S7sAAOSwax5YvBmf
p26
aVhttp://www.ebay.com/itm/CLOCK-AND-COUNT-EDUCATIONAL-WOODEN-TOY-ABACUS-BEADS-BRIGHTLY-COLOURED-/120885214110?hash=item1c2551fb9e:m:mKxCvKL1qpAXrMa7-hk64pQ
p27
aVhttp://www.ebay.com/itm/Jegro-Counting-Beads-Abacus-Teaching-Aid-would-make-great-Home-Decoration-/182348429876?hash=item2a74d03a34:g:FKUAAOSwtnpXpfE4
p28
aVhttp://www.ebay.com/itm/HTI-Woodworks-Abacus-and-Chalkboard-Traditionally-Crafted-18-Months-/171756359489?epid=1237815471&hash=item27fd7a0f41:g:VJYAAOSwcwhVL5aZ
p29
aVhttp://www.ebay.com/itm/1-Set-Baby-Educational-Digital-Matching-Plate-Math-Teaching-Abacus-Sensory-Toys-/172279500136?epid=879767977&hash=item281ca88d68:g:6vEAAOSwARZXjyAt
p30
aVhttp://www.ebay.com/itm/Plastic-Abacus-17-Digits-Arithmetic-Soroban-School-Maths-Kids-Calculating-Tool-/252968361854?epid=1695528892&hash=item3ae616df7e:g:cmoAAOSwv-NWVB5K
p31
aVhttp://www.ebay.com/itm/Wooden-Abacus-Kids-Child-Learning-Shapes-Numbers-Numeracy-Educational-Toy-NEW-/162405149449?epid=1161884132&hash=item25d019eb09:g:iNsAAOxy3zNSfLn2
p32
aVhttp://www.ebay.com/itm/WEONE-Mini-Plastic-Office-15-Digits-Column-Abacus-Soroban-Arithmetic-Calculating-/162268177596?hash=item25c7efe4bc:g:vOQAAOSwA3dYG46E
p33
aVhttp://www.ebay.com/itm/Legler-Abacus-10-Rows-Educational-Toy-/161922756356?epid=1404859257&hash=item25b3592f04:g:dzAAAOSwQYZW1XSP
p34
aVhttp://www.ebay.com/itm/Geek-Love-Abacus-Books-Paperback-Dunn-Katherine-9780349100869-/361947816557?epid=91479839&hash=item5445c5626d:g:2bsAAOSw3ydV4tug
p35
aVhttp://www.ebay.com/itm/Wooden-Bead-Abacus-Educational-Childrens-Toy-New-play-game-learning-Gift-/271997165479?hash=item3f544b5fa7:g:eO0AAOSwo3pWescL
p36
aVhttp://www.ebay.com/itm/Wooden-Bead-Abacus-Educational-Childrens-Toy-New-play-game-learning-Gift-/162010370585?hash=item25b8921219:g:vf0AAOSws4JW62yh
p37
aVhttp://www.ebay.com/itm/Wonderland-Avenue-Tales-of-Glamour-and-Excess-Abacus-Books-Pa-9780349101750-/361983507151?epid=86674891&hash=item5447e5facf:g:hqcAAOSw~gRV4tfD
p38
aVhttp://www.ebay.com/itm/New-Childrens-Kids-Wooden-Bead-Abacus-Counting-Maths-Educational-Numbers-Toy-/192019362313?epid=1356572741&hash=item2cb53ef209:g:EikAAOSwMVdYHdE9
p39
aVhttp://www.ebay.com/itm/New-Wooden-Abacus-Chalkboard-Counting-Frame-Education-Children-Wood-Maths-Toy-/181267055443?epid=1407777253&hash=item2a345bc353:g:0QUAAOSwFNZWuhiB
p40
aVhttp://www.ebay.com/itm/Abacus-Year-1-Workbook-1-by-Ruth-Merttens-9781408278239-Paperback-2013-/302099490480?epid=207611365&hash=item46568866b0:g:h0UAAOSw8w1X9~yU
p41
aVhttp://www.ebay.com/itm/Wonderland-Avenue-Tales-of-Glamour-and-Excess-Abacus-Books-/381543421004?epid=86674891&hash=item58d5c2944c:g:4s8AAOSwYHxWOqeC
p42
aVhttp://www.ebay.com/itm/Wooden-Abacus-Melissa-Doug-Counting-Beads-Kids-And-Frame-New-Toy-Colours-Teach-/282391415159?hash=item41bfd70977:g:FvgAAOSwhQhYw-qC
p43
aVhttp://www.ebay.com/itm/Wooden-Activity-Cube-Toy-Small-Play-Centre-Childrens-Learning-Bead-Maze-Abacus-/263052407429?epid=1373157194&hash=item3d3f253285:g:7y8AAOSw6YtZTOLY
p44
aVhttp://www.ebay.com/itm/High-Quality-Silver-Abacus-Cufflinks-/262944104486?hash=item3d38b0a026:g:OiMAAOSw2xRYWVaE
p45
aVhttp://www.ebay.com/itm/Geek-Love-Abacus-Books-Katherine-Dunn-Paperback-Book-9780349100869-NEW-/132157920725?epid=91479839&hash=item1ec539d5d5:g:zn8AAOSwc49Y71Be
p46
aVhttp://www.ebay.com/itm/Abacus-Year-3-Textbook-1-by-Ruth-Merttens-9781408278475-Paperback-2013-/302378138737?epid=207622235&hash=item4667243c71:g:IO8AAOSw2iNZYeeZ
p47
aVhttp://www.ebay.com/itm/500mm-w-x-1100mm-h-Abacus-Chrome-Designer-Heated-Towel-Rail-Radiator-1564BTU-/231853760022?hash=item35fb8f9e16:g:8rsAAOSwjk9ZU2cT
p48
aVhttp://www.ebay.com/itm/Lewo-Wooden-Counting-Frame-Bead-Maze-Abacus-Preschool-Children-Educational-Toys-/172633033708?hash=item2831bb0bec:g:8ncAAOSwE0JY94XV
p49
aVhttp://www.ebay.com/itm/2-in-1-Large-Wooden-Double-Sided-Abacus-Alphabet-Number-Frame-Learning-Toy-/391699919112?epid=554108092&hash=item5b33227108:g:-3oAAOSwdGFYnGkn
p50
aVhttp://www.ebay.com/itm/Retro-Wooden-Toy-Alphabet-Stand-Abacus-Children-Counting-Clock-Educational-/172000937769?epid=1726334089&hash=item280c0e0729:g:GnkAAOSwlV9WSgxh
p51
aVhttp://www.ebay.com/itm/3x2mm-Electroplated-glass-crystal-faceted-Rondelle-Abacus-beads-16inch-strand-/302258644988?var=&hash=item466004e7fc:m:mVm0CBEjIPWLFOCmylOoQqg
p52
aVhttp://www.ebay.com/itm/10mm-x-8mm-CRYSTAL-ABACUS-RONDELLE-BEADS-Mixed-Colour-Box-FREE-POSTAGE-/381973439971?hash=item58ef6425e3:g:r2UAAOSwWxNYqtCF
p53
aVhttp://www.ebay.com/itm/3x2mm-glass-crystal-faceted-Rondelle-Abacus-beads-15-inch-strand-200-beads-/292063235631?var=&hash=item4400534e2f:m:mhRdHWcbNs6GlN2ncccIXbQ
p54
aVhttp://www.ebay.com/itm/Viga-Frog-Wooden-Wall-Toy-Abacus-FREE-DELIVERY-/122455307723?hash=item1c82e7b5cb:g:ZFMAAOSwE0JY-hOH
p55
aVhttp://www.ebay.com/itm/Abacus-Year-2-Workbook-2-by-Ruth-Merttens-9781408278451-Paperback-2013-/302336113888?epid=213314309&hash=item4664a2fce0:g:LSoAAOSwsXFZMDrr
p56
aVhttp://www.ebay.com/itm/CRE0951-Creative-School-Abacus-II-/192041088242?hash=item2cb68a74f2:g:WDQAAOSw32lY05Te
p57
aVhttp://www.ebay.com/itm/White-Glass-Beads-Round-Abacus-Square-Faceted-Abacus-4mm-6mm-8mm-10mm-BOX120-/191789877663?var=&hash=item2ca791499f:m:mSpwzb8-y09VLN7qHb5UzMw
p58
aVhttp://www.ebay.com/itm/Abacus-Year-1-Workbook-2-by-Ruth-Merttens-9781408278420-Paperback-2013-/311714419195?epid=213363588&hash=item4893a091fb:g:IfAAAOSwmLlX-ASL
p59
aVhttp://www.ebay.com/itm/Good-Nowhere-City-The-Abacus-Books-Lurie-Alison-Book-/222456708118?epid=1205398926&hash=item33cb73fc16:g:-uQAAOSwtfhYpWpR
p60
aVhttp://www.ebay.com/itm/Number-Stacker-Rope-Abacus-Wooden-Toys-by-Bajo-/360757102475?hash=item53fecc878b:g:AGYAAOxyu~lSToP3
p61
aVhttp://www.ebay.com/itm/Melissa-Doug-Add-And-Subtract-Abacus-/122190206889?hash=item1c731a97a9:g:hM4AAOSwNRdYB7ln
p62
aVhttp://www.ebay.com/itm/Metal-Abacus-math-Cufflinks-Engraved-Chrome-Case-Personalised-/221918627097?epid=1588909574&hash=item33ab618519:g:onsAAOSwAYtWJkDV
p63
aVhttp://www.ebay.com/itm/JUST-GEMSTONES-PERIDOT-ABACUS-BEAD-FRIENDSHIP-BRACELET-Adjustable-/232380050129?hash=item361aee2ad1:g:lkYAAOSw4shX47lW
p64
aVhttp://www.ebay.com/itm/Orla-Kiely-Bone-China-Mug-Red-Abacus-Design-White-china-tea-or-coffee-cup-/371236754982?epid=1722863709&hash=item566f6f5626:g:mwAAAMXQUmFSg65p
p65
aVhttp://www.ebay.com/itm/Wooden-Kids-Child-Learning-Numbers-Maths-Symbol-Counting-Sticks-Abacus-Box-/151159982381?var=&hash=item2331d6492d:m:m__b6d1W6NY8C52dtBP1ZbA
p66
aVhttp://www.ebay.com/itm/Abacus-Donut-Spacer-Beads-7mm-SP065-FREE-POSTAGE-/381992869141?hash=item58f08c9d15:g:GgAAAOSw~AVYvVM9
p67
aVhttp://www.ebay.com/itm/Melissa-Doug-Wooden-Abacus-/121590755962?hash=item1c4f5fb27a:g:3-cAAOSwmrlUzq82
p68
a.