(lp1
Vhttp://www.ebay.com/itm/PARANORMAL-EGYPT-3-DVD-BOX-SET-WITH-DEREK-ACORAH-TESS-DUNLOP-/401068819119?epid=177403364&hash=item5d619082af:g:TesAAOSwe7BWucT1
p2
aVhttp://www.ebay.com/itm/Tess-DVD-Bluray-NEW-/401219863895?epid=168217953&hash=item5d6a914557:g:QBsAAOSwnbZYHHvy
p3
aVhttp://www.ebay.com/itm/Tess-of-the-DUrbervilles-DVD-/272041387073?epid=70385902&hash=item3f56ee2441:g:OBIAAOSwo0JWQQ7W
p4
aVhttp://www.ebay.com/itm/Tess-of-the-Durbevilles-Thomas-Hardy-promo-DVD-FREE-UK-POST-/111870936365?hash=item1a0c07052d:g:nVEAAOSwVupTnwOz
p5
aVhttp://www.ebay.com/itm/Nastassja-Kinski-TESS-OF-THE-DURBERVILLES-1979-Polanski-Thomas-Hardy-UK-DVD-/362034559540?epid=63610114&hash=item544af0fa34:g:W~IAAOSwqVBZY7QK
p6
aVhttp://www.ebay.com/itm/Tess-DVD-amp-Blu-ray-1979-NEW-/122088918652?epid=168217953&hash=item1c6d110e7c:g:In0AAOSw8d5ZWfP0
p7
aVhttp://www.ebay.com/itm/Tess-Nastassja-Kinski-Roman-Polanski-Region-2-UK-compatible-New-/281332992004?epid=30049446&hash=item4180c0c804:g:s-oAAMXQDnpTcRdb
p8
aVhttp://www.ebay.com/itm/Tess-DVD-Blu-ray-1979-5035673011492-Nastassia-Kinski-Roman-Polanski-/361651511811?epid=168217953&hash=item54341c2203:g:F-MAAOSwdzVXjgyg
p9
aVhttp://www.ebay.com/itm/TESS-DVD-Roman-Polanski-Film-starring-Nastassja-Kinski-RARE-UK-RELEASE-/282287282414?epid=30049446&hash=item41b9a218ee:g:lOYAAOSwPgxVOVy2
p10
aVhttp://www.ebay.com/itm/CRITERION-COLLECTION-TESS-1979-BLU-RAY-Region-A-Sealed-/162104806480?hash=item25be330c50:g:zY0AAOSwARZXihyQ
p11
aVhttp://www.ebay.com/itm/Tess-Re-Issue-DVD-NEW-/302080232509?epid=1885382365&hash=item4655628c3d:g:xXAAAOSwzaJX4MLs
p12
aVhttp://www.ebay.com/itm/CRITERION-COLLECTION-TESS-2PC-DVD-Region-1-Sealed-/162380459325?hash=item25cea12d3d:g:6CcAAOSwjDZYkuxj
p13
aVhttp://www.ebay.com/itm/Guarding-Tess-DVD-2002-NEW-and-SEALED-/142246871231?epid=3944680&hash=item211e9300bf:m:m4cKZRe2cj2UK-EV8KqE0Ag
p14
aVhttp://www.ebay.com/itm/Tess-of-the-Storm-Country-DVD-Mary-Pickford-Lloyd-Hughes-Romantic-Drama-1922-/232345626165?hash=item3618e0e635:g:a-gAAOSwn-tZI1Jc
p15
aVhttp://www.ebay.com/itm/New-PIP-STUDIO-Tess-Melee-Sleeveless-Vest-Top-Grey-Size-L-B60-/262957726307?hash=item3d39807a63:g:5roAAOSwtGlZA30a
p16
aVhttp://www.ebay.com/itm/Tess-Harper-AMITYVILLE-II-2-THE-POSSESSION-1981-Cult-Horror-Sequel-UK-DVD-/231580738981?epid=113736645&hash=item35eb49a5a5:g:S6gAAOSwnF9Y7O9m
p17
aVhttp://www.ebay.com/itm/New-PIP-STUDIO-Tess-Melee-Sleeveless-Vest-Top-Pink-Size-M-B60-/391768691451?hash=item5b373bd2fb:g:UXoAAOSwX61ZA3hJ
p18
aVhttp://www.ebay.com/itm/Tess-Harper-AMITYVILLE-III-3-1983-Cult-Horror-Sequel-UK-DVD-/361453558993?epid=3942973&hash=item54284f9cd1:g:kkcAAOSwdGFYqyio
p19
aVhttp://www.ebay.com/itm/Tess-of-the-DUrbervilles-2008-DVD-/322403461264?epid=70385902&hash=item4b10be6890:g:q0AAAOSwopRYinaM
p20
aVhttp://www.ebay.com/itm/Justine-Waddell-TESS-OF-THE-DURBERVILLES-1998-Thomas-Hardy-ITV-Drama-UK-DVD-/222228696962?epid=59537440&hash=item33bddccf82:g:etcAAOSwMtxXvfSV
p21
aVhttp://www.ebay.com/itm/TESS-OF-THE-DURBERVILLES-Thomas-Hardys-Justine-Waddell-and-Jason-Flemyng-DVD-/361179015997?hash=item5417f26b3d:g:cbIAAOSwxYxUrskt
p22
aVhttp://www.ebay.com/itm/A-Summer-to-Remember-DVD-Region-2-James-Farentino-Tess-Harper-Bridgette-Anders-/201258425167?hash=item2edbefdb4f:g:FL8AAOSwa-dWoP3N
p23
aVhttp://www.ebay.com/itm/Tess-Harper-Glynnis-OConnor-DEATH-IN-SMALL-DOSES-1993-True-Life-Drama-UK-DVD-/222021393792?hash=item33b1819d80:g:YoYAAOSw241YmxkN
p24
aVhttp://www.ebay.com/itm/Ninja-Resurrection-The-Revenge-Of-Jubei-And-Hells-Spawn-DVD-Region-Free-Tess-/201258427241?hash=item2edbefe369:g:kUQAAOSwqrtWoP3W
p25
aVhttp://www.ebay.com/itm/Tess-Harper-AMITYVILLE-II-2-THE-POSSESSION-1981-Cult-Horror-Sequel-UK-DVD-/222316059591?epid=113736645&hash=item33c311dbc7:g:9IQAAOSwA3dYK3~G
p26
aVhttp://www.ebay.com/itm/Guarding-Tess-DVD-1995-Shirley-MacLaine-Nicolas-Cage-Richard-Griffiths-/272232301360?epid=3944680&hash=item3f624f4330:g:SZ8AAOSwubRXKVUs
p27
aVhttp://www.ebay.com/itm/GreenGate-Floral-Side-Plate-in-Tess-White-/182538951812?epid=788576738&hash=item2a802b5c84:g:XDwAAOSwN6JY-doc
p28
aVhttp://www.ebay.com/itm/HEAVENLY-FEET-TESS-LADIES-SANDALS-FLIPFLOPS-SZIE-3-4-5-6-7-8-NEW-SUMMER-WALKING-/332163007800?var=&hash=item4d56754538:m:moP9o-i7eAagoRilCJ26ngw
p29
aVhttp://www.ebay.com/itm/Adidas-Originals-Mens-California-Retro-Essentials-Crew-Neck-Short-Sleeve-T-Shirt-/142373188995?var=&hash=item21261a7583:m:mlwvIUvtu1ASOPybSOWp0Zg
p30
aVhttp://www.ebay.com/itm/Choose-a-British-Period-Drama-Classic-Promo-DVD-from-the-drop-down-menu-/262155693252?var=&hash=item3d09b26cc4:m:miRT7npVIPzlmRsRqacfReA
p31
aVhttp://www.ebay.com/itm/GreenGate-DK-Floral-Tea-Cup-in-Tess-White-/182588354456?epid=906743375&hash=item2a831d2f98:g:7acAAOSwIQdZJDMM
p32
aVhttp://www.ebay.com/itm/NEW-CLARKS-CUSHION-SOFT-ENFIELD-TESS-BLACK-LEATHER-ANKLE-BOOTS-SIZE-6-/282499097607?hash=item41c6422407:g:3E0AAOSw3gJZLBNw
p33
aVhttp://www.ebay.com/itm/Tess-Harper-AMITYVILLE-II-2-THE-POSSESSION-1981-Cult-Horror-Sequel-UK-DVD-/361063681417?epid=113736645&hash=item5411128d89:g:KbwAAOSwN6JY-LL8
p34
aVhttp://www.ebay.com/itm/NEW-CLARKS-CUSHION-SOFT-ENFIELD-TESS-BLACK-LEATHER-ANKLE-BOOTS-SIZE-7-/272692108913?hash=item3f7db75e71:g:3E0AAOSw3gJZLBNw
p35
aVhttp://www.ebay.com/itm/Comfort-Plus-TESS-Ladies-Women-Formal-Wide-E-Fit-Slingback-Satin-Shoes-Nude-/263012977265?var=&epid=928749929&hash=item3d3ccb8a71:m:meq0reJNcBjjR2F__82DMVQ
p36
aVhttp://www.ebay.com/itm/The-Mephisto-Club-Tess-Gerritsen-/330624716677?epid=105898298&hash=item4cfac4cf85:g:rzMAAOSwZQxW3BcF
p37
aVhttp://www.ebay.com/itm/Comfort-Plus-TESS-Ladies-Womens-Formal-Wide-E-Fit-Slingback-Satin-Shoes-Black-/371968061369?var=&epid=928736885&hash=item569b062fb9:m:mQ6_YUL_YyBBuXx1GwIo_PQ
p38
aVhttp://www.ebay.com/itm/Cialo-Tess-Gerritsen-polish-book-/181337192472?epid=1024707589&hash=item2a3889f818:g:qagAAOxyGwNTEMYy
p39
aVhttp://www.ebay.com/itm/Comfort-Plus-TESS-Ladies-Women-Formal-Party-Wide-E-Fit-Slingback-Satin-Shoes-/263012986375?var=&epid=928738143&hash=item3d3ccbae07:m:mcqxkFR_T274pofntItYnjw
p40
aVhttp://www.ebay.com/itm/NEW-BOXED-ANAIS-APPAREL-TESS-OPEN-PANTY-BRIEF-BLACK-UK-SMALL-BNWT-/401319317697?hash=item5d707ed0c1:g:x1AAAOSw7U5Y9idq
p41
aVhttp://www.ebay.com/itm/GreenGate-DK-Tess-White-Napkin-with-Lace-/182529157147?epid=753132389&hash=item2a7f95e81b:g:WfsAAOSw03lY78od
p42
aVhttp://www.ebay.com/itm/The-Blender-Girl-Smoothies-Paperback-Tess-Masters-9781607748939-/361637214400?epid=212982629&hash=item543341f8c0:g:NpMAAOSwT6pVrPi~
p43
aVhttp://www.ebay.com/itm/The-Bone-Garden-by-Tess-Gerritsen-Paperback-Book-9780553818369-NEW-/361913510316?epid=91513206&hash=item5443b9e9ac:g:2UsAAOSwmgJY4dwR
p44
aVhttp://www.ebay.com/itm/Buffalo-Tess-Ladies-Black-Burgundy-Waterproof-Textile-Motorcycle-Jacket-NEW-/361557309814?var=&hash=item542e7eb976:m:mFS4hIL2QIPFb_POLZIMfOw&vxp=mtr
p45
aVhttp://www.ebay.com/itm/Opaque-Tights-Choose-From-25-Fashionable-Colours-40-Denier-Sizes-S-XL-by-Tess-/380758390182?var=&epid=1473176578&hash=item58a6f7f5a6:m:mYoPz3G6MsZd7JM_OCMpU4Q
p46
aVhttp://www.ebay.com/itm/Nosiciel-Tess-Gerritsen-polish-book-polska-ksiazka-/171254752059?epid=1924726659&hash=item27df94233b:g:mcUAAOxyni9TEMad
p47
aVhttp://www.ebay.com/itm/Tess-Simple-Contrast-Panel-Design-Tote-Bag-With-Kukubird-Dustbag-/272299652292?var=&epid=1176411389&hash=item3f6652f4c4:m:m6KxSnp1wAihgW_CFNoV3gQ
p48
aVhttp://www.ebay.com/itm/Beat-The-Bitch-BRAND-NEW-BOOK-by-Tess-Stimson-Paperback-2010-/262829785374?epid=92727483&hash=item3d31e0411e:g:tU0AAOSwLEtYjzUL
p49
aVhttp://www.ebay.com/itm/Fashionable-Patterned-Tights-Tess-VICKY-20-Denier-/171356920410?var=&epid=1471839012&hash=item27e5ab1a5a:m:mHULGazDlevdUbhrZpqcYXA
p50
aVhttp://www.ebay.com/itm/The-Magic-of-Trees-Tess-Whitehurst-/132172222231?epid=233710836&hash=item1ec6140f17:g:1KoAAOSwvbdZATCM
p51
aVhttp://www.ebay.com/itm/Tess-of-the-dUrbervilles-Wordsworth-Classics-Thomas-Hardy-/381941160161?epid=90928340&hash=item58ed7798e1:g:QigAAOSw9GhYjCCO
p52
aVhttp://www.ebay.com/itm/NASTASSJA-KINSKI-AS-TESS-DURBEYFIELD-FROM-TE-8X10-PHOTO-/200532642599?hash=item2eb0ad4b27:g:m~UAAOxy0QBSRYn6
p53
aVhttp://www.ebay.com/itm/Good-Mr-Benns-Little-Book-of-Life-Read-Tess-McKee-David-Book-/222455893306?epid=89408636&hash=item33cb678d3a:g:dL8AAOSw5cNYiRnP
p54
aVhttp://www.ebay.com/itm/TESS-TAYLOR-11-PHOTO-PRINT-11A-/131354347994?var=&hash=item1e955449da:m:mo4QYJ7wh2hGvuPVJEwBfVA
p55
aVhttp://www.ebay.com/itm/Handful-Of-Flour-Lister-Tess-9781472233370-/351782017253?epid=221690754&hash=item51e7d798e5:g:OcgAAOSwZ1BXdMYu
p56
aVhttp://www.ebay.com/itm/Visconti-Ladies-Soft-Leather-Messenger-Bag-Large-Cross-Body-Shoulder-TESS-L-753-/120969491728?var=&epid=1840894067&hash=item1c2a57f510:m:mAhkqrM7s7xUft0-ns_jwIQ
p57
aVhttp://www.ebay.com/itm/BRAND-NEW-TESS-GERRITSEN-THE-BONE-GARDEN-UNABRIDGED-AUDIOBOOK-10-X-CD-/152524817057?epid=111668629&hash=item23833002a1:m:mobA9hFv9ek7e5NMexQFCbQ
p58
aVhttp://www.ebay.com/itm/Autopsja-Tess-Gerritsen-polish-book-/171254749110?epid=1424717964&hash=item27df9417b6:g:pjwAAOxyGwNTEMYJ
p59
aVhttp://www.ebay.com/itm/TESS-OF-THE-DURBERVILLES-He-Jumped-up-From-His-Seat-Antique-Print-1891-/351427517498?hash=item51d2b65c3a:g:RpMAAOSwCZ5Vf1Ub
p60
aVhttp://www.ebay.com/itm/GreenGate-DK-Tumbler-Water-Glass-in-Tess-White-/172690802373?hash=item28352c86c5:g:x3UAAOSw~y9ZJDfx
p61
aVhttp://www.ebay.com/itm/Last-to-Die-by-Tess-Gerritsen-New-Paperback-Book-/291848690098?epid=156645310&hash=item43f38999b2:m:md_Iym-GwAtMqEbYKYTFZog
p62
a.