(lp1
Vhttp://www.ebay.com/itm/New-Era-Kids-Essential-9FIFTY-Star-Wars-Stormtrooper-Cap-Black-One-Size-Youth-/172659878205?epid=840701887&hash=item283354a93d:g:Og4AAOSwhvFZC0yD
p2
aVhttp://www.ebay.com/itm/New-Era-Kids-Essential-9FIFTY-Star-Wars-Darth-Vader-Cap-Graphite-One-Size-Youth-/182560294665?epid=854534954&hash=item2a81710709:g:-uIAAOSwCQZZC0dq
p3
aVhttp://www.ebay.com/itm/Nike-Air-Max-1-GS-Boys-Girls-Big-Kids-Youth-Leather-Mesh-Casual-Lace-Up-Trainers-/191755517087?var=&epid=1343465680&hash=item2ca584fc9f:m:m2PAIaIqnJiOpFpW3aEN_8w
p4
aVhttp://www.ebay.com/itm/Dr-Martens-Youth-Goldie-Patent-Leather-T-Bar-Shoe-Black-/362000919144?var=&epid=1079924876&hash=item5448efaa68:m:mX-0nq9-AcUESsT_TTg52pw
p5
aVhttp://www.ebay.com/itm/Boys-Monk-Shoes-Boys-Black-Shoes-Boys-Brown-Shoes-Boys-Dress-Shoe-Prom-Shoes-/371066588545?var=&hash=item56654acd81:m:mcoAtUf0pXMI8AO0LeS24Ww
p6
aVhttp://www.ebay.com/itm/Boys-Black-Shoes-Boys-Brown-Shoes-Prom-Shoes-Page-Boys-Shoes-Formal-Shoes-/331210087430?var=&hash=item4d1da8dc06:m:mpC4Nk93kI9R3iRYRJ3PRpw
p7
aVhttp://www.ebay.com/itm/New-Balance-Classics-Lifestyle-Youths-Trainers-/371583166914?var=&hash=item56841529c2:m:mz_df0_4Ovw3K124GE2TPVQ
p8
aVhttp://www.ebay.com/itm/Boys-Black-Shoes-Boys-Formal-Shoes-Boys-Wedding-Shoes-Page-Boy-Shoes-/350842395124?var=&hash=item51afd619f4:m:mSYZc3FAeoAaaHd7J1zJcPw
p9
aVhttp://www.ebay.com/itm/Converse-Chuck-Taylor-All-Star-Canvas-Youth-Trainers-/191780394443?var=&epid=1642319553&hash=item2ca70095cb:m:mfkDqGaUT91jaEva6K7kfHA
p10
aVhttp://www.ebay.com/itm/Reef-Kids-Sandals-Grom-Rover-Youth-Flip-Flop-Grey-Blue-Boys-/232316653449?var=&hash=item361726cf89:m:ms0L97nZFBp_8FCKP6dKotQ
p11
aVhttp://www.ebay.com/itm/KIDS-Chicago-Bulls-9Forty-Baseball-Cap-Adjustable-Fastening-Child-Youth-Black-/292148616483?var=&epid=782049279&hash=item44056a1d23:m:mEHIuc0_GNTaUPTxzQDdPsw
p12
aVhttp://www.ebay.com/itm/Nike-Free-Run-2-GS-Youth-Trainers-/191732054252?var=&epid=1243349888&hash=item2ca41ef8ec:m:mjbm16woaU-djGdsIHzmV5w
p13
aVhttp://www.ebay.com/itm/Converse-Kids-Youth-C-T-A-S-OX-Lo-Trainers-new-in-UK-Size-10-11-12-13-1-2-/192091564342?var=&hash=item2cb98ca936:m:mMf8jc8jbITBR7fCT31qRgQ
p14
aVhttp://www.ebay.com/itm/Santa-Monica-Polo-Club-Boys-Youth-Trainers-Lace-up-Sports-Kids-Shoes-Footwear-/282360804697?var=&epid=562866454&hash=item41be03f559:m:myoGpd-I1lq0FjEWB7UkdgQ
p15
aVhttp://www.ebay.com/itm/Boys-Black-Patent-Shoes-Boys-Formal-Shoes-Boys-Wedding-Shoes-Page-Boy-Shoes-/370862517717?var=&hash=item565920edd5:m:mHJohZNpR01HHwY4Pni8JgQ
p16
aVhttp://www.ebay.com/itm/Nike-Classic-Youth-Metal-Swoosh-Embroided-Logo-Baseball-Cap-Black-Blue-White-/182221722657?var=&epid=1279479710&hash=item2a6d42d421:m:miwI_Surwy9cnfDq5IAfrSA
p17
aVhttp://www.ebay.com/itm/Girls-Ivory-Shoes-Communion-Shoes-Prom-Shoes-Flower-Girl-Shoes-Kids-Shoes-/351158621253?var=&hash=item51c2af5445:m:m-AeRxco7CSzYUwQpJAMUog
p18
aVhttp://www.ebay.com/itm/New-Balance-574-Classics-Traditionnels-Leather-Youth-Trainers-/371528889654?var=&hash=item5680d8f536:m:mWUFetVbtvD_0nGFrZpJusg
p19
aVhttp://www.ebay.com/itm/Trespass-Childrens-Girls-Effie-Snow-Boots-/272566093076?var=&hash=item3f76348514:m:mcCnYD84cSoLPifi6BBDAFg
p20
aVhttp://www.ebay.com/itm/Santa-Monica-Polo-Club-Boys-Youth-Trainers-Lace-up-Sports-Footwear-Kids-Shoes-/361904546852?var=&epid=562864299&hash=item5443312424:m:myoGpd-I1lq0FjEWB7UkdgQ
p21
aVhttp://www.ebay.com/itm/New-Balance-Classic-Traditional-Suede-Textile-Youth-Boys-Girls-Casual-Trainers-/371527250757?var=&hash=item5680bff345:m:mz9ZsQWFC1RMsOFq4r5ZNBQ
p22
aVhttp://www.ebay.com/itm/Nike-Presto-Junior-Youth-Older-Kids-Shoes-in-Black-Grey-/162419384623?var=&epid=1680231747&hash=item25d0f3212f:m:mOhEqAZpla-wOaT43EMcBXQ
p23
aVhttp://www.ebay.com/itm/Vans-Sk8-Hi-Zip-Youth-Imperial-Blue-Trainers-/182574206937?var=&hash=item2a82454fd9:m:mSyDqtUoW65q-XOGWfA1w4Q
p24
aVhttp://www.ebay.com/itm/Trespass-Kids-Unisex-Kukun-Pull-On-Winter-Snow-Boots-/272692077301?var=&epid=1565220344&hash=item3f7db6e2f5:m:mzZx7bH0BCDOK0l0Pz77SMw
p25
aVhttp://www.ebay.com/itm/Boys-Tan-Shoes-Boys-Brogues-Tan-Shoes-Boys-Formal-Shoes-Suede-Shoes-/331881252384?var=&hash=item4d45aa0620:m:mLp4stBjEAKCSt74jv1vsEw
p26
aVhttp://www.ebay.com/itm/Nike-Roshe-Run-Youth-Trainers-/191741591858?var=&epid=1740889372&hash=item2ca4b08132:m:mW3__twMOsqUDzOtMQLi2Qg
p27
aVhttp://www.ebay.com/itm/Converse-Kids-Youth-C-T-A-S-Ox-Trainers-new-in-Box-UK-Size-10-11-12-13-1-2-/172499356837?var=&hash=item2829c34ca5:m:mZMSS8OFnTJSYWjhsuBbwXQ
p28
aVhttp://www.ebay.com/itm/Boys-Dress-Shoes-Boys-Jazz-Shoes-Boys-Black-White-Shoes-Bugsy-Malone-Shoes-/351750471350?var=&hash=item51e5f63eb6:m:ml0tSFOeIx0U8TvShHoRdhQ
p29
aVhttp://www.ebay.com/itm/Vans-Youth-Skate-Shoes-Atwood-Canvas-Airplane-Camo-Boys-Kids-/371930213038?var=&epid=1475987126&hash=item5698c4aaae:m:mQW94eZoah-d5YuXx9iCYXA
p30
aVhttp://www.ebay.com/itm/Girls-White-Shoes-Communion-Shoes-Prom-Shoes-Flower-Girl-Shoes-Kids-Shoes-/370705474517?var=&hash=item564fc4a3d5:m:mn-AzoB-hEAYFYA97_kSysw
p31
aVhttp://www.ebay.com/itm/Adidas-Originals-Stan-Smith-Youth-White-Green-Leather-Trainers-/262876247335?var=&epid=1762228309&hash=item3d34a53527:m:mRxG7qyq3BlRZ3BiFCvsjwA
p32
aVhttp://www.ebay.com/itm/DC-Court-Graphic-Vulc-Youth-Trainer-Size-13-New-And-Boxed-Childrens-/182381247209?hash=item2a76c4fae9:g:W-cAAOSwFe5Xy~Fw
p33
aVhttp://www.ebay.com/itm/Nike-Youth-MD-Runner-2-Textile-Trainers-/192133241645?var=&epid=1948916612&hash=item2cbc089b2d:m:mHUdWqkycKSt-5P8SjdhuLg
p34
aVhttp://www.ebay.com/itm/Youth-Nike-Blazer-Mid-Low-Classic-Suede-Trainers-Girls-Size-/262774851654?var=&epid=580523828&hash=item3d2e9a0846:m:mk_8X5url65FDmHBHOTTHnQ
p35
aVhttp://www.ebay.com/itm/DC-Court-Graphic-Vulc-Youth-Trainer-Size-12-New-And-Boxed-Childrens-/182381262757?hash=item2a76c537a5:g:65UAAOSwo4pYlhvB
p36
aVhttp://www.ebay.com/itm/KIDS-YOUTH-ALLOY-05-REACTOR-MOTOCROSS-MX-BIKE-JERSEY-shirt-XL-9-12-YRS-quad-bmx-/360543162378?var=&hash=item53f20c100a:m:mixawoZJVjLcpg9n67A9f5g&vxp=mtr
p37
aVhttp://www.ebay.com/itm/Kids-Youth-LED-Light-Roller-Skates-Wheel-Shoes-Unisex-Adult-Girls-Boys-Sneakers-/182571105748?var=&hash=item2a8215fdd4:m:mqDF1SaqfGzjBliI7tiXYAg
p38
aVhttp://www.ebay.com/itm/Paisley-of-London-Boys-Shoes-Boys-Oxfords-Shoes-for-Boys-Infant-8-Youth-6-/332043599454?var=&hash=item4d4f573e5e:m:mOKFU8Zc2wFr4rF-fr5Ob8A
p39
aVhttp://www.ebay.com/itm/Puma-Youth-Suede-Junior-Suede-Trainers-Size-UK-3-6-/371581127325?var=&epid=1862655943&hash=item5683f60a9d:m:mK_aYmRoZrET1h6JlaMd46w
p40
aVhttp://www.ebay.com/itm/adidas-Originals-Kids-Rare-Stan-Smith-Trainers-Shoes-White-Navy-Sneakers-Youth-/162213515759?var=&hash=item25c4add1ef:m:mrMHHvKXYP1n0skqGcOytHA
p41
aVhttp://www.ebay.com/itm/DC-Court-Graphic-Vulc-Youth-Trainer-Size-1-New-And-Boxed-Childrens-/182381249134?hash=item2a76c5026e:g:W-cAAOSwFe5Xy~Fw
p42
aVhttp://www.ebay.com/itm/Adidas-Originals-Stan-Smith-Youth-White-Iridescent-Leather-Trainers-/262876934363?var=&hash=item3d34afb0db:m:mc5sOSwLVN-oaJaNJHxFlvQ
p43
aVhttp://www.ebay.com/itm/KIDS-QUIKSILVER-SHOES-YOUTH-LITTLE-AREA-2-WHITE-childs-boys-skate-bmx-trainers-/232045662544?var=&hash=item3606ffd150:m:mkv32uXWET0KXcs7vOFSeow
p44
aVhttp://www.ebay.com/itm/Adidas-Originals-Superstar-Youth-White-Bold-Pink-Leather-Trainers-/252794093974?var=&epid=1740815567&hash=item3adbb3c196:m:mDSZlAYTnySTG3eKcLe_YRA
p45
aVhttp://www.ebay.com/itm/Vans-Atwood-Youth-Black-Textile-Trainers-/252793750783?var=&epid=1355710305&hash=item3adbae84ff:m:mWt-DeOQlALCdnTkPDlkrBw
p46
aVhttp://www.ebay.com/itm/DC-Court-Graphic-Vulc-Youth-Trainer-Size-2-New-And-Boxed-Childrens-/182381245214?hash=item2a76c4f31e:g:~AsAAOSwTglYlh0~
p47
aVhttp://www.ebay.com/itm/Nike-Son-of-Force-Leather-Youth-Trainers-/371583119530?var=&epid=1945335790&hash=item56841470aa:m:mWK6zrgKbbQqMw834OzPoiw
p48
aVhttp://www.ebay.com/itm/Adidas-Originals-Superstar-Youth-White-Blue-Red-Leather-Trainers-/252849755907?var=&epid=736716572&hash=item3adf051703:m:m68GgKbOT8vLhM5uNamAwOA
p49
aVhttp://www.ebay.com/itm/Adidas-Originals-Superstar-Youth-White-Blue-Red-Leather-Trainers-/252849755907?var=&epid=736716572&hash=item3adf051703:m:m68GgKbOT8vLhM5uNamAwOA
p50
aVhttp://www.ebay.com/itm/Patrick-Kids-Power-X-Childrens-Rugby-Boots-Boys-Sports-New-Youth-Shoes-Junior-/391023205722?var=&epid=1441953933&hash=item5b0acc9d5a:m:mZbcQ6GM5AqKTJYVyKmsfOQ
p51
aVhttp://www.ebay.com/itm/Custom-Crystal-Diamante-Bling-Hi-Pink-Converse-UK-10-11-12-13-1-2-Junior-Youth-/162423098480?var=&hash=item25d12bcc70:m:m0uXnS1m3mjzoby5L4O1SoQ
p52
aVhttp://www.ebay.com/itm/Nike-Youths-Childs-Jordan-6-Retro-GP-Running-Basketball-Lightweight-/291843432022?var=&hash=item43f3395e56:m:mYevHIX9bpapp3LaxfHFw1A
p53
aVhttp://www.ebay.com/itm/New-Balance-574-Classics-Traditionnels-Youth-Trainers-/311522739804?var=&hash=item488833c65c:m:m219ZijQZVapHfC6rk--krw
p54
aVhttp://www.ebay.com/itm/Adidas-Superstar-Foundation-Footwear-White-Collegiate-Navy-Youth-Shoes-/192189777105?var=&epid=887889022&hash=item2cbf6744d1:m:mdL74qn23CW7SD7Q-NIB48g
p55
aVhttp://www.ebay.com/itm/Nike-Tanjun-Black-Youth-Trainers-/311800287527?var=&epid=2092519717&hash=item4898bed127:m:m3QRpFoKSQq9e-TQ9JtfK8g
p56
aVhttp://www.ebay.com/itm/ONE-INDUSTRIES-YOUTH-ATOM-RAGLAN-MOTOCROSS-MX-BIKE-JERSEY-shirt-quad-bmx-mtb-/361727973577?var=&hash=item5438aad8c9:m:msqv5LI7KwJ0B7kUOO86MuA&vxp=mtr
p57
aVhttp://www.ebay.com/itm/Nike-Presto-Junior-Youth-Older-Kids-Unisex-Shoes-in-Cool-Grey-White-/152563536518?var=&epid=684198515&hash=item23857ed286:m:m_i3CkBZassrLM_INDIEuqQ
p58
aVhttp://www.ebay.com/itm/DC-Court-Graphic-Vulc-Youth-Trainer-Size-11-New-And-Boxed-Childrens-/182381249975?hash=item2a76c505b7:g:2kcAAOSw241Ylhst
p59
aVhttp://www.ebay.com/itm/Dr-Martens-Everley-Youth-Black-Leather-Derby-Shoes-/262876913669?var=&hash=item3d34af6005:m:mBBt-EoIwP1cOosK7hLQEZQ
p60
aVhttp://www.ebay.com/itm/Timberland-Woodman-Boys-Youth-School-Shoes-/351936828889?var=&epid=1740948767&hash=item51f111d5d9:m:mhBBY5POsqfdaqide5HQ--g
p61
aVhttp://www.ebay.com/itm/NEW-NIKE-AIR-JORDAN-CAP-HAT-ELEPHANT-RED-BLACK-JUMPMAN-YOUTH-BULLS-23-SNAPBACK-/332229733085?hash=item4d5a6f6add:g:9OAAAOSwa~BYUnCU
p62
aVhttp://www.ebay.com/itm/Boys-Grey-Brogues-Boys-Grey-Shoes-Boys-Suede-Shoes-Formal-Shoes-/351758676490?var=&hash=item51e673720a:m:mauALAKBy9GKCjIhwBIPETw
p63
aVhttp://www.ebay.com/itm/Adidas-Originals-Stan-Smith-Youth-White-Blue-Leather-Trainers-/252793303435?var=&epid=702726907&hash=item3adba7b18b:m:mowyoLW6IztegNc9Cm00u0Q
p64
aVhttp://www.ebay.com/itm/Vans-Baxter-Youth-Skate-Shoes-Sketch-Check-Black-Orange-/371625539871?var=&epid=1678031875&hash=item56869bb91f:m:m029IlMTNTG0YoHDddRMbbg
p65
aVhttp://www.ebay.com/itm/VANS-ATWOOD-V-YOUTH-JUNIOR-GIRLS-BOYS-BLACK-BLACK-TRAINER-SKATE-SCHOOL-SHOE-/182496974601?var=&hash=item2a7daad709:m:mpWlsDgNby-3-a1xTcdv7xA
p66
aVhttp://www.ebay.com/itm/Nike-Air-Max-90-Leather-Youth-Trainers-/371926558249?var=&epid=1642305121&hash=item56988ce629:m:mW4z7MTTv19I-1ymHOko5nA
p67
aVhttp://www.ebay.com/itm/NEW-KIDS-YOUTH-INFANTS-CANVAS-TRAINERS-COMFORTABLE-PLIMSOLE-PUMPS-UK-SIZE-6-5-/321385937067?var=&hash=item4ad41838ab:m:mFKjVM9PmZOkswAfK1GS0SQ
p68
aVhttp://www.ebay.com/itm/adidas-ZX-FLUX-K-Junior-Trainers-Ortholite-Orange-Black-Shoes-M19388-Kids-Youth-/182290672894?var=&hash=item2a715eecfe:m:m8nWXDwXEs-ANs1QrX_1f3Q
p69
aVhttp://www.ebay.com/itm/Trespass-Childrens-Kids-Trumpet-Welly-Wellington-Boots-/272563910208?var=&hash=item3f76133640:m:mFu7u41Uo7Z4Ac1XiVM7yyw
p70
aVhttp://www.ebay.com/itm/Vans-Milton-Youth-Skate-Shoes-New-2012-Black-Blue-White-Kids-Boys-Junior-Trainer-/230932071282?var=&epid=1456603745&hash=item35c49fc372:m:mIK9VgvgtySdJSkDu17kyZg
p71
aVhttp://www.ebay.com/itm/Youth-Boys-Kids-Kickers-Kick-Lo-Black-Leather-Lace-Up-School-Shoes-Size-/331982565440?var=&epid=1741587813&hash=item4d4bb3f040:m:mZphzOF-RISSuxG1z73Gy9Q
p72
aVhttp://www.ebay.com/itm/New-Balance-574-Classic-Traditionnels-Blue-Youth-Trainers-/311573769520?var=&hash=item488b3e6d30:m:mlOHlvtVleX1ratZBjru7lg
p73
aVhttp://www.ebay.com/itm/New-Balance-KL-574-Classics-Traditionnels-Black-White-Youth-Trainers-/191833536583?var=&hash=item2caa2b7847:m:mUuYS_LzurY29t6gDUb4AgQ
p74
aVhttp://www.ebay.com/itm/Joules-Youth-Navy-Blue-Floral-Wellington-Boots-Kids-Rubber-Shoes-/262887640470?var=&epid=1389475657&hash=item3d35530d96:m:m_qoKaPS05pMcdFb2kIxiEw
p75
aVhttp://www.ebay.com/itm/Puma-Classic-Youth-Trainers-/371489286158?var=&epid=1343316260&hash=item567e7ca80e:m:mUZBY1-iNuiSOroxuln6STQ
p76
aVhttp://www.ebay.com/itm/FOX-AIR-SPACE-CAUZ-YOUTH-GOGGLES-WHITE-BLACK-RED-CLEAR-LENSE-MOTOCROSS-MX-/252722868526?hash=item3ad774f12e:g:troAAOSw2xRYeMDH&vxp=mtr
p77
aVhttp://www.ebay.com/itm/DC-Court-Graphic-Vulc-Youth-Trainer-Size-10-New-And-Boxed-Childrens-/182381248103?hash=item2a76c4fe67:g:AqoAAOSwo4pYlhxu
p78
aVhttp://www.ebay.com/itm/Kickers-T-Brouge-Youth-for-Girls-School-Shoes-1-13428-All-UK-Sizes-/271946574776?var=&hash=item3f51476bb8:m:mjfdI6bc4ebJ1Wdz-mqSf_g
p79
aVhttp://www.ebay.com/itm/Boys-Kids-Kickers-Reasan-Strap-Leather-Youth-Black-School-Shoes-Sz-Size-/401134851066?var=&epid=1373293584&hash=item5d658013fa:m:m3ajp4p0RjC1l5k8O6Pro0Q
p80
aVhttp://www.ebay.com/itm/Converse-Kids-Youth-C-T-A-S-Ox-Trainers-new-in-Box-UK-Size-10-11-12-13-1-2-/172318334055?var=&hash=item281ef91c67:m:mgCc0RNPOqDNfW-J6lA2TmQ
p81
a.