(lp0
Vhttp://www.ebay.com/itm/Liberon-Gilt-Cream-Trianon-30ml-Retouch-Damaged-Gilding-or-Gild-New-Surface-/391557572822?epid=1312667662&hash=item5b2aa668d6:g:UZ4AAOSw9IpX1UzL
p1
aVhttp://www.ebay.com/itm/Dior-Trianon-Make-Up-Palette-Eyeshadow-Eyeliner-Blusher-Set-Favorite-001-/351359772342?epid=1325242381&hash=item51ceaca6b6:g:y7UAAOSwjVVV00YC
p2
aVhttp://www.ebay.com/itm/Trianon-Salad-Bowl-18cm-/182634931511?epid=1226260570&hash=item2a85e3e537:g:txwAAOSwceNZTYbU
p3
aVhttp://www.ebay.com/itm/LIBERON-GILT-CREAM-30ml-TO-RESTORE-OR-NEW-DECORATIVE-GILDING-6-COLOURS-/222057784750?var=&epid=1312667662&hash=item33b3ace5ae:m:mJAW8QFJHalTrKau6SWfZRQ
p4
aVhttp://www.ebay.com/itm/Rasch-Trianon-Wallpaper-515466-Paste-the-Wall-Plain-Linear-Light-Green-/222040447284?hash=item33b2a45934:g:IsUAAOSwhlZYsdS4
p5
a.