(lp1
Vhttp://www.ebay.com/itm/PORTABLE-ELECTRIC-BEVERAGE-DRINK-COOLER-WARM-COOL-BOX-12V-RV-CAMPING-BOAT-CAR-/311641494241?hash=item488f47d2e1:g:GP0AAOSwo4pYWVFd
p2
aVhttp://www.ebay.com/itm/ELECTRIC-MINI-TRAVEL-FRIDGE-COOLER-TABLETOP-CAMPING-RV-BOAT-COOL-WARM-BOX-12V-/232300221477?hash=item36162c1425:g:q0MAAOSw3utY7feK
p3
aVhttp://www.ebay.com/itm/NEW-ELECTRIC-MINI-FRIDGE-CHILLER-TABLE-TOP-WARM-COOL-BOX-RV-CAMPER-BOAT-12V-/231676595034?hash=item35f1004b5a:g:Q9sAAOSwu4BV6coe
p4
aVhttp://www.ebay.com/itm/Portable-Electric-Food-Drink-Cooler-by-Klarstein-Mini-Warm-Cool-Box-12v-Rv-Car-/221908666647?hash=item33aac98917:g:KIIAAOSwEzxYY76a
p5
aVhttp://www.ebay.com/itm/Portable-Mini-Electric-Cooler-by-Klarstein-Chiller-Warm-Cool-Box-Camping-/231715286994?hash=item35f34eafd2:g:WRwAAOSwJ7RYWVH4
p6
aVhttp://www.ebay.com/itm/BUDWEISER-BIRRA-USA-Man-Cave-Auto-Bar-Pub-Taverna-Decorazione-Muro-/262768868127?hash=item3d2e3ebb1f:g:QDsAAOSwaB5Xlpwk
p7
aVhttp://www.ebay.com/itm/Portable-Mini-Taverna-Cooler-4L-By-Klarstein-12v-Car-Motorhome-Cool-Box-Silver-/222163271027?hash=item33b9f67d73:g:RDEAAOSwA3dYWVIL
p8
aVhttp://www.ebay.com/itm/Royal-Doulton-Taverna-Pattern-Expressions-Range-Side-Bread-Size-Plates-16cm-VGC-/131680430921?hash=item1ea8c3eb49:g:PV0AAOSwJcZWdX~r
p9
aVhttp://www.ebay.com/itm/Royal-Doulton-Taverna-Pattern-Expressions-Range-Tea-Cups-Saucers-Look-in-VGC-/121844301013?hash=item1c5e7c7cd5:g:k5gAAOSw~otWdYMD
p10
aVhttp://www.ebay.com/itm/Royal-Doulton-Taverna-Pattern-Expressions-Range-Tea-Cups-Saucers-Look-in-VGC-/121844301013?hash=item1c5e7c7cd5:g:k5gAAOSw~otWdYMD
p11
aVhttp://www.ebay.com/itm/PORTABLE-MINI-ELECTRIC-COOLER-FOOD-DRINK-CHILLER-WARM-COOL-BOX-RV-CAMPING-12V-/201445530361?hash=item2ee716daf9:g:w~oAAOSw-0xYWVEr
p12
aVhttp://www.ebay.com/itm/The-Summer-of-My-Greek-Taverna-A-Memoir-Stone-Tom-Paperback-Book-The-Cheap-/302230848729?epid=86665032&hash=item465e5cc4d9:g:-nEAAOSwSzRZP~rx
p13
a.