(lp1
Vhttp://www.ebay.com/itm/Colour-Yourself-to-Calmness-by-Sue-Coccia-NEW-Hardback-/161837168065?epid=216586300&hash=item25ae3f35c1:g:A84AAOSwFnFWBIRt
p2
aVhttp://www.ebay.com/itm/Always-Be-Yourself-Unless-You-Can-Be-a-Unicorn-Funny-Wall-Plaque-Metal-Sign-/172006130028?hash=item280c5d416c:g:tCUAAOSw4YJZX2xc
p3
aVhttp://www.ebay.com/itm/SPEEDO-FASTSKIN-BLACK-PRIME-MIRROR-SWIMMING-GOGGLES-CUSTOMISE-THEM-YOURSELF-/112430629723?epid=1973879621&hash=item1a2d63435b:g:thMAAOSw~y9ZM3uS
p4
aVhttp://www.ebay.com/itm/Alfreds-Teach-Yourself-to-Play-Piano-Everything-You-Need-to-Kn-9781470632113-/252905736567?epid=225851300&hash=item3ae25b4977:g:RosAAOSwjL5ZBFnp
p5
aVhttp://www.ebay.com/itm/The-Untethered-Soul-The-Journey-Beyond-Yourself-Michael-A-Singer-/131953808535?epid=89011235&hash=item1eb90f5497:g:tAAAAOSwzaJX6~Dv
p6
aVhttp://www.ebay.com/itm/GRAB-YOURSELF-A-LUCKY-SIXPENCE-COIN-VERY-CHEAP-/300491961138?epid=1788269669&hash=item45f6b77332:g:Px8AAMXQC-tS~KVf
p7
aVhttp://www.ebay.com/itm/URIAH-HEEP-LOOK-AT-YOURSELF-2-CD-SET-2017-/122389248407?epid=504383601&hash=item1c7ef7b997:g:vrQAAOSwol5YwWdh
p8
aVhttp://www.ebay.com/itm/Cook-Yourself-Young-by-Elizabeth-Peyton-Jones-NEW-/171896315775?epid=213052363&hash=item2805d19f7f:g:TAEAAOSwgQ9V0Qyz
p9
aVhttp://www.ebay.com/itm/BOB-MARLEY-LIVELY-UP-YOURSELF-LADIES-SKINNY-T-SHIRT-NEW-OFFICIAL-REGGAE-WAILERS-/361737849962?var=&hash=item5439418c6a:m:mFi3Qzg86vYS0yoqMvmeWXg
p10
aVhttp://www.ebay.com/itm/Spikey-Anti-Drink-Spiking-Bottle-Stoppers-Protect-Yourself-Others-Pack-of-10-/111756160916?epid=1412698103&hash=item1a052faf94:g:kGkAAOxyuR5TX39w
p11
aVhttp://www.ebay.com/itm/Tiny-Buddhas-Guide-to-Loving-Yourself-Lori-Deschene-/321932860806?epid=190104407&hash=item4af4b19d86:g:KYIAAOSwp5JWWMa7
p12
aVhttp://www.ebay.com/itm/Under-Armour-UA-Transform-Yourself-Batman-vs-Superman-Heatgear-Compression-Shirt-/311784826298?var=&hash=item4897d2e5ba:m:mtW3w6zYqRvrIn7L7KVUdIg
p13
aVhttp://www.ebay.com/itm/Freedom-The-Courage-to-be-Yourself-Osho-/220870538551?epid=95019269&hash=item336ce8f537:g:JYAAAOSwNSxU3xAT
p14
aVhttp://www.ebay.com/itm/McAuley-Schenker-Group-Save-Yourself-CD-NEW-SEALED-/122567488939?hash=item1c899775ab:g:swkAAOSwOVpXYDAU
p15
aVhttp://www.ebay.com/itm/Teach-Yourself-VISUALLY-Microsoft-Office-Access-2007-Faithe-Wempen-/132171715791?epid=91494146&hash=item1ec60c54cf:g:coIAAOSwIWVZAMAf
p16
aVhttp://www.ebay.com/itm/The-Jungle-Book-Read-it-yourself-with-Ladybird-Ladybird-Excellent-/132166568546?epid=213453587&hash=item1ec5bdca62:g:oEMAAOSwvKtY-l3Q
p17
aVhttp://www.ebay.com/itm/3-5mm-Mono-Jack-Plug-End-Gold-Solder-Yourself-Pack-of-2-/191718875690?epid=1844783918&hash=item2ca355e22a:g:agwAAOSwd~RZR6AJ
p18
aVhttp://www.ebay.com/itm/EGR-REMOVER-DELETE-SOFTWARE-Remap-Yourself-/112485204990?hash=item1a30a403fe:g:YWgAAOSwJ4hY-xX4
p19
aVhttp://www.ebay.com/itm/DO-IT-YOURSELF-Artisanat-Miniature-Projet-Kit-En-bois-Maison-De-Poupees-Ma-/381946886069?hash=item58edcef7b5:g:7H8AAOSw~1FUXLh4
p20
aVhttp://www.ebay.com/itm/Ladybird-classic-x-50-Books-Box-Set-Pack-Collection-Read-it-Yourself-/111999343399?hash=item1a13ae5b27:g:0fsAAOSwVcFXOa5K
p21
aVhttp://www.ebay.com/itm/The-NLP-Workbook-Teach-Yourself-by-Judy-Bartkowiak-9781444174434-/231956826201?epid=115670900&hash=item3601b44859:g:DcIAAOSwY0lXRwWj
p22
aVhttp://www.ebay.com/itm/Learn-to-Love-Yourself-Enough-by-Andrew-G-Marshall-/160540659769?epid=97704152&hash=item2560f81039:g:rtgAAOSw-0xYgMUb
p23
aVhttp://www.ebay.com/itm/Ladybird-classic-x-50-Books-Box-Set-Pack-Collection-Read-it-Yourself-/351955841654?epid=1327455587&hash=item51f233f276:g:VqEAAOSwopRYd67l
p24
aVhttp://www.ebay.com/itm/TEACH-YOURSELF-SELF-DEFENCE-DVD-AT-HOME-INSTRUCTIONAL-/232251343854?hash=item36134243ee:g:WgcAAOxyBjBTRbmD
p25
aVhttp://www.ebay.com/itm/DAVID-BOWIE-LET-YOURSELF-GO-PUBLIC-AUDITORIUM-CLEVELAND-1974-/282561995925?hash=item41ca01e495:g:8f0AAOSwSypY95wX
p26
aVhttp://www.ebay.com/itm/Treasure-Yourself-Power-Thoughts-for-My-Generation-Miranda-Kerr-/322425682669?epid=189061029&hash=item4b12117aed:g:oHEAAOSw4CFYpgSj
p27
aVhttp://www.ebay.com/itm/Always-be-yourself-unless-you-can-be-a-Pirate-Tote-Shopping-Gym-Beach-Bag-42cm-x-/192095423256?hash=item2cb9c78b18:g:JJgAAOSwImRYicor
p28
aVhttp://www.ebay.com/itm/DO-IT-YOURSELF-SPANDEX-DOME-CAP-with-High-Tight-Band-DIY006-/331964463474?epid=1161617517&hash=item4d4a9fb972:g:hR0AAOSw-kdX0hAR
p29
aVhttp://www.ebay.com/itm/The-Friend-Finding-Compassion-with-Yourself-Nishant-Matthews-/220947274357?epid=103950167&hash=item33717bda75:m:miWB9cDFP-iTeDrfx7sV1dw
p30
aVhttp://www.ebay.com/itm/Back-Hair-Shaver-Body-Trimmer-Removal-Razor-Mens-Groomer-Do-It-Yourself-Black-/282521907157?hash=item41c79e2fd5:g:2mUAAOSwVJhZPtFa
p31
aVhttp://www.ebay.com/itm/Mangroomer-Do-It-Yourself-Electric-Back-Hair-Shaver-/182164193761?epid=1272408530&hash=item2a69d501e1:g:Qk8AAOSwOVpXWIo-
p32
aVhttp://www.ebay.com/itm/Teach-Yourself-Ayurveda-Sarah-Lie-/132255485978?epid=87829655&hash=item1ecb0a901a:g:pgkAAOSwa~hZYlJL
p33
aVhttp://www.ebay.com/itm/Half-Pint-2-Pint-Mix-it-Yourself-powder-Fake-Film-Blood-Mouth-Safe-Filmblood-/161877200319?var=&hash=item25b0a20dbf:m:mry2UUrsU9Eq8OJi7bo1xHQ
p34
aVhttp://www.ebay.com/itm/5x-Radisafe-Genuine-Anti-Radiation-Phone-Tablet-Laptop-Protect-Yourself-From-EMF-/191738841248?epid=1588925338&hash=item2ca48688a0:g:ZjcAAOxykMpTJxkv
p35
aVhttp://www.ebay.com/itm/Diary-of-a-Wimpy-Kid-Do-It-Yourself-Book-Jeff-Kinney-/132248576245?epid=88537603&hash=item1ecaa120f5:g:31QAAOSwDrNZWi-f
p36
aVhttp://www.ebay.com/itm/Teach-Yourself-Ayurveda-Sarah-Lie-/132255485978?epid=87829655&hash=item1ecb0a901a:g:pgkAAOSwa~hZYlJL
p37
aVhttp://www.ebay.com/itm/DO-IT-YOURSELF-MESH-DOME-WIG-CAP-COOL-MESH-SPANDEX-with-High-Tight-Band-diy001-/331964457447?epid=1360367968&hash=item4d4a9fa1e7:g:mgIAAOSwvzRX0g1K
p38
aVhttp://www.ebay.com/itm/DO-IT-YOURSELF-Artisanat-Miniature-Projet-Kit-En-bois-Maison-De-Poupees-Ma-/381946886069?hash=item58edcef7b5:g:7H8AAOSw~1FUXLh4
p39
aVhttp://www.ebay.com/itm/Be-Yourself-Unless-you-can-Be-Ragnar-Mens-t-shirt-The-Vikings-Ragnar-/221860752372?var=&hash=item33a7ee6bf4:m:mAp6XBH493EHuwByFEwfyGQ
p40
aVhttp://www.ebay.com/itm/Half-Pint-of-Fake-Blood-Mix-it-Yourself-for-Stage-Film-Mouth-Safe-Filmblood-/161877195245?hash=item25b0a1f9ed:g:9R8AAOSwajVUOR5N
p41
aVhttp://www.ebay.com/itm/Very-Good-Teach-Yourself-Emotional-Intelligence-Wilding-Christine-Book-/222458173916?epid=92019346&hash=item33cb8a59dc:g:nmUAAOSw-zxWm9w~
p42
aVhttp://www.ebay.com/itm/Well-rotted-horse-manure-2-bag-free-if-you-bag-it-yourself-/232412958541?hash=item361ce44f4d:g:RoYAAOSw8d5ZRDnY
p43
aVhttp://www.ebay.com/itm/ex-library-The-Dolls-House-Do-it-yourself-Book-Venus-Dodge-/112319606225?epid=87711946&hash=item1a26c52dd1:g:Y0AAAOSw2gxYtndc
p44
aVhttp://www.ebay.com/itm/Teach-Yourself-VISUALLY-Excel-2010-Paul-McFedries-/132172092910?epid=92676558&hash=item1ec61215ee:g:3fQAAOSwzqFZAQs~
p45
aVhttp://www.ebay.com/itm/Jungle-Book-Ladybird-childrens-story-new-level-3-read-it-yourself-/182530335460?epid=213453587&hash=item2a7fa7e2e4:g:yGEAAOSwmfhX48OZ
p46
aVhttp://www.ebay.com/itm/5-x-Genuine-Anti-Radiation-Phone-Tablet-Laptop-Sticker-Protect-Yourself-From-EMF-/201054450475?hash=item2ecfc7732b:g:X9AAAOxy~dNTJxkN
p47
aVhttp://www.ebay.com/itm/NEW-Teach-Yourself-Plastic-Canvas-Paperback-1609002172-/152427971458?epid=202063359&hash=item237d6a4382:g:oNQAAOSw-0xYmeqT
p48
aVhttp://www.ebay.com/itm/Quilt-Yourself-Gorgeous-Mandy-Shaw-/132172221598?epid=88937565&hash=item1ec6140c9e:g:SpkAAOSw5UZZATCA
p49
aVhttp://www.ebay.com/itm/DISNEY-PRINCESS-THE-LITTLE-MERMAID-ARIEL-ALWAYS-BE-YOURSELF-OPEN-BLANK-CARD-NEW-/132112076206?epid=596163958&hash=item1ec27e4dae:g:Jn4AAOSwWxNYtvIt
p50
aVhttp://www.ebay.com/itm/Colour-Yourself-to-Inner-Peace-And-reduce-stress-with-these-winged-animal-motif-/352098209768?epid=225718870&hash=item51fab04fe8:g:ywYAAOSwd~RZURHm
p51
aVhttp://www.ebay.com/itm/Ladybird-Read-it-yourself-Level-3-9-books-collection-/122600648134?epid=1327455587&hash=item1c8b916dc6:g:P40AAOSwsXVZalRD
p52
aVhttp://www.ebay.com/itm/Roger-Sanchez-Release-Yourself-Vol-7-2-X-CD-/141428281967?epid=66771087&hash=item20edc8526f:m:mWkj_t6Z4ibubPtJQH7lIZA
p53
aVhttp://www.ebay.com/itm/Movit-Medusa-II-Build-It-Yourself-Pre-Soldered-MR-9592E-Sound-Activated-Robot-/201839317552?epid=1723184642&hash=item2efe8f9230:g:wuoAAOSw32lYuCir
p54
aVhttp://www.ebay.com/itm/MENS-BRACES-USA-STARS-STRIPES-MOTORBIKE-WORK-FISHING-ROCK-2-BRACE-YOURSELF-/162382109675?hash=item25ceba5beb:g:RrUAAOSwbtVZPWuD
p55
aVhttp://www.ebay.com/itm/Teach-Yourself-Weather-Inness-Peter-New-Book-/121397390122?epid=87811285&hash=item1c43d92b2a:g:zKEAAOSwwPhWjl3R
p56
aVhttp://www.ebay.com/itm/INCUBUS-MAKE-YOURSELF-CD-sealed-/162085558612?epid=1327848881&hash=item25bd0d5954:g:~6sAAOSwQaJXSbc5
p57
aVhttp://www.ebay.com/itm/Laura-Geller-Baked-Impressions-Eye-Palette-Espresso-Yourself-Full-Size-6-5g-/192100371972?epid=857431509&hash=item2cba130e04:g:QqcAAOSwux5YTDKH
p58
aVhttp://www.ebay.com/itm/Diary-of-a-Wimpy-Kid-Do-It-Yourself-Book-Jeff-Kinney-9780141339665-/132249695805?epid=99943548&hash=item1ecab2363d:g:a6cAAOSwXetZW3aC
p59
a.