(lp1
Vhttp://www.ebay.com/itm/Mens-Baseball-Varsity-Letterman-College-Fleece-Jacket-Badge-PU-Leather-Sleeves-/131992361136?var=&hash=item1ebb5b98b0:m:mkrE1l9Vdm8DIPrn3xsMnlw
p2
aVhttp://www.ebay.com/itm/Custom-Personalised-Varsity-Baseball-College-Letterman-Jacket-Unisex-Mens-Womens-/201283756317?var=&hash=item2edd72611d:m:m3F4hdoUe82Oat2PWNL7_aQ
p3
aVhttp://www.ebay.com/itm/MAJESTIC-ATHLETIC-REGGIE-LETTERMAN-VARSITY-JACKET-LEATHER-LOOK-NEW-YORK-YANKEES-/172287017534?var=&hash=item281d1b423e:m:mMKflsYhBvGgMRM6L9Kq_Mw
p4
aVhttp://www.ebay.com/itm/Mens-American-Varsity-Letterman-University-College-Baseball-Teddy-Jacket-Lot-/132188451191?var=&epid=1056088673&hash=item1ec70bb177:m:mKahY46D7lKX1vtJ3QGc8Jw
p5
aVhttp://www.ebay.com/itm/Mens-Varsity-Jacket-College-University-Letterman-American-Baseball-Top-Coat-Lot-/222543783481?var=&hash=item33d0a4a639:m:miREm56uXhis9IQthNvolMA
p6
aVhttp://www.ebay.com/itm/Unisex-American-Style-Varsity-Letterman-University-College-Baseball-Jacket-/111011598176?var=&hash=item19d8ce8f60:m:mfWLbnEzqlX7oTAVEX5hTSg
p7
aVhttp://www.ebay.com/itm/Mens-American-Varsity-Letterman-University-College-Baseball-Teddy-Jacket-Lot-/192186623205?var=&epid=1255898609&hash=item2cbf3724e5:m:mKahY46D7lKX1vtJ3QGc8Jw
p8
aVhttp://www.ebay.com/itm/Liverpool-FC-Official-Football-Gift-Mens-Retro-Varsity-Baseball-Jacket-Black-/171495097836?var=&hash=item27ede785ec:m:m0cP4i-XvZrywlAAHKU2flA
p9
aVhttp://www.ebay.com/itm/PERSONALISED-VARSITY-JACKET-with-Custom-EMBROIDERY-College-Letterman-Baseball-/221713981612?var=&hash=item339f2ee0ac:m:mwx3MTQG5_6uxVfN0ZTWkCw
p10
aVhttp://www.ebay.com/itm/Handmade-College-Sports-Baseball-Wool-Leather-Letterman-Varsity-Jacket-/181928334111?hash=item2a5bc6131f:g:KTQAAOSwLF1X9kcJ
p11
aVhttp://www.ebay.com/itm/Varsity-College-Baseball-Letterman-Jacket-Personalised-Print-Custom-Print-/271143298997?var=&hash=item3f216667b5:m:mVLxRnf0Oo2AkakLL1QDi6Q
p12
aVhttp://www.ebay.com/itm/MARKIPLIER-VARSITY-JACKET-BASEBALL-LETTERMAN-LARGE-CHOICE-OF-SIZE-UNISEX-LOGO-/291932482519?var=&hash=item43f8882bd7:m:mDxeAR4Z2SdVAvyaABrmr2g
p13
aVhttp://www.ebay.com/itm/Unisex-American-Style-Varsity-Letterman-University-College-Baseball-Jacket-/311527846758?var=&epid=1154730125&hash=item488881b366:m:maQqZkSgIH9RTaOpa6YbvyA
p14
aVhttp://www.ebay.com/itm/Mens-Jacket-Crosshatch-Playtex-Harrington-Bomber-Style-Varsity-Coat-/141878913195?var=&epid=1756211072&hash=item2108a468ab:m:mVUewPOwkqOM_K2OEpNtSsg
p15
aVhttp://www.ebay.com/itm/Mens-Boys-Unisex-Varsity-Letterman-University-College-Baseball-Jacket-3-4-XXXL-/190812877093?var=&epid=1060099321&hash=item2c6d557125:m:mbUE6nK7Lq2y1XqPq6YvZFg
p16
aVhttp://www.ebay.com/itm/Mens-Boys-Unisex-Varsity-Letterman-University-College-Baseball-Jacket-Ages-3-99-/141092968330?var=&hash=item20d9cbd78a:m:mc_wjpZvxh-UlEF8s9BzWew
p17
aVhttp://www.ebay.com/itm/Uneek-Mens-Varsity-Jacket-College-University-Letterman-Baseball-Coat-UC525-/141738368048?var=&epid=1955774964&hash=item210043dc30:m:mL6cYpQJosLIM1yUdyY8HxA
p18
aVhttp://www.ebay.com/itm/Unisex-American-Style-Varsity-Letterman-University-College-Baseball-Jacket-kids-/142259896002?var=&hash=item211f59bec2:m:m1ajMVimS1zcX36_lfERr_g
p19
aVhttp://www.ebay.com/itm/Mens-New-Adidas-Varsity-Fleece-Lined-Jacket-Coat-Grey-Retro-College-Vintage-/272010661779?var=&hash=item3f55194f93:m:mokKZWZvYgFJqLJkXjEL4yg
p20
aVhttp://www.ebay.com/itm/MENS-VARSITY-COLLEGE-UNIVERSITY-LETTERMAN-BASEBALL-JACKET-COAT-SIZE-S-2XL-/371655457971?var=&hash=item5688643cb3:m:mbC1fWp-0Pei7ZX2_lLsO0g
p21
aVhttp://www.ebay.com/itm/Mens-SoulStar-Bomber-Casual-Baseball-Jacket-Lightweight-Varsity-Jacket-/371766270201?var=&hash=item568eff18f9:m:m-4h5HLofF-QD4AvnqA0h3g
p22
aVhttp://www.ebay.com/itm/Mens-Baseball-Varsity-Jacket-Bomber-PU-Leather-A-Design-Brown-Navy-Green-Red-/161603912345?var=&hash=item25a0580299:m:mke-NHHWbwKPPaOMmy5nWiQ
p23
aVhttp://www.ebay.com/itm/Superb-Genuine-Leather-Sleeve-Letterman-College-Varsity-Wool-Jacket-CS-CLRS-CRB-/272079549413?var=&hash=item3f593473e5:m:m0Rv7ylQ7WIjEvxbp1ur6OA
p24
aVhttp://www.ebay.com/itm/MENS-S-J-FOR-CROSSHATCH-QUILTED-VARSITY-JACKET-BASEBALL-COLLEGE-LETTERMAN-JACKET-/181567211541?var=&hash=item2a463fc815:m:mon94OQ7lC--9uWMGx2iCjA
p25
aVhttp://www.ebay.com/itm/Batman-Varsity-Jacket-Mens-Coat-Hoodie-Top-Superhero-Arkham-Knight-/152144996929?var=&hash=item236c8c6a41:m:mTGaUYBtb54R52GOXFBRAcw
p26
aVhttp://www.ebay.com/itm/AC-DC-Back-In-Black-Baseball-Style-Varsity-Jacket-NEW-OFFICIAL-/111703328117?var=&epid=1540295487&hash=item1a02098575:m:mEUKVk9AEkznDb2qRM7gDbQ
p27
aVhttp://www.ebay.com/itm/Mens-Real-Leather-College-Varsity-Baseball-Jacket-Bomber-AX-/141677328583?var=&hash=item20fca078c7:m:m6_tq3iCrkbt5mb2E0m2dtw
p28
aVhttp://www.ebay.com/itm/College-Letterman-Varsity-Jacket-baseball-print-jackets-AWDis-XS-2XL-Colours-/281512118762?var=&hash=item418b6e09ea:m:mpcc5D_fybBMkwwYMxa0l5w
p29
aVhttp://www.ebay.com/itm/Mens-Black-Quilted-Bomber-Jacket-White-Sleeves-Baseball-Varsity-Coat-Size-S-XL-/321553379887?var=&hash=item4ade13322f:m:mvpuZPf4Z4NWX9yJxqeMZYQ
p30
aVhttp://www.ebay.com/itm/Marvel-Deadpool-Mens-Black-Varsity-Jacket-/361710224088?var=&hash=item54379c02d8:m:mWpVt_w7gM3Ebs5bSXK7crQ
p31
aVhttp://www.ebay.com/itm/Mens-PU-Leather-Wet-Look-Sleeve-Varsity-Baseball-Fleece-Padded-Jacket-/182355121014?var=&hash=item2a75365376:m:mnCqhUjaAc3gIegIoUjZoFw
p32
aVhttp://www.ebay.com/itm/Varsity-College-Baseball-Red-Wool-Body-and-White-Real-Leather-Sleeves-Jacket-/181928368203?hash=item2a5bc6984b:g:1BYAAOSwfl9XA19G
p33
aVhttp://www.ebay.com/itm/Varsity-College-Baseball-Sportsman-Wool-Real-Leather-Jacket-sz-XS-4XL-/181929397794?hash=item2a5bd64e22:g:Cf4AAOSw5VZXA154
p34
aVhttp://www.ebay.com/itm/Black-Batman-Fan-Super-hero-American-College-Baseball-Style-Varsity-Jacket-/131874548231?var=&hash=item1eb455ea07:m:m6KjlKkrtu8giVW2gKgxNhg
p35
aVhttp://www.ebay.com/itm/Black-Veil-Brides-School-Of-BVB-Baseball-Varsity-Jacket-NEW-OFFICIAL-/132118749355?var=&hash=item1ec2e420ab:m:miwMHDLquzyzI2vIqdxbAeQ
p36
aVhttp://www.ebay.com/itm/Sleeping-With-Sirens-Floater-Baseball-Style-Varsity-Jacket-NEW-OFFICIAL-/121223978280?var=&epid=1112365496&hash=item1c39831d28:m:mEmLfh9EPAMfPqLPWIXkZmQ
p37
aVhttp://www.ebay.com/itm/Varsity-Jacket-American-Style-Letterman-University-College-Baseball-Jacket-XS-3X-/291336367533?var=&hash=item43d5002dad:m:mEB96U4bZtrwyBYu9qIB2tg
p38
aVhttp://www.ebay.com/itm/Adults-Varsity-Jacket-Custom-Name-Initials-Letterman-College-Uni-Baseball-Coat-/201021594760?var=&hash=item2ecdd21c88:m:mpO07QTikWzwlXDtEGe2SHg
p39
aVhttp://www.ebay.com/itm/NEW-MENS-WOMENS-KIDS-DEADPOOL-MARVEL-VILLAIN-VARSITY-AMERICAN-STYLE-COAT-JACKET-/152260605410?var=&hash=item23737075e2:m:mCO33O68rr0X9chkoln4JVA
p40
aVhttp://www.ebay.com/itm/NEW-MENS-WOMENS-KIDS-VARSITY-COLLEGE-AMERICAN-FOOTBALL-LETTERMAN-COAT-JACKET-/151136686056?var=&hash=item233072cfe8:m:mRmO9C1yZTACIhtTyQoF6sQ
p41
aVhttp://www.ebay.com/itm/Mens-Black-Quilted-Bomber-Jacket-White-Sleeves-Baseball-Varsity-Coat-Size-S-XL-/321553379887?var=&hash=item4ade13322f:m:mvpuZPf4Z4NWX9yJxqeMZYQ
p42
aVhttp://www.ebay.com/itm/LADIES-VARSITY-AMERICAN-BASEBALL-JACKET-LETTERMAN-STYLE-COLLEGE-NEW-S-XL-/130853729738?var=&epid=1055920350&hash=item1e777d75ca:m:m1ae7D2ithK-EJLNMs8mphg
p43
aVhttp://www.ebay.com/itm/Mens-Black-College-Varsity-Baseball-Hood-Jacket-Real-Leather-Sleeves-Skull-/141101282459?var=&hash=item20da4ab49b:m:m0irfOA_h85METT4YFiYVoA
p44
aVhttp://www.ebay.com/itm/Nike-Mens-LeBron-Varsity-Peacoat-Leather-Sleeve-Jacket-Destroyer-507702-010-/291736938210?var=&hash=item43ece066e2:m:mb07bUPo5wRMe_RbshUJULA
p45
aVhttp://www.ebay.com/itm/Black-Veil-Brides-School-Of-BVB-Baseball-Varsity-Jacket-NEW-OFFICIAL-/132118749355?var=&hash=item1ec2e420ab:m:miwMHDLquzyzI2vIqdxbAeQ
p46
aVhttp://www.ebay.com/itm/Mens-Womens-Kids-Unisex-Varsity-Jacket-Letterman-Baseball-American-Multi-Listing-/132050842774?var=&hash=item1ebed7f496:m:mQsPsw-leNCXXSUSztHJLxw
p47
aVhttp://www.ebay.com/itm/Mens-Grey-College-Baseball-Black-Real-Leather-Arms-Bomber-Jacket-Varsity-/130609204625?var=&hash=item1e68ea4d91:m:mATlEZt24Ulm79W5o-1frOQ
p48
aVhttp://www.ebay.com/itm/Mens-BASEBALL-Varsity-Black-White-College-DJ-Stylish-Hip-Hop-Rap-Leather-Jacket-/161819919610?var=&hash=item25ad3804fa:m:m1eKvR7ghBQhD2ucSmis8Kg
p49
aVhttp://www.ebay.com/itm/Mens-Black-Red-White-Quilted-College-Baseball-Bomber-Jacket-Varsity-/130816148937?var=&epid=1159963334&hash=item1e754005c9:m:mNJIHO396wX9UQCMoKW0Odw
p50
aVhttp://www.ebay.com/itm/Varsity-College-Baseball-Letterman-Jacket-Personalised-Print-Custom-Print-/271770504979?var=&hash=item3f46c8cf13:m:mODipj-sIRJ4QfNqYixKsDA
p51
aVhttp://www.ebay.com/itm/Mens-Threadbare-Light-Weight-Baseball-Varsity-Collar-MA1-Bomber-Jacket-Coat-/141922196968?var=&hash=item210b38dde8:m:mPKPSkTeNUxvp5Ic0cdv_Ww
p52
aVhttp://www.ebay.com/itm/Aviatrix-Mens-Matt-Black-Bomber-Quilted-Leather-Jacket-College-Varsity-Loyal-/172556554976?var=&hash=item282d2c12e0:m:mz_OO0PQRDKyhORSKbI3Stw
p53
aVhttp://www.ebay.com/itm/Baseball-Jacket-Varsity-College-Custom-Print-Personalised-Print-/261751199140?var=&hash=item3cf19655a4:m:mph6hpDsO4SZusqYYzbL10w
p54
aVhttp://www.ebay.com/itm/Mens-Slim-Fit-Baseball-Varsity-Jacket-Black-Check-Red-Sleeves-PU-Leather-Wool-/131826957733?var=&epid=1671420597&hash=item1eb17fbda5:m:mjeMYUG2YjB7l18d4E1HKbw
p55
aVhttp://www.ebay.com/itm/Mens-Threadbare-Zip-up-Varsity-Collar-Lightweight-Baseball-Bomber-Jacket-Coat-/141923149548?var=&hash=item210b4766ec:m:mx7uSz4B8cnSoYmuzfgfHCw
p56
aVhttp://www.ebay.com/itm/Royal-Blue-White-Unisex-Adult-Varsity-Baseball-Sports-Knitted-Cuffs-Jacket-/401149361497?var=&epid=1577752551&hash=item5d665d7d59:m:mKlj14nxtwLhHOvjD8U_X2w
p57
aVhttp://www.ebay.com/itm/Mens-Black-College-Baseball-Real-Leather-Arms-Bomber-Jacket-Varsity-AX-logo-/160936588666?var=&epid=1754993708&hash=item257891757a:m:m8pz9woD_0OdoZ4XAW35KoA
p58
aVhttp://www.ebay.com/itm/Varsity-College-Baseball-Jacket-Wool-and-Genuine-Leather-Sleeves-SZ-XXS-4XL-/181986211956?hash=item2a5f393874:g:5P8AAOSwGYVXA6i6
p59
aVhttp://www.ebay.com/itm/NEW-Mens-Varsity-Letterman-College-Jacket-S-M-L-XL-XXL-Baseball-Jacket-/390555577720?var=&hash=item5aeeed2d78:m:mgL2KpuAgTVuZmmlAOPXo3A
p60
aVhttp://www.ebay.com/itm/NIKE-Mens-Lebron-James-Varsity-Baseball-Jacket-Anthem-Casual-Chambray-Coat-/181343401180?var=&epid=1357842496&hash=item2a38e8b4dc:m:mErBbOVzd8Od4H5l5Z52PFA
p61
aVhttp://www.ebay.com/itm/Enigma-Varsity-Jacket-Mens-Coat-Jeff-Hardy-Top-Immortal-Champion-Hoodie-/161889286301?var=&hash=item25b15a789d:m:mzYxQ2ryyzMuQ-44hylMOXg
p62
aVhttp://www.ebay.com/itm/Mens-Black-College-Baseball-Real-Leather-Arms-Bomber-Jacket-Varsity-Yellow-Blue-/130636758165?var=&hash=item1e6a8ebc95:m:mcwgd2N5MqE5ZevYe6HdkfQ
p63
aVhttp://www.ebay.com/itm/Premium-College-Baseball-Letterman-Wool-and-Real-Leather-Varsity-Jacket-/182018204256?var=&hash=item2a61216260:m:mSjNm1GkEH6lY4H5E1YbRHA
p64
aVhttp://www.ebay.com/itm/Mens-Grey-College-Baseball-Red-Real-Leather-Arms-Bomber-Hooded-Jacket-Varsity-/140888008151?var=&epid=1456713411&hash=item20cd9465d7:m:mco_aQF4S5pErJ_4kSrim7A
p65
aVhttp://www.ebay.com/itm/Batman-Joker-Why-So-Serious-College-Jacket-Size-Small-Varsity-Baseball-Style-/112263650235?epid=1063877820&hash=item1a236f5bbb:g:t4QAAOSwoudW-7-W
p66
aVhttp://www.ebay.com/itm/Mens-Fitted-Real-Leather-Black-Varsity-Bomber-Jacket-Classic-Retro-Vintage-Black-/161926607552?var=&hash=item25b393f2c0:m:mN_gWYNEegKXgvxT8HABwGA
p67
aVhttp://www.ebay.com/itm/Diversity-Style-Street-Dance-Varsity-Jacket-Mens-/122144893855?var=&hash=item1c70672b9f:m:mTQ5d-eSdZUQkEm4IuAO-3g
p68
aVhttp://www.ebay.com/itm/Mens-White-Quilted-Bomber-Jacket-Black-Sleeves-Baseball-Varsity-Coat-Size-S-XL-/221577229268?var=&hash=item33970833d4:m:mYcXQzejoDzhksh9oKFgL8Q
p69
aVhttp://www.ebay.com/itm/AWDis-Varsity-Letterman-College-Jacket-Baseball-Jacket-Personalised-Printed-/190741369454?var=&hash=item2c6912526e:m:meDsl38VLCNjnLP2mJZ0z2Q
p70
aVhttp://www.ebay.com/itm/AWDis-Varsity-University-Letterman-College-Contrast-Baseball-Jacket-JH043-/141864563686?var=&hash=item2107c973e6:m:mpQutj4poVZ9Yl9c9k7zUHA
p71
aVhttp://www.ebay.com/itm/Big-Dawg-Special-Mens-Boys-Faux-Leather-Sleeve-Bomber-Varsity-Baseball-Jacket-/201289526150?var=&hash=item2eddca6b86:m:mXV1QAmBHvLcZorU72OlRuA
p72
aVhttp://www.ebay.com/itm/Baseball-Varsity-Jacket-With-Hoodie-Wool-and-Real-Leather-sz-XXS-3XL-/181977505049?hash=item2a5eb45d19:g:MTgAAOSw-RRXBg6E
p73
aVhttp://www.ebay.com/itm/NEW-MENS-WOMENS-ELECTRIC-UNIVERSITY-COLLEGE-VARSITY-AMERICAN-JACKET-COAT-/181662928268?var=&hash=item2a4bf44d8c:m:mtIxSqKozLCAwyMEuwEy4XA
p74
aVhttp://www.ebay.com/itm/SUPREME-JORDAN-JACKET-HOODED-VARSITY-BASEBALL-JACKET-NIKE-DEADSTOCK-SIZE-LARGE-/231990308572?hash=item3603b32edc:g:J58AAOSwo0JWMX8S
p75
aVhttp://www.ebay.com/itm/Mens-Blue-Yellow-Baseball-Style-Real-Leather-Varsity-Jacket-/140869231993?var=&hash=item20cc75e579:m:mzWwSJwg1byDfAZAaBbtH8A
p76
aVhttp://www.ebay.com/itm/Nike-Mens-Bomber-Jacket-Padded-Coat-AD-Reversible-Varsity-Letterman-XL-L-/271787512808?var=&hash=item3f47cc53e8:m:miMY5M7zE9BR2Hjwx4u9CtA
p77
aVhttp://www.ebay.com/itm/Superb-Genuine-Leather-Sleeve-Letterman-College-Varsity-Wool-Jacket-BS-WS-WB-/272118868084?var=&hash=item3f5b8c6874:m:mQIf4-7_3-BJ0FOxopzVIOA
p78
a.