(lp1
Vhttp://www.ebay.com/itm/One-Hundred-and-Four-Horses-A-Family-Forced-to-Run-The-Horses-9780007477562-/252572982304?epid=207639024&hash=item3ace85dc20:g:jk8AAOSwCGVX9rtb
p2
aVhttp://www.ebay.com/itm/Batman-No-Mans-Land-Vol-02-by-Mike-Deodato-9781401233808-Paperback-2012-/252961445626?epid=138595250&hash=item3ae5ad56fa:g:uEsAAOSwH09ZKjPn
p3
aVhttp://www.ebay.com/itm/BATTERY-POWER-GARDEN-ULTRA-SONIC-MOLE-RODENT-REPELLER-DETERRENT-MOLES-REPELLENT-/221998596912?epid=1054629174&hash=item33b025c330:g:s5sAAOSwFqJWnO0-
p4
aVhttp://www.ebay.com/itm/4-X-BATTERY-POWER-GARDEN-ULTRA-SONIC-MOLE-RODENT-REPELLER-DETERRENT-MOLES-/322381867223?epid=1054629174&hash=item4b0f74e8d7:g:H08AAOSwUKxYb6cO
p5
aVhttp://www.ebay.com/itm/Beekeeping-beehive-8-WAY-BEE-ESCAPE-/311750686034?epid=529675748&hash=item4895c9f552:g:yWoAAOSwiONYPZHN
p6
aVhttp://www.ebay.com/itm/One-Hundred-and-Four-Horses-A-Family-Forced-to-Run-The-Horses-9780007477562-/252572982304?epid=207639024&hash=item3ace85dc20:g:jk8AAOSwCGVX9rtb
p7
aVhttp://www.ebay.com/itm/Batman-No-Mans-Land-Vol-02-by-Mike-Deodato-9781401233808-Paperback-2012-/252961445626?epid=138595250&hash=item3ae5ad56fa:g:uEsAAOSwH09ZKjPn
p8
aVhttp://www.ebay.com/itm/BATTERY-POWER-GARDEN-ULTRA-SONIC-MOLE-RODENT-REPELLER-DETERRENT-MOLES-REPELLENT-/221998596912?epid=1054629174&hash=item33b025c330:g:s5sAAOSwFqJWnO0-
p9
aVhttp://www.ebay.com/itm/Beekeeping-beehive-8-WAY-BEE-ESCAPE-/311750686034?epid=529675748&hash=item4895c9f552:g:yWoAAOSwiONYPZHN
p10
aVhttp://www.ebay.com/itm/north-devon-luxury-holiday-lodge-HALF-PRICE-ONLY-245-free-fishing-walks-beaches-/222089620581?var=&hash=item33b592ac65:m:mUlP9xKxVdrspvQL5NFN_xw
p11
aVhttp://www.ebay.com/itm/One-Hundred-and-Four-Horses-A-Family-Forced-to-Run-The-Horses-9780007477562-/252572982304?epid=207639024&hash=item3ace85dc20:g:jk8AAOSwCGVX9rtb
p12
aVhttp://www.ebay.com/itm/Batman-No-Mans-Land-Vol-02-by-Mike-Deodato-9781401233808-Paperback-2012-/252961445626?epid=138595250&hash=item3ae5ad56fa:g:uEsAAOSwH09ZKjPn
p13
aVhttp://www.ebay.com/itm/BATTERY-POWER-GARDEN-ULTRA-SONIC-MOLE-RODENT-REPELLER-DETERRENT-MOLES-REPELLENT-/221998596912?epid=1054629174&hash=item33b025c330:g:s5sAAOSwFqJWnO0-
p14
aVhttp://www.ebay.com/itm/4-X-BATTERY-POWER-GARDEN-ULTRA-SONIC-MOLE-RODENT-REPELLER-DETERRENT-MOLES-/322381867223?epid=1054629174&hash=item4b0f74e8d7:g:H08AAOSwUKxYb6cO
p15
aVhttp://www.ebay.com/itm/Beekeeping-beehive-8-WAY-BEE-ESCAPE-/311750686034?epid=529675748&hash=item4895c9f552:g:yWoAAOSwiONYPZHN
p16
a.