(lp1
Vhttp://www.ebay.com/itm/WILEY-X-SABER-ADVANCED-GLASSES-BALLISTIC-FOAM-VERMILLION-LENS-MATTE-BLACK-FRAME-/281999125526?hash=item41a8752c16:g:f68AAOSwJQdXCgFQ
p2
aVhttp://www.ebay.com/itm/Wiley-X-SLAY-GLOSS-BLACK-SMOKE-GREY-LENS-/152346253218?epid=1742681002&hash=item23788b57a2:g:R1sAAOSwEzxYRt7t
p3
aVhttp://www.ebay.com/itm/WILEY-X-XL-1-ADVANCED-GLASSES-BALLISTIC-SHATTERPROOF-2-LENSES-MATTE-BLACK-FRAME-/301924646514?hash=item464c1c7e72:g:TFkAAOSwuxFYyB~t
p4
aVhttp://www.ebay.com/itm/Wiley-X-SG-1-Tactical-Goggles-Glasses-/172744785180?hash=item2838643d1c:g:EFMAAOSwvjdZTOdA
p5
aVhttp://www.ebay.com/itm/WILEY-X-SABER-PALE-ROSE-SUNGLASSES-/253021709057?hash=item3ae944e301:g:HiAAAOSwsW9Y2jw4
p6
aVhttp://www.ebay.com/itm/Wiley-X-PT-1-Military-Tactical-Shooting-Sunglasses-Glasses-PT-1S-Grey-Lens-NEW-/201608297487?epid=1529100240&hash=item2ef0ca7c0f:g:s7YAAOSwepJXaRY5
p7
aVhttp://www.ebay.com/itm/WILEY-X-SABER-ADVANCED-GLASSES-3-SPARE-SHATTERPROOF-UV-LENSES-MATTE-BLACK-FRAME-/272207004807?epid=1530464965&hash=item3f60cd4487:g:XxAAAOSwy5ZXCgEb
p8
aVhttp://www.ebay.com/itm/Harley-Davidson-Wiley-X-Mojo-Smoke-Grey-Gloss-Black-Matt-Coffee-Frame-/132156193722?hash=item1ec51f7bba:g:I3wAAOSwsXFZJre5&vxp=mtr
p9
aVhttp://www.ebay.com/itm/WILEY-X-SABER-ADVANCED-GLASSES-CASE-CHANGEABLE-LIGHT-RUST-LENS-MATTE-BLACK-FRAME-/281999125168?epid=1230494426&hash=item41a8752ab0:g:vzkAAOSwSzdXCgEQ
p10
aVhttp://www.ebay.com/itm/WILEY-X-SABER-ADVANCED-GLASSES-PRESCRIPTION-CLEAR-LENS-CASE-MATTE-BLACK-FRAME-/281999125224?epid=1508739924&hash=item41a8752ae8:g:~9EAAOSwGYVXCgEe
p11
aVhttp://www.ebay.com/itm/Wiley-X-WX-Saint-Glasses-Combat-Ballistic-UV-Silver-Flash-Lens-Gloss-White-Frame-/272207005719?epid=1238292926&hash=item3f60cd4817:g:xs8AAOSwSzdXCgF2
p12
aVhttp://www.ebay.com/itm/WILEY-X-SABER-ADVANCED-GLASSES-3-SPARE-BALLISTIC-LENSES-COMBAT-MATTE-BLACK-FRAME-/282033553404?epid=1129095123&hash=item41aa827ffc:g:LOkAAOSw~oFXMcIu
p13
aVhttp://www.ebay.com/itm/WILEY-X-ROMER-II-ADVANCED-GLASSES-TWO-BALLISTIC-UVA-UVB-LENSES-MATTE-BLACK-Frame-/301924646406?hash=item464c1c7e06:g:eA8AAOSwZ8ZXCgEV
p14
aVhttp://www.ebay.com/itm/WILEY-X-SABER-ADVANCED-GLASSES-TPEG-BALLISTIC-PALE-YELLOW-LENS-MATTE-BLACK-FRAME-/301924646969?epid=1529119964&hash=item464c1c8039:g:LA8AAOSwgApXCgFQ
p15
aVhttp://www.ebay.com/itm/WILEY-X-ROMER-II-ADVANCED-GLASSES-3-BALLISTIC-ANTISCRATCH-LENS-MATTE-BLACK-FRAME-/281999125598?epid=1807991742&hash=item41a8752c5e:g:-C4AAOSwsN9XCgFW
p16
aVhttp://www.ebay.com/itm/WILEY-X-SPEAR-GOGGLES-3-BALLISTIC-LENSES-OUTDOOR-EYEWEAR-LIGHT-MATTE-BLACK-FRAME-/272207005494?epid=1929086503&hash=item3f60cd4736:g:xb4AAOSwSzdXCgFm
p17
aVhttp://www.ebay.com/itm/Wiley-X-Black-Ops-Rebel-ACREB01-Tactical-Protective-Safety-Sunglasses-Grey-Frame-/191788449324?epid=1766016390&hash=item2ca77b7e2c:g:3dAAAOSwX~dWoQId
p18
aVhttp://www.ebay.com/itm/WILEY-X-WX-ECHO-GLASSES-IMPACT-POLARISED-EMERALD-MIRROR-LENS-GLOSS-BLACK-FRAME-/272207004488?epid=1365376271&hash=item3f60cd4348:g:nHgAAOSw-RRXCgDu
p19
aVhttp://www.ebay.com/itm/Wiley-X-SAINT-GLOSS-BLACK-SMOKE-GREEN-LENS-/152346267466?epid=1637909471&hash=item23788b8f4a:g:zRkAAOSwImRYRuJG
p20
aVhttp://www.ebay.com/itm/Wiley-X-PT-1L-sunglasses-free-hard-shell-case-/200921961508?epid=1529118920&hash=item2ec7e1d424:g:1XsAAOxynapRhpP2
p21
aVhttp://www.ebay.com/itm/Wiley-X-Black-OPS-Glasses-Collection-from-The-Rebel-/252971962475?epid=1193663008&hash=item3ae64dd06b:g:33AAAOSwblZZMl1f
p22
aVhttp://www.ebay.com/itm/Wiley-X-Romer-3-Sunglasses-/252971962718?hash=item3ae64dd15e:g:6twAAOSwlndZMl1u
p23
aVhttp://www.ebay.com/itm/Wiley-X-Saber-Advanced-Tactical-Military-Shooting-Safety-Glasses-3-Lens-Kit-NEW-/201949774438?epid=1655111914&hash=item2f05250266:g:uncAAOSwnK9ZOST-
p24
aVhttp://www.ebay.com/itm/Wiley-X-Saber-Advanced-Tactical-Military-Shooting-Safety-Glasses-2-Lens-Kit-NEW-/201537482128?epid=1729166074&hash=item2eec91ed90:g:s4kAAOSwxp9W3unV
p25
aVhttp://www.ebay.com/itm/WILEY-X-WX-VALOR-GLASSES-THREE-SPARE-ANTISCRATCH-LENSES-SLEEK-MATTE-BLACK-FRAME-/272206018458?epid=1129093121&hash=item3f60be379a:g:qG0AAOSwy5ZXCPW8
p26
aVhttp://www.ebay.com/itm/Wiley-X-P-17-GLOSS-BLACK-EM-MORROR-LENS-/152346267280?hash=item23788b8e90:g:losAAOSwo4pYRuI3
p27
aVhttp://www.ebay.com/itm/WILEY-X-WX-GRAVITY-GLASSES-BALLISTIC-UV-BRONZE-FLASH-LENS-BROWN-CRYSTAL-FRAME-/281999125343?hash=item41a8752b5f:g:9IUAAOSwsN9XCgEw
p28
aVhttp://www.ebay.com/itm/WILEY-X-WX-ECHO-GLASSES-SAFE-BALLISTIC-SILVER-FLASH-LENS-SMOKE-STEEL-BLUE-FRAME-/301924646057?epid=1165357345&hash=item464c1c7ca9:g:m9oAAOSw-RRXCgDp
p29
aVhttp://www.ebay.com/itm/Wiley-X-XL-1-Advanced-Military-Balistic-Safety-Shooting-Glasses-2-Lens-Kit-Black-/191803471488?hash=item2ca860b680:g:M6kAAOSwuAVWu1g5
p30
aVhttp://www.ebay.com/itm/Wiley-X-Vapor-3501-Tactical-Ballistic-Safety-Shooting-Glasses-Black-2-Lens-Kit-/191803489189?hash=item2ca860fba5:g:GYIAAOSwKtVWu19Y
p31
aVhttp://www.ebay.com/itm/Wiley-Saber-Advanced-Sunglasses-/253029516556?hash=item3ae9bc050c:g:7p4AAOSwFJBZXPtY
p32
aVhttp://www.ebay.com/itm/Wiley-X-PT-1-Military-Tactical-Shooting-Sunglasses-Glasses-PT-1L-Light-Rust-Lens-/191902466141?epid=1529118920&hash=item2cae47405d:g:s-YAAOSw-4BXaRbc
p33
aVhttp://www.ebay.com/itm/Wiley-X-XL-1-Advanced-Military-Balistic-Safety-Shooting-Glasses-3-Lens-Kit-Black-/191803456892?epid=1029084412&hash=item2ca8607d7c:g:cCoAAOSwUuFWuzza
p34
aVhttp://www.ebay.com/itm/Wiley-X-WX-CHSAI07-Protective-Glasses-Set-Including-2-Lenses-Size-S-M-Mat-/172145445973?hash=item2814ab0c55:g:xkQAAOSwZ8ZW9A9a
p35
aVhttp://www.ebay.com/itm/Wiley-X-Saber-Advanced-Tactical-Military-Shooting-Safety-Glasses-Clear-Lens-NEW-/191803475935?epid=1757964903&hash=item2ca860c7df:g:srkAAOSw~OVWu1kx
p36
aVhttp://www.ebay.com/itm/Wileys-Finest-Wild-Alaskan-Fish-Oil-Peak-EPA-1000mg-EPA-DHA-Omega-3-60-caps-/182491645483?epid=1538098234&hash=item2a7d59862b:g:vQ4AAOSwSWJXRCie
p37
aVhttp://www.ebay.com/itm/WILEY-X-CAG-COMBAT-ASSAULT-GLOVE-Kevlar-Nomex-BRAND-NEW-/162321922305?var=&hash=item25cb23f901:m:mWs4PUE5xAXRxkCj4ZOK9Dw
p38
aVhttp://www.ebay.com/itm/Filipino-Martial-Culture-Mark-V-Wiley-/132172794941?epid=90236889&hash=item1ec61ccc3d:g:NFUAAOSwX61ZAeOY
p39
aVhttp://www.ebay.com/itm/Clinical-Sports-Psychiatry-An-International-Perspective-by-John-Wiley-Sons-/231848291802?epid=148930349&hash=item35fb3c2dda:g:1RsAAOSw6oBXEw2Y
p40
aVhttp://www.ebay.com/itm/The-Ducati-Monster-Bible-New-Updated-Revised-Edition-Bible-Wiley-New-I-/122385208105?epid=209521279&hash=item1c7eba1329:g:fwwAAOSwcUBYLbfJ
p41
aVhttp://www.ebay.com/itm/Wileys-Finest-Wild-Alaskan-Fish-Oil-PreNatal-DHA-60-Caps-/122518428746?epid=1971221176&hash=item1c86aadc4a:g:uhUAAOSwBOtY-ORv
p42
aVhttp://www.ebay.com/itm/WILEY-X-SG-1-GOGGLES-ANTISCRATCH-BALLISTIC-TWO-LENSES-AIRSOFT-MATTE-BLACK-FRAME-/301923896975?epid=1108001698&hash=item464c110e8f:g:OEwAAOSwSzdXCPXE
p43
aVhttp://www.ebay.com/itm/WILEY-X-CAG-1-GLOVES-KEVLAR-LEATHER-MILITARY-SECURITY-ARMY-TACTICAL-FLAME-BLACK-/281998104410?var=&hash=item41a865975a:m:m2H-ero4usc_LYiUrNJs8XA
p44
aVhttp://www.ebay.com/itm/Wileys-Wileys-Finest-UK-Peak-EPA-60-Softgels-/162066690956?epid=1538098234&hash=item25bbed738c:g:QfYAAOSwZJlXMlT9
p45
aVhttp://www.ebay.com/itm/Wiley-Godfather-NEW-CD-/391682473896?epid=1086237788&hash=item5b32183fa8:g:~P8AAOSw5cNYgdmq
p46
aVhttp://www.ebay.com/itm/Wiley-X-Durtac-Breathable-Tactical-Military-Army-Combat-Knuckle-Gloves-Coyote-UK-/201488140537?var=&hash=item2ee9a108f9:m:m4cuQxZlK5l-ajCjrFGVC1g
p47
aVhttp://www.ebay.com/itm/Designing-and-Planting-a-Woodland-Garden-Keith-Wiley-/132173949710?epid=209466222&hash=item1ec62e6b0e:g:4g4AAOSwuMZZAxmD
p48
aVhttp://www.ebay.com/itm/WILEY-X-SPEAR-GOGGLES-COMBAT-POLICE-EYEWEAR-ANTISCRATCH-2-LENSES-VENT-TAN-FRAME-/301924646145?hash=item464c1c7d01:g:nFwAAOSw8RJXCgD0&vxp=mtr
p49
aVhttp://www.ebay.com/itm/Wiley-X-Durtac-Breathable-Tactical-Military-Army-Combat-Knuckle-Gloves-OD-Green-/191763921126?var=&hash=item2ca60538e6:m:mVcuvHWzCX76EoYjS8EsWDQ
p50
aVhttp://www.ebay.com/itm/WILEY-X-CAG-1-GLOVES-TACTICAL-KNUCKLE-COMBAT-MILITARY-HEAVY-DUTY-FOLIAGE-GREEN-/301923897060?var=&hash=item464c110ee4:m:mFS-3CR43-RQWiNmK6gBnoA
p51
aVhttp://www.ebay.com/itm/Filipino-Martial-Culture-by-Mark-V-Wiley-9780804820882-Paperback-1997-/252573164107?epid=90236889&hash=item3ace88a24b:g:kKsAAOSw-CpX9uda
p52
aVhttp://www.ebay.com/itm/Wiley-X-Hybrid-Removable-Hard-Knuckle-Tactical-Combat-Military-Gloves-Coyote-Tan-/191803500496?var=&hash=item2ca86127d0:m:mCX-0E3IXOrT2ohh_i9sSCA
p53
aVhttp://www.ebay.com/itm/Spare-Replacement-Lens-for-Wiley-X-Saber-Military-Army-Tactical-Safety-Glasses-/192077046627?var=&epid=1229126206&hash=item2cb8af2363:m:mKsBigpZBOG9-PJMjsy95OQ
p54
aVhttp://www.ebay.com/itm/Wileys-Finest-Wild-Alaskan-Fish-Oil-Lemon-Flavour-Omega-3-Liquid-250-ml-Liquid-/172727250848?epid=1242156489&hash=item283758afa0:g:jT8AAOSwpkFY5hyQ
p55
aVhttp://www.ebay.com/itm/Wiley-Godfather-New-CD-Album-/311720635381?epid=1086237788&hash=item4893ff6bf5:g:ObEAAOSwLF1YApyJ
p56
aVhttp://www.ebay.com/itm/Wiley-Godfather-New-CD-Album-/311720635381?epid=1086237788&hash=item4893ff6bf5:g:ObEAAOSwLF1YApyJ
p57
aVhttp://www.ebay.com/itm/Coastal-and-Offshore-Navigation-Wiley-Nautical-Paperback-Cun-9780470753903-/361866505060?epid=88980767&hash=item5440ecab64:g:aqEAAOSwtUtXBL3Z
p58
aVhttp://www.ebay.com/itm/Wiley-The-Ascent-CD-NEW-/401219891147?epid=1805011902&hash=item5d6a91afcb:g:ISoAAOSwcLxYHIki
p59
aVhttp://www.ebay.com/itm/RX-Insert-Prescription-Lens-for-Wiley-X-Spear-Talon-Patriot-Glasses-Goggles-/201782158920?hash=item2efb276648:g:r2IAAOSwjDZYeBpd
p60
aVhttp://www.ebay.com/itm/Wiley-X-CAG-1-Hard-Knuckle-FR-Combat-Assault-Glove-Green-RRP-A-A-A-A-65-/261112217847?var=&hash=item3ccb8040f7:m:mzMM8rlWmSZNBiIXBed_gYA
p61
aVhttp://www.ebay.com/itm/Advanced-Practice-in-Critical-Care-A-Case-Study-Approach-by-John-Wiley-and-/331692398726?epid=92659926&hash=item4d3a685886:g:TwgAAOSwgk1XFwK0
p62
aVhttp://www.ebay.com/itm/Sail-for-a-Living-Wiley-Nautical-Sue-Pelling-/120890772765?epid=109317108&hash=item1c25a6cd1d:m:mCFkE0x96OCRbyHSA92VCdg
p63
aVhttp://www.ebay.com/itm/Wiley-X-Durtac-Breathable-Tactical-Military-Army-Combat-Knuckle-Gloves-Black-NEW-/201521084585?var=&hash=item2eeb97b8a9:m:msxSNN6SB0YFMUH-Bp_BRdw
p64
aVhttp://www.ebay.com/itm/P-Money-Live-Direct-CD-Album-Release-25th-Nov-2016-ft-Stormzy-JME-Wiley-/272673999788?hash=item3f7ca30bac:g:r2oAAOSwa~BYPLHm
p65
aVhttp://www.ebay.com/itm/WILEY-X-GUARD-GLASSES-3-CHANGEABLE-LENSES-COMBAT-UV-BALLISTIC-MATTE-BLACK-FRAME-/281999125261?epid=1404141937&hash=item41a8752b0d:g:e2MAAOSwJQdXCgEi
p66
aVhttp://www.ebay.com/itm/Wiley-Post-LOCKHEED-VEGA-Winnie-Mae-Aircraft-Mint-Stamp-1999-Sierra-Leone-/130717580575?hash=item1e6f5ffd1f:m:mKdGI6lZD72lCoqAojmNSAw
p67
a.