(lp1
Vhttp://www.ebay.com/itm/Poly-Dupion-Dupioni-Shantung-Wedding-Ties-and-Hankies-/371005200474?var=&hash=item5661a2185a:m:m4IKTbo7uejBrYToNXrntRg
p2
aVhttp://www.ebay.com/itm/Poly-Dupion-Dupioni-Shantung-Wedding-Pocket-Square-Hankies-Hanky-Handkerchief-/262821269240?var=&hash=item3d315e4ef8:m:mUAC0pgmuFMWE-JJev8FfSw
p3
aVhttp://www.ebay.com/itm/Poly-Dupion-Dupioni-Shantung-Mens-Clip-on-Clipper-Ties-/252741572348?var=&hash=item3ad89256fc:m:mkVCjqMbqE1HV9jlFEB_8cw
p4
aVhttp://www.ebay.com/itm/Poly-Dupion-Shantung-Wedding-Groom-Ruche-Cravats-Faux-Silk-for-Waistcoats-/371182008029?var=&hash=item566c2bf6dd:m:mMX68ygNu_zIOLZXZ_0vGzg
p5
aVhttp://www.ebay.com/itm/FEARNE-COTTON-YELLOW-BLACK-LIQUORICE-SHANTUNG-PRINT-DRESS-SZE-10-12-14CLEARANCE-/201646221707?hash=item2ef30d298b:g:Ky0AAOSwd0BVqiXK
p6
aVhttp://www.ebay.com/itm/Fab-Jade-Sea-Green-Poly-Shantung-Dupion-Fabric-112cm-or-45-wide-Per-Metre-/131936763061?hash=item1eb80b3cb5:g:ze4AAOSwvzRX1pG9
p7
aVhttp://www.ebay.com/itm/FEARNE-COTTON-YELLOW-BLACK-LIQUORICE-SHANTUNG-PRINT-DRESS-SZE-10-12-14CLEARANCE-/201646221707?hash=item2ef30d298b:g:Ky0AAOSwd0BVqiXK
p8
aVhttp://www.ebay.com/itm/NIGHTINGALES-CLOVER-SHANTUNG-SLEVELESS-DRESSS-SIZES-12-14-16-18-22-SIMPLY-BE-/141342575570?var=&hash=item20e8ac8bd2:m:mRQrMV-ODXK9jHO8MqIvT8A
p9
aVhttp://www.ebay.com/itm/Dusky-Pink-Shantung-Pre-Tied-Wedding-Cravat-/152483150924?hash=item2380b43c4c:g:hL4AAOSwDKtY1AJK
p10
aVhttp://www.ebay.com/itm/JACQUES-VERT-ROYAL-BLUE-GREY-PRINT-IVORY-SHANTUNG-SHIFT-DRESS-ROYAL-BLUE-JACKET-/162359552078?var=&hash=item25cd62284e:m:m-7DbOJCGlqSL7xuP4aLEpA
p11
aVhttp://www.ebay.com/itm/Fab-Coral-Polyester-Shantung-Dupion-Fabric-112cm-or-45-wide-Per-Metre-/131936762377?hash=item1eb80b3a09:g:iaYAAOSwxg5X1pBh
p12
aVhttp://www.ebay.com/itm/Manos-del-Uruguay-Marina-100-merino-laceweight-hand-dyed-100g-VARIOUS-SHADES-/282321522962?var=&hash=item41bbac9112:m:ml1gxySh2DaeMnsUlPMk62w
p13
aVhttp://www.ebay.com/itm/SHANTUNG-POCKET-SQUARE-HANDKERCHIEF-FORMAL-WEDDING-GROOM-KILT-TO-MATCH-RUCHE-TIE-/360474527565?var=&hash=item53edf4c74d:m:mXu3MG6vL-A1NhcV8Jgm5PQ
p14
aVhttp://www.ebay.com/itm/RUCHE-TIE-CRAVAT-SHANTUNG-VARIOUS-COLOURS-PRE-TIED-SCRUNCH-WEDDING-GROOM-KILT-/360474318862?var=&hash=item53edf1980e:m:mYlc_dwnmxjimYQL2-2pKZg
p15
aVhttp://www.ebay.com/itm/New-Pocket-Hanky-Formal-Wedding-Groom-Kilt-Shantung-Handkerchief-in-French-Blue-/121953777046?hash=item1c6502f596:g:~zsAAOSwgApXDN2K
p16
aVhttp://www.ebay.com/itm/New-Scottish-Kilt-Hose-Garters-Tartan-Shantung-Flashes-with-Garters-Imperial-/122310398582?hash=item1c7a449276:g:k7sAAOSw2xRYeQcS
p17
aVhttp://www.ebay.com/itm/SHANTUNG-KILT-SOCK-FLASHES-FOR-FORMAL-WEDDING-GROOM-KILTWEAR-TO-MATCH-RUCHE-TIES-/130733528769?var=&hash=item1e705356c1:m:mSsTcbruuV7xUcSgxl2FtYQ
p18
aVhttp://www.ebay.com/itm/New-Scottish-Tartan-Kilt-Hose-Shantung-Flashes-with-Garters-in-20-Colours-/302220121837?var=&hash=item465db916ed:m:mZa4z4WouWAgaD1SSLwQJlQ
p19
aVhttp://www.ebay.com/itm/100g-Shantung-Silk-Yarn-Natural-Ecru-for-Weaving-Jewellery-Making-Dyeing-/291386259187?hash=item43d7f976f3:g:JL8AAOSwPYZU5gUN
p20
aVhttp://www.ebay.com/itm/New-Pocket-Hanky-Formal-Wedding-Groom-Kilt-Shantung-Handkerchief-in-Sky-Blue-/301926882687?hash=item464c3e9d7f:g:3zAAAOSw0QFXDNpx
p21
aVhttp://www.ebay.com/itm/New-Scottish-Kilt-Hose-Garters-Tartan-Shantung-Flashes-with-Garters-Purple-/302195290348?hash=item465c3e30ec:g:4bAAAOSwnHZYeQUV
p22
aVhttp://www.ebay.com/itm/New-Scottish-Kilt-Hose-Garters-Tartan-Shantung-Flashes-with-Garters-Fuschia-/361894441051?hash=item544296f05b:g:aZgAAOSwTglYkL~s
p23
aVhttp://www.ebay.com/itm/New-Pocket-Hanky-Formal-Wedding-Groom-Kilt-Shantung-Handkerchief-in-Champagne-/361532905674?hash=item542d0a58ca:g:Z9gAAOSwJQdXDNwL
p24
aVhttp://www.ebay.com/itm/Manos-Del-Uruguay-MARINA-Lace-Weight-Yarn-Shantung-MA7165-/322394574013?hash=item4b1036ccbd:g:VG8AAOSwq~tZN1Fh
p25
a.