(lp1
Vhttp://www.ebay.com/itm/Cotton-Gheri-Single-Serape-Cloak-Hippie-Gypsy-Coat-Mantas-Nepalese-Poncho-Hoodie-/252177026400?var=&epid=1957862920&hash=item3ab6ec0d60:m:mBEzgniKUTsOVYSh00R8xqQ
p2
aVhttp://www.ebay.com/itm/Mexican-Sarape-Serape-Shawl-Table-Runner-Small-Blanket-Rainbow-140x60cm-Yoga-/201788076536?var=&hash=item2efb81b1f8:m:ma_asIDNcPaf0LeT8267Tfw
p3
aVhttp://www.ebay.com/itm/Mexican-Serape-Blanket-100-Authentic-Traditionally-Handloomed-5-x-7ft-BLACK-/142399255086?hash=item2127a8322e:g:VTwAAOSw5cRZLYeO
p4
aVhttp://www.ebay.com/itm/Mexicain-Sarape-Serape-Echarpe-Patin-De-Table-Petit-Couverture-Rainbow-140x60cm-/192086597727?var=&hash=item2cb940e05f:m:ma_asIDNcPaf0LeT8267Tfw
p5
aVhttp://www.ebay.com/itm/Mexican-Serape-Blanket-100-Authentic-Traditionally-Handloomed-5x7ft-NATURAL-/142399283212?hash=item2127a8a00c:g:XJQAAOSwfRdZLZCu
p6
aVhttp://www.ebay.com/itm/Mexikanisch-SARAPE-Serape-Schal-Tischlaufer-klein-Decke-Rainbow-140x60cm-Yoga-/192086605583?var=&hash=item2cb940ff0f:m:ma_asIDNcPaf0LeT8267Tfw
p7
aVhttp://www.ebay.com/itm/Serape-Cape-Pure-Lambswool-in-Buchanan-Antique-Tartan-/222347727342?hash=item33c4f511ee:g:hJAAAOSw4GVYU-K5
p8
aVhttp://www.ebay.com/itm/Luxury-Lambswool-Serape-in-Princess-Diana-Memorial-Tartan-/222347726175?epid=1508192047&hash=item33c4f50d5f:g:QiEAAOSwEzxYU-JA
p9
aVhttp://www.ebay.com/itm/Stunning-Scottish-Large-Tartan-Serape-Wrap-Shawl-New-Wool-14-Tartans-/171993521449?var=&hash=item280b9cdd29:m:mk5jyO71AwENilzVZKO9uaw
p10
aVhttp://www.ebay.com/itm/Mexican-Serape-Sombrero-Dog-Fancy-Dress-National-Novelty-Puppy-Pet-Costume-New-/361830145823?var=&hash=item543ec1df1f:m:m0ED6Mcs1T64CYSfjigjrSA
p11
aVhttp://www.ebay.com/itm/Adults-Mexican-Multi-Coloured-Poncho-Serape-Fancy-Dress-Costume-Accessory-/301999707989?hash=item465095d755:g:OzUAAOSwzJ5Xc5f7
p12
aVhttp://www.ebay.com/itm/Adults-Day-Dead-Skeleton-Halloween-Serape-Shawl-Poncho-Fancy-Dress-Accessory-/391583086564?hash=item5b2c2bb7e4:g:9AsAAOSwpLNX86fF
p13
aVhttp://www.ebay.com/itm/Mexican-Serape-Poncho-Sombrero-Adults-Mens-Womens-Fancy-Dress-Costume-15750-/131434200004?hash=item1e9a16bbc4:g:87UAAOSwe-FU5gej
p14
aVhttp://www.ebay.com/itm/Serape-Cape-Pure-Lambswool-in-Thomson-Camel-Tartan-/222347727707?epid=1337909041&hash=item33c4f5135b:g:GqkAAOSwA3dYU-Ld
p15
aVhttp://www.ebay.com/itm/Fiesta-Multicoloured-Serape-/253032964330?hash=item3ae9f0a0ea:g:P4EAAOSwTY9ZX05r
p16
aVhttp://www.ebay.com/itm/Mens-Mexican-Serape-Hat-Rubies-New-Spanish-Sombrero-Fancy-Dress-Poncho-Costume-/201154887376?var=&epid=1308027195&hash=item2ed5c3fed0:m:mJn0sjn4-NtaZ8VRl7ww9dA
p17
a.