(lp0
Vhttps://www.amazon.co.uk/Huge-Rainbow-Kite-Kids-Activities/dp/B012D3PN7G/ref=sr_1_3/261-3490994-6358718?ie=UTF8&qid=1500121173&sr=8-3&keywords=kite
p1
aVhttps://www.amazon.co.uk/d/Kites-Flight-Toys/Anpro-Huge-Colorful-Kite-Adults/B01IN0149Y/ref=sr_1_4/261-3490994-6358718?ie=UTF8&qid=1500121173&sr=8-4&keywords=kite
p2
aVhttps://www.amazon.co.uk/HQ-Kites-Symphony-Beach-Rainbow/dp/B00ID4QG4O/ref=sr_1_5/261-3490994-6358718?ie=UTF8&qid=1500121173&sr=8-5&keywords=kite
p3
aVhttps://www.amazon.co.uk/Satu-Brown-Activities-Connection-Guarantee/dp/B071YSN18V/ref=sr_1_6/261-3490994-6358718?ie=UTF8&qid=1500121173&sr=8-6&keywords=kite
p4
aVhttps://www.amazon.co.uk/Miniature-Kite-in-a-Bag/dp/B005074BK8/ref=sr_1_7/261-3490994-6358718?ie=UTF8&qid=1500121173&sr=8-7&keywords=kite
p5
aVhttps://www.amazon.co.uk/Anpro-Colorful-Kite-Kids-Adults/dp/B01LY995CS/ref=sr_1_8/261-3490994-6358718?ie=UTF8&qid=1500121173&sr=8-8&keywords=kite
p6
aVhttps://www.amazon.co.uk/Hengda-Kite-Beautiful-Large-Easy-Flyer/dp/B014NMGEQO/ref=sr_1_9/261-3490994-6358718?ie=UTF8&qid=1500121173&sr=8-9&keywords=kite
p7
aVhttps://www.amazon.co.uk/Guenther-1189-Mini-Classic-Single-x/dp/B007K320P8/ref=sr_1_10/261-3490994-6358718?ie=UTF8&qid=1500121173&sr=8-10&keywords=kite
p8
aVhttps://www.amazon.co.uk/Tomi-Kite-Rainbow-Adults-children/dp/B01FVQDLQM/ref=sr_1_11/261-3490994-6358718?ie=UTF8&qid=1500121173&sr=8-11&keywords=kite
p9
aVhttps://www.amazon.co.uk/BESTOYARD-Rainbow-Adults-Outdoor-Activities/dp/B01N78EQ8B/ref=sr_1_12/261-3490994-6358718?ie=UTF8&qid=1500121173&sr=8-12&keywords=kite
p10
aVhttps://www.amazon.co.uk/Octopus-Little-Rocket-Perfect-Childrens/dp/B01H26FRCK/ref=sr_1_13/261-3490994-6358718?ie=UTF8&qid=1500121173&sr=8-13&keywords=kite
p11
aVhttps://www.amazon.co.uk/Docooler-Outdoor-Sports-Parafoil-Handle/dp/B01IUTWS5C/ref=sr_1_14/261-3490994-6358718?ie=UTF8&qid=1500121173&sr=8-14&keywords=kite
p12
aVhttps://www.amazon.co.uk/Hengda-Kite-31-Inch-Rainbow-Parafoil/dp/B017S9IS9U/ref=sr_1_15/261-3490994-6358718?ie=UTF8&qid=1500121173&sr=8-15&keywords=kite
p13
aVhttps://www.amazon.co.uk/Sweet-Ice-Cream-Kite-Kids/dp/B01E77T3UE/ref=sr_1_16/261-3490994-6358718?ie=UTF8&qid=1500121173&sr=8-16&keywords=kite
p14
aVhttps://www.amazon.co.uk/Brookite-215-Mini-Butterfly-Kite/dp/B001YBJEJW/ref=sr_1_17/261-3490994-6358718?ie=UTF8&qid=1500121173&sr=8-17&keywords=kite
p15
aVhttps://www.amazon.co.uk/d/Kites-Flight-Toys/Hengda-Strong-Eagles-Huge-beginner-eagle-Adults/B017YFVLVA/ref=sr_1_18/261-3490994-6358718?ie=UTF8&qid=1500121173&sr=8-18&keywords=kite
p16
aVhttps://www.amazon.co.uk/Spirit-of-Air-020-R-300-A3/dp/B001029DIW/ref=sr_1_19/261-3490994-6358718?ie=UTF8&qid=1500121175&sr=8-19&keywords=kite
p17
aVhttps://www.amazon.co.uk/Mayco-Bell-Portable-Polyester-Material/dp/B01J5K2HCE/ref=sr_1_20/261-3490994-6358718?ie=UTF8&qid=1500121175&sr=8-20&keywords=kite
p18
aVhttps://www.amazon.co.uk/d/Kites-Flight-Toys/Spirit-Air-Classical-Dragon-Fire/B01ASJ0FQ6/ref=sr_1_21/261-3490994-6358718?ie=UTF8&qid=1500121175&sr=8-21&keywords=kite
p19
aVhttps://www.amazon.co.uk/Stunt-Kite-Vibrant-colours-entry-level-x/dp/B00LGWR252/ref=sr_1_22/261-3490994-6358718?ie=UTF8&qid=1500121175&sr=8-22&keywords=kite
p20
aVhttps://www.amazon.co.uk/G%C3%BCnther-1159-Childrens-Rainbow-Colours-x/dp/B000OZN4D6/ref=sr_1_23/261-3490994-6358718?ie=UTF8&qid=1500121175&sr=8-23&keywords=kite
p21
aVhttps://www.amazon.co.uk/d/Sports-Toys-Outdoor/Large-Eagle-Kites-Black-Colour-Sun-Backyard/B01JGQB4T4/ref=sr_1_24/261-3490994-6358718?ie=UTF8&qid=1500121175&sr=8-24&keywords=kite
p22
aVhttps://www.amazon.co.uk/Brookite-CUKI03-Cutter-No-3-Kite/dp/B00067U3EU/ref=sr_1_25/261-3490994-6358718?ie=UTF8&qid=1500121175&sr=8-25&keywords=kite
p23
aVhttps://www.amazon.co.uk/d/stn/HQ-11234615-Quickstep-2-Stunt-Kite-Chroma/B004SUA8YQ/ref=sr_1_26/261-3490994-6358718?ie=UTF8&qid=1500121175&sr=8-26&keywords=kite
p24
aVhttps://www.amazon.co.uk/Kite-Shark-Snack-T-Shirt-Turquoise/dp/B01N4F4KFZ/ref=sr_1_27/261-3490994-6358718?ie=UTF8&qid=1500121175&sr=8-27&keywords=kite
p25
aVhttps://www.amazon.co.uk/dp/B06XWQQZYM/ref=sr_1_28/261-3490994-6358718?ie=UTF8&qid=1500121175&sr=8-28&keywords=kite
p26
aVhttps://www.amazon.co.uk/Portable-Multi-color-Outdoor-Polyester-Triangle/dp/B06XRDCYNN/ref=sr_1_29/261-3490994-6358718?ie=UTF8&qid=1500121175&sr=8-29&keywords=kite
p27
aVhttps://www.amazon.co.uk/Huge-Meter-Rainbow-Octopus-Kite/dp/B01JGR62KO/ref=sr_1_30/261-3490994-6358718?ie=UTF8&qid=1500121175&sr=8-30&keywords=kite
p28
aVhttps://www.amazon.co.uk/d/5ia/Spirit-of-Air-10060-Diamond-Rainbow/B000GET0O2/ref=sr_1_31/261-3490994-6358718?ie=UTF8&qid=1500121175&sr=8-31&keywords=kite
p29
aVhttps://www.amazon.co.uk/d/Outlet/Hengda-Children-Cartoon-Monkey-kite/B017LDY6SU/ref=sr_1_32/261-3490994-6358718?ie=UTF8&qid=1500121175&sr=8-32&keywords=kite
p30
a.