(lp1
Vhttp://www.ebay.com/itm/UK-Winter-Women-Long-Down-Jacket-Padded-Coat-Ladies-Slim-Hooded-Parka-Thicken-/182465899362?var=&hash=item2a7bd0ab62:m:mjCoBH-lCwQeKc6C-veCBtw
p2
aVhttp://www.ebay.com/itm/Portable-EVA-Raincoat-Fashion-Hooded-Rain-Poncho-Unisex-Clear-Thicken-Rain-Coat-/222524072907?var=&hash=item33cf77e3cb:m:mEJ0aEhsvqlHLYAiW_gdbVg
p3
aVhttp://www.ebay.com/itm/Womens-Winter-Warm-Thicken-Coat-Hooded-Parka-Ladies-Long-Jacket-Overcoat-Outwear-/182532685636?var=&hash=item2a7fcbbf44:m:mkFJxDbUpumQr0vw2c-lgYg
p4
aVhttp://www.ebay.com/itm/WUNDERBROW-D-Fine-Eyebrows-Brow-Liner-Define-Thicken-Fill-for-Brunette-/232418099411?epid=1355815108&hash=item361d32c0d3:g:IYUAAOSwPXdZcTix
p5
aVhttp://www.ebay.com/itm/Mens-Cargo-Combat-Camo-Polar-Fleece-Lining-Thicken-Winter-Warm-Trousers-Pants-/302095816226?var=&hash=item4656505622:m:mbjCImSuBgkVZPnBfQ06DJQ
p6
aVhttp://www.ebay.com/itm/UK-Winter-Thicken-Warm-Coat-Outwear-Cotton-Parka-Fur-Collar-outwear-Clearance-/401021211542?var=&hash=item5d5eba1396:m:mCUCjSxNCEQjYD5Y5SOnwbg
p7
aVhttp://www.ebay.com/itm/BAGSMART-Travel-Electronic-Accessories-Thicken-Cable-Organizer-Bag-Portable-4-/122392381534?hash=item1c7f27885e:g:BJgAAOSwB-1YxDBV
p8
aVhttp://www.ebay.com/itm/Gro-aut-Fast-Hair-Grow-Oil-Rapid-Growth-Treatment-Thicken-Repair-Damaged-Hair-/271275645208?var=&hash=item3f2949d918:m:mtJzRNktyym7_yME3_U2kzQ
p9
aVhttp://www.ebay.com/itm/Brand-New-Mens-Winter-Hooded-Jacket-Sweatshirt-Thicken-Fleece-Fur-lined-Hoodie-/152383320716?var=&hash=item237ac0f28c:m:mzVRb0fhK_ujC49yLKerWtw
p10
aVhttp://www.ebay.com/itm/Large-Vintage-Thicken-Long-Cashmere-Warm-Plaid-Scarf-Wrap-Shawl-Women-Hot-/252708091646?var=&hash=item3ad69376fe:m:mENvShCtNlCsH9m6hjNs6Aw
p11
aVhttp://www.ebay.com/itm/WUNDERBROW-D-Fine-Eyebrows-Brow-Liner-Define-Thicken-Fill-for-Black-Brown-/282428487314?epid=1355815108&hash=item41c20cb692:g:a9sAAOSwuLZY68Lk
p12
aVhttp://www.ebay.com/itm/CASSIA-OBOVATA-NEUTRAL-HENNA-POWDE-HAIR-CONDITIONER-THICKEN-SHINE-GLOSS-/271873242165?var=&hash=item3f4ce87435:m:m6tTUQfmMYu7eCRkX_QxOuw
p13
aVhttp://www.ebay.com/itm/Mens-Cargo-Camo-Combat-Thicken-Military-Army-Casual-Winter-Warm-Pants-Trousers-/302095816101?var=&hash=item46565055a5:m:m5Dk2IWKZkmP1CuBHc13Wxw
p14
aVhttp://www.ebay.com/itm/UberBrow-Eye-Brow-Enhancing-Serum-Thicken-Growth-Volume-length-/201890287479?hash=item2f01994f77:g:gyUAAOSwnF9Y75le
p15
aVhttp://www.ebay.com/itm/Super-Patch-Grass-Seed-Thicken-Garden-Lawn-Quick-Easy-Hard-Wearing-Save-Water-1L-/401266368537?epid=1758369563&hash=item5d6d56e019:g:uRMAAOSw5dNWroAX
p16
aVhttp://www.ebay.com/itm/Eylure-False-Eyelashes-Strip-Black-Lengthen-Volume-Flicked-Edges-Double-Thicken-/321818799878?var=&hash=item4aede52f06:m:mxoJ3_vI0D3frZ2Y5FgtmIQ
p17
aVhttp://www.ebay.com/itm/New-Mens-Thicken-Winter-Polar-Fleece-Lining-Warm-Trousers-Cargo-Combat-Pants-/182292274628?var=&hash=item2a71775dc4:m:m_3OZzYHmmNUXKfP-j3cRMw
p18
aVhttp://www.ebay.com/itm/Kitchen-Cooking-Sleeve-Oxford-Cloth-Thicken-Antifouling-Waterproof-Sleeve-1Pair-/112043307150?hash=item1a164d308e:g:JNoAAOSw0gdXTM1P
p19
aVhttp://www.ebay.com/itm/SALLY-HANSEN-Thicken-Up-Nail-Strenght-Treatment-2147-13-3ml-SH045-/121920141430?epid=1463559403&hash=item1c6301b876:g:k3QAAOSw~e5ZVh6j
p20
aVhttp://www.ebay.com/itm/New-Women-Ladies-Winter-Stylish-Tassels-Warm-Thicken-Large-Scarf-Shawl-/282208110778?var=&hash=item41b4ea08ba:m:maA3bwXGKKgrrE8BrOAf72A
p21
aVhttp://www.ebay.com/itm/Casual-Winter-Warm-Mens-Thicken-Trousers-Military-Army-Cargo-Camo-Combat-Pants-/201743254515?var=&hash=item2ef8d5c3f3:m:mB5cBdt3raL0ZPmPyq5ErNg
p22
aVhttp://www.ebay.com/itm/HARD-CANDY-1000-LASHES-FIBERIZED-LASH-WEAVE-PRIMER-WILL-THICKEN-LENGTHEN-/111736622923?hash=item1a04058f4b:g:5oEAAOSw~gRVw23N
p23
aVhttp://www.ebay.com/itm/New-Mens-Thicken-Winter-Warm-Trousers-Military-Army-Camo-Combat-Casual-Pants-/272400786162?var=&hash=item3f6c5a22f2:m:m8b5f9R1xY9OX_D60RYH5SA
p24
aVhttp://www.ebay.com/itm/Paul-Mitchell-Extra-Body-Thicken-Up-Styling-Liquid-200ml-/272208592641?epid=883883692&hash=item3f60e57f01:g:YJQAAOSw-RRXC9j3
p25
aVhttp://www.ebay.com/itm/TIME-BOMB-Operation-Glam-High-Profile-Thicken-Lift-Spray-75-or-150ml-/201543545991?var=&epid=1108898086&hash=item2eecee7487:m:m-Yrz03SlLNGr04SdNyN27w
p26
aVhttp://www.ebay.com/itm/West-Biking-Big-Thicken-Bicycle-Seat-Bike-Cushion-Pad-Cycling-Saddle-/302263554032?epid=525461038&hash=item46604fcff0:g:-58AAOSw4A5Y1t97
p27
aVhttp://www.ebay.com/itm/Hot-Mens-Thicken-Winter-Polar-Fleece-Lining-Warm-Trousers-Cargo-Combat-Pants-/322274559018?var=&hash=item4b090f842a:m:mhyUsK_ImPSFQX7AmWb24Gw
p28
aVhttp://www.ebay.com/itm/Pinzz-Thicken-Mildew-Resistant-Washable-Polyester-Fabric-White-Shower-Curtain-/182466322859?hash=item2a7bd721ab:g:h14AAOSwSlBYsCxd
p29
aVhttp://www.ebay.com/itm/Avon-Anew-Beauty-Lash-Transforming-Mascara-Serum-Thicken-Black-RRP-10-/231676565532?hash=item35f0ffd81c:g:kbwAAOSw0JpV6cGp
p30
aVhttp://www.ebay.com/itm/Lujex-41-Advanced-Waterproof-Thicken-Padded-Soft-Case-Acoustic-Guitar-Bag-Tote-/141525233684?var=&epid=1285754856&hash=item20f38fb014:m:mH91-Qscwt5TmHKDJoxIqVA
p31
aVhttp://www.ebay.com/itm/W7-Argan-Eyes-Mascara-Conditioning-Oil-Thicken-Black-Volumise-Lashes-/232300355289?epid=1141953157&hash=item36162e1ed9:g:8bQAAOSw4CFY7iUm
p32
aVhttp://www.ebay.com/itm/ARGAN-SECRET-PERFECT-END-150ml-SPLIT-ENDS-TREATMENT-MENDS-AND-THICKEN-FINE-HAIR-/252814689731?epid=1940011364&hash=item3adcee05c3:g:Qv8AAOSwCGVX8DqG
p33
aVhttp://www.ebay.com/itm/VO5-Extreme-Style-Thicken-Up-gelFoam-150ml-/222199903452?epid=1961423215&hash=item33bc2574dc:g:T0wAAOSwAuNW4gkw
p34
aVhttp://www.ebay.com/itm/Dimples-False-Eyelashes-2-Sets-Thicken-Lengthen-Volume-Single-Individual-Flared-/221857095195?var=&hash=item33a7b69e1b:m:mETTa41A7TgR2F2DbxBJekA
p35
aVhttp://www.ebay.com/itm/VO5-Extreme-Style-Casual-Control-Thicken-Up-Paste-75ml-/162380634445?epid=1792334683&hash=item25cea3d94d:g:WBYAAOSwo4pYkxzr
p36
aVhttp://www.ebay.com/itm/Thicken-Luxury-Washable-Soft-Warm-Basket-Dog-Bed-Pet-With-Fleece-Lining-Deluxe-/262878911712?var=&hash=item3d34cddce0:m:mSqX0JamAqKZeS3uXcoVvcA
p37
aVhttp://www.ebay.com/itm/VO5-Extreme-Style-Thicken-Up-Boosting-Fibre-75ml-/262539357452?epid=1678780462&hash=item3d2090ad0c:g:APMAAOSwbsBXkk0G
p38
aVhttp://www.ebay.com/itm/VO5-Extreme-Style-Thicken-Up-Boosting-Fibre-75ml-/262539357452?epid=1678780462&hash=item3d2090ad0c:g:APMAAOSwbsBXkk0G
p39
aVhttp://www.ebay.com/itm/Sally-Hansen-Thicken-Up-Strength-Nail-Treatment-/262465082864?hash=item3d1c2355f0:g:b4YAAOSwMNxXT~vv
p40
aVhttp://www.ebay.com/itm/Sally-Hansen-Thicken-Up-Strength-Nail-Treatment-BOXED-/262501542829?epid=1575653892&hash=item3d1e4fabad:g:B4AAAOSwwo1XclNN
p41
aVhttp://www.ebay.com/itm/24-x-Wholesale-Joblot-Operation-Glam-High-Profile-Thicken-Lift-Hair-Spray-75ml-/252836683727?epid=894968946&hash=item3ade3d9fcf:g:Uv0AAOSwuLZY3N4l
p42
aVhttp://www.ebay.com/itm/8L-Cold-Insulation-Heat-Preservation-Travel-Picnic-Bag-Double-Thicken-Ice-Pack-/222425662231?var=&epid=1078773109&hash=item33c99a4317:m:m0b1of3Z-7cGG-UDsYaCZ3g
p43
aVhttp://www.ebay.com/itm/1Pair-Mens-Knitted-Gloves-Winter-Warm-Thicken-Thermal-Wool-Mittens-Men-UK-/252746978024?var=&hash=item3ad8e4d2e8:m:m5UjNv2928A0FQE2wwcXzyw
p44
aVhttp://www.ebay.com/itm/GRO-AUT-HERBAL-CONDITIONER-FOR-FAST-HAIR-GROWTH-RAPID-TREATMENT-THICKEN-REPAIR-/111331368805?epid=1342639398&hash=item19ebdddf65:g:DzsAAMXQyY1TU7M8
p45
aVhttp://www.ebay.com/itm/Set-of-2-4-Thicken-rubber-brake-blocks-pads-cycle-bike-V-brakes-70mm-long-/302360339471?var=&hash=item466614a40f:m:mE6ltSyEmSAQb7trByMqmcQ
p46
aVhttp://www.ebay.com/itm/LEORX-Women-Winter-Knitted-Thicken-Hat-Cap-and-Scarf-Set-Grey-/262750680838?epid=1453027245&hash=item3d2d293706:g:y~0AAOSwA3dYRlLY
p47
aVhttp://www.ebay.com/itm/Eylure-False-Eyelashes-Fake-Strip-Flick-Vintage-Multi-Use-Double-Layer-Thicken-/252045911288?var=&hash=item3aaf1b64f8:m:mNnsb5tCuCrYUQNszkf5wsA
p48
aVhttp://www.ebay.com/itm/Beddingleer-200cm-X-200cm-Thicken-Mildew-Free-Water-Repellent-Fabric-Shower-/142347167322?epid=716993922&hash=item21248d665a:g:gTgAAOSwpP9Y7qAs
p49
aVhttp://www.ebay.com/itm/SALLY-HANSEN-2147-THICKEN-UP-STRENGTH-TREATMENT-BRAND-NEW-/192029939995?epid=1463559403&hash=item2cb5e0591b:g:F2EAAOSw44BYLbQH
p50
aVhttp://www.ebay.com/itm/W7-Lashtastic-Mascara-Black-Lengthening-Bold-Lashes-Eye-Volume-Thicken-/332181380627?epid=1407808576&hash=item4d578d9e13:g:348AAOSwB-1Y7l6y
p51
aVhttp://www.ebay.com/itm/CHATSWORTH-480G-HARD-WEARING-TO-HELP-THICKEN-LAWNS-SUPER-PATCH-QUICK-GRASS-SEED-/122537129013?epid=1423166686&hash=item1c87c83435:g:qGAAAOSwWxNY1u08
p52
aVhttp://www.ebay.com/itm/Butterme-Unisex-Thicken-Lengthen-Breathable-Elastic-Cashmere-Wool-Knee-Warmer-/302263580222?epid=681612744&hash=item466050363e:g:mKoAAOSwhQhY1ug7
p53
aVhttp://www.ebay.com/itm/1-Pair-Non-Skid-Unisex-Shoe-Covers-Thicken-Washable-Non-woven-Breathable-Home-/272525034487?hash=item3f73c203f7:g:~WwAAOSwNnRYfe7O
p54
aVhttp://www.ebay.com/itm/HEAD-SHOULDERS-HAIR-ENDURANCE-BREAKAGE-THICKEN-EXTRA-STRENGTHENING-TONIC-50ml-/162429873509?epid=538091195&hash=item25d1932d65:g:xmUAAOSwzgBYxtmz
p55
aVhttp://www.ebay.com/itm/LEORX-Women-Winter-Knitted-Thicken-Hat-Cap-and-Scarf-Set-Grey-/302099477534?epid=1453027245&hash=item465688341e:g:6hsAAOSwpLNX9~lN
p56
aVhttp://www.ebay.com/itm/VO5-Extreme-Style-Thicken-Up-Lifting-Paste-2X75ml-/152630323173?hash=item238979e7e5:g:DS8AAOSwTM5Ytzsn
p57
aVhttp://www.ebay.com/itm/Unisex-Thicken-Lengthen-Breathable-Elastic-Wool-Cashmere-Knees-Warmers-Knees-for-/152070150357?epid=1855651384&hash=item23681658d5:g:hZwAAOSwiYFXIO1y
p58
aVhttp://www.ebay.com/itm/Color-Wow-Raise-the-Root-Thicken-Lift-Spray-150ml-/291822571421?epid=1722045309&hash=item43f1fb0f9d:i:291822571421
p59
aVhttp://www.ebay.com/itm/Large-Super-Patch-Grass-Lawn-Seeds-Thicken-Garden-Quick-Easy-Save-Water-480-G-/400983196545?epid=850196518&hash=item5d5c760381:g:o6wAAOSwFqJWrnfH
p60
aVhttp://www.ebay.com/itm/HEAD-SHOULDERS-HAIR-ENDURANCE-BREAKAGE-THICKEN-EXTRA-STRENGTHENING-TONIC-125ML-/201363543193?hash=item2ee233d499:g:jH4AAOSwZd1VbXtn
p61
aVhttp://www.ebay.com/itm/3X-VO5-Extreme-Style-Thicken-Up-Boosting-Fibre-3-X-75ml-/152621918066?epid=1678780462&hash=item2388f9a772:g:OwcAAOSwTuJYnfzh
p62
aVhttp://www.ebay.com/itm/HAIR-TREATMENT-OIL-100-Pure-Alopecia-Scalp-Thinning-100ml-BP-Thickening-Healing-/272510292863?hash=item3f72e1137f:g:KmwAAOSwGtRXz34f
p63
aVhttp://www.ebay.com/itm/AsentechUK-10-Inch-Thicken-Carbon-Steel-Round-Non-Stick-Deep-Pizza-Pan-Oven-/142383108696?hash=item2126b1d258:g:E3gAAOSwjL5ZGMD5
p64
aVhttp://www.ebay.com/itm/Scotts-Evergreen-Liquid-Feed-and-Moss-1L-66-7m2-Kill-Moss-Thicken-Lawn-/252808134840?epid=1437432389&hash=item3adc8a00b8:g:06kAAOSwOgdYxAfi
p65
aVhttp://www.ebay.com/itm/W7-Cosmetics-Black-Mascara-Lengthening-Thickening-False-Lash-Effect-Full-Range-/152612424278?var=&hash=item238868ca56:m:mx3R5i4W4tgNyAk0GIFklIg
p66
aVhttp://www.ebay.com/itm/Pellor-Thicken-Barbell-Pad-Olympic-Bar-Neck-and-Shoulder-Protective-Pad-For-Fit-/201780838779?hash=item2efb13417b:g:cBoAAOSw44BYdi54
p67
aVhttp://www.ebay.com/itm/Scotts-Evergreen-Liquid-Feed-and-Moss-1L-66-7m2-Kill-Moss-Thicken-Lawn-/332137190079?epid=571655792&hash=item4d54eb52bf:g:dKkAAOSwxxdZaJjE
p68
aVhttp://www.ebay.com/itm/D-STRUCT-MENS-THICKEN-FUR-FLEECE-LINED-HOODED-FISHTAIL-WINTER-PARKA-COAT-JACKET-/321905373767?var=&epid=1145046959&hash=item4af30e3247:m:mLJuPqiMlVKFFqr2uhq3FOA
p69
aVhttp://www.ebay.com/itm/Winter-Warm-Mens-Thicken-Trousers-Military-Army-Casual-Pants-Cargo-Camo-Combat-/122151143844?var=&hash=item1c70c689a4:m:mdWf65SO48hDCvr_1Bm_ZBA
p70
aVhttp://www.ebay.com/itm/UNHO-Color-Cozy-Firm-Soft-Thicken-Reflective-Harness-for-Small-Medium-Large-Dog-/131552153759?var=&hash=item1ea11e909f:m:mdQoJPd68WPWC2MHqFAfhuw
p71
aVhttp://www.ebay.com/itm/HAIR-TREATMENT-OIL-100-Pure-Scalp-Alopecia-Thinning-100ml-BP-Thickening-Healing-/272361812553?hash=item3f6a077249:g:KmwAAOSwGtRXz34f
p72
aVhttp://www.ebay.com/itm/Individual-Lashes-Flare-Black-Long-Thicken-Appearance-By-Salon-System-/311098412332?epid=2019694803&hash=item486ee90d2c:g:RzwAAOSwxH1UHBA0
p73
aVhttp://www.ebay.com/itm/Women-Round-Neck-Long-Sleeve-Knitting-Thicken-Pullover-Snowflake-Sweater-Jumper-/261326943053?var=&hash=item3cd84cb34d:m:mVLH-weSYHfTNu5do_feIRA
p74
aVhttp://www.ebay.com/itm/Mens-Winter-Warm-Cargo-Combat-Camo-Pants-Polar-Fleece-Lining-Thicken-Trousers-/192022798844?var=&hash=item2cb57361fc:m:mQFjTn2q1TYD_JNt_5cnLjw
p75
aVhttp://www.ebay.com/itm/Mens-Thicken-Winter-Warm-Trousers-Military-Army-Cargo-Camo-Combat-Casual-Pants-/282195986334?var=&hash=item41b431079e:m:mw7r_H4mVoXbx9ryWipkVIg
p76
aVhttp://www.ebay.com/itm/Winter-Mens-Polar-Fleece-Lining-Thicken-Warm-Trousers-Cargo-Combat-Camo-Pants-/122151139700?var=&hash=item1c70c67974:m:mKH43xbVrC4f4d6AzkJxstA
p77
aVhttp://www.ebay.com/itm/VO5-Extreme-Style-Thicken-Up-Lifting-Paste-75ml-/152263519650?epid=1678780462&hash=item23739ceda2:g:OfUAAOSwzaJX8QX4
p78
aVhttp://www.ebay.com/itm/Alterna-Caviar-Anti-Ageing-Bodybuilding-Volume-Shampoo-250ml-Rebuild-Thicken-/322065688678?hash=item4afc9c6866:g:MeIAAOSwZ8ZXBY4o
p79
aVhttp://www.ebay.com/itm/Mens-Fleece-Lining-Thicken-Warm-Military-Army-Cargo-Combat-Work-Pants-Trousers-/122151147085?var=&hash=item1c70c6964d:m:m7gE6p5x8a3ODLp2qe_zhfw
p80
aVhttp://www.ebay.com/itm/UK-White-3D-Brick-Soft-Foam-Thicken-Wall-Sticker-Panels-Wallpaper-Decal-60x60cm-/172626342894?epid=577814770&hash=item283154f3ee:g:rQgAAOSwn8FXSWNw
p81
aVhttp://www.ebay.com/itm/Casual-Mens-Camo-Combat-Military-Trousers-Thicken-Polar-Fleece-Pocket-Pants-/192021880854?var=&hash=item2cb5656016:m:mBPu9fQS1lQzcGVGSXLsEsQ
p82
aVhttp://www.ebay.com/itm/Children-Kids-Girls-Floral-Outerwear-Long-Sleeve-Cotton-Thicken-Jacket-Snow-Coat-/252466943534?var=&hash=item3ac833d62e:m:mO0w9GqPtoICsXk087CoE6Q
p83
aVhttp://www.ebay.com/itm/Clynol-Style-Thicken-Hair-Thickening-Elixir-150ml-/172707562125?epid=2005893650&hash=item28362c428d:g:jaAAAOSwImRYmxxU
p84
aVhttp://www.ebay.com/itm/200G-Chatsworth-SUPER-PATCH-Lawn-Repair-Grass-Seed-Thicken-Lawns-Hardwearing-/371987421496?epid=1423166686&hash=item569c2d9938:g:B6sAAOSw-KFXeAcr
p85
aVhttp://www.ebay.com/itm/DELIA-3D-LASHES-NEW-LOOK-MASCARA-BLACK-THICKEN-LENGTHEN-CURL-ENLARGED-EYELASHES-/301184710437?epid=1058605978&hash=item462001f725:g:reQAAOxyCTtTdIwg
p86
aVhttp://www.ebay.com/itm/Scotts-Evergreen-Liquid-Feed-and-Moss-1L-66-7m2-Kill-Moss-Thicken-Lawn-119406-/332130587159?epid=571655792&hash=item4d54869217:g:yjwAAOSwTuJYqDUq
p87
aVhttp://www.ebay.com/itm/UberBrow-Eye-Brow-Enhancing-Serum-Thicken-Eyebrows-Giving-a-Youthful-Looking-/351835644839?hash=item51eb09e3a7:g:DXwAAOSwFdtX0~0o
p88
aVhttp://www.ebay.com/itm/WUNDERBROW-D-Fine-Eyebrows-Brow-Liner-Define-Thicken-and-Fill-for-Black-Brown-/192185041415?epid=1355815108&hash=item2cbf1f0207:g:TJQAAOSww9xZFZDo
p89
aVhttp://www.ebay.com/itm/RESOURCE-THICKEN-UP-NEUTRAL-125g-/302339576877?hash=item4664d7d42d:g:ciEAAOSww5hZM8kA
p90
aVhttp://www.ebay.com/itm/PAUL-MITCHELL-THICKEN-UP-200ml-BEST-PRICE-GURANTEED-DELIVERY-/201641717357?hash=item2ef2c86e6d:g:sZ8AAOSwgZ1XqRQl
p91
aVhttp://www.ebay.com/itm/Love-atti-Python-Snake-Skin-Mascara-Lengthen-Thicken-Your-Lashes-Snakeskin-Box-/252476316454?hash=item3ac8c2db26:g:fPwAAOSw0fhXl2O8
p92
aVhttp://www.ebay.com/itm/Broki-Gel-Saddle-Seat-Cover-For-Cycle-Exercise-Spin-Bike-3D-Extra-Thicken-/201946935366?epid=625998201&hash=item2f04f9b046:g:Z1sAAOSwxu5ZNVer
p93
aVhttp://www.ebay.com/itm/VO5-Extreme-Style-Thicken-Up-Boosting-Fibre-75ml-/162224358733?epid=1678780462&hash=item25c553454d:g:HGcAAOSw4shX7-Mh
p94
a.