(lp1
Vhttp://www.ebay.com/itm/THIMBLE-SCISSORS-SEWING-SEAMSTRESS-2-PIECE-3D-CHARM-925-STERLING-SILVER-/361605930783?epid=1366155716&hash=item5431649f1f:g:khQAAOxyaURTiwkV
p2
aVhttp://www.ebay.com/itm/Disney-Traditions-Jim-Shore-Ornament-Suzy-Figurine-Cinderella-Seamstress-/252979167874?epid=1780639893&hash=item3ae6bbc282:g:vQgAAOSwAPVZODE5
p3
aVhttp://www.ebay.com/itm/The-Seamstress-Of-Bloomsbury-1942-Vintage-40s-WW2-Designer-Swing-Jive-Tea-Dress-/231577085275?var=&hash=item35eb11e55b:m:mFn9enf5Gd1kCwBlaEbPT-g
p4
aVhttp://www.ebay.com/itm/HAND-MADE-Sewing-Machine-Dressmaker-Seamstress-Silver-link-Brooch-Pin-/200983979938?hash=item2ecb9427a2:g:sjwAAOSwoydWliMc
p5
aVhttp://www.ebay.com/itm/6-VINTAGE-SEWING-SEAMSTRESS-THEME-TAGS-CARD-MAKING-SCRAPBOOKING-EMBELLISHMENTS-/190718159108?epid=1188278433&hash=item2c67b02904:m:m16zWvajUipHIo2L_8yOEqg
p6
aVhttp://www.ebay.com/itm/Ornate-Vintage-Style-Seamstress-Sewing-Scissors-Charm-Necklace-/322004581154?hash=item4af8f7fb22:g:dB4AAOSw~OVWu18t
p7
aVhttp://www.ebay.com/itm/Sewing-brooch-Pin-Badge-Seamstress-Gift-Sewing-Gift-Knitting-Pin-quilting-badge-/112027568770?var=&hash=item1a155d0a82:m:mx2DzoUuwm4gqBvIIe_KZOA
p8
aVhttp://www.ebay.com/itm/Singer-sewing-keyring-Sewing-brooch-beading-seamstress-gift-knitting-pin-gift-/111522740804?var=&hash=item19f745fa44:m:moTKz8KH155Pr5g1_nKXG4w
p9
aVhttp://www.ebay.com/itm/Sewing-Mends-Soul-Seamstress-Dress-Quote-Wall-Art-Stickers-Decals-Vinyl-Room-/291583872914?var=&hash=item43e3c0cf92:m:mo2Wxo7fwxEaqZpfRQ6D4Zw
p10
aVhttp://www.ebay.com/itm/KIDS-CHILDRENS-THE-LITTLE-SEAMSTRESS-SEWING-MACHINE-ACCESSORIES-NEW-/302199274434?hash=item465c7afbc2:g:OUAAAOSwaA5Wh-iM
p11
aVhttp://www.ebay.com/itm/Sewing-keyrings-bronze-tibetan-silver-seamstress-sewing-machine-knitting-keyrig-/121562776282?var=&hash=item1c4db4c2da:m:moLhxhr3aefZfQ_NTFsMCOg
p12
aVhttp://www.ebay.com/itm/Playing-Cards-1-Single-Swap-Card-Old-Wide-SINGER-SEWING-MACHINES-Lady-Seamstress-/352113324542?hash=item51fb96f1fe:g:9AAAAOSwkttZZ~Hs
p13
aVhttp://www.ebay.com/itm/Novelty-Zip-Fastener-Stud-Earrings-gold-silver-or-black-Sewing-Seamstress-Zipper-/121461436772?var=&hash=item1c47aa7164:m:mLUvjozjPFHdEElUpTwFgMg
p14
aVhttp://www.ebay.com/itm/8-x-Sewing-Seamstress-Fashion-Embellishments-Craft-Cardmaking-Scrapbooking-/401324810095?hash=item5d70d29f6f:g:HPUAAOSwfpVZExFb
p15
aVhttp://www.ebay.com/itm/SEWING-MACHINE-DRESS-MAKING-SEAMSTRESS-CRAFTING-3D-CHARM-925-STERLING-SILVER-/361582470333?hash=item542ffea4bd:g:uMIAAOxyGJFR6vZz
p16
aVhttp://www.ebay.com/itm/Silver-Scissor-Earrings-Victorian-Studs-novelty-hairdresser-Antique-Seamstress-/122345699021?hash=item1c7c5f36cd:g:D50AAOSwUKxYme1v
p17
aVhttp://www.ebay.com/itm/Craftiness-Sewing-Quilting-Seamstress-Quote-Wall-Art-Stickers-Decals-Vinyl-Home-/301816198760?var=&hash=item4645a5b668:m:mbeCCs4fQqNR2q49tPhAldg
p18
aVhttp://www.ebay.com/itm/NAMED-SEWING-PATTERN-KIELO-WRAP-DRESS-HANDMADE-CLASSIC-SEAMSTRESS-GIFT-/112344922982?hash=item1a28477b66:g:kisAAOSwB09YRXNu
p19
aVhttp://www.ebay.com/itm/1940s-Vintage-Inspired-Clarice-Blouse-by-The-Seamstress-of-Bloomsbury-/232083495687?var=&hash=item3609411b07:m:mqXZXl_7avySCxt7tiFrKSA
p20
aVhttp://www.ebay.com/itm/Sewing-brooch-kilt-pin-seamstress-sewing-machine-knitting-brooch-gift-bronze-MUM-/112026189845?var=&hash=item1a15480015:m:m2BdvKDd0OLjD4QxdUfbHvA
p21
aVhttp://www.ebay.com/itm/NEW-KIDS-CHILDRENS-THE-LITTLE-SEAMSTRESS-SEWING-MACHINE-ACCESSORIES-NEW-/272108705927?hash=item3f5af15887:g:OUAAAOSwaA5Wh-iM
p22
aVhttp://www.ebay.com/itm/Sewing-Keyring-Seamstress-Thread-Needle-Sewing-Machine-Charms-Dressmakers-Gift-/351953499527?hash=item51f2103587:g:BzEAAOSwqu9VCFFB
p23
aVhttp://www.ebay.com/itm/Steel-Seamstress-Pins-Pack-of-450-/261886609335?hash=item3cf9a887b7:g:vvYAAOSwopRYeNBh
p24
aVhttp://www.ebay.com/itm/9-VINTAGE-SEWING-SEAMSTRESS-THREAD-SPOOL-CARD-MAKING-CRAFT-EMBELLISHMENTS-/191431849317?hash=item2c923a3565:g:zFAAAOSwaNBUe37R
p25
aVhttp://www.ebay.com/itm/Small-925-Sterling-Silver-Button-Charm-Buttons-Clothes-Seamstress-Charms-/161883525007?hash=item25b1028f8f:g:Id8AAOSwjqVZAjLf
p26
aVhttp://www.ebay.com/itm/Sewing-Seamstress-Needle-Hobby-Quote-Wall-Art-Stickers-Decals-Vinyl-Home-Room-/291631642589?var=&hash=item43e699b7dd:m:madCVbNxJCBPUyow6ooz0dA
p27
aVhttp://www.ebay.com/itm/White-Red-Fat-Quarter-Meter-Cotton-Fabric-Sewing-Seamstress-Scissors-Shears-/121590778112?var=&hash=item1c4f600900:m:mKBATKaD5cfFcKhmE7z-iRQ
p28
aVhttp://www.ebay.com/itm/HAPPY-SEWING-CURTAINS-DRESSMAKING-FABRIC-KNITTING-WOOL-SEAMSTRESS-CRAFTS-/401063168962?hash=item5d613a4bc2:g:N1AAAOSwoydWq3iE
p29
aVhttp://www.ebay.com/itm/C11-Personalised-Wedding-Bridesmaid-Dress-Maker-Seamstress-thank-you-gift-plaque-/301642469755?hash=item463b4ad17b:g:iT4AAOSwLqFV7rID
p30
aVhttp://www.ebay.com/itm/Opening-Sewing-Machine-Charm-925-x-1-Seamstress-Dressmaker-Charms-BJ1435-/200798435102?hash=item2ec084f71e:g:wZsAAOSw6YtZOKWm
p31
aVhttp://www.ebay.com/itm/NAMED-SEWING-PATTERN-INARI-TEE-DRESS-CHOP-TEE-HANDMADE-CLASSIC-SEAMSTRESS-GIFT-/182500124116?hash=item2a7ddae5d4:g:YxEAAOSw5cNYRXFl
p32
aVhttp://www.ebay.com/itm/Sewing-bracelet-charms-singer-charm-knitting-bracelet-charm-seamstress-gifts-/121803383809?var=&hash=item1c5c0c2401:m:mMCULfnxj-XiPEFeA0MyZMA
p33
aVhttp://www.ebay.com/itm/The-Forgotten-Seamstress-Liz-Trenow-/381593376598?epid=176535087&hash=item58d8bcd756:g:vMEAAOSwjwlXBL7n
p34
aVhttp://www.ebay.com/itm/The-Forgotten-Seamstress-Liz-Trenow-/381593376598?epid=176535087&hash=item58d8bcd756:g:vMEAAOSwjwlXBL7n
p35
aVhttp://www.ebay.com/itm/Keep-Calm-And-Carry-On-Sewing-Mug-Can-Be-Personalised-Tailor-Seamstress-Fun-Gift-/400787815019?var=&hash=item5d50d0ba6b:m:mWlGonzsc6CySbnWRXRz-FQ
p36
aVhttp://www.ebay.com/itm/Dressmakers-Form-sterling-silver-charm-925-x1-Tailor-Seamstress-Charms-DKC44524-/200798269731?hash=item2ec0827123:g:9P4AAOSwfRdZOIoB
p37
aVhttp://www.ebay.com/itm/Sewing-zipper-bag-charms-singer-charm-knitting-zipper-bag-charm-seamstress-gifts-/121726211393?var=&hash=item1c57729541:m:mYbcK9r-_4rquTb0pY2B3pA
p38
aVhttp://www.ebay.com/itm/Sewing-Aid-for-the-Seamstress-in-a-Double-Seam-Ripper-with-Beautiful-Wood-Finish-/351792453315?var=&hash=item51e876d6c3:m:mFzVvF_emGhBfqrbevWC9IQ
p39
aVhttp://www.ebay.com/itm/New-120-3M-Tailor-Seamstress-Cloth-Body-Ruler-Tape-Measure-Sewing-Cloth-/222508862487?hash=item33ce8fcc17:g:lV8AAOSwi7RZFaHZ
p40
aVhttp://www.ebay.com/itm/Dressmakers-Dress-Form-sterling-silver-charm-925-x-1-Seamstress-charms-CF342-/200798210214?hash=item2ec08188a6:m:mF2hwqed3lFnHtpPElS7Dew
p41
aVhttp://www.ebay.com/itm/Sewing-Room-Vinyl-Wall-Decal-Sticker-For-Dressmaker-Seamstress-Craft-room-etc-/182502437912?var=&hash=item2a7dfe3418:m:melJ_DXz46ACRmv2lOlf7-A
p42
aVhttp://www.ebay.com/itm/NEW-KIDS-CHILDRENS-THE-LITTLE-SEAMSTRESS-SEWING-MACHINE-ACCESSORIES-NEW-/272108705069?hash=item3f5af1552d:g:OUAAAOSwaA5Wh-iM
p43
aVhttp://www.ebay.com/itm/HIGH-QUALITY-NEW-CHILDRENS-LITTLE-SEAMSTRESS-SEWING-MACHINE-WITH-ACCESSORIES-/281904138296?epid=1289155499&hash=item41a2cbc838:g:OUAAAOSwaA5Wh-iM
p44
aVhttp://www.ebay.com/itm/Craft-Sewing-Quilting-Seamstress-Wall-Art-Stickers-Decals-Vinyl-Home-Room-Decor-/301816198731?var=&hash=item4645a5b64b:m:mXQBcq1l01LQGndRJhMic-w
p45
aVhttp://www.ebay.com/itm/NEW-KIDS-CHILDRENS-THE-LITTLE-SEAMSTRESS-SEWING-MACHINE-ACCESSORIES-NEW-/272108705069?hash=item3f5af1552d:g:OUAAAOSwaA5Wh-iM
p46
aVhttp://www.ebay.com/itm/Embroidered-Quilt-Block-Panel-Seamstress-Pure-Irish-Linen-Fabric-/262875997716?hash=item3d34a16614:g:sZ0AAOSw2gxYttw1
p47
aVhttp://www.ebay.com/itm/Sewing-Machine-sterling-silver-charm-925-x-1-seamstress-charms-SSLP1239-/200798401099?hash=item2ec084724b:g:wgMAAOSwq1JZOFBN
p48
aVhttp://www.ebay.com/itm/TIBETAN-SILVER-SEWING-MACHINE-Keyring-Bag-Charm-Dressmaker-Sew-Seamstress-/381753745936?hash=item58e24be210:g:GzkAAOSwGtRXxf-y
p49
aVhttp://www.ebay.com/itm/HIGH-QUALITY-NEW-CHILDRENS-LITTLE-SEAMSTRESS-SEWING-MACHINE-WITH-ACCESSORIES-/281904138296?epid=1289155499&hash=item41a2cbc838:g:OUAAAOSwaA5Wh-iM
p50
aVhttp://www.ebay.com/itm/KIDS-CHILDRENS-THE-LITTLE-SEAMSTRESS-SEWING-MACHINE-MANNEQUINS-ACCESSORIES-/262478356275?epid=1065281902&hash=item3d1ceddf33:g:oOgAAOSw5cNYMOcW
p51
aVhttp://www.ebay.com/itm/Bobbin-Always-Full-Sewing-Seamstress-Needle-Wall-Art-Stickers-Decals-Vinyl-Home-/301875042227?var=&hash=item46492797b3:m:m8AOBxzqJBqBXMU3LRqZDeA
p52
aVhttp://www.ebay.com/itm/NEW-CHILDRENS-THE-LITTLE-SEAMSTRESS-SEWING-MACHINE-WITH-MANNEQUINS-ACCESSORIES-/252444917306?hash=item3ac6e3be3a:g:sn4AAOSwf-VWYMV2
p53
aVhttp://www.ebay.com/itm/Playing-Cards-1-Single-Swap-Card-Old-Wide-SINGER-SEWING-MACHINES-Lady-Seamstress-/352113322245?hash=item51fb96e905:g:lnoAAOSwKoRZZ~Dp
p54
aVhttp://www.ebay.com/itm/KIDS-CHILDRENS-THE-LITTLE-SEAMSTRESS-SEWING-MACHINE-MANNEQUINS-ACCESSORIES-/262731233987?epid=1065281902&hash=item3d2c007ac3:g:1hUAAOSwHMJYNXoL
p55
aVhttp://www.ebay.com/itm/Elegant-Silhouette-Shabby-Chic-Dress-Making-Sewing-Lace-Trim-Rose-Flower-Sticker-/291548117855?var=&hash=item43e19f3b5f:m:mmL_mFmk1v1t-uMoJZq57bg
p56
aVhttp://www.ebay.com/itm/Sewing-Machine-sterling-silver-charm-925-x-1-seamstress-charms-SSLP1346-/361154091344?hash=item5416761950:g:InsAAOSwtGlZOFAB
p57
aVhttp://www.ebay.com/itm/3M-Cotton-Ribbon-Twill-Tape-Japanese-Trimming-Bunting-Handmade-Tags-Scrapbook-/111643171664?var=&hash=item19fe739b50:m:m9d8WWm3_FBWJIT2Ux0UNiQ
p58
aVhttp://www.ebay.com/itm/STYROFOAM-DRESSMAKING-MANNEQUIN-MANEQUIN-SIZE-36-38-DECORATIVE-SEAMSTRESS-/231527682109?hash=item35e820103d:g:~GUAAOSwBahVJpN~
p59
aVhttp://www.ebay.com/itm/1-Meter-Tape-Measure-150CM-60-Tailor-Seamstress-Measuring-Cloth-Ruler-Craft-/292084176963?epid=941407331&hash=item440192d843:g:jvsAAOSwc49Y7nnH
p60
aVhttp://www.ebay.com/itm/60-soft-tailor-seamstress-dressmaking-sewing-tape-measures-with-fragile-cases-/262702094085?var=&hash=item3d2a43d705:m:mylMZBG0Gbg-edqeT2_81OQ
p61
aVhttp://www.ebay.com/itm/5-pcs-60-inch-soft-tailor-seamstress-dressmaking-sewing-tape-measures-with-cases-/251203880575?hash=item3a7ceb067f:m:mVW7Go6uOPnL96l0LuxIJrg
p62
a.