(lp1
Vhttp://www.ebay.com/itm/Universal-ANIMAL-FLEX-X-44-complete-joint-support-stack-44-packs-/221915290028?epid=1841196849&hash=item33ab2e99ac:g:0IEAAOSw~oFXH3~T
p2
aVhttp://www.ebay.com/itm/UNIVERSAL-ANIMAL-STAK-X-21-ANABOLIC-HORMONE-STACK-/321391525079?epid=1731297212&hash=item4ad46d7cd7:g:9m0AAOxycmBSzorA
p3
aVhttp://www.ebay.com/itm/UNIVERSAL-ANIMAL-TEST-X-21-THE-HYPERTROPHIC-TEST-STACK-/321374294614?epid=1788509406&hash=item4ad3669256:m:m0_3LzRaKP1Qzg7dSkS1lbA
p4
aVhttp://www.ebay.com/itm/Ostarine-MK-2866-LGD-Complete-PCT-Advance-Stack-/162392155596?hash=item25cf53a5cc:g:AzYAAOSwOyJX5skc
p5
aVhttp://www.ebay.com/itm/UNIVERSAL-ANIMAL-PUMP-X-30-THE-PRE-WORKOUT-MUSCLE-VOLUMIZING-STACK-/231200200145?epid=1431959054&hash=item35d49b15d1:m:m2HbFpf27OqP_WoIiOkalYg
p6
aVhttp://www.ebay.com/itm/Universal-Nutrition-BCAA-Stack-250g-1kg-Strength-Lean-Mass-/122035708837?var=&epid=1105079807&hash=item1c69e523a5:m:mwZUDbwNA7tk8bW4ZoDitDA
p7
aVhttp://www.ebay.com/itm/UNIVERSAL-ANIMAL-PM-X-30-THE-NIGHTTIME-ANABOLIC-RECOVERY-STACK-/391239203402?epid=740209896&hash=item5b17ac7a4a:g:yO4AAOSwDNdV3zxG
p8
aVhttp://www.ebay.com/itm/Stack-Roll-Cage-52mm-Gauge-Mount-Suits-40mm-Roll-Cage-Race-Rally-Motorsport-/141185279040?hash=item20df4c6440:g:7~wAAOSwkNZUeFFO&vxp=mtr
p9
aVhttp://www.ebay.com/itm/UNIVERSAL-ANIMAL-NITRO-X-30-THE-ESSENTIAL-ANABOLIC-EAA-STACK-BUILDING-BLOCKS-/322496724339?epid=1905178257&hash=item4b164d7d73:g:nssAAOSw42JZAhLW
p10
aVhttp://www.ebay.com/itm/Trec-Nutrition-Nitrobolon-II-LE-Creatine-Stack-Super-Power-and-Pump-/222217522170?var=&epid=1708112907&hash=item33bd324bfa:m:mGepTMw9RCbS9nedi4FieUQ
p11
aVhttp://www.ebay.com/itm/Noxor-Plat-Edit-90-caps-Androx-Extreme-stack-60-caps-/262612149123?hash=item3d24e76383:g:lQEAAOSw-YVXmMEj
p12
aVhttp://www.ebay.com/itm/LA-Muscle-Look-Like-Zoran-Ultimate-Muscle-Building-Stack-RRP-395-/252353228062?var=&hash=item3ac16cad1e:m:m0d2mFamplJKQgfi7TKq8qQ
p13
aVhttp://www.ebay.com/itm/EPH500-Fat-Burning-Stack-100-Works-/252934360537?epid=26002996657&hash=item3ae4100dd9:g:-VQAAOSwXY5ZPtEG
p14
aVhttp://www.ebay.com/itm/Alphaform-Labs-Pro-Serious-Mass-Stack-Megavol-90caps-Trenavol-90-caps-combo-/162461787262?hash=item25d37a247e:g:rwQAAOSwUKxYhRK0
p15
aVhttp://www.ebay.com/itm/UNIVERSAL-ANIMAL-NITRO-X-44-THE-ESSENTIAL-ANABOLIC-EAA-STACK-BUILDING-BLOCKS-/322496697566?epid=1105686213&hash=item4b164d14de:g:pjAAAOSwhvFZAgsH
p16
aVhttp://www.ebay.com/itm/Nutra-Tosterone-60-capsules-Power-Pro-90-capsules-Bodybuilding-toning-Stack-/251876404178?hash=item3aa500ebd2:g:VrgAAOSwQjNW9a69
p17
aVhttp://www.ebay.com/itm/Stack-Mechanical-Oil-Pressure-Gauge-Race-Rally-Motorsport-/301071198874?var=&hash=item46193dea9a:m:mkWSKyMf7rF8K1XBo12U15A
p18
aVhttp://www.ebay.com/itm/FALCON-LABS-STACK-SUPER-EPI-SUPER-CARDARINE-SUPERDRIVE-TEST-OXYBURN-PRO-/162376214293?hash=item25ce606715:g:xgIAAOSw-0xYjnV5
p19
aVhttp://www.ebay.com/itm/Musclepharm-Assault-Pre-Workout-Stack-Creatine-Beta-Alanine-BCAA-Vit-C-B6-30serv-/152565928638?var=&epid=1527831690&hash=item2385a352be:m:mt_bcvKkb5IXvbRjZYyTzKg
p20
aVhttp://www.ebay.com/itm/OLIMP-Redweiler-Pre-Workout-Creatine-Stack-Beta-Alanine-TCM-Vit-B1-AAKG-Caffeine-/151820503502?var=&epid=1042076965&hash=item23593509ce:m:mmj_zx9y0epQKvGjKU8F0TA
p21
aVhttp://www.ebay.com/itm/3-BLUE-Full-Aluminum-Shor-Ram-Intake-Velocity-Flow-Stack-With-Clamps-And-Hose-/122059317478?var=&hash=item1c6b4d60e6:m:m-2jnrrd8H8SRuBynvYCbiw
p22
aVhttp://www.ebay.com/itm/HOLDEN-DECOR-STACKED-LOGS-WALLPAPER-97710-NEW-WOOD-ROOM-/371974579279?epid=1606260426&hash=item569b69a44f:g:m2oAAOSwpP9Y5vOt
p23
aVhttp://www.ebay.com/itm/Universal-Nutrition-ANIMAL-STAK-X-21-Packs-ANABOLIC-HORMONE-STACK-/162214667445?hash=item25c4bf64b5:g:AW0AAOSwn7JYD4Es
p24
aVhttp://www.ebay.com/itm/Generation-M1T-Matrix-Cycle-Stack-M1T-matrix-OCS-PCT-Free-Shaker-/162276883982?hash=item25c874be0e:g:CfYAAOSwMmBVvUpl
p25
aVhttp://www.ebay.com/itm/Whey-Protein-Isolate-93-Ultimate-Nutrition-Iso-Sensation-93-5-5lb-2-27KG-/141778306474?var=&hash=item2102a545aa:m:muQKkEy6YmVJ_YJPdho1UmA
p26
aVhttp://www.ebay.com/itm/Stack-Wheel-Speed-Sensor-For-Stack-Speedometers-Race-Rally-Motorsport-/141185278744?epid=715717048&hash=item20df4c6318:g:AakAAOSwEOxXPica&vxp=mtr
p27
aVhttp://www.ebay.com/itm/Stack-Electrical-Oil-Pressure-Gauge-52mm-Diameter-Race-Rally-Motorsport-/311214950148?var=&hash=item4875db4704:m:mTE-ny0nBpcdearn4f66tew
p28
aVhttp://www.ebay.com/itm/Alphaform-Labs-OCS-On-Cycle-Support-Orb-Pharmaceuticals-PCT-And-Granite-Stack-/262843346019?hash=item3d32af2c63:g:-4gAAOSwLEtYm14b
p29
aVhttp://www.ebay.com/itm/karma-hamsa-hand-Set-of-5-stack-bracelets-bracelet-gemstone-jewellery-gypsy-boho-/152101308607?hash=item2369f1c8bf:g:j~0AAOSwR5dXQ4Kg
p30
aVhttp://www.ebay.com/itm/Velocity-Stack-Kit-for-4AGE-20v-Blacktop-Throttle-Bodies-50mm-Long-/232253008534?hash=item36135baa96:g:gGQAAOSw-RFYsgEz
p31
aVhttp://www.ebay.com/itm/Tren-Attack-Epi-2a3a-stack-/302373046576?hash=item4666d68930:g:icQAAOSw~e5ZW72K
p32
aVhttp://www.ebay.com/itm/OLIMP-NUTRITION-KNOCKOUT-2-0-305G-PRE-WORKOUT-STACK-/371947635996?var=&epid=623163440&hash=item5699ce851c:m:m2Z4hjC-FpzWWvtthUBLxQQ
p33
aVhttp://www.ebay.com/itm/STACKED-LOGS-WALLPAPER-RASCH-931808-NEW-WOOD-EFFECT-/352081061410?epid=2069627354&hash=item51f9aaa622:g:fLEAAOSwhQhY5wX9
p34
aVhttp://www.ebay.com/itm/LA-Muscle-Explosive-Super-Pump-Stack-eBay-Special-Promotion-2-x-Explosive-C-/252837000972?epid=717273653&hash=item3ade42770c:g:P04AAOSwdGFY3Rp6
p35
aVhttp://www.ebay.com/itm/MOTORCYCLE-CAR-SPONSOR-STACK-v3-RACE-DECALS-STICKERS-GRAPHICS-SINGLE-PACK-/261066287814?epid=1088744315&hash=item3cc8c36ac6:m:m5QKJ3NgTys86RF7NrNZUtg&vxp=mtr
p36
aVhttp://www.ebay.com/itm/OLIMP-REDWEILER-pre-workout-stack-creatine-L-arginine-energy-booster-pump-/221711550923?var=&epid=1905313964&hash=item339f09c9cb:m:mzjQCco_p89yXklAAXWnAlg
p37
aVhttp://www.ebay.com/itm/MARSHALL-AMPLIFICATION-T-SHIRT-Tee-Guitar-Amp-Stack-Combo-Rock-Blackstar-Gig-/112474594216?var=&hash=item1a30021ba8:m:mzF135v5TUU8W7kAW8aO_MQ
p38
aVhttp://www.ebay.com/itm/Feather-Board-Super-Kit-Pack-of-4-with-Double-Stack-Fittings-/112065453996?hash=item1a179f1fac:g:laMAAOSw0fhXkeM0
p39
aVhttp://www.ebay.com/itm/Stack-Turbo-Boost-Pressure-Mechanical-Gauge-Race-Rally-Motorsport-/141167242083?var=&hash=item20de392b63:m:mGu6f1SZwpuRj-fQ90eHusw
p40
aVhttp://www.ebay.com/itm/Extreme-Labs-XXL-Rebelled-120-caps-plus-AlphaForm-Labs-OCS-Support-Stack-/162215703842?hash=item25c4cf3522:g:fOAAAOSw8w1X5lwV
p41
aVhttp://www.ebay.com/itm/Friendship-peace-Set-of-5-stack-bracelets-bijoux-gemstone-jewellery-gypsy-boho-/152101313327?hash=item2369f1db2f:g:fx4AAOSwepZXQ4Pm
p42
aVhttp://www.ebay.com/itm/Velocity-Stack-Kit-for-4AGE-20v-Silvertop-Throttle-Bodies-90mm-Long-/232269371753?hash=item3614555969:g:FIIAAOSwSlBYxl9K
p43
aVhttp://www.ebay.com/itm/Stack-Professional-Water-Temperature-Stepper-Gauge-Race-Rally-Motorsport-/310846010571?var=&hash=item485fddb4cb:m:m9AFMdl0fUmjo6WiQqL4sAA
p44
aVhttp://www.ebay.com/itm/USN-BCAA-Syntho-Stack-120-240-Capsules-Branched-Chain-Amino-Acids-Tablets-Zinc-/291443794400?var=&epid=1105089601&hash=item43db6761e0:m:mW83zEYDY63IHfX6WuTsEAw
p45
aVhttp://www.ebay.com/itm/FALCON-LABS-EPI-BULK-ALPHAFORM-LABS-OCS-GENERATION-M1T-MEGA-STACK-/162376168143?hash=item25ce5fb2cf:g:1AEAAOSwnHZYjmqu
p46
aVhttp://www.ebay.com/itm/Stack-Panel-Mount-Gear-Shift-Light-Race-Rally-Motorsport-/310867531145?var=&hash=item4861261589:m:mbQYbdBZDYebeZOI9A-lZOg
p47
aVhttp://www.ebay.com/itm/RACE-SPONSOR-STACK-v3-4-MOTORCYCLE-CAR-DECALS-STICKERS-GRAPHICS-SINGLE-PACK-/201469258911?epid=1588930518&hash=item2ee880ec9f:g:hkcAAOSwLzdWTJa-&vxp=mtr
p48
aVhttp://www.ebay.com/itm/OLIMP-Beta-Alanine-Xplode-Creatine-Vitamine-B6-Powder-Pre-Workout-Stack-/152048951030?var=&epid=1207704897&hash=item2366d2def6:m:mc1dpXWVxk8MrkhVmgLTkgQ
p49
aVhttp://www.ebay.com/itm/Alphaform-Labs-OCS-On-Cycle-Support-Orb-Pharmaceuticals-PCT-Stack-FREE-SHAKER-/162260956102?hash=item25c781b3c6:g:MIQAAOSwnbZYFOxS
p50
aVhttp://www.ebay.com/itm/Velocity-Stack-Kit-for-GSXR750-1000-1300-Throttle-Bodies-50mm-Long-/231971296551?hash=item3602911527:g:zV8AAOSwtJZXVqLa
p51
aVhttp://www.ebay.com/itm/Falcon-Chimney-Tall-Stack-X-Large-Briar-Wood-Pipe-Bowl-Replacement-BRAND-NEW-/253042185179?var=&hash=item3aea7d53db:m:mpycOc_LoXirUcFR1H08REQ
p52
aVhttp://www.ebay.com/itm/Orb-Pharmaceuticals-Triple-X-CRAZY-TRIPLE-STACK-/262849314075?hash=item3d330a3d1b:g:kEQAAOSw-0xYR9cZ
p53
aVhttp://www.ebay.com/itm/Stack-Pro-Control-Fuel-Level-Gauge-Race-Rally-Motorsport-/141350534826?epid=621110965&hash=item20e925feaa:g:8oAAAOSwQJhUeFFN&vxp=mtr
p54
aVhttp://www.ebay.com/itm/Alphaform-Labs-OCS-On-Cycle-Support-Orb-Pharmaceuticals-PCT-And-Granite-Stack-/162213866836?hash=item25c4b32d54:g:DoMAAOSwOyJX5Evf
p55
aVhttp://www.ebay.com/itm/EPH500-Ulimate-Fat-Burning-Stack-100-Works-/252934359860?epid=26002996657&hash=item3ae4100b34:g:LMEAAOSwd~RZPtEr
p56
aVhttp://www.ebay.com/itm/Universal-ANIMAL-FLEX-X-44-complete-joint-support-stack-44-packs-FREE-PILLBOX-/222327013746?epid=1841196849&hash=item33c3b90172:g:qlUAAOSwEzxYOd3O
p57
aVhttp://www.ebay.com/itm/UNIVERSAL-ANIMAL-NITRO-44-PACKS-ESSENTIAL-ANABOLIC-EAA-STACK-BCAAS-HUMAN-MUSCLE-/151141961750?var=&epid=1105686213&hash=item2330c35016:m:m7cazbY4fKgSHyuytnMOjhg
p58
aVhttp://www.ebay.com/itm/RAMAIR-BLACK-UNIVERSAL-VELOCITY-STACK-INTAKE-CONE-AIR-FILTER-70MM-OD-NECK-/390489993670?epid=758685181&hash=item5aeb0471c6:g:XugAAOSwo6lWGuwU
p59
aVhttp://www.ebay.com/itm/Stack-Wideband-Air-Fuel-Lambda-Digital-Gauge-Race-Rally-Motorsport-/310846010186?var=&hash=item485fddb34a:m:mJWeE0EUeyXTMdEDcViOvTQ
p60
aVhttp://www.ebay.com/itm/Mens-Stacked-Leather-Bracelet-Surfer-Multi-Row-Layer-Stack-Wristband-/131875597716?var=&hash=item1eb465ed94:m:mHV7Aj9xIfNaS0Hrct3ZIHw
p61
aVhttp://www.ebay.com/itm/Alex-Toys-Rub-a-Dub-Stack-and-Pour-Cups-for-the-Bath-NEW-Cheapest-Online-/201959098693?epid=1337974936&hash=item2f05b34945:g:9fEAAOSwHptY-fe0
p62
aVhttp://www.ebay.com/itm/Stack-Fluid-Temperature-Sensor-0-150-Degrees-C-M6x1-Race-Rally-Motorsport-/141434763443?hash=item20ee2b38b3:g:49oAAOSwD0lUeFGy&vxp=mtr
p63
aVhttp://www.ebay.com/itm/AUTO-MOTO-SPONSOR-STACK-v3-COURSE-STICKER-AUTOCOLLANTS-GRAPHIQUE-PAQUET-UNIQUE-/201298102046?hash=item2ede4d471e:m:m5QKJ3NgTys86RF7NrNZUtg&vxp=mtr
p64
aVhttp://www.ebay.com/itm/USN-BCAA-Amino-Gro-300g-Amino-Acid-Training-Stack-/282432977065?var=&epid=1628895377&hash=item41c25138a9:m:mu7_cDO_ovCJOdWtcjjGpOw
p65
aVhttp://www.ebay.com/itm/12-Black-Car-Door-Stack-Sponsor-Logo-Stickers-Graphics-Decals-set-2-/310867710025?epid=1888362505&hash=item486128d049:g:0MkAAMXQVERS8p9g
p66
aVhttp://www.ebay.com/itm/OLIMP-Redweiler-Pre-Workout-Stack-Beta-Alanine-Taurine-Cafeine-NOW-IN-SHOTS-/152061925140?var=&epid=1066533487&hash=item236798d714:m:mUd7AKo9iGlLAx2-0USYs2w
p67
aVhttp://www.ebay.com/itm/Tiny-Love-Musical-Stack-Ball-Game-Toy-Puzzle-For-Baby-Toddler-6-24-Months-/172137963599?hash=item281438e04f:g:5OUAAOSwu1VW65N9
p68
aVhttp://www.ebay.com/itm/Perfect-Fit-Brand-STACK-IT-C-ring-Ball-Stretcher-Ring-4-Colours-NEW-/172769027924?var=&hash=item2839d62754:m:mjieZtijhrsOL7BBE97asuw
p69
aVhttp://www.ebay.com/itm/JOHN-STACK-CAPTAIN-OF-ROME-BRAND-NEW-FREEPOST-UK-/400307656232?epid=92907255&hash=item5d34321628:g:uAMAAOSwtfhYrmMr
p70
aVhttp://www.ebay.com/itm/Michael-Kors-Jewellery-MKJ6388998-3-Tone-Stack-Ring-Size-8-/182568371872?epid=854563575&hash=item2a81ec46a0:g:rPsAAOSwIQdZEvbz
p71
aVhttp://www.ebay.com/itm/Pk-12-x-8-x-8-SAMPLE-Paper-Stack-Male-papers-for-cards-and-crafts-/152448901666?hash=item237ea9a222:g:azMAAOSwax5YsIg4
p72
aVhttp://www.ebay.com/itm/Extreme-Labs-OCS-Alphaform-Labs-ATD-PCT-Cycle-Support-Stack-Free-Shaker-/162173688613?hash=item25c24e1b25:g:NbAAAOSwV0RXtjpo
p73
aVhttp://www.ebay.com/itm/Disney-Tsum-Tsum-Stitch-Case-Stack-n-Display-With-Exclusive-Figure-Great-Gift-/232144504766?hash=item360ce407be:g:PjkAAOSwal5YKzdA
p74
aVhttp://www.ebay.com/itm/Mens-Leather-Bracelet-Surfer-Wide-Multi-Row-Layer-Stack-Wristband-Wrap-Stacker-/162038181267?var=&hash=item25ba3a6d93:m:ms2lYPp6AjlXQOlZD5CzkmQ
p75
aVhttp://www.ebay.com/itm/Organic-Shaped-Ladies-Gold-Rings-Matt-Gold-Plated-3-Stack-Ring-Set-Size-N-/232388864590?hash=item361b74aa4e:g:PX0AAOSwjKFZUoCt
p76
aVhttp://www.ebay.com/itm/6Pcs-Set-Silver-Ring-Blue-Turquoise-Midi-Bohemian-Retro-Stack-Knuckle-Rings-/122206673992?epid=590368418&hash=item1c7415dc48:g:HtEAAOSwV0RXsfdN
p77
aVhttp://www.ebay.com/itm/Stack-Chronotronic-Tachometer-0-10000-RPM-Chromed-Brass-Bezel-Race-Rally-/141185278737?epid=689686933&hash=item20df4c6311:g:doQAAOSw0vBUeFEz&vxp=mtr
p78
aVhttp://www.ebay.com/itm/6pcs-Set-Gold-Tone-Stack-Above-Knuckle-Cute-Leaves-Crystal-Midi-Band-Rings-Chain-/122154865012?epid=601215488&hash=item1c70ff5174:g:xVoAAOSw5cNYH3tw
p79
aVhttp://www.ebay.com/itm/Stack-Mechanical-Water-Temperature-Gauge-50-115-Degrees-C-Race-Rally-/141185278826?epid=623065354&hash=item20df4c636a:g:ojIAAOSwofxUeFE-&vxp=mtr
p80
aVhttp://www.ebay.com/itm/Alphaform-Labs-ATD-ultimate-PCT-OCS-Support-Stack-/162213762003?hash=item25c4b193d3:g:Zs0AAOSwAuZX5D7r
p81
aVhttp://www.ebay.com/itm/Stronglight-A9-headset-1-threaded-38mm-stack-height-alloy-lightweight-/161444697515?epid=1189392049&hash=item2596da95ab:g:1AYAAOSww9VXhh1U
p82
aVhttp://www.ebay.com/itm/Universal-Nutrition-BCAA-Stack-250g-1Kg-All-Flavours-PLUS-drink-BCAA-/221990136793?var=&epid=1044158721&hash=item33afa4abd9:m:mjdKYh3no7_tHTiicYP-Jog
p83
aVhttp://www.ebay.com/itm/Perfect-Fit-Brand-STACK-IT-C-ring-Ball-Stretcher-Ring-4-Colours-NEW-/172769027924?var=&hash=item2839d62754:m:mjieZtijhrsOL7BBE97asuw
p84
aVhttp://www.ebay.com/itm/Stack-Professional-Water-Temperature-Stepper-Gauge-Race-Rally-Motorsport-/310846010571?var=&hash=item485fddb4cb:m:m9AFMdl0fUmjo6WiQqL4sAA
p85
aVhttp://www.ebay.com/itm/PRINCESS-CROWN-SILVER-BAND-STACK-Ring-CZ-CRYSTALS-SIZE-8-Q-/282313875126?hash=item41bb37deb6:g:EvsAAOSwnHZYbD5V
p86
aVhttp://www.ebay.com/itm/STACKED-LOGS-WALLPAPER-RASCH-931808-NEW-WOOD-FIREPLACE-/131988284890?epid=2069627354&hash=item1ebb1d65da:g:YlAAAOSw4CFY5tBf
p87
aVhttp://www.ebay.com/itm/7PCS-Set-Urban-Gold-Silver-Stack-Knuckle-Leaf-Rhinestone-Band-Midi-Rings-UK-/332174219642?var=&hash=item4d5720597a:m:muoGnyRDW_-9s3sE6arhKWQ
p88
aVhttp://www.ebay.com/itm/Stack-Pro-Control-Oil-Temperature-Gauge-40-140-C-Degrees-Race-Rally-Motorsport-/310867531287?epid=621113239&hash=item4861261617:g:-vIAAOSwQJhUeFGr&vxp=mtr
p89
aVhttp://www.ebay.com/itm/Oxballs-The-Ringer-3-Pack-Stack-em-Ball-Stretcher-Rings-C-rings-BLACK-/172762028171?hash=item28396b588b:g:bFAAAOSw2GlXHLXG
p90
aVhttp://www.ebay.com/itm/5pc-Urban-Gold-Silver-Crystal-Above-Stack-Midi-Finger-Knuckle-Ring-Set-Small-RG2-/132077758050?var=&hash=item1ec072a662:m:moz5wN-0fjU8FuQa4L6xoOw
p91
aVhttp://www.ebay.com/itm/Stack-Wideband-Air-Fuel-Lambda-Digital-Gauge-Race-Rally-Motorsport-/310846010186?var=&hash=item485fddb34a:m:mJWeE0EUeyXTMdEDcViOvTQ
p92
aVhttp://www.ebay.com/itm/Momo-Decals-x2-Vinyl-Sticker-Graphics-Car-Brakes-Racing-Stack-N2073-/401358897718?epid=518317874&hash=item5d72dac236:g:fZAAAOSwJhNXUGA~
p93
aVhttp://www.ebay.com/itm/Stack-Replacement-Harness-Sensor-For-Wideband-Lambda-Gauge-Race-Rally-/301071198891?hash=item46193deaab:g:oYgAAOSw2XFUeSRq&vxp=mtr
p94
aVhttp://www.ebay.com/itm/COURSE-SPONSOR-STACK-v5-1-AUTO-MOTO-STICKER-AUTOCOLLANTS-GRAPHIQUE-PAQUET-UNIQUE-/262614886119?hash=item3d251126e7:g:6fYAAOSwFe5XzsMN
p95
aVhttp://www.ebay.com/itm/Wms-White-Cockspur-Upvc-Window-Handle-9mm-17-5mm-or-22mm-Stack-/200800297899?var=&hash=item2ec0a163ab:m:mpGQJRtR8xVSk_S4J5DmbGA
p96
aVhttp://www.ebay.com/itm/EPH500-Ulimate-Fat-Burning-Stack-/252934348270?epid=26002996657&hash=item3ae40fddee:g:wSIAAOSwFJBZPtFO
p97
aVhttp://www.ebay.com/itm/PHOTOGRAPH-COMPOSITION-STACK-CASH-MONEY-DOLLARS-ART-PRINT-POSTER-GIFT-A3-GZ5732-/151662835229?epid=1688742216&hash=item234fcf361d:g:l6gAAOSwymxVPi5Z
p98
aVhttp://www.ebay.com/itm/B2-X4-CAFE-RACER-BILLET-ALLOY-BELLMOUTH-VELOCITY-STACK-AIR-INTAKE-TRUMPET-54mm-/281968519278?epid=1489097806&hash=item41a6a2286e:g:YuIAAOSwu1VW6V-Q&vxp=mtr
p99
aVhttp://www.ebay.com/itm/Anyscale-Models-20mm-Chimney-Stack-Brick-/361920231482?hash=item544420783a:g:eMwAAOSw4A5Yuz3E
p100
aVhttp://www.ebay.com/itm/Stack-Turbo-Boost-Pressure-Electrical-Gauge-Race-Rally-Motorsport-/311126775823?var=&hash=item487099d80f:m:m17N6TDepaieXxfZhi-rvuQ
p101
aVhttp://www.ebay.com/itm/Multi-Colour-Genuine-Freshwater-Pearl-Stretch-Stack-Bracelet-Wrist-Bangles-DD1-/382087769507?var=&epid=1462836553&hash=item58f634ada3:m:mheaGHg7jCe_XhWvnMKQ2vg
p102
aVhttp://www.ebay.com/itm/Mobile-Stack-n-Lock-Tool-Box-System-/112061470937?hash=item1a176258d9:g:x8YAAOSwFfhXjic9
p103
aVhttp://www.ebay.com/itm/FALCON-LABS-SUPER-EPI-BLUK-ALPHAFORM-LABS-ADT-PCT-TRENAVOL-MAX-STACK-/162376229957?hash=item25ce60a445:g:9HcAAOSwopRYjnmA
p104
aVhttp://www.ebay.com/itm/USN-Creatine-X4-30-120-Capsules-3-Creatines-Blend-Stack-Monohydrate-Tablets-/301396841845?var=&epid=1204327553&hash=item462ca6d575:m:mnk9y1FKXsBYfYIPgVOaqFQ
p105
aVhttp://www.ebay.com/itm/TRIBULUS-BCAA-ZMA-TEST-STACK-GROWTH-RECOVERY-PERFORMANCE-PTx-TOP-SELLER-/171791700673?hash=item27ff9552c1:g:3owAAOSwAYtWQoTL
p106
aVhttp://www.ebay.com/itm/Imi-Double-Pistol-Magazine-Pouch-Single-Stack-Z2010-1911-Sig-S-W-/222005646404?var=&epid=1965314859&hash=item33b0915444:m:mV9DiERfeDvKPQAIA02LWNA
p107
aVhttp://www.ebay.com/itm/Stack-Electrical-Water-Temperature-Gauge-52mm-Diameter-Race-Rally-Motorsport-/301071198245?var=&hash=item46193de825:m:mB0BWdtpefXMvXM8Juq-CiQ
p108
aVhttp://www.ebay.com/itm/Bracelets-Leather-Mens-Womens-Surfer-Stylish-Bangle-Fashion-Cuff-Stack-Wristband-/222484889312?var=&hash=item33cd21fee0:m:mB74FhocJ8BlFUxuklio9Sg
p109
aVhttp://www.ebay.com/itm/New-Mens-Superdry-Tops-Selection-Various-Styles-Colours-/292065837286?var=&epid=2004706385&hash=item44007b00e6:m:mua40c3-H8A7OaBc-8RgOAw
p110
aVhttp://www.ebay.com/itm/High-Performance-Nutrition-Niagen-N-R-Stack-x3-60-Caps-/112198854117?hash=item1a1f92a5e5:g:zogAAOSw5cNYIwMm
p111
aVhttp://www.ebay.com/itm/VELO-ORANGE-Tall-Stack-Stem-31-8mm-clamp-80mm-reach-/192184595563?epid=1745100935&hash=item2cbf18346b:g:QjAAAOSwd0BVqib3
p112
aVhttp://www.ebay.com/itm/Set-of-3-Sterling-Silver-925-Stretch-Bead-Personalised-Heart-Stack-Bracelets-/351387271221?hash=item51d0504035:g:2rIAAOSwcwhVQmTJ
p113
aVhttp://www.ebay.com/itm/High-Quality-Motorbike-Streetfighter-Headlight-Dual-Stacked-Projector-Insert-/391733637442?epid=695174410&hash=item5b3524f142:g:BnkAAOSwCU1Yz9hZ&vxp=mtr
p114
aVhttp://www.ebay.com/itm/Fashion-3pcs-black-stack-Plain-Cute-Above-Knuckle-Ring-Band-Midi-Rings-/252838264078?epid=507259853&hash=item3ade55bd0e:g:T8MAAOSwol5Y3h9j
p115
aVhttp://www.ebay.com/itm/BESPOKE-UNIQUE-CHIFFON-ORGANZA-DIAMANTE-FRILLY-SOCKS-STACK-JAZZIEJEMS-BOUTIQUE-/302318588301?var=&hash=item466397918d:m:mY9l8ymvcRfZWdrxw1Pdarw
p116
aVhttp://www.ebay.com/itm/Stack-Dash-Top-Mount-Gear-Shift-Light-Race-Rally-Motorsport-/141167242085?var=&hash=item20de392b65:m:mimzCVtrVbIX3rDbLvq_d2g
p117
aVhttp://www.ebay.com/itm/Hunkydory-Santa-Paws-2-Craftstack-STACK009-/253032019829?hash=item3ae9e23775:g:-zAAAOSwHLNZXqWA
p118
aVhttp://www.ebay.com/itm/FitFlop-Stack-Slide-Dark-Tan-Womens-Flip-Flop-Wedge-Sandals-/192162216225?var=&epid=721084366&hash=item2cbdc2b921:m:m4huFFcjnuA5bIbTWpWoEiA
p119
aVhttp://www.ebay.com/itm/MK-Extreme-MK677-Alphaform-Labs-Sale-Extreme-Labs-PCT-STACK-/152415490428?hash=item237cabd17c:g:ykQAAOSwLEtYjmh4
p120
aVhttp://www.ebay.com/itm/3-Set-of-Stack-Midi-Finger-Tip-Rings-in-Silver-or-Gold-Colour-Adjustable-/281289317316?var=&hash=item417e265bc4:m:mdCj8OsTEQqfr5gMGwO5zhA
p121
aVhttp://www.ebay.com/itm/Streetfighter-Projector-Motorbike-Trike-Dual-Headlight-Stacked-Emarked-46-47mm-/401240233776?hash=item5d6bc81730:g:XcgAAOSwojRYSpm3&vxp=mtr
p122
aVhttp://www.ebay.com/itm/Elephant-Set-of-3-stack-bracelets-bijoux-gemstone-jewellery-gypsy-boho-karma-/152101301156?hash=item2369f1aba4:g:UBMAAOSwR5dXQ3~n
p123
aVhttp://www.ebay.com/itm/6pcs-Punk-URBAN-SILVER-StacK-Band-Midi-Mid-Finger-Knuckle-Ring-6S3-/282182593053?hash=item41b364aa1d:g:EfkAAOSwAuZX3xn3
p124
aVhttp://www.ebay.com/itm/USN-Amino-Pro-Nano-Stack-BCAAs-For-Muscle-Growth-Maintenance-Recovery-120-caps-/191881022078?epid=1404310923&hash=item2cad000a7e:g:3wsAAOSwSWJXRYNw
p125
aVhttp://www.ebay.com/itm/Ostarine-90-Caps-LGD-Complete-60-Caps-PCT-Advanced-60-Caps-Stack-/162418306102?hash=item25d0e2ac36:g:a6sAAOSwZVlXuIxt
p126
aVhttp://www.ebay.com/itm/Stack-Pro-Control-Exhaust-Gas-Temperature-Gauge-0-1100-C-Race-Rally-/311056410466?epid=621117081&hash=item486c682762:g:fakAAOSwaNBUeFIT&vxp=mtr
p127
aVhttp://www.ebay.com/itm/New-Tsum-Tsum-Stack-PVC-mini-Vinyl-Action-Figures-Woody-The-avengers-Star-Wars-/272590572165?var=&hash=item3f77aa0a85:m:mt48gK4fSx5bSBKmMWsB4Rw
p128
aVhttp://www.ebay.com/itm/Stampin-Up-Paper-Stack-Have-a-Cuppa-48-sheets-6-x6-/272741534548?hash=item3f80a98b54:g:CR0AAOSwImRYRt07
p129
aVhttp://www.ebay.com/itm/Supra-Shoes-Stacks-2-Black-Red-/252512912213?var=&epid=1481708479&hash=item3acaf14355:m:m9PVI514M8_0Iomw9fktGiA
p130
aVhttp://www.ebay.com/itm/X20-COLOUR-METAL-THIN-SKINNY-BANGLES-STACK-BRACELETS-MULTI-COLOURED-PARTY-BAGS-/142432479599?epid=525949063&hash=item2129a3296f:g:NNgAAOxyoahSYq1C
p131
aVhttp://www.ebay.com/itm/COURSE-SPONSOR-STACK-v3-4-AUTO-MOTO-STICKER-AUTOCOLLANTS-GRAPHIQUE-PAQUET-UNIQUE-/262681142816?hash=item3d29042620:g:hkcAAOSwLzdWTJa-&vxp=mtr
p132
aVhttp://www.ebay.com/itm/UNIVERSAL-NUTRITION-STORM-CREATINE-STACK-/182083359561?var=&hash=item2a65039349:m:mvhgwgxUzj-5VIhySlDzc2g
p133
aVhttp://www.ebay.com/itm/RSP-BOTTOM-1-5-ZERO-STACK-ZS56-40-Black-1-5-inch-/152365815572?hash=item2379b5d714:g:pxMAAOSw2xRYW8Mp
p134
aVhttp://www.ebay.com/itm/Velocity-Stack-Kit-for-GSXR750-1000-1300-Throttle-Bodies-90mm-Long-/232118977636?hash=item360b5e8464:g:xycAAOSw8gVYB30p
p135
aVhttp://www.ebay.com/itm/Pk-12-x-8-x-8-SAMPLE-Paper-Stack-Oriental-papers-for-cards-and-crafts-/152448904910?hash=item237ea9aece:g:RYYAAOSwOgdYsIlO
p136
aVhttp://www.ebay.com/itm/Vintage-Style-Chevron-Above-Knuckle-Ring-Brass-Gold-Geometric-Arrow-Boho-Stack-/161719968634?var=&hash=item25a742e37a:m:mVZtgmGVfQ0UIvVfAFXVd2w
p137
aVhttp://www.ebay.com/itm/Velocity-Stack-Kit-for-4AGE-20v-Blacktop-Throttle-Bodies-90mm-Long-/232269371863?hash=item36145559d7:g:wUsAAOSw4CFYxl9W
p138
aVhttp://www.ebay.com/itm/DISNEY-TIGGER-TSUM-TSUM-STACK-N-DISPLAY-CARRY-CASE-SET-EXCLUSIVE-FIGURE-STORAGE-/292181130687?hash=item44075a3dbf:g:R6gAAOSwWdZZZQ65
p139
aVhttp://www.ebay.com/itm/Tange-Seiki-Levin-CDS-chrome-headset-1-threaded-33-3mm-stack-height-/181443252191?epid=652642262&hash=item2a3edc4fdf:g:mFgAAOxyY9VRK45b
p140
aVhttp://www.ebay.com/itm/Yamaha-R1-4XV-Carburettor-Velocity-Stack-Trumpet-Kit-50mm-Length-Bike-Carbs-/331524770317?hash=item4d306a8a0d:g:PkIAAOxyTjNSnxXt
p141
aVhttp://www.ebay.com/itm/1-35-Scale-Industrial-Chimney-smoke-stack-230mm-tall-ceramic-model-/302080719671?hash=item465569fb37:g:3K8AAOSwPCVX4Upc
p142
aVhttp://www.ebay.com/itm/Vibrant-ALUMINIUM-5-0-INLET-OD-8-0-BELLMOUTH-OD-BELLMOUTH-VELOCITY-STACK-10-/152131685895?epid=1473946487&hash=item236bc14e07:g:nM4AAOSwM4xXYoTl&vxp=mtr
p143
aVhttp://www.ebay.com/itm/Silver-10-pcs-Ring-Set-Bohemian-Boho-Stack-Vintage-Festival-Midi-Pinky-Thumb-/152515593404?hash=item2382a344bc:g:i1IAAOSwbopZQnGg
p144
aVhttp://www.ebay.com/itm/RAMAIR-2-x-Single-Carb-Velocity-Stack-Sock-Air-Filter-165mm-Dellorto-DHLA-DRLA-/391808384903?epid=1546466388&hash=item5b39997f87:g:928AAOSwI-BWGuwF
p145
aVhttp://www.ebay.com/itm/Antique-Dictionary-Book-Page-Vintage-Art-Print-Stack-of-4-Teacups-Wall-Art-/271393931598?hash=item3f3056c14e:g:BgAAAOSwAvJXCS0D
p146
aVhttp://www.ebay.com/itm/Wavin-Osma-mushroom-vent-cowl-for-110mm-4-soil-pipe-Grey-PVC-Vent-soil-stack-/141866091069?var=&hash=item2107e0c23d:m:mZ5bjeAIUpmNjda007AUj-w
p147
aVhttp://www.ebay.com/itm/3-Set-of-Stack-Midi-Finger-Tip-Rings-Black-Metal-Colour-/281572395086?epid=860442034&hash=item418f05c84e:g:Y98AAOSwyTZUV4OV
p148
aVhttp://www.ebay.com/itm/NEW-3pcs-black-ring-set-Matt-PUNK-Stack-Plain-Band-Knuckle-Ring-Set-/281959912684?hash=item41a61ed4ec:g:UOwAAOSw7FRWYr9Y
p149
aVhttp://www.ebay.com/itm/OFFICIAL-LICENSED-MOTORHEAD-AMP-STACK-T-SHIRT-METAL-LEMMY-/152284583507?var=&hash=item2374de5653:m:mYcNqOBTEzB8AllYwgBhFtQ
p150
aVhttp://www.ebay.com/itm/2-PIECE-SET-PRINCESS-CROWN-SILVER-BAND-STACK-Ring-CZ-CRYSTALS-SIZE-7-O-/272417159909?hash=item3f6d53fae5:g:to8AAOSwYIxYBPZx
p151
aVhttp://www.ebay.com/itm/10-x-30-Litre-Stack-Nest-Large-Black-Plastic-Storage-Boxes-Containers-Crates-/112362425731?epid=1156733081&hash=item1a29528d83:g:E~IAAOSwfcVULVSI
p152
aVhttp://www.ebay.com/itm/5PCS-Set-Urban-Gold-Silver-Stack-Knuckle-Leaf-Rhinestone-Band-Midi-Rings-UK-/332135402727?hash=item4d54d00ce7:g:b64AAOSw~AVYrbHr
p153
aVhttp://www.ebay.com/itm/Magic-Stack-n-Whack-Quilts-Bethany-S-Reynolds-/371796849857?epid=90154601&hash=item5690d1b4c1:g:Tn0AAOSwiONYNas4
p154
aVhttp://www.ebay.com/itm/B1-CAFE-RACER-BILLET-ALLOY-BELLMOUTH-VELOCITY-STACK-AIR-INTAKE-TRUMPET-49-7mm-/281891893251?hash=item41a210f003:g:8~EAAOSwUdlWeVSM&vxp=mtr
p155
aVhttp://www.ebay.com/itm/Browning-Cap-Stack-Lite-Black-Shotgun-Shooting-Cap-308290991-/371909242662?epid=685689913&hash=item569784af26:g:vAUAAOSw4CFY4Lt0
p156
aVhttp://www.ebay.com/itm/New-Mens-Stacked-L-S-Tee-Deep-Forest-/292025593396?var=&hash=item43fe14ee34:m:mf1I6vyYuIPFEwa9aAZsPbA
p157
aVhttp://www.ebay.com/itm/RAMAIR-2-x-Carb-Trumpet-Velocity-Stack-Sock-Air-Filters-102mm-Weber-DCOE-40-45-/271604736455?epid=1945961720&hash=item3f3ce761c7:g:jFMAAOSwiCRUfwoW
p158
aVhttp://www.ebay.com/itm/Terapod-Terapod-Vivs-Stack-of-2-/222154419279?var=&hash=item33b96f6c4f:m:mvcOxQKgDsxxVDNQt-hz0Wg
p159
aVhttp://www.ebay.com/itm/Velocity-Stack-Kit-for-CBR1000-Throttle-Bodies-50mm-Long-/232131928522?hash=item360c2421ca:g:gm4AAOSwB09YGffZ
p160
aVhttp://www.ebay.com/itm/6pcs-Women-Midi-Finger-Tip-Silver-Boho-Knuckle-Ring-Stack-Plain-Above-Rings-Set-/272353623768?epid=2059621702&hash=item3f698a7ed8:g:LTMAAOSwaB5Xv-2K
p161
aVhttp://www.ebay.com/itm/emma-bridgewater-PINK-HEARTS-STACK-1-2-PINT-MUG-NEW-/252392699614?hash=item3ac3c6f6de:g:DXsAAOSwFNZWw2ME
p162
aVhttp://www.ebay.com/itm/Citrine-Sterling-Silver-Stack-Ring-925-Cable-Band-Sizes-L-5-to-V-10-Solitaire-/371437758963?var=&hash=item567b6a69f3:m:mo42csL2TZ_CdKiGC65Zt4g
p163
aVhttp://www.ebay.com/itm/Battery-Box-Slot-Holder-Case-for-6-Packs-AA-2A-Batteries-Stack-9V-UK-seller-/302290024840?hash=item4661e3b988:g:9FwAAOSwUKxYgLbW
p164
aVhttp://www.ebay.com/itm/DOUBLE-SIDED-STACK-OF-10-000-BILLS-Fun-Fake-Money-Dollars-Decor-Casino-Stag-Hen-/201964558207?var=&hash=item2f0606977f:m:mx0iBgEmX1WcOlrfSRV7tyw
p165
aVhttp://www.ebay.com/itm/Kill-It-All-Day-Long-Rich-Pianas-5-er-Stack-/112342534413?var=&hash=item1a2823090d:m:mt3QX-WCNNpqZ_pL6LvbDaQ
p166
aVhttp://www.ebay.com/itm/Self-Inking-MOTIVATIONAL-TEACHER-REWARD-Stamp-3-in-1-Stack-Stamp-/122250931163?var=&hash=item1c76b92bdb:m:mUiRdZy8xN6BDrTZu42EHhg
p167
aVhttp://www.ebay.com/itm/25cm-BUNDLE-x-10-Rainbow-stack-Cuddle-PLUSH-Smooth-/122535623969?hash=item1c87b13d21:g:3e8AAOSwH09ZNr3M
p168
a.