(lp1
Vhttp://www.ebay.com/itm/Young-Living-A-R-T-beauty-masque-/302138488465?hash=item4658db7691:g:BDkAAOSw-CpYBKZy
p2
aVhttp://www.ebay.com/itm/Young-Living-Essential-Oils-Jasmine-5ml-/302138466635?hash=item4658db214b:g:hfwAAOSwOyJX4rpp
p3
aVhttp://www.ebay.com/itm/Young-Living-Peace-Calming-II-Essential-Oil-5-ml-/262966865553?hash=item3d3a0bee91:g:wVkAAOSwJ7RYSt9R
p4
aVhttp://www.ebay.com/itm/YOUNG-LIVING-STRESS-AWAY-Essential-Oil-Blends-5ml-/122578590438?hash=item1c8a40dae6:g:PU8AAOSwR29ZCgsi
p5
aVhttp://www.ebay.com/itm/Young-Living-Motivation-Essential-Oil-5ml-/262913831195?hash=item3d36e2b11b:g:9IQAAOSwzgBY2pR6
p6
aVhttp://www.ebay.com/itm/YOUNG-LIVING-Essential-Oil-PURIFICATION-5ml-Aromatheratherapy-Oil-Blend-EO-/122578575260?hash=item1c8a409f9c:g:gFwAAOSwhvFZCgoW
p7
aVhttp://www.ebay.com/itm/DiGize-YOUNG-LIVING-Essential-Oil-5ml-/122578561268?hash=item1c8a4068f4:g:BzEAAOSww9xZCgiA
p8
aVhttp://www.ebay.com/itm/R-C-YOUNG-LIVING-Essential-Oil-5ml-/122578569081?hash=item1c8a408779:g:oqcAAOSwjL5ZCglR
p9
aVhttp://www.ebay.com/itm/The-Maze-Runner-4-Book-Trilogy-Books-James-Dashner-Young-Adult-New-/162398220145?epid=109284993&hash=item25cfb02f71:g:xh8AAOSwSlBY0W0F
p10
aVhttp://www.ebay.com/itm/The-Adventures-of-Young-Indiana-Jones-Volume-2-Box-Set-DVD-/271968339415?epid=64030540&hash=item3f529385d7:g:mLcAAOSw3ydVnoJG
p11
aVhttp://www.ebay.com/itm/Ruby-The-Young-Witch-DVD-NEW-AND-SEALED-/201980523272?epid=1542065784&hash=item2f06fa3308:g:h2EAAOSwNNxWE-Fe
p12
aVhttp://www.ebay.com/itm/Young-Living-Essential-Oils-Xiang-Mao-Taiwan-5ml-/302138482987?hash=item4658db612b:g:1z0AAOSwLnBX6P-F
p13
aVhttp://www.ebay.com/itm/Neil-Young-concert-vintage-poster-reproduction-/111537645170?var=&hash=item19f8296672:m:mpcodcg8T9pJsztrj6BDsbQ
p14
aVhttp://www.ebay.com/itm/Winger-In-The-Heart-Of-The-Young-1990-NEW-CD-/311602148124?epid=3957844&hash=item488cef731c:g:q94AAOSw3mpXIxMM
p15
aVhttp://www.ebay.com/itm/Level-3-Diploma-Children-and-Young-Peoples-Workforce-Early-Learning-NEW-/192237631004?epid=92719392&hash=item2cc241761c:g:uX8AAOSwPCVX8l5T
p16
aVhttp://www.ebay.com/itm/The-Young-Ones-Complete-BBC-Series-1-2-Collection-Box-Set-New-DVD-/362000678765?epid=62233438&hash=item5448ebff6d:g:S5sAAOSwDNdVm8y8
p17
aVhttp://www.ebay.com/itm/The-Adventures-of-Young-Indiana-Jones-Volume-3-DVD-/272736362485?epid=65573015&hash=item3f805a9ff5:g:oVwAAOSwz71ZUUIF
p18
aVhttp://www.ebay.com/itm/Clip-In-Remy-Human-Hair-Extensions-Real-Human-Hair-Extension-from-Forever-Young-/310653129178?var=&hash=item48545e91da:m:mh5_I5Z-KPeqCxZ9bYVxIMg
p19
aVhttp://www.ebay.com/itm/YOUNG-MONTALBANO-Collection-One-DVD-NEW-Region-2-/232257388764?epid=168644672&hash=item36139e80dc:g:b~cAAOSwstxVXguv
p20
aVhttp://www.ebay.com/itm/The-Young-Ones-Series-1-and-2-DVD-Region-2-4-PAL-Not-US-/262548258919?epid=1004784643&hash=item3d21188067:g:DJgAAOSwaB5XmKGV
p21
aVhttp://www.ebay.com/itm/Faron-Young-The-Essential-Recordings-NEW-2CD-/391421899774?epid=1962268729&hash=item5b229033fe:g:vd0AAOSwiylW~is2
p22
aVhttp://www.ebay.com/itm/Neil-Young-Promise-of-the-Real-Earth-New-CD-/311625157343?epid=1270878442&hash=item488e4e8adf:g:V~gAAOSwvg9XT2Qq
p23
aVhttp://www.ebay.com/itm/SHAWN-MENDES-Selection-of-YOUNG-BEEFCAKE-and-Magazine-Shoot-Photograph-s-/252871291277?var=&hash=item3ae04db18d:m:mNt4D1SxChGELTFbwCdGE7Q
p24
aVhttp://www.ebay.com/itm/X-MEN-GOLD-1-controversial-issue-SKOTTIE-YOUNG-VARIANT-EDITION-/352029694194?hash=item51f69ad8f2:g:p4IAAOSw03lY75~n
p25
aVhttp://www.ebay.com/itm/The-Good-Die-Young-1954-DVD-Brand-new-and-sealed-/401219436884?epid=30946263&hash=item5d6a8ac154:m:mVUU2Yg3mQKJ_kk0Ix-FQMg
p26
aVhttp://www.ebay.com/itm/Angus-Young-s-Gibson-SG-ART-POSTER-A3-size-/330677205955?hash=item4cfde5bbc3:g:GbgAAOSwNSxVO1Ad
p27
aVhttp://www.ebay.com/itm/Mini-Cooper-Never-Underestimate-A-YOUNG-GIRL-Women-T-shirt-White-Mini-Black-/262927961891?var=&hash=item3d37ba4f23:m:mAHBhouFdJRUuMVxsd0K3Jg
p28
aVhttp://www.ebay.com/itm/JOAN-COLLINS-ORIGINAL-Vintage-10-x-8-b-w-Photo-THE-GOOD-DIE-YOUNG-1954-F-25-/182664988140?hash=item2a87ae85ec:g:fLwAAOSwh6xTt7fj
p29
aVhttp://www.ebay.com/itm/The-Jam-About-The-Young-Idea-The-Very-Best-Of-The-Jam-NEW-3-x-LP-Sealed-/232322778306?hash=item36178444c2:g:Vy0AAOSwopRYixDB
p30
aVhttp://www.ebay.com/itm/Young-Living-Young-Living-Pepperment-Essential-Oil-Samples-x-10-/262613254136?hash=item3d24f83ff8:g:rD4AAOSwknJXz9C4
p31
aVhttp://www.ebay.com/itm/YUL-BRYNNER-10-x-7-Vintage-Young-Revealing-Modelling-Photograph-6145-/262981652758?hash=item3d3aed9116:g:qgQAAOSwGJlZFcbZ
p32
aVhttp://www.ebay.com/itm/The-Time-Machine-Rod-Taylor-Alan-Young-Yvette-Mimieux-NEW-SEALED-UK-R2-DVD-/282256603688?epid=1034385048&hash=item41b7cdfa28:g:bV0AAOSwux5YKsuj
p33
aVhttp://www.ebay.com/itm/YOUNG-LIVING-LEMON-Essential-Oil-5-ml-Aromatherapy-x2-Oils-Blends-EO-/122578592012?hash=item1c8a40e10c:g:7jIAAOSwONBZCgvg
p34
aVhttp://www.ebay.com/itm/NEIL-YOUNG-PROMISE-OF-THE-REAL-EARTH-2-CD-SET-2016-/142005103809?epid=1270878442&hash=item211029ecc1:g:4OkAAOSwagdXRrzl
p35
aVhttp://www.ebay.com/itm/Lee-Thompson-Young-Bruce-M-Rizzoli-and-Isles-Season-5-DVD-NEW-/302180616062?epid=1241311757&hash=item465b5e477e:g:OagAAOSwImRYZRpO
p36
aVhttp://www.ebay.com/itm/Kings-of-Leon-Youth-and-Young-Manhood-Vinyl-NEW-/401239780335?epid=1889475936&hash=item5d6bc12bef:g:uisAAOSwB09YSVPF
p37
aVhttp://www.ebay.com/itm/The-Diary-of-a-Young-Girl-H-B-slipcase-Hardcover-Frank-Anne-9780141336671-/362009215401?epid=108445549&hash=item54496e41a9:g:Pl8AAOSwBLlVJ-25
p38
aVhttp://www.ebay.com/itm/Neil-Young-Promise-of-the-Real-Earth-NEW-2-x-CD-/391496247109?epid=1270878442&hash=item5b26fea745:g:~jAAAOSwwo1XdOZp
p39
aVhttp://www.ebay.com/itm/Usborne-Growing-up-for-Girls-and-Boys-2-Books-Set-Collection-Teens-Young-Adults-/201120235348?epid=1944105403&hash=item2ed3b33f54:g:l-cAAOSwFAZTspbh
p40
a.