(lp1
Vhttp://www.ebay.com/itm/Ben-Phillips-and-The-Sidemen-2-Books-Collection-Set-NEW-Sorry-Bro-Sidemen-The-/381835223038?hash=item58e7271ffe:g:Op0AAOSwx2dYGYbE
p2
aVhttp://www.ebay.com/itm/Sidemen-The-Book-by-The-Sidemen-New-Hardback-Book-/142164291341?epid=225759087&hash=item2119a6ef0d:g:Y0EAAOSwKytZDwyX
p3
aVhttp://www.ebay.com/itm/BOOK-Sidemen-The-Book-by-The-Sidemen-Hardback-New-/282226924442?epid=225759087&hash=item41b6091b9a:g:N2IAAOSw42dZKpjj
p4
aVhttp://www.ebay.com/itm/Sidemen-The-Book-By-The-Sideman-Brand-New-Hardback-Book-2016-Free-Delivery-/322298685185?hash=item4b0a7fa701:g:MAQAAOSwCGVYBo60
p5
aVhttp://www.ebay.com/itm/Sidemen-The-Book-HB-Book-Brand-New-/172379705835?epid=225759087&hash=item2822a191eb:g:5kAAAOSwYIxYBosC
p6
aVhttp://www.ebay.com/itm/Sidemen-The-Book-The-Sidemen-Hardback-New-Book-Free-UK-Delivery-/322287964920?epid=225759087&hash=item4b09dc12f8:i:322287964920
p7
aVhttp://www.ebay.com/itm/Sidemen-The-Book-YouTube-/162230810467?epid=225759087&hash=item25c5b5b763:g:8eEAAOSwImRYfhLC
p8
aVhttp://www.ebay.com/itm/NEW-Sidemen-The-Book-HC-1473648165-/152259353705?epid=225759087&hash=item23735d5c69:g:n1AAAOSwLF1X7OrH
p9
aVhttp://www.ebay.com/itm/Sidemen-The-Book-by-The-Sidemen-9781473648166-Pre-Order-/182293492928?epid=225759087&hash=item2a7189f4c0:g:SZcAAOSwmLlX6OJa
p10
aVhttp://www.ebay.com/itm/Amplified-Pink-Floyd-Dark-Side-Mens-T-Shirt-/172348471329?var=&epid=1241182114&hash=item2820c4f821:m:mEPJ-ZqoF6dKOPixZYK64IA
p11
aVhttp://www.ebay.com/itm/Sidemen-The-Book-I-Am-a-Bellend-2-Books-Set-Computers-Collection-Hardcover-New-/381689577571?epid=1175811127&hash=item58de78c063:g:LwgAAOSwgY9Xd2LP
p12
aVhttp://www.ebay.com/itm/Amplified-Pink-Floyd-Dark-Side-Mens-T-Shirt-/152046942808?var=&hash=item2366b43a58:m:mEPJ-ZqoF6dKOPixZYK64IA
p13
aVhttp://www.ebay.com/itm/markiplier-beanie-hat-youtube-pewdiepie-gaming-jacksepticeye-vanoss-sidemen-/222031896754?epid=1189007684&hash=item33b221e0b2:g:NQgAAOSwB4NWzDAu
p14
aVhttp://www.ebay.com/itm/HOT-CAMOUFLAGE-ARMY-SIDEMEN-FASHION-TEE-T-SHIRT-UNISEX-BOYS-GIRLS-KIDS-CHILDREN-/262819188430?var=&hash=item3d313e8ece:m:mEbn8M7IQ5Am6iA1wUM1LNw
p15
aVhttp://www.ebay.com/itm/Sidemen-SDMN-Wristband-ALL-COLOURS-AND-SIZES-Brand-New-with-Tags-/172486694195?var=&hash=item2829021533:m:mfxuDu4B9c-GkWYSEesiWHQ
p16
aVhttp://www.ebay.com/itm/Sidemen-Original-SDMN-Wristband-ALL-COLOURS-AND-SIZES-Brand-New-with-Tags-/172486692176?var=&hash=item2829020d50:m:m7ZR8-AVKoxycg2-TTxRuZw
p17
aVhttp://www.ebay.com/itm/Sidemen-The-Book-by-The-Sidemen-NEW-HARDCOVER-2016-FREE-DELIVERY-/262755245571?hash=item3d2d6ede03:g:O-AAAOSwMVdYIv7o
p18
aVhttp://www.ebay.com/itm/Sidemen-The-Book-by-The-Sidemen-Hardcover-2016-YouTube-Superstars-Vloggers-NEW-/142203034204?hash=item211bf61a5c:g:BecAAOSwux5YRr23
p19
aVhttp://www.ebay.com/itm/KSI-Keep-Up-T-Shirt-Sidemen-YouTube-Kids-Adults-Army-FIFA-Gaming-Beast-Smashed-/222336727300?var=&hash=item33c44d3904:m:mZ8FaKrLcecGG71pj2NBuzg
p20
aVhttp://www.ebay.com/itm/Sidemen-The-Book-Hardcover-BRAND-NEW-Free-Shipping-/302152133621?hash=item4659ababf5:g:FT8AAOSw4GVYPU41
p21
aVhttp://www.ebay.com/itm/Sidemen-The-Book-Book-by-The-Sidemen-Hardcover-2016-/192037251806?epid=225759087&hash=item2cb64feade:g:NTUAAOSwo4pYOMWt
p22
aVhttp://www.ebay.com/itm/Various-Artists-Rockin-With-Morrisseys-Side-Men-CD-2006-/381861162765?epid=52199903&hash=item58e8b2ef0d:g:NGkAAOSwLEtYkOv2
p23
aVhttp://www.ebay.com/itm/Sidemen-The-Book-by-The-Sidemen-Hardcover-2016-FREE-P-P-/172417538784?epid=225759087&hash=item2824e2dae0:g:hd0AAOSw44BYNCBe
p24
aVhttp://www.ebay.com/itm/Sidemen-The-Book-by-The-Sidemen-9781473648166-Hardback-2016-/302139724220?epid=225759087&hash=item4658ee51bc:g:rEcAAOSwux5YK8RF
p25
aVhttp://www.ebay.com/itm/Ben-Phillips-and-The-Sidemen-2-Books-Collection-Set-NEW-Sorry-Bro-Sidemen-The-/381835223038?hash=item58e7271ffe:g:Op0AAOSwx2dYGYbE
p26
aVhttp://www.ebay.com/itm/Sidemen-The-Book-by-The-Sidemen-New-Hardback-Book-/142164291341?epid=225759087&hash=item2119a6ef0d:g:Y0EAAOSwKytZDwyX
p27
aVhttp://www.ebay.com/itm/BOOK-Sidemen-The-Book-by-The-Sidemen-Hardback-New-/282226924442?epid=225759087&hash=item41b6091b9a:g:N2IAAOSw42dZKpjj
p28
aVhttp://www.ebay.com/itm/Sidemen-The-Book-By-The-Sideman-Brand-New-Hardback-Book-2016-Free-Delivery-/322298685185?hash=item4b0a7fa701:g:MAQAAOSwCGVYBo60
p29
aVhttp://www.ebay.com/itm/Sidemen-The-Book-HB-Book-Brand-New-/172379705835?epid=225759087&hash=item2822a191eb:g:5kAAAOSwYIxYBosC
p30
aVhttp://www.ebay.com/itm/Sidemen-The-Book-The-Sidemen-Hardback-New-Book-Free-UK-Delivery-/322287964920?epid=225759087&hash=item4b09dc12f8:i:322287964920
p31
aVhttp://www.ebay.com/itm/Sidemen-The-Book-YouTube-/162230810467?epid=225759087&hash=item25c5b5b763:g:8eEAAOSwImRYfhLC
p32
aVhttp://www.ebay.com/itm/NEW-Sidemen-The-Book-HC-1473648165-/152259353705?epid=225759087&hash=item23735d5c69:g:n1AAAOSwLF1X7OrH
p33
aVhttp://www.ebay.com/itm/Sidemen-The-Book-by-The-Sidemen-9781473648166-Pre-Order-/182293492928?epid=225759087&hash=item2a7189f4c0:g:SZcAAOSwmLlX6OJa
p34
aVhttp://www.ebay.com/itm/Amplified-Pink-Floyd-Dark-Side-Mens-T-Shirt-/172348471329?var=&epid=1241182114&hash=item2820c4f821:m:mEPJ-ZqoF6dKOPixZYK64IA
p35
aVhttp://www.ebay.com/itm/Sidemen-The-Book-I-Am-a-Bellend-2-Books-Set-Computers-Collection-Hardcover-New-/381689577571?epid=1175811127&hash=item58de78c063:g:LwgAAOSwgY9Xd2LP
p36
aVhttp://www.ebay.com/itm/Amplified-Pink-Floyd-Dark-Side-Mens-T-Shirt-/152046942808?var=&hash=item2366b43a58:m:mEPJ-ZqoF6dKOPixZYK64IA
p37
aVhttp://www.ebay.com/itm/markiplier-beanie-hat-youtube-pewdiepie-gaming-jacksepticeye-vanoss-sidemen-/222031896754?epid=1189007684&hash=item33b221e0b2:g:NQgAAOSwB4NWzDAu
p38
aVhttp://www.ebay.com/itm/HOT-CAMOUFLAGE-ARMY-SIDEMEN-FASHION-TEE-T-SHIRT-UNISEX-BOYS-GIRLS-KIDS-CHILDREN-/262819188430?var=&hash=item3d313e8ece:m:mEbn8M7IQ5Am6iA1wUM1LNw
p39
aVhttp://www.ebay.com/itm/Sidemen-SDMN-Wristband-ALL-COLOURS-AND-SIZES-Brand-New-with-Tags-/172486694195?var=&hash=item2829021533:m:mfxuDu4B9c-GkWYSEesiWHQ
p40
aVhttp://www.ebay.com/itm/Sidemen-Original-SDMN-Wristband-ALL-COLOURS-AND-SIZES-Brand-New-with-Tags-/172486692176?var=&hash=item2829020d50:m:m7ZR8-AVKoxycg2-TTxRuZw
p41
aVhttp://www.ebay.com/itm/Sidemen-The-Book-by-The-Sidemen-NEW-HARDCOVER-2016-FREE-DELIVERY-/262755245571?hash=item3d2d6ede03:g:O-AAAOSwMVdYIv7o
p42
aVhttp://www.ebay.com/itm/Sidemen-The-Book-by-The-Sidemen-Hardcover-2016-YouTube-Superstars-Vloggers-NEW-/142203034204?hash=item211bf61a5c:g:BecAAOSwux5YRr23
p43
aVhttp://www.ebay.com/itm/KSI-Keep-Up-T-Shirt-Sidemen-YouTube-Kids-Adults-Army-FIFA-Gaming-Beast-Smashed-/222336727300?var=&hash=item33c44d3904:m:mZ8FaKrLcecGG71pj2NBuzg
p44
aVhttp://www.ebay.com/itm/Sidemen-The-Book-Hardcover-BRAND-NEW-Free-Shipping-/302152133621?hash=item4659ababf5:g:FT8AAOSw4GVYPU41
p45
aVhttp://www.ebay.com/itm/Sidemen-The-Book-Book-by-The-Sidemen-Hardcover-2016-/192037251806?epid=225759087&hash=item2cb64feade:g:NTUAAOSwo4pYOMWt
p46
aVhttp://www.ebay.com/itm/Various-Artists-Rockin-With-Morrisseys-Side-Men-CD-2006-/381861162765?epid=52199903&hash=item58e8b2ef0d:g:NGkAAOSwLEtYkOv2
p47
aVhttp://www.ebay.com/itm/Sidemen-The-Book-by-The-Sidemen-Hardcover-2016-FREE-P-P-/172417538784?epid=225759087&hash=item2824e2dae0:g:hd0AAOSw44BYNCBe
p48
aVhttp://www.ebay.com/itm/Sidemen-The-Book-by-The-Sidemen-9781473648166-Hardback-2016-/302139724220?epid=225759087&hash=item4658ee51bc:g:rEcAAOSwux5YK8RF
p49
aVhttp://www.ebay.com/itm/Ben-Phillips-and-The-Sidemen-2-Books-Collection-Set-NEW-Sorry-Bro-Sidemen-The-/381835223038?hash=item58e7271ffe:g:Op0AAOSwx2dYGYbE
p50
aVhttp://www.ebay.com/itm/Sidemen-The-Book-by-The-Sidemen-New-Hardback-Book-/142164291341?epid=225759087&hash=item2119a6ef0d:g:Y0EAAOSwKytZDwyX
p51
aVhttp://www.ebay.com/itm/BOOK-Sidemen-The-Book-by-The-Sidemen-Hardback-New-/282226924442?epid=225759087&hash=item41b6091b9a:g:N2IAAOSw42dZKpjj
p52
aVhttp://www.ebay.com/itm/Sidemen-The-Book-By-The-Sideman-Brand-New-Hardback-Book-2016-Free-Delivery-/322298685185?hash=item4b0a7fa701:g:MAQAAOSwCGVYBo60
p53
aVhttp://www.ebay.com/itm/Sidemen-The-Book-HB-Book-Brand-New-/172379705835?epid=225759087&hash=item2822a191eb:g:5kAAAOSwYIxYBosC
p54
aVhttp://www.ebay.com/itm/Sidemen-The-Book-The-Sidemen-Hardback-New-Book-Free-UK-Delivery-/322287964920?epid=225759087&hash=item4b09dc12f8:i:322287964920
p55
aVhttp://www.ebay.com/itm/Sidemen-The-Book-YouTube-/162230810467?epid=225759087&hash=item25c5b5b763:g:8eEAAOSwImRYfhLC
p56
aVhttp://www.ebay.com/itm/NEW-Sidemen-The-Book-HC-1473648165-/152259353705?epid=225759087&hash=item23735d5c69:g:n1AAAOSwLF1X7OrH
p57
aVhttp://www.ebay.com/itm/Sidemen-The-Book-by-The-Sidemen-9781473648166-Pre-Order-/182293492928?epid=225759087&hash=item2a7189f4c0:g:SZcAAOSwmLlX6OJa
p58
aVhttp://www.ebay.com/itm/Amplified-Pink-Floyd-Dark-Side-Mens-T-Shirt-/172348471329?var=&epid=1241182114&hash=item2820c4f821:m:mEPJ-ZqoF6dKOPixZYK64IA
p59
aVhttp://www.ebay.com/itm/Sidemen-The-Book-I-Am-a-Bellend-2-Books-Set-Computers-Collection-Hardcover-New-/381689577571?epid=1175811127&hash=item58de78c063:g:LwgAAOSwgY9Xd2LP
p60
aVhttp://www.ebay.com/itm/Amplified-Pink-Floyd-Dark-Side-Mens-T-Shirt-/152046942808?var=&hash=item2366b43a58:m:mEPJ-ZqoF6dKOPixZYK64IA
p61
aVhttp://www.ebay.com/itm/markiplier-beanie-hat-youtube-pewdiepie-gaming-jacksepticeye-vanoss-sidemen-/222031896754?epid=1189007684&hash=item33b221e0b2:g:NQgAAOSwB4NWzDAu
p62
aVhttp://www.ebay.com/itm/HOT-CAMOUFLAGE-ARMY-SIDEMEN-FASHION-TEE-T-SHIRT-UNISEX-BOYS-GIRLS-KIDS-CHILDREN-/262819188430?var=&hash=item3d313e8ece:m:mEbn8M7IQ5Am6iA1wUM1LNw
p63
aVhttp://www.ebay.com/itm/Sidemen-SDMN-Wristband-ALL-COLOURS-AND-SIZES-Brand-New-with-Tags-/172486694195?var=&hash=item2829021533:m:mfxuDu4B9c-GkWYSEesiWHQ
p64
aVhttp://www.ebay.com/itm/Sidemen-Original-SDMN-Wristband-ALL-COLOURS-AND-SIZES-Brand-New-with-Tags-/172486692176?var=&hash=item2829020d50:m:m7ZR8-AVKoxycg2-TTxRuZw
p65
aVhttp://www.ebay.com/itm/Sidemen-The-Book-by-The-Sidemen-NEW-HARDCOVER-2016-FREE-DELIVERY-/262755245571?hash=item3d2d6ede03:g:O-AAAOSwMVdYIv7o
p66
aVhttp://www.ebay.com/itm/Sidemen-The-Book-by-The-Sidemen-Hardcover-2016-YouTube-Superstars-Vloggers-NEW-/142203034204?hash=item211bf61a5c:g:BecAAOSwux5YRr23
p67
aVhttp://www.ebay.com/itm/KSI-Keep-Up-T-Shirt-Sidemen-YouTube-Kids-Adults-Army-FIFA-Gaming-Beast-Smashed-/222336727300?var=&hash=item33c44d3904:m:mZ8FaKrLcecGG71pj2NBuzg
p68
aVhttp://www.ebay.com/itm/Sidemen-The-Book-Hardcover-BRAND-NEW-Free-Shipping-/302152133621?hash=item4659ababf5:g:FT8AAOSw4GVYPU41
p69
aVhttp://www.ebay.com/itm/Sidemen-The-Book-Book-by-The-Sidemen-Hardcover-2016-/192037251806?epid=225759087&hash=item2cb64feade:g:NTUAAOSwo4pYOMWt
p70
aVhttp://www.ebay.com/itm/Various-Artists-Rockin-With-Morrisseys-Side-Men-CD-2006-/381861162765?epid=52199903&hash=item58e8b2ef0d:g:NGkAAOSwLEtYkOv2
p71
aVhttp://www.ebay.com/itm/Sidemen-The-Book-by-The-Sidemen-Hardcover-2016-FREE-P-P-/172417538784?epid=225759087&hash=item2824e2dae0:g:hd0AAOSw44BYNCBe
p72
aVhttp://www.ebay.com/itm/Sidemen-The-Book-by-The-Sidemen-9781473648166-Hardback-2016-/302139724220?epid=225759087&hash=item4658ee51bc:g:rEcAAOSwux5YK8RF
p73
aVhttp://www.ebay.com/itm/Ben-Phillips-and-The-Sidemen-2-Books-Collection-Set-NEW-Sorry-Bro-Sidemen-The-/381835223038?hash=item58e7271ffe:g:Op0AAOSwx2dYGYbE
p74
aVhttp://www.ebay.com/itm/Sidemen-The-Book-by-The-Sidemen-New-Hardback-Book-/142164291341?epid=225759087&hash=item2119a6ef0d:g:Y0EAAOSwKytZDwyX
p75
aVhttp://www.ebay.com/itm/BOOK-Sidemen-The-Book-by-The-Sidemen-Hardback-New-/282226924442?epid=225759087&hash=item41b6091b9a:g:N2IAAOSw42dZKpjj
p76
aVhttp://www.ebay.com/itm/Sidemen-The-Book-By-The-Sideman-Brand-New-Hardback-Book-2016-Free-Delivery-/322298685185?hash=item4b0a7fa701:g:MAQAAOSwCGVYBo60
p77
aVhttp://www.ebay.com/itm/Sidemen-The-Book-HB-Book-Brand-New-/172379705835?epid=225759087&hash=item2822a191eb:g:5kAAAOSwYIxYBosC
p78
aVhttp://www.ebay.com/itm/Sidemen-The-Book-The-Sidemen-Hardback-New-Book-Free-UK-Delivery-/322287964920?epid=225759087&hash=item4b09dc12f8:i:322287964920
p79
aVhttp://www.ebay.com/itm/Sidemen-The-Book-YouTube-/162230810467?epid=225759087&hash=item25c5b5b763:g:8eEAAOSwImRYfhLC
p80
aVhttp://www.ebay.com/itm/NEW-Sidemen-The-Book-HC-1473648165-/152259353705?epid=225759087&hash=item23735d5c69:g:n1AAAOSwLF1X7OrH
p81
aVhttp://www.ebay.com/itm/Sidemen-The-Book-by-The-Sidemen-9781473648166-Pre-Order-/182293492928?epid=225759087&hash=item2a7189f4c0:g:SZcAAOSwmLlX6OJa
p82
aVhttp://www.ebay.com/itm/Amplified-Pink-Floyd-Dark-Side-Mens-T-Shirt-/172348471329?var=&epid=1241182114&hash=item2820c4f821:m:mEPJ-ZqoF6dKOPixZYK64IA
p83
aVhttp://www.ebay.com/itm/Sidemen-The-Book-I-Am-a-Bellend-2-Books-Set-Computers-Collection-Hardcover-New-/381689577571?epid=1175811127&hash=item58de78c063:g:LwgAAOSwgY9Xd2LP
p84
aVhttp://www.ebay.com/itm/Amplified-Pink-Floyd-Dark-Side-Mens-T-Shirt-/152046942808?var=&hash=item2366b43a58:m:mEPJ-ZqoF6dKOPixZYK64IA
p85
aVhttp://www.ebay.com/itm/markiplier-beanie-hat-youtube-pewdiepie-gaming-jacksepticeye-vanoss-sidemen-/222031896754?epid=1189007684&hash=item33b221e0b2:g:NQgAAOSwB4NWzDAu
p86
aVhttp://www.ebay.com/itm/HOT-CAMOUFLAGE-ARMY-SIDEMEN-FASHION-TEE-T-SHIRT-UNISEX-BOYS-GIRLS-KIDS-CHILDREN-/262819188430?var=&hash=item3d313e8ece:m:mEbn8M7IQ5Am6iA1wUM1LNw
p87
aVhttp://www.ebay.com/itm/Sidemen-SDMN-Wristband-ALL-COLOURS-AND-SIZES-Brand-New-with-Tags-/172486694195?var=&hash=item2829021533:m:mfxuDu4B9c-GkWYSEesiWHQ
p88
aVhttp://www.ebay.com/itm/Sidemen-Original-SDMN-Wristband-ALL-COLOURS-AND-SIZES-Brand-New-with-Tags-/172486692176?var=&hash=item2829020d50:m:m7ZR8-AVKoxycg2-TTxRuZw
p89
aVhttp://www.ebay.com/itm/Sidemen-The-Book-by-The-Sidemen-NEW-HARDCOVER-2016-FREE-DELIVERY-/262755245571?hash=item3d2d6ede03:g:O-AAAOSwMVdYIv7o
p90
aVhttp://www.ebay.com/itm/Sidemen-The-Book-by-The-Sidemen-Hardcover-2016-YouTube-Superstars-Vloggers-NEW-/142203034204?hash=item211bf61a5c:g:BecAAOSwux5YRr23
p91
aVhttp://www.ebay.com/itm/KSI-Keep-Up-T-Shirt-Sidemen-YouTube-Kids-Adults-Army-FIFA-Gaming-Beast-Smashed-/222336727300?var=&hash=item33c44d3904:m:mZ8FaKrLcecGG71pj2NBuzg
p92
aVhttp://www.ebay.com/itm/Sidemen-The-Book-Hardcover-BRAND-NEW-Free-Shipping-/302152133621?hash=item4659ababf5:g:FT8AAOSw4GVYPU41
p93
aVhttp://www.ebay.com/itm/Sidemen-The-Book-Book-by-The-Sidemen-Hardcover-2016-/192037251806?epid=225759087&hash=item2cb64feade:g:NTUAAOSwo4pYOMWt
p94
aVhttp://www.ebay.com/itm/Various-Artists-Rockin-With-Morrisseys-Side-Men-CD-2006-/381861162765?epid=52199903&hash=item58e8b2ef0d:g:NGkAAOSwLEtYkOv2
p95
aVhttp://www.ebay.com/itm/Sidemen-The-Book-by-The-Sidemen-Hardcover-2016-FREE-P-P-/172417538784?epid=225759087&hash=item2824e2dae0:g:hd0AAOSw44BYNCBe
p96
aVhttp://www.ebay.com/itm/Sidemen-The-Book-by-The-Sidemen-9781473648166-Hardback-2016-/302139724220?epid=225759087&hash=item4658ee51bc:g:rEcAAOSwux5YK8RF
p97
aVhttp://www.ebay.com/itm/Ben-Phillips-and-The-Sidemen-2-Books-Collection-Set-NEW-Sorry-Bro-Sidemen-The-/381835223038?hash=item58e7271ffe:g:Op0AAOSwx2dYGYbE
p98
aVhttp://www.ebay.com/itm/Sidemen-The-Book-by-The-Sidemen-New-Hardback-Book-/142164291341?epid=225759087&hash=item2119a6ef0d:g:Y0EAAOSwKytZDwyX
p99
aVhttp://www.ebay.com/itm/BOOK-Sidemen-The-Book-by-The-Sidemen-Hardback-New-/282226924442?epid=225759087&hash=item41b6091b9a:g:N2IAAOSw42dZKpjj
p100
aVhttp://www.ebay.com/itm/Sidemen-The-Book-By-The-Sideman-Brand-New-Hardback-Book-2016-Free-Delivery-/322298685185?hash=item4b0a7fa701:g:MAQAAOSwCGVYBo60
p101
aVhttp://www.ebay.com/itm/Sidemen-The-Book-HB-Book-Brand-New-/172379705835?epid=225759087&hash=item2822a191eb:g:5kAAAOSwYIxYBosC
p102
aVhttp://www.ebay.com/itm/Sidemen-The-Book-The-Sidemen-Hardback-New-Book-Free-UK-Delivery-/322287964920?epid=225759087&hash=item4b09dc12f8:i:322287964920
p103
aVhttp://www.ebay.com/itm/Sidemen-The-Book-YouTube-/162230810467?epid=225759087&hash=item25c5b5b763:g:8eEAAOSwImRYfhLC
p104
aVhttp://www.ebay.com/itm/NEW-Sidemen-The-Book-HC-1473648165-/152259353705?epid=225759087&hash=item23735d5c69:g:n1AAAOSwLF1X7OrH
p105
aVhttp://www.ebay.com/itm/Sidemen-The-Book-by-The-Sidemen-9781473648166-Pre-Order-/182293492928?epid=225759087&hash=item2a7189f4c0:g:SZcAAOSwmLlX6OJa
p106
aVhttp://www.ebay.com/itm/Amplified-Pink-Floyd-Dark-Side-Mens-T-Shirt-/172348471329?var=&epid=1241182114&hash=item2820c4f821:m:mEPJ-ZqoF6dKOPixZYK64IA
p107
aVhttp://www.ebay.com/itm/Sidemen-The-Book-I-Am-a-Bellend-2-Books-Set-Computers-Collection-Hardcover-New-/381689577571?epid=1175811127&hash=item58de78c063:g:LwgAAOSwgY9Xd2LP
p108
aVhttp://www.ebay.com/itm/Amplified-Pink-Floyd-Dark-Side-Mens-T-Shirt-/152046942808?var=&hash=item2366b43a58:m:mEPJ-ZqoF6dKOPixZYK64IA
p109
aVhttp://www.ebay.com/itm/markiplier-beanie-hat-youtube-pewdiepie-gaming-jacksepticeye-vanoss-sidemen-/222031896754?epid=1189007684&hash=item33b221e0b2:g:NQgAAOSwB4NWzDAu
p110
aVhttp://www.ebay.com/itm/HOT-CAMOUFLAGE-ARMY-SIDEMEN-FASHION-TEE-T-SHIRT-UNISEX-BOYS-GIRLS-KIDS-CHILDREN-/262819188430?var=&hash=item3d313e8ece:m:mEbn8M7IQ5Am6iA1wUM1LNw
p111
aVhttp://www.ebay.com/itm/Sidemen-SDMN-Wristband-ALL-COLOURS-AND-SIZES-Brand-New-with-Tags-/172486694195?var=&hash=item2829021533:m:mfxuDu4B9c-GkWYSEesiWHQ
p112
aVhttp://www.ebay.com/itm/Sidemen-Original-SDMN-Wristband-ALL-COLOURS-AND-SIZES-Brand-New-with-Tags-/172486692176?var=&hash=item2829020d50:m:m7ZR8-AVKoxycg2-TTxRuZw
p113
aVhttp://www.ebay.com/itm/Sidemen-The-Book-by-The-Sidemen-NEW-HARDCOVER-2016-FREE-DELIVERY-/262755245571?hash=item3d2d6ede03:g:O-AAAOSwMVdYIv7o
p114
aVhttp://www.ebay.com/itm/Sidemen-The-Book-by-The-Sidemen-Hardcover-2016-YouTube-Superstars-Vloggers-NEW-/142203034204?hash=item211bf61a5c:g:BecAAOSwux5YRr23
p115
aVhttp://www.ebay.com/itm/KSI-Keep-Up-T-Shirt-Sidemen-YouTube-Kids-Adults-Army-FIFA-Gaming-Beast-Smashed-/222336727300?var=&hash=item33c44d3904:m:mZ8FaKrLcecGG71pj2NBuzg
p116
aVhttp://www.ebay.com/itm/Sidemen-The-Book-Hardcover-BRAND-NEW-Free-Shipping-/302152133621?hash=item4659ababf5:g:FT8AAOSw4GVYPU41
p117
aVhttp://www.ebay.com/itm/Sidemen-The-Book-Book-by-The-Sidemen-Hardcover-2016-/192037251806?epid=225759087&hash=item2cb64feade:g:NTUAAOSwo4pYOMWt
p118
aVhttp://www.ebay.com/itm/Various-Artists-Rockin-With-Morrisseys-Side-Men-CD-2006-/381861162765?epid=52199903&hash=item58e8b2ef0d:g:NGkAAOSwLEtYkOv2
p119
aVhttp://www.ebay.com/itm/Sidemen-The-Book-by-The-Sidemen-Hardcover-2016-FREE-P-P-/172417538784?epid=225759087&hash=item2824e2dae0:g:hd0AAOSw44BYNCBe
p120
aVhttp://www.ebay.com/itm/Sidemen-The-Book-by-The-Sidemen-9781473648166-Hardback-2016-/302139724220?epid=225759087&hash=item4658ee51bc:g:rEcAAOSwux5YK8RF
p121
aVhttp://www.ebay.com/itm/Ben-Phillips-and-The-Sidemen-2-Books-Collection-Set-NEW-Sorry-Bro-Sidemen-The-/381835223038?hash=item58e7271ffe:g:Op0AAOSwx2dYGYbE
p122
aVhttp://www.ebay.com/itm/Sidemen-The-Book-by-The-Sidemen-New-Hardback-Book-/142164291341?epid=225759087&hash=item2119a6ef0d:g:Y0EAAOSwKytZDwyX
p123
aVhttp://www.ebay.com/itm/BOOK-Sidemen-The-Book-by-The-Sidemen-Hardback-New-/282226924442?epid=225759087&hash=item41b6091b9a:g:N2IAAOSw42dZKpjj
p124
aVhttp://www.ebay.com/itm/Sidemen-The-Book-By-The-Sideman-Brand-New-Hardback-Book-2016-Free-Delivery-/322298685185?hash=item4b0a7fa701:g:MAQAAOSwCGVYBo60
p125
aVhttp://www.ebay.com/itm/Sidemen-The-Book-HB-Book-Brand-New-/172379705835?epid=225759087&hash=item2822a191eb:g:5kAAAOSwYIxYBosC
p126
aVhttp://www.ebay.com/itm/Sidemen-The-Book-The-Sidemen-Hardback-New-Book-Free-UK-Delivery-/322287964920?epid=225759087&hash=item4b09dc12f8:i:322287964920
p127
aVhttp://www.ebay.com/itm/Sidemen-The-Book-YouTube-/162230810467?epid=225759087&hash=item25c5b5b763:g:8eEAAOSwImRYfhLC
p128
aVhttp://www.ebay.com/itm/NEW-Sidemen-The-Book-HC-1473648165-/152259353705?epid=225759087&hash=item23735d5c69:g:n1AAAOSwLF1X7OrH
p129
aVhttp://www.ebay.com/itm/Sidemen-The-Book-by-The-Sidemen-9781473648166-Pre-Order-/182293492928?epid=225759087&hash=item2a7189f4c0:g:SZcAAOSwmLlX6OJa
p130
aVhttp://www.ebay.com/itm/Amplified-Pink-Floyd-Dark-Side-Mens-T-Shirt-/172348471329?var=&epid=1241182114&hash=item2820c4f821:m:mEPJ-ZqoF6dKOPixZYK64IA
p131
aVhttp://www.ebay.com/itm/Sidemen-The-Book-I-Am-a-Bellend-2-Books-Set-Computers-Collection-Hardcover-New-/381689577571?epid=1175811127&hash=item58de78c063:g:LwgAAOSwgY9Xd2LP
p132
aVhttp://www.ebay.com/itm/Amplified-Pink-Floyd-Dark-Side-Mens-T-Shirt-/152046942808?var=&hash=item2366b43a58:m:mEPJ-ZqoF6dKOPixZYK64IA
p133
aVhttp://www.ebay.com/itm/HOT-CAMOUFLAGE-ARMY-SIDEMEN-FASHION-TEE-T-SHIRT-UNISEX-BOYS-GIRLS-KIDS-CHILDREN-/262819188430?var=&hash=item3d313e8ece:m:mEbn8M7IQ5Am6iA1wUM1LNw
p134
aVhttp://www.ebay.com/itm/Sidemen-SDMN-Wristband-ALL-COLOURS-AND-SIZES-Brand-New-with-Tags-/172486694195?var=&hash=item2829021533:m:mfxuDu4B9c-GkWYSEesiWHQ
p135
aVhttp://www.ebay.com/itm/Sidemen-Original-SDMN-Wristband-ALL-COLOURS-AND-SIZES-Brand-New-with-Tags-/172486692176?var=&hash=item2829020d50:m:m7ZR8-AVKoxycg2-TTxRuZw
p136
aVhttp://www.ebay.com/itm/Sidemen-The-Book-by-The-Sidemen-NEW-HARDCOVER-2016-FREE-DELIVERY-/262755245571?hash=item3d2d6ede03:g:O-AAAOSwMVdYIv7o
p137
aVhttp://www.ebay.com/itm/Sidemen-The-Book-by-The-Sidemen-Hardcover-2016-YouTube-Superstars-Vloggers-NEW-/142203034204?hash=item211bf61a5c:g:BecAAOSwux5YRr23
p138
aVhttp://www.ebay.com/itm/KSI-Keep-Up-T-Shirt-Sidemen-YouTube-Kids-Adults-Army-FIFA-Gaming-Beast-Smashed-/222336727300?var=&hash=item33c44d3904:m:mZ8FaKrLcecGG71pj2NBuzg
p139
aVhttp://www.ebay.com/itm/Sidemen-The-Book-Hardcover-BRAND-NEW-Free-Shipping-/302152133621?hash=item4659ababf5:g:FT8AAOSw4GVYPU41
p140
aVhttp://www.ebay.com/itm/Sidemen-The-Book-Book-by-The-Sidemen-Hardcover-2016-/192037251806?epid=225759087&hash=item2cb64feade:g:NTUAAOSwo4pYOMWt
p141
aVhttp://www.ebay.com/itm/Various-Artists-Rockin-With-Morrisseys-Side-Men-CD-2006-/381861162765?epid=52199903&hash=item58e8b2ef0d:g:NGkAAOSwLEtYkOv2
p142
aVhttp://www.ebay.com/itm/Sidemen-The-Book-by-The-Sidemen-Hardcover-2016-FREE-P-P-/172417538784?epid=225759087&hash=item2824e2dae0:g:hd0AAOSw44BYNCBe
p143
aVhttp://www.ebay.com/itm/Sidemen-The-Book-by-The-Sidemen-9781473648166-Hardback-2016-/302139724220?epid=225759087&hash=item4658ee51bc:g:rEcAAOSwux5YK8RF
p144
aVhttp://www.ebay.com/itm/Ben-Phillips-and-The-Sidemen-2-Books-Collection-Set-NEW-Sorry-Bro-Sidemen-The-/381835223038?hash=item58e7271ffe:g:Op0AAOSwx2dYGYbE
p145
aVhttp://www.ebay.com/itm/Sidemen-The-Book-by-The-Sidemen-New-Hardback-Book-/142164291341?epid=225759087&hash=item2119a6ef0d:g:Y0EAAOSwKytZDwyX
p146
aVhttp://www.ebay.com/itm/BOOK-Sidemen-The-Book-by-The-Sidemen-Hardback-New-/282226924442?epid=225759087&hash=item41b6091b9a:g:N2IAAOSw42dZKpjj
p147
aVhttp://www.ebay.com/itm/Sidemen-The-Book-By-The-Sideman-Brand-New-Hardback-Book-2016-Free-Delivery-/322298685185?hash=item4b0a7fa701:g:MAQAAOSwCGVYBo60
p148
aVhttp://www.ebay.com/itm/Sidemen-The-Book-HB-Book-Brand-New-/172379705835?epid=225759087&hash=item2822a191eb:g:5kAAAOSwYIxYBosC
p149
aVhttp://www.ebay.com/itm/Sidemen-The-Book-The-Sidemen-Hardback-New-Book-Free-UK-Delivery-/322287964920?epid=225759087&hash=item4b09dc12f8:i:322287964920
p150
aVhttp://www.ebay.com/itm/Sidemen-The-Book-YouTube-/162230810467?epid=225759087&hash=item25c5b5b763:g:8eEAAOSwImRYfhLC
p151
aVhttp://www.ebay.com/itm/NEW-Sidemen-The-Book-HC-1473648165-/152259353705?epid=225759087&hash=item23735d5c69:g:n1AAAOSwLF1X7OrH
p152
aVhttp://www.ebay.com/itm/Sidemen-The-Book-by-The-Sidemen-9781473648166-Pre-Order-/182293492928?epid=225759087&hash=item2a7189f4c0:g:SZcAAOSwmLlX6OJa
p153
aVhttp://www.ebay.com/itm/Amplified-Pink-Floyd-Dark-Side-Mens-T-Shirt-/172348471329?var=&epid=1241182114&hash=item2820c4f821:m:mEPJ-ZqoF6dKOPixZYK64IA
p154
aVhttp://www.ebay.com/itm/Sidemen-The-Book-I-Am-a-Bellend-2-Books-Set-Computers-Collection-Hardcover-New-/381689577571?epid=1175811127&hash=item58de78c063:g:LwgAAOSwgY9Xd2LP
p155
aVhttp://www.ebay.com/itm/Amplified-Pink-Floyd-Dark-Side-Mens-T-Shirt-/152046942808?var=&hash=item2366b43a58:m:mEPJ-ZqoF6dKOPixZYK64IA
p156
aVhttp://www.ebay.com/itm/markiplier-beanie-hat-youtube-pewdiepie-gaming-jacksepticeye-vanoss-sidemen-/222031896754?epid=1189007684&hash=item33b221e0b2:g:NQgAAOSwB4NWzDAu
p157
a.