(lp0
Vhttp://www.ebay.com/itm/Baby-Brag-Book-Photo-Album-for-Purse-Desk-New-Mom-Gifts-Grandma-Gifts-Baby-/381611605944?var=&hash=item58d9d2ffb8:m:mvHvJvvpoXDWiPpVLpcrtQw
p1
aVhttp://www.ebay.com/itm/Me-to-You-Tiny-Tatty-Teddy-Bear-My-First-Year-Photo-Album-Brag-Book-BN-/172236367962?hash=item281a16685a:g:8Z8AAOSwMNxXWjQV
p2
aVhttp://www.ebay.com/itm/Classic-Pooh-Brag-Book-photo-album-holds-20-4-x6-photos-/332210631064?hash=item4d594bf198:g:DvoAAOSw42dZD1F5
p3
aVhttp://www.ebay.com/itm/C-R-Gibson-Nest-Grandmas-Brag-Book-/291751233764?hash=item43edba88e4:g:u3MAAOSw3v5XI5l-
p4
aVhttp://www.ebay.com/itm/PHOTO-ALBUM-ACCESSORY-BRAG-BOOK-ANIMAL-PET-DOG-LOVER-BLACK-50-4x6-PIXS-NEW-/172756082831?hash=item283910a08f:g:~acAAOSwNuxXawCq
p5
aVhttp://www.ebay.com/itm/Grandkids-Photo-Album-Brag-Book-Grandchildren-Grandparent-Gift-24-Pictures-6x4-/292073604715?hash=item4400f1866b:g:6RoAAOSwA29Y381p
p6
aVhttp://www.ebay.com/itm/The-First-Great-Grandchild-Brag-Book-Gift-for-Great-Grandma-or-Great-Grandpa-/262898358513?hash=item3d35f698f1:g:WzMAAOSw4CFYyzrI
p7
aVhttp://www.ebay.com/itm/New-Pepper-Pot-Sweet-Baby-Boy-Record-Book-Brag-Book-M-/263027069646?hash=item3d3da292ce:g:aJcAAOSwDrNZOYC2
p8
aVhttp://www.ebay.com/itm/C-R-Gibson-Brag-Book-Happi-Baby-Girl-BP73-9022-/172630274523?epid=691222790&hash=item283190f1db:g:jRkAAOSwkShY9STX
p9
aVhttp://www.ebay.com/itm/DISNEYS-BABY-my-sweet-baby-POOH-BABYS-BRAG-BOOK-HOLDS-40-4-X-6-PHOTOS-/322468028306?hash=item4b14979f92:g:j08AAOSw9GhYlOVN
p10
aVhttp://www.ebay.com/itm/Miracle-Ultrasound-Sonogram-Pregnancy-Gift-Brag-Book-/262882719978?hash=item3d3507f8ea:g:P94AAOSwTM5YvLL6
p11
aVhttp://www.ebay.com/itm/Pepper-Pot-Brag-Book-/292001470999?hash=item43fca4da17:g:0wcAAOSwdGFY1Gpz
p12
aVhttp://www.ebay.com/itm/New-Pepper-Pot-Sweet-Baby-Boy-Record-Book-Brag-Book-M-/263027069646?hash=item3d3da292ce:g:aJcAAOSwDrNZOYC2
p13
aVhttp://www.ebay.com/itm/Hallmark-BBA7049-Baby-Girl-Brag-Book-Printed-Photo-Album-Light-Weight-Pink-/351817602545?epid=694188157&hash=item51e9f695f1:g:EL4AAOSw-itXu7B8
p14
aVhttp://www.ebay.com/itm/Stephan-Baby-Little-Princess-Keepsake-Mini-Photo-Album-Brag-Book-Pink-/301943560263?epid=1285851955&hash=item464d3d1847:g:ypgAAOSw9~RXJHnq
p15
aVhttp://www.ebay.com/itm/Bonnie-Bunny-Deluxe-Brag-Book-/281591717078?hash=item41902c9cd6:g:f54AAOSwPhdU1dxu
p16
aVhttp://www.ebay.com/itm/PEPPER-POT-GRANDMAS-BRAG-BOOK-NEW-FREE-SHIPPING-E-BOX1-/272505994782?hash=item3f729f7e1e:g:proAAOSwNuxXY~iS
p17
aVhttp://www.ebay.com/itm/Harley-Davidson-Brag-Book-/271369982702?hash=item3f2ee952ee:g:FxYAAMXQVT9S0X6O
p18
aVhttp://www.ebay.com/itm/My-1st-Christmas-Baby-Pop-Up-PHOTO-ALBUM-BRAG-BOOK-4-x6-10-Photos-Jill-Mcdonald-/272476459369?hash=item3f70dcd169:g:lXAAAOSw2xRYRu5M
p19
aVhttp://www.ebay.com/itm/Carters-Grandmas-Brag-Book-Sweet-Sparkle-/231860139022?hash=item35fbf0f40e:g:~FAAAOSwWTRW0xPx
p20
aVhttp://www.ebay.com/itm/Gigis-Joy-Baby-Photo-Brag-Book-New-Gigi-Gift-/262882755496?hash=item3d350883a8:g:kV4AAOSwOgdYvLs4
p21
aVhttp://www.ebay.com/itm/Baby-Brag-Book-Boys-Photo-holds-20-photos-4x6-C-R-Gibson-Chooo-Chooo-Train-/400385564775?hash=item5d38d6e067:g:TE0AAOxyVX1RyGaF
p22
aVhttp://www.ebay.com/itm/Brag-Book-Memories-of-My-Teeny-Tiny-Baby-Holds-20-4-x6-Acid-Free-PVC-Free-/260962616848?epid=1600155358&hash=item3cc2958610:g:DkwAAOSwh6xTrfhb
p23
aVhttp://www.ebay.com/itm/C-R-Gibson-Grandmas-Brag-Book-Boy-Oh-Boy-/331790120279?hash=item4d403b7557:g:o7IAAOSwx-9W0u34
p24
aVhttp://www.ebay.com/itm/BIG-AKQ-ROYAL-FLUSH-POKER-CARD-ACE-CARDS-BRAG-CASINO-BADGE-IRON-SEW-ON-PATCH-/112280611659?hash=item1a24722b4b:g:R6gAAOSwjDZYiC8B
p25
aVhttp://www.ebay.com/itm/John-Lennon-Real-Love-BRAG-BOOK-My-Busy-Days-Mini-Pocket-Page-Photo-Album-NEW-/141785574919?hash=item2103142e07:m:mKN6_-sb7iLFzBgRK9dz2SQ
p26
a.