(lp1
Vhttp://www.ebay.com/itm/Tau-Empire-Decals-Transfer-Sheet-Warhammer-40K-Bits-/322603805731?hash=item4b1caf6c23:g:d1EAAOSwlhZZcRGa
p2
aVhttp://www.ebay.com/itm/Tau-Empire-Gun-Drone-on-Sprue-Warhammer-40k-Bits-/322603772781?hash=item4b1caeeb6d:g:RGEAAOSwgDRZcQ7U
p3
aVhttp://www.ebay.com/itm/warhammer-40k-tau-empire-XV88-broadside-battlesuit-/332312219011?hash=item4d5f5a0d83:g:PxQAAOSwcstZcQgk
p4
aVhttp://www.ebay.com/itm/Warhammer-40-000-Tau-Empire-Metal-Kroot-Hounds-438-751-/311920149992?hash=item489fe3c5e8:g:UZ8AAOSwD5BZcG69
p5
a.