(lp1
Vhttp://www.ebay.com/itm/DRAPER-STORM-FORCE-ELECTRIC-STAPLER-NAILER-STAPLE-NAIL-GUN-KIT-STAPLES-NAILS-/172588566592?epid=2070050270&hash=item282f148840:g:YccAAOSwax5Y0mmG
p2
aVhttp://www.ebay.com/itm/1000-x-HEAVY-DUTY-STAPLE-GUN-6mm-UPHOLSTERY-STAPLES-B3771-/350986906615?epid=905343383&hash=item51b8732bf7:g:PBQAAOxy4~BSSqCy
p3
aVhttp://www.ebay.com/itm/Tacwise-Z3-4-in-1-Staple-Nail-Cable-Staple-Gun-Kit-Inc-10000-Staples-Nails-/311721835054?epid=1207618683&hash=item489411ba2e:g:DGsAAOSwX9FZNyR-
p4
aVhttp://www.ebay.com/itm/Tacwise-A54-Hammer-Staple-Tacker-Heavy-Duty-Carpet-Fitter-Roofing-Tool-1173-12mm-/131547858778?epid=1337955520&hash=item1ea0dd075a:g:h3YAAOSwfRdZNzQG
p5
aVhttp://www.ebay.com/itm/HEAVY-DUTY-STAPLE-GUN-3-IN-1-STAPLER-TACKER-WITH-STAPLES-UPHOLSTERY-/191095285361?epid=1163380404&hash=item2c7e2aa671:g:lmEAAOSwWnFV7e8D
p6
aVhttp://www.ebay.com/itm/HEAVY-DUTY-3-WAY-STAPLE-NAIL-GUN-STAPLER-UPHOLSTERY-WOOD-WITH-600-STAPLES-/391460917856?epid=12003304237&hash=item5b24e39260:g:sK0AAOSwYvFZL~X6
p7
aVhttp://www.ebay.com/itm/New-Heavy-Duty-Staple-Gun-4-Pieces-Stapler-Tacker-With-Staples-Upholstery-/191871803526?epid=1623224874&hash=item2cac736086:g:ERgAAOSwr0ZXNhqO
p8
aVhttp://www.ebay.com/itm/Tacwise-Professional-Staple-Gun-Z3-140-3-In-1-Hand-Stapler-Tacker-Gun-0806-/310678090765?epid=1812669154&hash=item4855db740d:g:ABkAAOSwfRdZN-6N
p9
aVhttp://www.ebay.com/itm/Draper-13960-8mm-Steel-Staples-Pack-of-1000-Cable-or-Wiring-Good-Quality-/182534439141?epid=1085577040&hash=item2a7fe680e5:g:MqcAAOSwmCVY9T0z
p10
aVhttp://www.ebay.com/itm/DRAPER-230V-Electric-Stapler-8-16mm-Staples-Nails-Stock-No-83658-/122558587706?epid=1868408604&hash=item1c890fa33a:g:XUAAAOSwyWZZSlAM
p11
aVhttp://www.ebay.com/itm/Arrow-T50-Staples-Stainless-Steel-504SS-6mm-1-4in-Box-1000-/171900688051?epid=1805148301&hash=item28061456b3:g:6nEAAOSwA29Y5xxz
p12
aVhttp://www.ebay.com/itm/Arrow-ARRP35-P35-Stapler-Plier-Type-Staple-Gun-for-Bagging-Sealing-Labelling-/190325445521?hash=item2c5047d391:g:6rAAAOxy69JTGe2k
p13
aVhttp://www.ebay.com/itm/Rapid-R30-Long-Projecting-Nose-Staple-Tacker-Gun-/260838347375?epid=1312727653&hash=item3cbb2d526f:g:DYYAAOSwcwhVLnDv
p14
aVhttp://www.ebay.com/itm/314136-Cordless-Lithium-Battery-Staple-Nailer-Tacker-Gun-W-Nails-and-Staples-/282107650357?epid=1478534283&hash=item41aeed2135:g:bQYAAOSwyWZZRx6G
p15
aVhttp://www.ebay.com/itm/Heavy-Locking-Hasp-and-Staple-Stainless-Steel-Marine-/400662466054?hash=item5d49580e06:g:8xgAAOSwunJWE7n2
p16
aVhttp://www.ebay.com/itm/4-6-8MM-STEEL-STAPLE-GUN-TACKER-UPHOLSTERY-STAPLER-2500-STAPLES-HEAVY-DUTY-/272181842766?hash=item3f5f4d534e:g:Uw0AAOSwyKxXgv-J
p17
aVhttp://www.ebay.com/itm/HEAVY-DUTY-STAPLE-GUN-3-IN-1-STAPLER-TACKER-WITH-600-STAPLES-UPHOLSTERY-/231870809290?epid=1905589537&hash=item35fc93c4ca:g:1oIAAOSwQJhUlBh4
p18
aVhttp://www.ebay.com/itm/3-IN-1-STAPLE-GUN-HEAVY-DUTY-HAND-UPHOLSTERY-600PC-STAPLES-STAPLER-CABLE-DIY-NEW-/172331561184?epid=12003304237&hash=item281fc2f0e0:g:uvoAAOSwknJXzfWV
p19
aVhttp://www.ebay.com/itm/CT4250-4in1-Heavy-Duty-Staple-Nail-Gun-Upholstery-Carpet-Fitting-With-Belt-Clip-/371837732875?epid=15004176839&hash=item569341880b:g:LqAAAOSwA3dYOFhZ
p20
aVhttp://www.ebay.com/itm/Sealey-SA792-Air-Nail-Staple-Gun-50mm-40mm-Pneumatic-Nailer-Stapler-Capacity-/191755569555?epid=1504305922&hash=item2ca585c993:g:4OIAAOSwbiFZQW7S
p21
aVhttp://www.ebay.com/itm/Arrow-ET501-Staple-Nail-Gun-/272612451135?epid=1955541826&hash=item3f78f7e33f:g:G2kAAOSwZQRYbNMt
p22
aVhttp://www.ebay.com/itm/Arrow-JT21-T27-Staples-6mm-1-4in-Box-1000-Free-Postage-/262812264268?hash=item3d30d4e74c:g:xSEAAOSw2xRYfoVu
p23
aVhttp://www.ebay.com/itm/DEKTON-3-IN-1-HEAVY-DUTY-STAPLE-GUN-/121932979838?epid=1041967482&hash=item1c63c59e7e:g:5uQAAOSws4JW8ati
p24
aVhttp://www.ebay.com/itm/Staple-Gun-Carpet-And-Upholstery-Stapler-Plus-100-Staples-/281222648859?epid=1238123275&hash=item417a2d141b:g:6BEAAOSw-kdXzfcd
p25
aVhttp://www.ebay.com/itm/Rapesco-0955-Z-duo-Abs-Staple-Gun-Blue-/362002642964?hash=item544909f814:g:~WsAAOSwTf9ZOT1F
p26
aVhttp://www.ebay.com/itm/Stanley-Heavy-Duty-DIY-Hand-Power-Electric-Staple-Nail-Gun-0-tre550-STA0TRE550-/252401759767?epid=1205159569&hash=item3ac4513617:g:tRUAAOSwj85YNq7e
p27
aVhttp://www.ebay.com/itm/Arrow-JT21-T27-Staples-6mm-1-4in-Box-1000-Free-Postage-/263080089153?hash=item3d40cb9641:g:EHcAAOSwImRYgRJa
p28
aVhttp://www.ebay.com/itm/Arrow-JT27-Junior-Staple-Gun-Tacker-AJT27-/181841708462?epid=1705090253&hash=item2a569c45ae:m:mN68PVYkbBu8mLlkukBXVrw
p29
aVhttp://www.ebay.com/itm/TACWISE-CT45-CT60-Combi-Cable-Wire-Staple-Tacker-Stapler-Coax-Cat5-6-Alarm-1153-/370804472226?epid=1307907448&hash=item5655ab39a2:g:H1QAAOxydINSUbny
p30
aVhttp://www.ebay.com/itm/Heavy-Duty-Tacker-Staple-Gun-4-6-8mm-Upholstery-Stapler-With-2500-Free-Staples-/401295997688?hash=item5d6f1afaf8:g:p6EAAOSwNKRXjJXa
p31
aVhttp://www.ebay.com/itm/Heavy-Duty-3-Way-Staple-nail-gun-with-staples-and-nails-/142241738622?epid=1807590788&hash=item211e44af7e:g:zVEAAOSwUKxYdiT-
p32
aVhttp://www.ebay.com/itm/ORION-71-SERIES-AIR-OPERATED-PROFESSIONAL-UPHOLSTERY-STAPLE-GUN-/122344069062?epid=850036241&hash=item1c7c4657c6:g:I~UAAOSwMvtZSRfQ
p33
aVhttp://www.ebay.com/itm/Draper-Storm-Force-Electric-Stapler-Nailer-Heavy-Duty-Staple-Nail-Gun-Kit-Bundle-/162441845466?epid=15003301946&hash=item25d249dada:g:GHMAAOSwWxNY2kNx
p34
aVhttp://www.ebay.com/itm/Tacwise-Combi-Cable-Wire-Stapler-Tacker-1153-Hand-Staple-Gun-CT45-CT60-Coax-/311393742141?epid=1422898097&hash=item4880836d3d:g:NPYAAOSwq~tZNzPK
p35
aVhttp://www.ebay.com/itm/Silverline-45w-Electric-Stapler-Staple-Brad-Nail-Nailer-Tacker-Gun-Staples-/282217031835?hash=item41b572289b:g:5NAAAOSwAANY7hMX
p36
aVhttp://www.ebay.com/itm/Stanley-Heavy-Duty-Staple-Gun-0-TR150HL-Heavy-Duty-10mm-Staples-1-TRA706T-/361342983268?epid=1673598746&hash=item5421b85c64:g:y-sAAOSwR29ZNzAq
p37
aVhttp://www.ebay.com/itm/Rapid-Fineline-R23-Ergonomic-Staple-Gun-Stapler-Tacker-/250877077234?epid=1035896636&hash=item3a697066f2:g:rSUAAOSwFe5X0DjF
p38
aVhttp://www.ebay.com/itm/3-IN-1-STAPLE-GUN-HEAVY-DUTY-HAND-UPHOLSTERY-600PC-STAPLES-STAPLER-CABLE-DIY-NEW-/251926297047?epid=12003304237&hash=item3aa7fa39d7:g:xLIAAOSwv0tVNBH1
p39
aVhttp://www.ebay.com/itm/3-WAYS-HEAVY-DUTY-STAPLE-GUN-TACK-GUN-NAIL-GUN-600-STAPLES-CABLE-TACKS-NAILS-NEW-/251963705454?epid=1439116811&hash=item3aaa35086e:g:w1gAAOSwrklVWOji
p40
aVhttp://www.ebay.com/itm/METAL-STAPLE-GUN-UPHOLSTERY-TACKER-MANUAL-DIY-STAPLER-100-x-6MM-STAPLES-4MM-8MM-/272758386343?epid=1324008545&hash=item3f81aaaea7:g:yZwAAOSw4YJZZRAL
p41
aVhttp://www.ebay.com/itm/Arrow-JT21-T27-Staples-10mm-3-8in-Box-1000-/253041681609?epid=1405728212&hash=item3aea75a4c9:g:rTgAAOSw-kdXygNT
p42
aVhttp://www.ebay.com/itm/Tacwise-Pro-Staple-Gun-Z3-140-3-In-1-Hand-Stapler-Tacker-0806-0350-Staples-/131547852975?epid=1242529611&hash=item1ea0dcf0af:g:IDwAAOSwblZZNzQh
p43
aVhttp://www.ebay.com/itm/HIGH-Quality-New-1000pc-14mm-Gun-Staple-Staples-Appox-Size-11-3-x-1-2-x-14mm-/252707320721?hash=item3ad687b391:g:nDYAAOSwa~BYarBN
p44
aVhttp://www.ebay.com/itm/Heavy-duty-staple-and-nail-gun-suitable-for-8-14mm-staples-10-14mm-round-staples-/172610739551?hash=item283066dd5f:g:WA8AAOSwB-1Y4-dW
p45
aVhttp://www.ebay.com/itm/Tacwise-0274-240v-140EL-Electric-Stapler-Nailer-0350-Staple-Pack-0359-Nails-/311423771227?hash=item48824da25b:g:J04AAOSwCQZZNyXz
p46
aVhttp://www.ebay.com/itm/Rapid-13-6-6mm-Stainless-Steel-5m-Staples-Box-2500-/182195899792?epid=1310065946&hash=item2a6bb8cd90:g:opYAAOSw03lY5zZg
p47
aVhttp://www.ebay.com/itm/Stanley-FatMax-8-12mm-Anti-Vibe-Hammer-Tacker-Stapler-Staple-Gun-Anti-Jam-/331964731033?epid=1074645056&hash=item4d4aa3ce99:g:m2sAAOSwi7RZLyxv
p48
aVhttp://www.ebay.com/itm/Maestri-ME53-Professional-Electric-Staple-Gun-Tacker-Stapler-Bradder-/261090320866?hash=item3cca3221e2:g:cvYAAOSwNSxVPfta
p49
aVhttp://www.ebay.com/itm/BlueSpot-HEAVY-DUTY-STAPLE-REMOVER-WITH-LIFETIME-GUARANTEE-/142333545438?epid=1454278849&hash=item2123bd8bde:g:LpgAAOSwmgJY4A9r
p50
aVhttp://www.ebay.com/itm/KATSU-DIY-Cordless-Stapler-Nailer-Tacker-Gun-W-Nails-and-Staples-/272705827815?epid=1478534283&hash=item3f7e88b3e7:g:NeEAAOSwjvJZRx5g
p51
aVhttp://www.ebay.com/itm/Rolson-44320-Light-Duty-Staple-Gun-Durable-Steel-Body-Stapler-Brand-New-/171738535924?epid=1285152201&hash=item27fc6a17f4:g:6iMAAOSwBahVGbq2
p52
aVhttp://www.ebay.com/itm/5000Pk-Staples-For-Electric-Hand-Stapler-Durable-Type-53-11-3-X-8-X-0-7mm-/252609132846?hash=item3ad0ad792e:g:lwoAAOSwTM5Y3mJb
p53
aVhttp://www.ebay.com/itm/New-6mm-Staples-1000pc-High-Quality-Heavy-Duty-Staple-Gun-Tackers-For-Use-B3770-/252731752668?epid=505126984&hash=item3ad7fc80dc:g:0I4AAOSw9GhYgQhU
p54
aVhttp://www.ebay.com/itm/4-6-8MM-STEEL-STAPLE-GUN-TACKER-UPHOLSTERY-STAPLER-2500-STAPLES-HEAVY-DUTY-UK-/131525395220?epid=1254980030&hash=item1e9f864314:g:jXsAAOSwBahVaW8K
p55
aVhttp://www.ebay.com/itm/Tacwise-91-Staple-Selection-Pack-Compatible-with-Tacwise-191-and-Duo-35-0204-/361311811065?epid=1405245296&hash=item541fdcb5f9:g:3w4AAOSwfpVZNzkd
p56
aVhttp://www.ebay.com/itm/BLACK-Type-71-10-Series-Staples-10mm-20-000-Box-UPHOLSTERY-SUPPLIES-/152585324223?hash=item2386cb46bf:g:7X8AAOSwSzRZVNHG
p57
aVhttp://www.ebay.com/itm/Rapid-13-8-8mm-Galvanised-5m-Staples-Box-5000-/182232080534?epid=1217255150&hash=item2a6de0e096:g:z4sAAOSw3utY5A0H
p58
aVhttp://www.ebay.com/itm/2-in-1-Air-Powered-Air-Nailer-and-Stapler-Kit-with-Case-Nails-and-Staples-/140353877288?epid=1505439128&hash=item20adbe3528:g:4PcAAOSwx6pYq3Mo
p59
aVhttp://www.ebay.com/itm/Arrow-Staples-T50-3-8in-10mm-Box-Of-1250-/162173206177?epid=1705400750&hash=item25c246bea1:g:bPgAAOSwaEhZHuAe
p60
aVhttp://www.ebay.com/itm/Rapid-53-8B-8mm-Galvanised-Staples-Box-2500-/181841603853?epid=1505667547&hash=item2a569aad0d:m:mfVztSIBufmzYlmzdCVbldg
p61
aVhttp://www.ebay.com/itm/Silverline-5000-Pack-Type-90-Staples-5-5-x-25mm-18-Gauge-Staple-Gun-/311442438936?epid=1605408948&hash=item48836a7b18:g:W1oAAOSw6YtZSQzQ
p62
aVhttp://www.ebay.com/itm/Black-Decker-X70210-Flat-Wire-Staples-10mm-Pack-1200-/181840663785?epid=1304293928&hash=item2a568c54e9:m:mSLDLu2djNGV7sf9qdUlYJA
p63
aVhttp://www.ebay.com/itm/Neilsen-Heavy-Duty-Staple-Gun-Stapler-3-in-1-Nails-U-Fixings-600-Free-1609-/182610476460?hash=item2a846ebdac:g:-ukAAOSw42JZN6oI
p64
aVhttp://www.ebay.com/itm/Arrow-JT21-T27-Staples-8mm-5-16in-Box-1000-/282509569200?hash=item41c6e1ecb0:g:zrEAAOSwOyJX8CEu
p65
aVhttp://www.ebay.com/itm/1-000-Stanley-Bostitch-STCR5019-6mm-Staples-/361996325935?epid=931783939&hash=item5448a9942f:g:5t4AAOSwOVpXTqZu
p66
aVhttp://www.ebay.com/itm/Rapid-53-6B-6mm-Galvanised-Staples-Box-5000-/182195908720?epid=1528297207&hash=item2a6bb8f070:g:4vgAAOSwDmBY5-TK
p67
aVhttp://www.ebay.com/itm/Worldwide-2000-X-Heavy-Duty-10mm-T-Nails-Staples-2186-/262455056321?hash=item3d1b8a57c1:m:mLWrlhZKPJbCdvIkRjhoQeg
p68
aVhttp://www.ebay.com/itm/Stanley-Heavy-Duty-Staple-Gun-0-TR150HL-STA0TR150HL-Easy-Push-Handle-Anti-Jam-/130598151637?epid=1205209128&hash=item1e6841a5d5:g:u1UAAOSw241YWU20
p69
aVhttp://www.ebay.com/itm/Arrow-ARRP22-P22-Heavy-Duty-Stapler-Plier-Type-Staple-Gun-for-Bagging-Sealing-/191239064779?epid=716409610&hash=item2c86bc8ccb:g:xtcAAOSwPhdU34c-
p70
aVhttp://www.ebay.com/itm/40mm-Galvanised-Fencing-Staples-20kg-Tub-/390542004444?epid=1013353470&hash=item5aee1e10dc:m:mZ1rkmgS-6222Sw5g6SaZCg
p71
aVhttp://www.ebay.com/itm/Arrow-PT50-Pneumatic-Staple-Gun-/272612451130?epid=1933679799&hash=item3f78f7e33a:g:cAAAAOSwZQRYdjpJ
p72
aVhttp://www.ebay.com/itm/JBL-NovoLotl-M-250ml-Novo-Lotl-Complete-Staple-Food-Pellets-for-Smaller-Axolotl-/262196501474?epid=1613491588&hash=item3d0c211be2:g:DDIAAOSwsW9Y16Ej
p73
aVhttp://www.ebay.com/itm/3-in-1-Staple-Gun-Cable-Remover-101332-/252432843169?hash=item3ac62b81a1:g:azIAAOSw2XFUeY3B
p74
aVhttp://www.ebay.com/itm/Stanley-Flat-and-Round-Cable-Staple-Gun-2-1-Stapler-Tacking-STA6CT10-6-CT-10X-/361302589377?epid=1504175741&hash=item541f4fffc1:g:X4wAAOSwK6RZNz7R
p75
aVhttp://www.ebay.com/itm/Staple-Gun-100-Staples-4-8mm-/263015154284?hash=item3d3cecc26c:g:7NgAAOSwX9FZMFrI
p76
aVhttp://www.ebay.com/itm/METAL-STAPLE-GUN-UPHOLSTERY-TACKER-MANUAL-DIY-STAPLER-100-x-6MM-STAPLES-4MM-8MM-/231645616200?epid=1324008545&hash=item35ef279848:g:wBQAAOSwd0BVxNUt
p77
aVhttp://www.ebay.com/itm/Stanley-TR400-Fatmax-4-In-1-Light-Duty-Nailer-Staple-Gun-FMHT0-70411-STA070411-/131679653242?epid=1721818437&hash=item1ea8b80d7a:g:OK8AAOSwlndZNwY3
p78
aVhttp://www.ebay.com/itm/STANLEY-SharpShooter-Staple-Brad-Nail-Gun-Tacker-TR250-/320177384430?epid=1988127062&hash=item4a8c0f2bee:m:mUSlU2kjzDtjkexZ43FTN7w
p79
aVhttp://www.ebay.com/itm/Abs-Staple-Gun-6-8mm-Easy-Firing-Workshop-Textile-Upholstery-Hobby-Craft-DIY-/282241069356?hash=item41b6e0f12c:g:2toAAOSwsXFZFDbu
p80
aVhttp://www.ebay.com/itm/HIKARI-GOLDFISH-STAPLE-BABY-FLOATING-PELLET-FOOD-100G-SPECIALIST-FISH-FOOD-/112481444541?epid=1005105457&hash=item1a306aa2bd:g:Ev4AAOSwiA9ZaNgy
p81
aVhttp://www.ebay.com/itm/Arrow-T50-Staples-Stainless-Steel-505SS-8mm-5-16in-Box-1000-/171900690309?epid=1505398305&hash=item2806145f85:g:fYIAAOSwc-tY547X
p82
aVhttp://www.ebay.com/itm/Staple-Gun-Lightweight-100-Staples-Upholstery-Craft-General-Stapling-Tasks-/152518090564?epid=1508033060&hash=item2382c95f44:g:5sYAAOSwWiBY-LuQ
p83
aVhttp://www.ebay.com/itm/STA0TR45-TR45-Light-Duty-Staple-Gun-6-10mm-JT21-Staples-/172498975854?epid=1145955889&hash=item2829bd7c6e:g:gRoAAOSwImRYhxzY
p84
aVhttp://www.ebay.com/itm/Novus-J-165-EC-Electronic-Stapler-Panelling-Tacker-Staple-Gun-Takes-type-4-J-/351794395516?hash=item51e894797c:g:idwAAOSwaB5XmIL6
p85
aVhttp://www.ebay.com/itm/Rapid-53-6B-6mm-Galvanised-Staples-Box-2500-/181841603985?epid=1505665786&hash=item2a569aad91:g:ug8AAOSw~CFY55bP
p86
aVhttp://www.ebay.com/itm/Stanley-Flat-and-Round-Cable-Staple-Gun-2-1-Stapler-Tacking-STA6CT10-6-CT-10X-/361302589377?epid=1504175741&hash=item541f4fffc1:g:X4wAAOSwK6RZNz7R
p87
aVhttp://www.ebay.com/itm/Type-71-8-Series-Staples-8mm-20-000-Box-UPHOLSTERY-SUPPLIES-/162129010157?hash=item25bfa45ded:g:cIgAAOSwVJhZVNpY
p88
aVhttp://www.ebay.com/itm/PACK-OF-1000-X-14MM-STANLEY-SHARPSHOOTER-STAPLE-TACKER-GUN-STAPLES-1-TRA709T-/401343753576?epid=1539887410&hash=item5d71f3ad68:g:Wv4AAOxyUrZS781r
p89
aVhttp://www.ebay.com/itm/3-IN-1-HEAVY-DUTY-STEEL-STAPLE-GUN-TACKER-UPHOLSTERY-STAPLER-WITH-600-STAPLES-/281642665256?hash=item4193360528:g:af8AAOSweW5VFD~P
p90
aVhttp://www.ebay.com/itm/Arrow-T25-Staples-11mm-7-16in-Box-5000-ARRT25716-/191235843838?hash=item2c868b66fe:g:YeUAAOSwEK9Ttm89
p91
aVhttp://www.ebay.com/itm/STANLEY-SharpShooter-Staple-Brad-Nail-Gun-Tacker-TR250-/320177384430?epid=1988127062&hash=item4a8c0f2bee:m:mUSlU2kjzDtjkexZ43FTN7w
p92
aVhttp://www.ebay.com/itm/Novus-J-165-EC-Electronic-Stapler-Panelling-Tacker-Staple-Gun-Takes-type-4-J-/351794395516?hash=item51e894797c:g:idwAAOSwaB5XmIL6
p93
aVhttp://www.ebay.com/itm/Silverline-101332-3-in-1-Staple-Nail-Gun-Cable-Remover-Tacker-DIY-Tool-/331289091209?epid=1205105568&hash=item4d225e5c89:g:3nIAAOSwU8hY7ibz
p94
aVhttp://www.ebay.com/itm/HEAVY-DUTY-3-IN-1-STAPLE-GUN-WITH-600-STAPLE-PINS-AND-CARRY-CASE-MARKSMAN-/331718785769?epid=725311011&hash=item4d3bfafae9:g:ub0AAOSw5ZBWKOtT
p95
aVhttp://www.ebay.com/itm/Arrow-P35-Staples-10mm-3-8in-Box-5040-/181858737665?epid=1405292407&hash=item2a57a01e01:g:4ZUAAOSwnONZChOZ
p96
aVhttp://www.ebay.com/itm/14-50-HEAVY-DUTY-STAPLES-BOX-1-950-/222322870200?hash=item33c379c7b8:g:koMAAOSwRgJXlf6Y
p97
aVhttp://www.ebay.com/itm/Clarke-CSN1D-2-In-1-Air-Staple-And-Nail-Gun-1-4-inch-BSP-/272417217526?epid=1823492862&hash=item3f6d54dbf6:g:DLcAAOSwzaJYBQL3
p98
aVhttp://www.ebay.com/itm/Pneumatic-Staple-gun-71-series-LONG-NOSE-Industrial-air-staple-gun-4mm-16mm-/172490367138?hash=item28293a20a2:g:T-8AAOSw8GtZVNeV
p99
aVhttp://www.ebay.com/itm/Arrow-JT21C-Staple-Gun-Tacker-Chrome-AJT21CM-/171901847077?epid=1604143745&hash=item2806260625:g:nVAAAOSwDmBY53Ft
p100
aVhttp://www.ebay.com/itm/Tacwise-0274-240v-140EL-Professional-Electric-Stapler-and-Nailer-Staple-Gun-/311423769729?epid=1904332413&hash=item48824d9c81:g:wgoAAOSw8HBZNyX-
p101
aVhttp://www.ebay.com/itm/Rapid-BTX530-Cordless-Tacker-Stapler-Li-ion-Battery-Staple-Gun-RPDBTX530-/311820347396?epid=1608047554&hash=item4899f0e804:g:RTwAAOSwBt5ZN~vL
p102
aVhttp://www.ebay.com/itm/Stanley-Staple-14mm-1000pc-Type-G-Sharpshooter-Fits-Arrow-Rapesco-1-TRA709T-/262451956619?epid=1205288258&hash=item3d1b5b0b8b:g:3N8AAOSwMN9XRDdH
p103
aVhttp://www.ebay.com/itm/2000-Assorted-Staples-6mm-8mm-10mm-12mm-14mm-Staples-for-ST003-staple-gun-/182657562800?hash=item2a873d38b0:g:YeoAAOSwa~hZYLEV
p104
aVhttp://www.ebay.com/itm/Upholstery-Staple-Remover-Tack-Lifter-Tool-/120773430207?hash=item1c1ea84bbf:m:m49HecfIUGj4ShS7DaobE6Q
p105
aVhttp://www.ebay.com/itm/Staple-Gun-3In1-Car-House-Wiring-Loom-Staplin-Cables-Fabric-Securing-Decorations-/281320018394?epid=1937882572&hash=item417ffad1da:g:-wYAAOSwvzRXzYhl
p106
aVhttp://www.ebay.com/itm/Rapid-R33-Heavy-Duty-Long-Life-Professional-Upholstery-Tacker-Staple-Gun-/250769032178?epid=1707605632&hash=item3a62ffc3f2:g:RjQAAOSwEeFVLnEm
p107
aVhttp://www.ebay.com/itm/Arrow-ARRT50X-T50X-Tacmate-Compact-Staple-Gun-/311006191459?epid=1491694479&hash=item486969df63:g:uQ0AAOSw7I5TurXT
p108
aVhttp://www.ebay.com/itm/Arrow-T50-Staples-6mm-1-4in-Box-1250-/171900686739?epid=1305392817&hash=item2806145193:g:T7oAAOSwTM5Y57Uu
p109
aVhttp://www.ebay.com/itm/Rapid-Staple-Gun-for-Hobby-Applications-Plastic-Body-Includes-Staples-Hobbyta-/142220191794?epid=2101864851&hash=item211cfbe832:g:ROsAAOSw-0xYWx-K
p110
aVhttp://www.ebay.com/itm/Tacwise-A54-Roofers-Hammer-Staple-Tacker-Heavy-Duty-1173-2000-x-12mm-Staples-/131547871761?epid=1661019704&hash=item1ea0dd3a11:g:9lsAAOSwYvFZNzPY
p111
aVhttp://www.ebay.com/itm/Sealey-SAAS1813-Staple-13mm-18SWG-Pack-of-5000-/151805313654?epid=1405435962&hash=item23584d4276:g:tykAAOSw5cRZFNdg
p112
aVhttp://www.ebay.com/itm/Arrow-JT21-T27-Staples-8mm-5-16in-Box-1000-/181838690826?hash=item2a566e3a0a:m:mvB6uHLjQSPzKGJczUL2sPg
p113
aVhttp://www.ebay.com/itm/Rapid-Staple-Gun-for-Hobby-Applications-Plastic-Body-Includes-Staples-Hobbyta-/142220191794?epid=2101864851&hash=item211cfbe832:g:ROsAAOSw-0xYWx-K
p114
aVhttp://www.ebay.com/itm/Tacwise-1166-230v-Corded-Electric-Duo-50-Nail-and-Staple-Gun-Tacwise-Nailer-/361906897579?epid=1507601395&hash=item54435502ab:g:ehYAAOSw5cRZNvke
p115
aVhttp://www.ebay.com/itm/HEAVY-DUTY-STAPLE-GUN-3-IN-1-STAPLER-TACKER-WITH-STAPLES-UPHOLSTERY-/331549660810?epid=560636026&hash=item4d31e6568a:g:71cAAOSwkNZUekfD
p116
aVhttp://www.ebay.com/itm/Arrow-ARRT50-T50P-Heavy-Duty-Staple-Tacker-Gun-Craft-Tacker-Appolestry-Stapler-/130590731586?epid=1054771582&hash=item1e67d06d42:g:POQAAOSwsW9Yyql8
p117
aVhttp://www.ebay.com/itm/Stanley-Tools-TRA2-Light-Duty-Staple-6mm-TRA204T-Pack-1000-/171899746958?epid=1605081919&hash=item280605fa8e:g:EwwAAOSwhQhY56XV
p118
aVhttp://www.ebay.com/itm/Pneumatic-Staple-gun-71-series-Industrial-air-staple-gun-Takes-type-71-staples-/162361800127?hash=item25cd8475bf:g:f70AAOSwTf9ZVNdN
p119
aVhttp://www.ebay.com/itm/Rapid-140-10-10mm-Galvanised-Staples-Box-5000-/181861200224?epid=1107605380&hash=item2a57c5b160:g:3PcAAOSwTM5Y4~Ir
p120
aVhttp://www.ebay.com/itm/BEST-Stanley-0-TRE550-Electric-Staple-Nail-Gun-Anti-jam-Long-Cord-Power-Tool-NEW-/122456489684?epid=1076409393&hash=item1c82f9bed4:g:tpkAAOSw3ZRY-bIq
p121
aVhttp://www.ebay.com/itm/71-series-STAINLESS-STEEL-STAPLES-71-6-BOX-OF-10-000-FREE-POSTAGE-UK-SELLER-/172011836117?hash=item280cb452d5:g:zP8AAOSwi8VZVMWH
p122
aVhttp://www.ebay.com/itm/Tacwise-A11-Hammer-Staple-Tacker-140-Type-Carpet-Fitter-Roofing-Tool-0322-/132099367290?epid=1305470988&hash=item1ec1bc617a:g:VVsAAOSwCQZZNvk~
p123
aVhttp://www.ebay.com/itm/Arrow-T50-RED-Professional-Staple-Brad-Nail-Gun-ARRT50RED-/311006122083?epid=1191735839&hash=item486968d063:g:TNgAAOSwDk5TuppT
p124
aVhttp://www.ebay.com/itm/BeA-71-TYPE-STAPLE-BUNDLE-/222310678168?epid=1845056533&hash=item33c2bfbe98:g:Bx8AAOSwl9BWIRrA
p125
aVhttp://www.ebay.com/itm/1-000-Stanley-Bostitch-STCR5019-3-8-9mm-Staples-/281288349605?epid=1025108833&hash=item417e1797a5:g:5t4AAOSwOVpXTqZu
p126
aVhttp://www.ebay.com/itm/Rapid-13-6-Staples-with-6-mm-Shank-Length-for-R13-R23-R33-and-R19-Staplers-/122597699852?epid=1512690635&hash=item1c8b64710c:g:zNYAAOSwpINZZ8MR
p127
aVhttp://www.ebay.com/itm/METAL-STAPLE-GUN-UPHOLSTERY-TACKER-MANUAL-DIY-STAPLER-100-x-6MM-STAPLES-4MM-8MM-/262005148991?epid=1324008545&hash=item3d00b94d3f:g:h8QAAOSwHnFVzeo5
p128
aVhttp://www.ebay.com/itm/Sealey-Air-Nail-Staple-Gun-1-4-BSP-10-50mm-Nailer-10-40mm-Stapler-/311246160863?epid=1504305922&hash=item4877b783df:g:yjEAAMXQuCdTfg1e
p129
aVhttp://www.ebay.com/itm/Stanley-Tools-TRA7-Heavy-Duty-Staple-6mm-TRA704T-Pack-1000-/171901719753?epid=1705316926&hash=item28062414c9:m:m08C6o0jAdZlJlKSbVw9ZWA
p130
aVhttp://www.ebay.com/itm/Stanley-Tools-TRA7-Heavy-Duty-Staple-14mm-TRA709T-Pack-1000-/181861189709?epid=1205288258&hash=item2a57c5884d:g:dKoAAOSwuLZY4~KY
p131
aVhttp://www.ebay.com/itm/Stanley-STA0PHT150-Sharpshooter-Hammer-Tacker-upholstery-Staple-Gun-0-PHT-150-/172325089153?epid=1604174657&hash=item281f602f81:g:198AAOSwCfdXpZn6
p132
aVhttp://www.ebay.com/itm/TACWISE-140EL-Electric-140-Series-Stapler-Nailer-Nail-Fixing-Gun-240v-0274-/290633316082?epid=887293273&hash=item43ab1876f2:g:c1UAAOSwq1JZHCMx
p133
aVhttp://www.ebay.com/itm/2-Tacwise-140-12mm-Staples-5000-/162583191476?hash=item25dab69fb4:g:LOQAAOSwlY1ZMZpK
p134
aVhttp://www.ebay.com/itm/Sealey-CT610S02-6-8mm-Round-Cable-Staples-for-CT610-4-5-6-3mm-Flat-Wire-/311468699768?hash=item4884fb3078:g:-VcAAOSwEHpZKElT
p135
aVhttp://www.ebay.com/itm/4-6-8MM-STEEL-STAPLE-GUN-TACKER-UPHOLSTERY-STAPLER-2500-STAPLES-HEAVY-DUTY-UK-/252421296247?hash=item3ac57b5077:g:qU4AAOSwnFZXW~FE
p136
aVhttp://www.ebay.com/itm/Stanley-Bostitch-Model-T10-Lightweight-Stapler-Staple-Gun-Brand-New-Boxed-/152431984795?epid=1605633802&hash=item237da7809b:g:s10AAOSwCU1Yndrt
p137
aVhttp://www.ebay.com/itm/Tacwise-A8016LN-Extra-Long-Nose-Upholstery-Stapler-Includes-0380-0383-Staples-/131531869587?epid=1363743840&hash=item1e9fe90d93:g:9r4AAOSwJH1ZNze6
p138
aVhttp://www.ebay.com/itm/3-Way-Heavy-Duty-Stapler-Staple-Gun-Upholstery-Wood-Ceiling-Repair-800-staples-/263077169973?epid=1012655763&hash=item3d409f0b35:g:3fUAAOSwiA9ZX~6u
p139
aVhttp://www.ebay.com/itm/0-TRE550-Stanley-Electric-Staple-Nail-Gun-Long-Cord-/361413289917?epid=12003300658&hash=item5425e927bd:g:JbgAAOSwwbdWJ3AM
p140
aVhttp://www.ebay.com/itm/1000-U-shape-round-crown-12mm-staple-gun-staples-/282565692722?epid=1147852879&hash=item41ca3a4d32:g:Pp4AAOSwu2VZY1zq
p141
aVhttp://www.ebay.com/itm/Rapid-53-12B-12mm-Galvanised-Staples-Box-2500-/171923566684?epid=1705671937&hash=item280771705c:g:RNsAAOSw4CFY47Uv
p142
aVhttp://www.ebay.com/itm/1500-PACK-Staples-Set-6mm-8mm-10mm-Heavy-Duty-Wood-Floor-Board-etc-T82-/122324347900?hash=item1c7b196bfc:g:LO0AAOSwol5Y27Ha
p143
aVhttp://www.ebay.com/itm/Arrow-Staples-T50-3-8in-10mm-Box-Of-1250-/361691853344?epid=1705400750&hash=item543683b220:g:1SIAAOSw5cRZHuAl
p144
aVhttp://www.ebay.com/itm/3-IN-1-HEAVY-DUTY-STEEL-STAPLE-GUN-TACKER-UPHOLSTERY-STAPLER-FREE-STAPLES-/251791480423?epid=719462642&hash=item3a9ff11667:g:i4sAAOSwm8VUtS8r
p145
aVhttp://www.ebay.com/itm/Tacwise-Type-71-4mm-Staple-Box-of-20000-/142387375323?hash=item2126f2ecdb:g:r2oAAOSw-K9ZHkJp
p146
aVhttp://www.ebay.com/itm/Rapid-53-10B-10mm-Galvanised-Staples-Box-5000-/172295526658?epid=600670938&hash=item281d9d1902:g:Qe8AAOSwB-1Y5FUX
p147
aVhttp://www.ebay.com/itm/Stanley-Staple-10mm-1000pc-Type-7-Sharpshooter-Maestri-Maxicraft-Outifrance-Sam-/252400943205?epid=1804164975&hash=item3ac444c065:g:5-MAAOSwBw5XRFNN
p148
aVhttp://www.ebay.com/itm/Heavy-Duty-Staple-Remover-Nail-Puller-Office-Professional-Hand-Tool-/162568450355?hash=item25d9d5b133:g:d-4AAOSwHLNZUpAX
p149
aVhttp://www.ebay.com/itm/ADJUSTABLE-STAPLE-NAIL-GUN-STAPLER-UPHOLSTERY-ROOFING-CRAFT-TACK-HEAVY-DUTY-NEW-/272135311948?hash=item3f5c87524c:g:if8AAOSwDuJWwkwl
p150
aVhttp://www.ebay.com/itm/50mm-GALVANISED-NETTING-FENCING-STAPLES-U-NAIL-CHICKEN-FENCES-NETTING-WIRE-/361400653479?var=&hash=item54252856a7:m:mFpk94SVZLe3Bk3FMGTA_mA
p151
aVhttp://www.ebay.com/itm/Clarke-CSN1D-2-In-1-Air-Staple-and-Nail-Gun-Kit-/191830789071?epid=1823492862&hash=item2caa018bcf:g:OoMAAOSwvFZW7XgL
p152
aVhttp://www.ebay.com/itm/BeA-71-16-421-FINE-WIRE-22-GAUGE-STAPLER-FOR-71-SERIES-STAPLES-/222427957261?epid=1638658090&hash=item33c9bd480d:g:0VQAAOSwT5tWHMTe
p153
aVhttp://www.ebay.com/itm/TACWISE-A7116V-4-16mm-71-UPHOLSTERY-AIR-STAPLER-10-000-STAPLES-INCLUDED-FREE-/272402093999?epid=1041210113&hash=item3f6c6e17af:g:FBYAAOSwu4BV1fMr
p154
aVhttp://www.ebay.com/itm/Arrow-P22-Staples-8mm-5-16in-Box-5050-/181858738347?epid=1508007654&hash=item2a57a020ab:g:2dIAAOSwuMZZCYl-
p155
aVhttp://www.ebay.com/itm/5000Pki-Type-90-Staples-Nails-Air-5-85-X-10-X-1-25mm-For-18-Gauge-Air-Staplers-/282236218906?hash=item41b696ee1a:g:R7IAAOSwc-tY3nHx
p156
aVhttp://www.ebay.com/itm/2-Packs-of-1000-2000-Bosch-Type-53-FINE-WIRE-STAPLES-2609255820-3165140392716V-/132256831849?epid=1239912331&hash=item1ecb1f1969:g:khgAAOSw5cNYI4Ly
p157
aVhttp://www.ebay.com/itm/Arrow-JT21-T27-Staples-10mm-3-8in-Box-1000-/171898824918?epid=1908036242&hash=item2805f7e8d6:g:LZIAAOSw4CFY58eL
p158
aVhttp://www.ebay.com/itm/Sealey-CT610S01-4-6mm-Round-Cable-Staples-for-CT610-2-5-4mm-Flat-Wire-/331686613901?epid=1005470300&hash=item4d3a10138d:g:BkIAAOSw-3FZLxLr
p159
aVhttp://www.ebay.com/itm/5-x-2500-Rapid-R13-8mm-Fineline-STAINLESS-STEEL-Staples-for-WHOLESALE-/251081062299?epid=1812724499&hash=item3a7598f79b:g:zHgAAOSwEeFVLOmS
p160
aVhttp://www.ebay.com/itm/3-IN-1-STAPLE-GUN-HEAVY-DUTY-HAND-UPHOLSTERY-600PC-STAPLES-STAPLER-CABLE-DIY-NEW-/262745611596?epid=12003304237&hash=item3d2cdbdd4c:g:nVIAAOSwj85YQfSC
p161
aVhttp://www.ebay.com/itm/Arrow-JT21-T27-Staples-6mm-1-4in-Box-1000-/171898826625?epid=1004187330&hash=item2805f7ef81:g:sxUAAOSwhQhY5-Ez
p162
aVhttp://www.ebay.com/itm/Stanley-0TR250-Heavy-Duty-Hand-Staple-and-Nail-Gun-Stapler-Brad-Nailer-Tacker-/331764899586?epid=1705432480&hash=item4d3eba9f02:g:znIAAOSwQYZW1Z3u
p163
aVhttp://www.ebay.com/itm/Stanley-0-PHT350-FatMax-XL-Hammer-Tacker-5000-10mm-Staples-1-TRA706T-/360710090124?epid=1862067657&hash=item53fbff2d8c:g:-sEAAOSw-3FZN-Fr
p164
aVhttp://www.ebay.com/itm/Tacwise-91-22-mm-Divergent-Point-Stainless-Steel-Staples-SAME-DAY-DISPATCH-/142220478794?epid=1112679871&hash=item211d00494a:g:bm0AAOSwnHZYW48~
p165
aVhttp://www.ebay.com/itm/Faithfull-Staples-Size-4-6mm-Pack-1250-/181840692671?epid=1330371750&hash=item2a568cc5bf:m:m_sF8Tm-RXfxc3Uio00_glg
p166
aVhttp://www.ebay.com/itm/TACWISE-PROFESSIONAL-STAPLE-NAIL-TACKER-Z3-140-x200-FREE-6mm-STAPLES-INCLUDED-/272011141873?epid=1812669154&hash=item3f5520a2f1:g:jwYAAOSwAYtWF5fI
p167
aVhttp://www.ebay.com/itm/Arrow-T59-Insulated-Staples-Clear-8-x-8mm-Box-300-ARR591189-/311006100673?hash=item4869687cc1:g:J4QAAOSwh6xTuo65
p168
aVhttp://www.ebay.com/itm/5000Pk-Type-A-Narrow-Crown-Staples-5-2-X-16-X-1-15mm-/322398017553?hash=item4b106b5811:g:0rkAAOSwrhBZB1Th
p169
aVhttp://www.ebay.com/itm/Bostitch-SX503519-Finish-Staple-19mm-Pack-of-5000-/181858710757?epid=1422689701&hash=item2a579fb4e5:g:zYAAAOSwTM5Y5DLl
p170
aVhttp://www.ebay.com/itm/Bostitch-SX503515-Finish-Staple-15mm-Pack-of-5000-/171921017732?epid=1737058132&hash=item28074a8b84:g:ZFUAAOSwVctY5FsE
p171
aVhttp://www.ebay.com/itm/1000-x-12mm-U-staples-Suitable-for-use-with-12mm-U-staplers-/112022301174?epid=849524422&hash=item1a150ca9f6:g:fAAAAOSwuhhXWTxq
p172
aVhttp://www.ebay.com/itm/Worldwide-1000-Heavy-Duty-12mm-Cable-U-Staples-2184-/262801690174?hash=item3d30338e3e:m:mLgdqkIwRSKQaGhbnDj3w9A
p173
aVhttp://www.ebay.com/itm/Heavy-duty-staple-and-nail-gun-suitable-for-8-14mm-staples-10-14mm-round-staples-/361514049122?hash=item542bea9e62:g:R90AAOSwpIdW7DOq
p174
aVhttp://www.ebay.com/itm/Tacwise-1165-230v-Corded-Electric-Duo-35-Nail-and-Staple-Gun-Tacwise-Nailer-/131531810412?epid=1707606881&hash=item1e9fe8266c:g:IEYAAOSwYvFZNzhd
p175
aVhttp://www.ebay.com/itm/Draper-Storm-Force-Air-Stapler-Nailer-Staple-Nail-Gun-Professional-Tool-in-Case-/162442041721?epid=1095263492&hash=item25d24cd979:g:VTYAAOSwB-1Y08ot
p176
aVhttp://www.ebay.com/itm/Type-71-10-Series-Staples-10mm-20-000-Box-UPHOLSTERY-SUPPLIES-/152158314205?hash=item236d579edd:g:NQUAAOSw1BlZVNlx
p177
aVhttp://www.ebay.com/itm/STAPLE-GUN-TACKER-HEAVY-DUTY-NAIL-STAPLER-BRAD-NAILER-TACKER-UPHOLSTERY-EASY-NEW-/272135323589?hash=item3f5c877fc5:g:-D4AAOSwKtVWwk~s
p178
aVhttp://www.ebay.com/itm/Stanley-Heavy-Duty-Staple-Gun-0-TR150HL-Heavy-Duty-8mm-Staples-1-TRA705T-/311403809333?epid=1373619123&hash=item48811d0a35:g:XxMAAOSwfRdZNzAS
p179
aVhttp://www.ebay.com/itm/Stanley-0-PHT350-FatMax-Hammer-Tacker-TRA705T-5000-Heavy-Duty-8mm-Staples-/361342983184?epid=1883756461&hash=item5421b85c10:g:eoEAAOSwtGlZNzCI
p180
aVhttp://www.ebay.com/itm/Faithfull-Staples-Size-3-8mm-Pack-1000-/171900544184?epid=1530351397&hash=item28061224b8:g:cDIAAOSw03lY54ON
p181
aVhttp://www.ebay.com/itm/1000-Heavy-Duty-10mm-Quality-Staples-for-Staple-Gun-Office-Wall-/252953603651?epid=906501721&hash=item3ae535ae43:g:xLQAAOSwZ4dZJA6q
p182
aVhttp://www.ebay.com/itm/New-Light-Duty-Steel-Staple-Gun-Stapler-Tacker-For-Office-Home-School-Craft-Use-/121856558263?hash=item1c5f3784b7:g:EVAAAOSwT~9Winmn
p183
aVhttp://www.ebay.com/itm/80-SERIES-STAPLES-for-UPHOLSTERY-STAPLING-8mm-LEG-LENGTH-10-000-STAPLES-BOX-/281914649541?epid=1705669663&hash=item41a36c2bc5:g:29IAAOSwLVZV5xZ6
p184
aVhttp://www.ebay.com/itm/Clarke-CESNG1-Electric-Stapler-Nailer-includes-400-nails-staples-100-capacity-/272052573218?epid=1161427638&hash=item3f5798d422:g:F84AAOSwgyxWUFkS
p185
aVhttp://www.ebay.com/itm/C-K-Tools-Heavy-Duty-Staple-Nail-Gun-496001-/111674914619?epid=1604312065&hash=item1a0057f73b:g:MNgAAOSwt5hYd1aV
p186
aVhttp://www.ebay.com/itm/Faithfull-Staples-Size-4-12mm-Pack-1250-/181840706237?epid=1030335273&hash=item2a568cfabd:g:z~UAAOSw03lY5EmO
p187
aVhttp://www.ebay.com/itm/1-Box-2-000-Tacwise-0333-53-Series-4mm-Staples-/360473838824?epid=1384006560&hash=item53edea44e8:g:Ad4AAOxyNq5SLb6p
p188
aVhttp://www.ebay.com/itm/71-series-STAINLESS-STEEL-STAPLES-71-10-BOX-OF-10-000-FREE-POSTAGE-UK-SELLER-/172011838346?hash=item280cb45b8a:g:b4AAAOSwq~tZVME1
p189
aVhttp://www.ebay.com/itm/71-series-STAINLESS-STEEL-STAPLES-71-8-BOX-OF-10-000-FREE-POSTAGE-UK-SELLER-/161899687216?hash=item25b1f92d30:g:BHMAAOSwMvtZVMZN
p190
aVhttp://www.ebay.com/itm/Omer-3G-16-H-Pnuematic-staple-tool-for-3G-Staples-/281706055683?hash=item4196fd4803:g:z3gAAOSwBLlVaFpD
p191
aVhttp://www.ebay.com/itm/HEAVY-DUTY-3-WAY-STAPLE-NAIL-GUN-STAPLER-UPHOLSTERY-WOOD-WITH-FREE-STAPLES-/322136812685?epid=1748858004&hash=item4b00d9ac8d:g:3~MAAOSwrklVdwQw
p192
aVhttp://www.ebay.com/itm/Arrow-T50-Staples-10mm-3-8in-Box-1250-/171900692079?epid=1705400750&hash=item280614666f:m:mpY_btR6tLpx-Iw89QfFQ4w
p193
aVhttp://www.ebay.com/itm/Bostitch-Powerslam-Staple-6mm-Pack-5000-/182232079915?epid=1205207934&hash=item2a6de0de2b:g:QOwAAOSwc-tY4-2P
p194
aVhttp://www.ebay.com/itm/Arrow-T50PBN-Staple-Nail-Gun-AT50PBN-/171921036282?epid=1204158378&hash=item28074ad3fa:g:K0wAAOSwVctY49Qt
p195
aVhttp://www.ebay.com/itm/Rapid-53-8B-8mm-Galvanised-Staples-Box-5000-/182232080833?epid=1228319343&hash=item2a6de0e1c1:g:cW4AAOSwhQhY4-ey
p196
aVhttp://www.ebay.com/itm/Arrow-T50-Staples-Stainless-Steel-506SS-10mm-3-8in-1000-ARRT5038SS-Rustproof-/400737311493?hash=item5d4dce1b05:g:zpsAAOSw91NTts4G
p197
aVhttp://www.ebay.com/itm/90-type-staples-2000-x-40mm-pro-series-/261941891277?epid=1274300922&hash=item3cfcf410cd:g:UZcAAOSwR0JUMs7-
p198
aVhttp://www.ebay.com/itm/BEN-SHERMAN-Lightweight-Trenchcoat-Mac-Hooded-Size-XL-Staple-Navy-NEW-TAGS-/352048901224?epid=842278594&hash=item51f7bfec68:g:GgcAAOSww9xZDGzS
p199
aVhttp://www.ebay.com/itm/Rapesco-1236-923-8mm-Galvanised-Steel-Staples-Pack-Of-1000-/132219993397?epid=1042587227&hash=item1ec8ecfd35:g:dSsAAOSwjk9ZOTbC
p200
aVhttp://www.ebay.com/itm/5-x-2500-Rapid-R13-6mm-Fineline-STAINLESS-STEEL-Staples-for-WHOLESALE-/261041468093?epid=1310065946&hash=item3cc748b2bd:g:1IIAAOSwv0tVLOni
p201
aVhttp://www.ebay.com/itm/Yato-professional-metal-body-staple-gun-stapler-with-staples-YT-7000-/171080619295?hash=item27d533151f:g:8uQAAOSw3mpXJcJu
p202
aVhttp://www.ebay.com/itm/Rapid-11856250-53-6B-6mm-Galvanised-Staples-Pack-of-5000-Boxed-/253018528603?epid=1528297207&hash=item3ae9145b5b:g:JQEAAOSw5cNYignz
p203
aVhttp://www.ebay.com/itm/Worldwide-Tools-3-Way-Heavy-Duty-Staple-Gun-2170-/262330726595?hash=item3d142138c3:m:mnTtAaduhkU03EiuCUQjelQ
p204
aVhttp://www.ebay.com/itm/Rapid-140-12-12mm-Galvanised-Staples-Box-5000-/181861200569?epid=1107614224&hash=item2a57c5b2b9:g:IOoAAOSwU8hY5DM5
p205
aVhttp://www.ebay.com/itm/Tacwise-Combi-Cable-Wire-Stapler-Tacker-1153-Staple-Gun-CT60-1201-Staples-14mm-/311393781215?epid=1744625747&hash=item48808405df:g:QwAAAOSwDiBZNzO5
p206
aVhttp://www.ebay.com/itm/BeA-71-16-421-FINE-WIRE-22-GAUGE-STAPLER-FOR-71-SERIES-STAPLES-WITH-10M-AIR-HOSE-/222336347192?epid=1554754411&hash=item33c4476c38:g:lWMAAOSwAKxWaZ-3
p207
aVhttp://www.ebay.com/itm/Heavy-Duty-Staple-Gun-Large-Silver-Steel-Construction-Dual-Colour-Design-/222471826737?hash=item33cc5aad31:g:6csAAOSwtGlZA2v8
p208
aVhttp://www.ebay.com/itm/Stanley-Staple-12mm-5000pc-Type-G-Sharpshooter-Fits-Arrow-Rapesco-1-TRA7085T-/262451956532?epid=1605675124&hash=item3d1b5b0b34:g:RzAAAOSwBw5XRDdB
p209
aVhttp://www.ebay.com/itm/5000Pki-Type-90-Staples-Nails-Air-5-85-X-10-X-1-25mm-For-18-Gauge-Air-Staplers-/282236218906?hash=item41b696ee1a:g:R7IAAOSwc-tY3nHx
p210
aVhttp://www.ebay.com/itm/Heavy-Duty-Hand-Operated-Staple-Gun-4-8mm-Staples-/122341794313?epid=1212729154&hash=item1c7c23a209:g:x~wAAOSwImRYlfrP
p211
aVhttp://www.ebay.com/itm/Silverline-Heavy-Duty-230V-Power-Nailer-Stapler-Staple-Gun-With-Safety-Catch-/231896279495?epid=1905282701&hash=item35fe1869c7:g:1kIAAOSwBnVW-9dT
p212
aVhttp://www.ebay.com/itm/Sealey-SA792-Air-Nail-Staple-Gun-50mm-40mm-Capacity-/131150918425?epid=1504305922&hash=item1e89343319:g:QSAAAOSwcu5UQTaZ
p213
aVhttp://www.ebay.com/itm/Stanley-Tools-TRA2-Light-Duty-Staple-10mm-TRA206T-Pack-1000-/171899740711?epid=1205170391&hash=item280605e227:g:qfoAAOSww3tY50In
p214
aVhttp://www.ebay.com/itm/3-IN-1-STAPLE-GUN-HEAVY-DUTY-HAND-UPHOLSTERY-600PC-STAPLES-STAPLER-CABLE-DIY-NEW-/222567756820?epid=12003304237&hash=item33d2127414:g:Ux0AAOSwiQ9ZWVFU
p215
aVhttp://www.ebay.com/itm/Silverline-Air-Nailer-Stapler-32mm-18-gauge-Tools-Nail-Gun-Staple-Nailgun-AIR-/232194501004?epid=3003303679&hash=item360fdee98c:g:jKMAAOSwtnpXozvc
p216
aVhttp://www.ebay.com/itm/Rapid-Heavy-Duty-R36-Cable-Tacker-Stapler-Staple-Gun-/250910916695?epid=1008034048&hash=item3a6b74c057:g:J5gAAOSweW5VLl6W
p217
aVhttp://www.ebay.com/itm/GALVANISED-NETTING-FENCING-STAPLES-ALL-SIZES-U-NAIL-CHICKEN-FENCES-NETTING-WIRE-/191706173089?var=&hash=item2ca2940ea1:m:mFpk94SVZLe3Bk3FMGTA_mA
p218
aVhttp://www.ebay.com/itm/HEAVY-DUTY-3-IN-1-STAPLE-GUN-TACK-GUN-NAIL-GUN-600-STAPLES-CABLE-TACKS-NAILS-NEW-/251963696598?epid=1439116811&hash=item3aaa34e5d6:g:~XUAAOSwpDdVWOjk
p219
aVhttp://www.ebay.com/itm/Tacwise-Type-71-12mm-Staple-Box-of-20000-/142387365405?epid=893072178&hash=item2126f2c61d:g:tlwAAOSw~y9ZHj4M
p220
aVhttp://www.ebay.com/itm/Rapid-140-12-12mm-Galvanised-Staples-Pack-2000-/171919927520?epid=1205541233&hash=item280739e8e0:g:74gAAOSwls5Y52Ki
p221
aVhttp://www.ebay.com/itm/Tacwise-Assorted-Staples-For-Staple-Gun-6-To-14mm-4-400-Pieces-/201759063524?epid=1705104413&hash=item2ef9c6fde4:g:NWEAAOSw5cNYXUrN
p222
aVhttp://www.ebay.com/itm/Arrow-T2025-Staple-Wire-Tacker-AT2025-/172218788880?epid=1137215372&hash=item28190a2c10:g:374AAOSwpP9Y57RB
p223
aVhttp://www.ebay.com/itm/1000-x-8mm-Staples-Suitable-for-use-with-8mm-staplers-/131843050623?epid=1347905432&hash=item1eb2754c7f:g:y1oAAOSwMNxXWT10
p224
aVhttp://www.ebay.com/itm/71-SERIES-UPHOLSTERY-STAPLES-BOX-OF-10-000-71-14mm-FREE-POSTAGE-UK-SELLER-/172259841138?hash=item281b7c9472:g:ynMAAOSwPWRZVMll
p225
aVhttp://www.ebay.com/itm/Stanley-1-TRA709T-14mm-Heavy-Duty-Staple-1000-Pieces-/122420663518?epid=1539887410&hash=item1c80d714de:g:S7wAAOSwhQhY29tg
p226
aVhttp://www.ebay.com/itm/Bosch-PTK-3-6Li-FINE-WIRE-STAPLES-Pack-of-1000-2609255820-3165140392716-V-/132245694216?epid=1239912331&hash=item1eca752708:g:nk4AAOSw5dNWlrIE
p227
aVhttp://www.ebay.com/itm/STANLEY-SharpShooter-Heavy-Duty-Staple-Gun-Stapler-R150-/370129476667?epid=1188165935&hash=item562d6f9c3b:m:mYazFjGTGSmoWm-wwXjDFtw
p228
aVhttp://www.ebay.com/itm/KANGARO-MINI-STAPLER-WITH-STAPLE-REMOVER-1000-NO-10-STAPLES-5-COLOUR-MINI-10-/152392507592?var=&epid=1561069311&hash=item237b4d20c8:m:m9Cff_C9SV_7pWApM7D1Lkw
p229
aVhttp://www.ebay.com/itm/Stanley-Tools-TRA7-Heavy-Duty-Staple-8mm-TRA705T-Pack-1000-/181841604861?epid=1604717173&hash=item2a569ab0fd:g:4LEAAOSwA29Y58Hp
p230
aVhttp://www.ebay.com/itm/Arrow-Staples-Jt21-3-8in-10mm-Box-of-1000-/162173152357?hash=item25c245ec65:g:blQAAOSwaEhZHuA7
p231
aVhttp://www.ebay.com/itm/Stanley-Heavy-Duty-Staple-Gun-0-TR150HL-/121587057624?epid=1072912286&hash=item1c4f2743d8:g:CdYAAOSw8d9Uv6rz
p232
aVhttp://www.ebay.com/itm/Type-71-12-Series-Staples-12mm-20-000-Box-UPHOLSTERY-SUPPLIES-/162129009140?hash=item25bfa459f4:g:jBEAAOSwFJBZVNoj
p233
aVhttp://www.ebay.com/itm/BeA-71-16-416-LONG-NOSE-GREY-BODIED-FINE-WIRE-22-GAUGE-STAPLER-FOR-71-STAPLES-/222428121765?epid=598327306&hash=item33c9bfcaa5:g:mp4AAOSwOgdYuYBS
p234
aVhttp://www.ebay.com/itm/Rapid-28-white-line-staples-pack-of-5x1000-/232005275280?hash=item3604978e90:g:BHQAAOSwa-dWsy9~
p235
aVhttp://www.ebay.com/itm/Rapid-R53-10mm-STAINLESS-STEEL-Staples-Handy-Pack-1060-/252269792244?epid=726599055&hash=item3abc738bf4:g:YzEAAOSwvUlWqimn
p236
aVhttp://www.ebay.com/itm/HEAVY-DUTY-TACKER-STAPLE-NAIL-GUN-STAPLER-UPHOLSTERY-WOOD-WITH-400-STAPLES-NEW-/272135314549?epid=1288901469&hash=item3f5c875c75:g:lKsAAOSwG-1Wwk0X
p237
aVhttp://www.ebay.com/itm/STANLEY-0TR250-HEAVY-DUTY-STAPLE-AND-NAIL-GUN-ALUMINIUM-CAST-HOLDING-/291560932136?epid=1604774448&hash=item43e262c328:g:7XMAAOSwiLdV8X6j
p238
aVhttp://www.ebay.com/itm/14-SERIES-FRAME-STAPLE-14-38-FURNITURE-FRAME-STAPLES-BOX-OF-10-500-UK-SELLER-/161899722575?hash=item25b1f9b74f:g:aegAAOSw7FRWWGrP
p239
aVhttp://www.ebay.com/itm/Arrow-ET501-Electric-2-in-1-Staple-Brad-Tacker-ARRET501-/311006172620?epid=1388567009&hash=item48696995cc:g:ahMAAOSwFL9TurDZ
p240
aVhttp://www.ebay.com/itm/90-type-staples-1000-x-30mm-/251896930906?epid=1474267631&hash=item3aa63a225a:g:UZcAAOSwR0JUMs7-
p241
aVhttp://www.ebay.com/itm/Heavy-Duty-Staple-Remover-160mm-For-Paper-Carton-Cardboard-Box-Office-Warehouse-/262700940510?hash=item3d2a323cde:g:JLIAAOSw8lpZFC52
p242
aVhttp://www.ebay.com/itm/Arrow-T50-Staples-8mm-5-16in-Box-1250-/181840664311?epid=1605316494&hash=item2a568c56f7:g:L24AAOSw03lY58OL
p243
aVhttp://www.ebay.com/itm/Tacwise-Z3-140-Professional-Staple-Nail-Tacker-3-In-1-0806-/170563718777?epid=1812669154&hash=item27b663ce79:g:CogAAMXQnFhTkErv
p244
aVhttp://www.ebay.com/itm/5x-Packs-of-1000-Arrow-T25-7mm-Staples-/131592505995?hash=item1ea3864a8b:g:fuAAAOSwT6pVvKAB
p245
aVhttp://www.ebay.com/itm/Rapid-R19-Hammer-Tacker-Ergonomic-Grip-for-13-Series-4-6mm-Staples-/261452704903?epid=1108189612&hash=item3cdfcbac87:g:MxkAAOSwstxVLnCJ
p246
aVhttp://www.ebay.com/itm/5000Pki-Type-90-Staples-Nails-Air-5-85-X-16-X-1-25mm-Fits-18-Gauge-Staplers-/252609130184?epid=524451177&hash=item3ad0ad6ec8:g:lrIAAOSwrhBZAgdI
p247
aVhttp://www.ebay.com/itm/71-series-STAINLESS-STEEL-STAPLES-71-12-BOX-OF-10-000-FREE-POSTAGE-UK-SELLER-/151897130468?hash=item235dc645e4:g:lf0AAOSwgv5ZVMRB
p248
aVhttp://www.ebay.com/itm/Tacwise-Heavy-Duty-53-Series-6mm-Staples-For-Staple-Gun-2000-/162599407040?epid=1405493338&hash=item25dbae0dc0:g:B3oAAOSwvjlZccpG
p249
aVhttp://www.ebay.com/itm/1500-Pcs-Staples-Refill-Pack-Bond-Hardware-Brand-New-/131790963697?epid=1754815050&hash=item1eaf5a83f1:g:aagAAOSw~oFXG~Po
p250
aVhttp://www.ebay.com/itm/Bosch-2609255825-12mm-Type-55-Narrow-Crown-Staples-Pack-of-1000-/322515894722?epid=1240714450&hash=item4b177201c2:g:-LEAAOSwBt5ZF4yC
p251
aVhttp://www.ebay.com/itm/Clarke-CSG10-Staple-Nail-Gun-upholstery-hardboard-fabric-canvas-plastic-etc-/301859355777?epid=1112672178&hash=item4648383c81:g:jVEAAOSwa-dWqgeW
p252
aVhttp://www.ebay.com/itm/NEW-TACWISE-CT45-Cable-Wire-Staple-Gun-Tacker-Stapler-For-Telephone-Alarm-0809-/291824332206?epid=1323168220&hash=item43f215edae:g:T9AAAOSwZVlXkN3n
p253
aVhttp://www.ebay.com/itm/Arrow-T50-Staples-14mm-9-16in-Box-1250-/171900703012?epid=1105661734&hash=item2806149124:g:6MEAAOSwDmBY5-To
p254
aVhttp://www.ebay.com/itm/Draper-Electric-Mains-Stapler-Staple-Brad-Nail-Fixing-Tacker-Gun-240v-83658-/291924584171?epid=524219822&hash=item43f80fa6eb:g:EaQAAOSwn7JYEf6R
p255
aVhttp://www.ebay.com/itm/Stanley-1-TRA706T-5000-x-Heavy-Duty-Staples-10mm-3-8-TRA706-Sharpshooter-Type-G-/310716453561?epid=1961645721&hash=item485824d2b9:g:pgIAAOSwblZZN-I2
p256
aVhttp://www.ebay.com/itm/Arrow-T50-Staples-10mm-3-8in-Bulk-Pack-5000-/182232079891?epid=1710909985&hash=item2a6de0de13:g:s-cAAOSwmgJY5CZT
p257
aVhttp://www.ebay.com/itm/10mm-x-6-tough-RAILWAY-SLEEPER-CONNECTING-STAPLE-PINS-RAILWAY-TIMBER-DOG-GALV-/331989250471?var=&hash=item4d4c19f1a7:m:mNrzXeCZyi1F6YKYMStNEiQ
p258
aVhttp://www.ebay.com/itm/Rapid-Super-Strong-73-8-Staples-R31-8-mm-shank-length-Pack-of-5-000-/172744881476?epid=1652133757&hash=item283865b544:g:KtgAAOSw4CFY41Ni
p259
aVhttp://www.ebay.com/itm/Arrow-T50X-TacMate-Staple-Gun-Tacker-Stapler-Pack-of-1250-T50-10mm-Staples-/121865158972?epid=1941150995&hash=item1c5fbac13c:g:RzMAAOSwKtlWl7gc
p260
aVhttp://www.ebay.com/itm/Arrow-ARRP2214-P22-Staples-Box-5050-6mm-1-4in-/180802282835?hash=item2a18a7e553:g:wswAAMXQRPRTIW5-
p261
a.