(lp1
Vhttp://www.ebay.com/itm/Tradition-Knights-in-History-Sir-Edmund-De-Thorpe-Kit-MIB-/132214206155?hash=item1ec894aecb:g:w4kAAOSw3YNXbUO8
p2
aVhttp://www.ebay.com/itm/SILVER-Traditional-Dress-Digital-Jump-Hour-70s-led-lcd-era-Vintage-Retro-Watch-/391203521935?var=&hash=item5b158c058f:m:mPClEpjkRt28yQhWW35PKxA
p3
aVhttp://www.ebay.com/itm/Tradition-Knights-in-History-Thomas-Beauchamp-Kit-MIB-/132214208932?hash=item1ec894b9a4:g:B-sAAOSw-4BXbUTU
p4
aVhttp://www.ebay.com/itm/Tradition-Knights-in-History-Renaud-v-De-Pons-Kit-MIB-/132214200882?hash=item1ec8949a32:g:d4cAAOSwuzRXfkaL
p5
aVhttp://www.ebay.com/itm/TRADITION-NAPOLEONIC-CONGREVE-ROCKET-KINGS-TROOP-SOLDIERS-at-ATTENTION-og-/331422807737?hash=item4d2a56b6b9:g:NDUAAOSw0vBUmZ42
p6
aVhttp://www.ebay.com/itm/The-Tradition-of-Household-Spirits-Claude-Lecouteux-/382062766217?epid=168124769&hash=item58f4b72889:g:cfYAAOSww9xZAy2x
p7
aVhttp://www.ebay.com/itm/GOLD-Traditional-Dress-Digital-Jump-Hour-60s-70s-led-lcd-era-Vintage-Retro-Watch-/391203523021?var=&hash=item5b158c09cd:m:mYNDT3FTNBOvoT-Cp1kVaBQ
p8
aVhttp://www.ebay.com/itm/Timex-T46681-Mens-Expedition-Traditional-Watch-with-Rugged-Brown-Strap-New-/332182380875?epid=1504164295&hash=item4d579ce14b:g:XpMAAOSwTM5Y76LX
p9
aVhttp://www.ebay.com/itm/Tradition-Knights-in-History-Richard-De-Vere-Earl-of-Oxford-Kit-MIB-/162126169781?hash=item25bf7906b5:g:DqIAAOSwc1FXbUZL
p10
aVhttp://www.ebay.com/itm/Traditional-Dress-Digital-Jump-Hour-60s-70s-led-lcd-era-Vintage-Retro-Watch-g-/391203096021?var=&hash=item5b158585d5:m:mdWPaUR1BgfndEA78KOF6eg
p11
aVhttp://www.ebay.com/itm/Tradition-Knights-in-History-George-Felbridge-Kit-MIB-/132214205417?hash=item1ec894abe9:g:SsgAAOSwbYZXbWCM
p12
aVhttp://www.ebay.com/itm/TIMEX-T2H331-Ladies-Traditional-Black-Watch-Authorised-UK-Stockist-/231766426761?epid=1245095391&hash=item35f65b0489:g:T7AAAOSwSzFZX5xn
p13
aVhttp://www.ebay.com/itm/GENUINE-CITRON-ELEGANT-WATCH-WOMEN-S-ANALOGUE-DISPLAY-TRADITIONAL-BROWN-SAF7-/282176236073?epid=1484363781&hash=item41b303aa29:g:GfIAAOSwYIxX2SZz
p14
aVhttp://www.ebay.com/itm/Traditional-Dress-Digital-Jump-Hour-60s-70s-led-lcd-era-Vintage-Retro-Watch-whit-/391206299287?var=&hash=item5b15b66697:m:m_A7zuE-YhcE979ilSoKYnQ
p15
aVhttp://www.ebay.com/itm/STAEDTLER-TRADITION-110-PENCILS-PACK-OF-12-/131724703326?var=&epid=1104687362&hash=item1eab67765e:m:me4o2mrGQQrmTDZPXO1dqKg
p16
aVhttp://www.ebay.com/itm/TIMEX-T2H331-Ladies-Traditional-Black-Watch-Authorised-UK-Stockist-/231766426761?epid=1245095391&hash=item35f65b0489:g:T7AAAOSwSzFZX5xn
p17
aVhttp://www.ebay.com/itm/Traditional-Dress-Digital-Jump-Hour-60s-70s-led-lcd-era-Vintage-Retro-Watch-gun-/261970975220?var=&hash=item3cfeafd9f4:m:mNmh2_VbX9KuzIrkZm7mALA
p18
aVhttp://www.ebay.com/itm/Accurist-Gents-Classic-Watch-Traditional-White-Dial-Black-Leather-Strap-MS990W-/311641543709?epid=1112687334&hash=item488f48941d:g:KasAAOSwvg9Xa56n
p19
aVhttp://www.ebay.com/itm/Traditional-Garden-Games-Snakes-and-Ladders-Set-Family-Summer-Outdoor-2m-x-2m-/112351507708?epid=1742341292&hash=item1a28abf4fc:g:SVMAAOSwuxFY23V7
p20
aVhttp://www.ebay.com/itm/Accurist-Gents-Classic-Watch-Traditional-White-Dial-Black-Leather-Strap-MS990W-/311641543709?epid=1112687334&hash=item488f48941d:g:KasAAOSwvg9Xa56n
p21
aVhttp://www.ebay.com/itm/Traditional-Garden-Games-Snakes-and-Ladders-Set-Family-Summer-Outdoor-2m-x-2m-/112351507708?epid=1742341292&hash=item1a28abf4fc:g:SVMAAOSwuxFY23V7
p22
aVhttp://www.ebay.com/itm/The-Pussers-Cook-Book-Traditional-Royal-Navy-Recipes-by-Paul-White-/252883021057?epid=236742202&hash=item3ae100ad01:g:RRkAAOSwvihY~Zof
p23
aVhttp://www.ebay.com/itm/6-IN-1-GRAPHITE-MOULD-6-DIFFERENT-GOLD-SILVER-INGOTS-SET-No-1-TRADITIONAL-TYPE-/311903588353?hash=item489ee71001:g:Q4EAAOSwNSxUy-33
p24
aVhttp://www.ebay.com/itm/Ladies-Traditional-Brown-Leather-Strap-Quartz-Analogue-Timex-T20071-Wrist-Watch-/281670061344?epid=1807875317&hash=item4194d80d20:g:DxUAAOSwv0tVN97W
p25
a.