(lp1
Vhttp://www.ebay.com/itm/Led-Flash-Music-Disco-Stand-Lights-Sound-Activated-Rhythm-Car-Rack-Sheet-Sticker-/252678290163?var=&hash=item3ad4ccbaf3:m:mOZLl9gxwoJ7-zkTt8x4AKA&vxp=mtr
p2
aVhttp://www.ebay.com/itm/STUDIO-MUSIC-MP3-AUDIO-SOUND-EDITING-RECORDING-SOFTWARE-FOR-PC-AND-MAC-/321071953620?epid=1055555396&hash=item4ac16136d4:g:AeQAAOxy4YdTRbhD
p3
aVhttp://www.ebay.com/itm/MUSIC-AUDIO-RECORDING-SOFTWARE-FOR-PC-EDITING-STUDIO-MP3-SOUND-/272756246790?hash=item3f818a0906:g:wTkAAOSwWdZZYyPi
p4
aVhttp://www.ebay.com/itm/Sound-Live-Audio-Music-Recording-Editing-Production-Home-Studio-Software-PC-CD-/151468117076?var=&hash=item2344340c54:m:mbw4ec1QwlhtubrJwjlZxkw
p5
aVhttp://www.ebay.com/itm/Audacity-PROFESSIONAL-AUDIO-RECORDING-EDITING-SOFTWARE-for-Microsoft-Windows-/231557007963?hash=item35e9df8a5b:g:m50AAOSwstxVTmrD
p6
aVhttp://www.ebay.com/itm/MUSIC-AUDIO-RECORDING-EDITING-SOFTWARE-MULTI-TRACK-DIGITAL-STUDIO-/192109174147?hash=item2cba995d83:g:N84AAOSw65FXu1do
p7
aVhttp://www.ebay.com/itm/Pro-Music-Recording-Studio-Mixing-Editing-Software-For-PC-and-Mac-Bonus-Items-/321423211291?hash=item4ad650fb1b:g:cKMAAOxyzpdTjf2S
p8
aVhttp://www.ebay.com/itm/MUSIC-AUDIO-RECORDING-EDITING-STUDIO-MP3-SOUND-SOFTWARE-FOR-PC-/192001209512?hash=item2cb429f4a8:g:JO8AAOSwNRdYBvj0
p9
aVhttp://www.ebay.com/itm/MUSIC-AUDIO-RECORDING-EDITING-STUDIO-MP3-SOUND-SOFTWARE-FOR-PC-/192147275545?hash=item2cbcdebf19:g:TJ0AAOSwTM5Y4eLZ
p10
aVhttp://www.ebay.com/itm/MUSIC-AUDIO-RECORDING-EDITING-SOFTWARE-MULTI-TRACK-DIGITAL-SOUND-STUDIO-/182609566675?hash=item2a8460dbd3:g:sV4AAOSw42dZNtCk
p11
aVhttp://www.ebay.com/itm/TRANSFER-LP-VINYL-CASSETTES-ON-TO-CD-MP3-IPOD-IPHONE-/380185197557?epid=1988135503&hash=item5884cdbbf5:g:4UIAAOxyONBSZU0e
p12
aVhttp://www.ebay.com/itm/Music-Composition-Notation-Multi-track-audio-editor-recorder-Music-Tracker-/250995398503?hash=item3a707dd767:g:e0cAAOxyjxlTPSqR
p13
aVhttp://www.ebay.com/itm/MUSIC-AUDIO-RECORDING-EDITING-MULTI-TRACK-SOUND-STUDIO-Digital-Download-/301916315583?hash=item464b9d5fbf:g:s6YAAOSwPc9WyhPU
p14
aVhttp://www.ebay.com/itm/DJ-MUSIC-AUDIO-EDITOR-SOUND-RECORD-ENHANCE-MIXER-SUITE-CD-BURNER-SOFTWARE-/201467106209?epid=1788973822&hash=item2ee86013a1:g:E4EAAOSwI-BWHqMe
p15
aVhttp://www.ebay.com/itm/ClimaxDigital-ACAP100-Audio-Capture-Transfer-Vinyl-audio-cassette-tape-to-PC-Mac-/401221024132?hash=item5d6aa2f984:g:fC4AAOSwcUBYH1~0
p16
aVhttp://www.ebay.com/itm/MULTI-TRACK-DIGITAL-SOUND-STUDIO-RECORD-AUDIO-AND-EDIT-ALL-FROM-HOME-/271075168520?epid=934982830&hash=item3f1d56d108:g:GWsAAOxyFrNRzLmO
p17
a.