(lp0
Vhttp://www.ebay.com/itm/Weight-Loss-Teatox-Detox-Tea-Pack-30-Days-60-Tea-Bags-Gymnema-Herbal-Green-Tea-/182426596058?hash=item2a7978f2da:g:54QAAOSwopRYf-X0
p1
aVhttp://www.ebay.com/itm/XLS-Medical-Appetite-Reducer-Diet-Caspules-for-Weight-Loss-30-Capsules-/222402131514?epid=11003307083&hash=item33c833363a:g:zUUAAOSw4DJYmgGH
p2
aVhttp://www.ebay.com/itm/Liquid-Weight-Loss-with-Acai-Hoodia-Buy-3-Get-1-Free-/250678016671?epid=1312363666&hash=item3a5d92fa9f:g:QN8AAOxyc2pTa0Qb
p3
aVhttp://www.ebay.com/itm/Huel-1-week-28-meals-Vanilla-/142382593211?epid=877516889&hash=item2126a9f4bb:g:oC0AAOSw3gJZGCeU
p4
aVhttp://www.ebay.com/itm/Wild-Raspberry-Ketones-Fruit-Extract-90-Capsules-Diet-Weight-Loss-and-Detox-UK-/292017589155?hash=item43fd9acba3:g:kQcAAOSwA3dYk4Wi
p5
aVhttp://www.ebay.com/itm/OXY-Klenz-OXYGEN-THERAPY-colon-cleanser-100-VegiCaps-/161914824729?hash=item25b2e02819:g:~-wAAOSwP~tW45Xw
p6
aVhttp://www.ebay.com/itm/BUFFALO-BERRY-750mg-x-60-WEIGHT-LOSS-DIET-DETOX-FAT-BURNER-ANTIOXIDANT-NUTRITION-/121296395638?epid=1825130281&hash=item1c3dd41d76:g:~RIAAOxy0w5Tlcg6
p7
a.