(lp1
Vhttp://www.ebay.com/itm/KONI-STR-T-STREET-SUSPENSION-KIT-FORD-FOCUS-ST225-2-5-/272709346128?epid=778417176&hash=item3f7ebe6350:g:MUQAAOSwh-1W5~bN
p2
aVhttp://www.ebay.com/itm/Ford-Focus-Gloss-black-Mk2-RS-ST-I5-New-Cast-Inlet-Plenum-/121740621558?hash=item1c584e76f6:g:CvkAAOxyUylTPrA~&vxp=mtr
p3
aVhttp://www.ebay.com/itm/FORD-FOCUS-ST-UPRATED-MOTORSPORT-DRIVESHAFT-SET-ST225-2-5-NEW-PAIR-/121627370878?hash=item1c518e657e:g:dI0AAOSwBahVM-DZ
p4
aVhttp://www.ebay.com/itm/Airtec-Inlet-Manifold-for-Ford-Focus-MK2-ST-RS-Models-/322305707434?hash=item4b0aeacdaa:g:yoQAAOSwMVdYD0fw&vxp=mtr
p5
aVhttp://www.ebay.com/itm/AS-Performance-Inlet-Manifold-for-Focus-Mk2-ST-RS-Black-White-Red-/171675634274?var=&hash=item27f8aa4a62:m:mCIKoHpGvDEDboZ5Jsl4s-Q
p6
aVhttp://www.ebay.com/itm/Lowered-car-outline-stickers-for-Honda-CRV-1st-gen-RD1-RD3-/282230402151?hash=item41b63e2c67:g:fkgAAOSweW5U-6~U&vxp=mtr
p7
aVhttp://www.ebay.com/itm/STAINLESS-STEEL-EXHAUST-FROM-CAT-FOR-FORD-FIESTA-ST180-1-6-ST-2013-/311830100124?hash=item489a85b89c:g:Tn4AAOSwax5Y0m9p&vxp=mtr
p8
aVhttp://www.ebay.com/itm/2x-Lowered-car-outline-stickers-for-Ford-Focus-ST-hatchback-Mk3-2011-/282341027990?hash=item41bcd63096:g:5PAAAOxywh1TBBmx&vxp=mtr
p9
aVhttp://www.ebay.com/itm/2x-Lowered-car-outline-stickers-for-Ford-Fiesta-ST-hatch-MK7-2008-/282359044783?hash=item41bde91aaf:g:03kAAOxyJX1TDqIB&vxp=mtr
p10
aVhttp://www.ebay.com/itm/GENUINE-Ford-Fiesta-ST150-Throttle-Body-Upgrade-60mm-NEW-2-3L-Duratec-/263096586443?hash=item3d41c750cb:g:MEYAAOSwcpZZb2df&vxp=mtr
p11
aVhttp://www.ebay.com/itm/2x-Custom-YOUR-TEXT-car-stickers-for-Ford-Focus-Mk1-ZX3-hatchback-ST170-/282365808248?hash=item41be504e78:g:FS4AAOSw14xWIvq9&vxp=mtr
p12
a.