(lp1
Vhttp://www.ebay.com/itm/Blue-Neoprene-Medical-Thumb-Spica-Wrist-Support-Splint-Brace-Hand-Strain-Sprain-/261745290187?var=&epid=1757916555&hash=item3cf13c2bcb:m:mHxHlhlNflB6KQotTyT0h-w
p2
aVhttp://www.ebay.com/itm/Sale-Mwave-SPICA-DIGITAL-SINGLE-ALBUM-SECRET-TIME-SIGNED-KPOP-CD-/272625537344?hash=item3f79bf9140:g:d2IAAOSwnF9Y6znV
p3
aVhttp://www.ebay.com/itm/UP-5369-Pollice-Spica-Stecca-COPPIA-X2-Supporto-Tutore-Stabilizzatore-/281700107512?hash=item4196a284f8:g:06YAAOSwPe1T2P04
p4
aVhttp://www.ebay.com/itm/UP-5369-Thumb-Spica-Splint-PAIRX2-Support-Brace-Stabiliser-Sprain-Arthritis-Pain-/251603822969?hash=item3a94c1a979:g:06YAAOSwPe1T2P04
p5
aVhttp://www.ebay.com/itm/UP-5369-Sports-Thumb-Spica-Splint-Support-Brace-Stabiliser-Sprain-Arthritis-Pain-/251811805027?hash=item3aa1273763:g:06YAAOSwPe1T2P04
p6
aVhttp://www.ebay.com/itm/OPPO-1089-Thumb-Spica-Splint-Medical-Stabiliser-Wrist-Support-Brace-Pain-RSI-NHS-/261657251483?var=&epid=1249253076&hash=item3cebfcce9b:m:mDlncmxCpvtsWUqa2CU1mEw
p7
aVhttp://www.ebay.com/itm/Mwave-SPICA-DIGITAL-SINGLE-ALBUM-SECRET-TIME-SIGNED-KPOP-CD-1-Random-Photocard-/272625547934?hash=item3f79bfba9e:g:ph8AAOSwAANY6zxU
p8
aVhttp://www.ebay.com/itm/UP-5369-Sports-Thumb-Spica-Splint-Support-Brace-Stabiliser-Sprain-Arthritis-Pain-/261751645160?hash=item3cf19d23e8:g:06YAAOSwPe1T2P04
p9
aVhttp://www.ebay.com/itm/Thumb-Spica-Splint-Hand-Brace-Support-Arthritis-Sprain-Wrist-Ligament-Stabiliser-/232370746620?hash=item361a6034fc:g:6SUAAOSw3YJZQAic
p10
aVhttp://www.ebay.com/itm/UK-Mwave-SPICA-DIGITAL-SINGLE-ALBUM-SECRET-TIME-SIGNED-KPOP-CD-/272625523237?hash=item3f79bf5a25:g:r9oAAOSw~CFY6zaB
p11
aVhttp://www.ebay.com/itm/Sensport-Thumb-Spica-Splint-Medical-Stabiliser-Wrist-Support-Brace-Sprain-NHS-/281441030366?var=&hash=item41873150de:m:mGQO2-5wX6RuSJKhRvkLY9w
p12
aVhttp://www.ebay.com/itm/Medi-Rhizomed-Thumb-Support-Spica-Splint-Medical-Stabiliser-Wrist-Brace-Sprain-/281582698424?var=&hash=item418fa2ffb8:m:m_ZZ_PRpnNIncbaB_1SbWcg
p13
aVhttp://www.ebay.com/itm/Medical-Thumb-Spica-Wrist-Support-Splint-Brace-Strain-Sprain-Blue-Neoprene-/261522062661?var=&epid=1158917754&hash=item3ce3edfd45:m:mg0-7GsObJjUNf5h6LWziXw
p14
aVhttp://www.ebay.com/itm/Breathable-Thumb-Spica-Splint-Brace-Support-Stabiliser-Arthritis-Sprain-Strain-/371658380013?var=&hash=item568890d2ed:m:ms1iYtYzr7EaVh8sij08-fQ
p15
a.