(lp1
Vhttp://www.ebay.com/itm/The-Sims-4-Get-Together-PC-DVD-New-Game-/391795930268?epid=1542264227&hash=item5b38db749c:g:bDsAAOSwxu5ZMDra
p2
aVhttp://www.ebay.com/itm/The-Sims-3-Showtime-Add-on-PC-DVD-MAC-NEW-SEALED-/362020521685?epid=1904718786&hash=item544a1ac6d5:g:2CsAAOSwDk5UFqSp
p3
aVhttp://www.ebay.com/itm/The-Sims-4-Get-Together-Expansion-Pack-PC-NEW-SEALED-FREE-UK-POST-/182514232760?epid=1542264227&hash=item2a7eb22db8:g:VCgAAOSwmCVY9gO-
p4
aVhttp://www.ebay.com/itm/The-Sims-4-Deluxe-Edition-Origin-Account-for-PC-Full-Access-Change-Everything-/272762023003?hash=item3f81e22c5b:g:XVMAAOSw-89ZQpjh
p5
aVhttp://www.ebay.com/itm/The-Sims-3-PC-DVD-Rom-base-game-for-MAC-or-Windows-/302196063840?hash=item465c49fe60:g:-NoAAOSwgQ9Vukqs
p6
aVhttp://www.ebay.com/itm/THE-SIMS-1-ORIGINAL-RELEASE-PC-CD-ROM-COMPLETE-SIMMS-GAME-/192198985230?hash=item2cbff3c60e:g:8esAAOSw2xRYbW50
p7
aVhttp://www.ebay.com/itm/The-Sims-3-and-Expansion-Packs-PC-Mac-Download-/302287544347?var=&hash=item4661bde01b:m:mDFOhiDALlP_JlC1cIDq1qA
p8
aVhttp://www.ebay.com/itm/THE-SIMS-4-STANDARD-EDITION-PC-MAC-BEST-PRICE-ON-EBAY-/322595117969?epid=210739679&hash=item4b1c2adb91:g:SeAAAOSwdG9XRbHt
p9
aVhttp://www.ebay.com/itm/THE-SIMS-3-EXPANSIONS-AND-STUFF-PACKS-PC-AND-MAC-ORIGIN-KEYS-/142302374195?var=&hash=item2121e1e933:m:mFyVpWpsjl8jtVddhHfP4HA
p10
aVhttp://www.ebay.com/itm/THE-SIMS-Complete-Collection-Pc-nm-inc-Simms-1-Base-game-All-Expansion-Packs-/182475549220?epid=1523189686&hash=item2a7c63ea24:g:uv8AAOSwax5Yua2V
p11
aVhttp://www.ebay.com/itm/The-Sims-2-PC-DVD-ROM-base-game-Windows-/291920192245?epid=631020144&hash=item43f7cca2f5:g:NmAAAOSwQJhUkGF5
p12
aVhttp://www.ebay.com/itm/The-Sims-3-Xbox-360-New-Sealed-/111681516292?epid=222785567&hash=item1a00bcb304:g:ia4AAOSwv0tVS14K
p13
aVhttp://www.ebay.com/itm/The-Sims-3-Classic-Xbox-360-New-Game-/391256520985?epid=222785567&hash=item5b18b4b919:g:xksAAOSwA29Y3OHj
p14
aVhttp://www.ebay.com/itm/THE-SIMS-3-SEASONS-EXPANSION-PACK-PC-AND-MAC-ORIGIN-KEY-/141915345515?epid=1588282103&hash=item210ad0526b:g:4zYAAOSwx-9W0lty
p15
aVhttp://www.ebay.com/itm/THE-SIMS-1-COLLECTORS-BASE-GAME-7-EXPANSION-PACKS-COLLECTION-bundle-PC-COMPLETE-/191839216693?epid=919718020&hash=item2caa822435:g:Z40AAOSwI-BWH~yk
p16
aVhttp://www.ebay.com/itm/ULTIMATE-CANARY-ISLANDS-AIRPORTS-Gold-Pc-Add-On-Flight-Simulator-Sim-X-FSX-NEW-/182508041525?epid=1421803144&hash=item2a7e53b535:g:x8cAAOSwKtlWr-sn
p17
aVhttp://www.ebay.com/itm/The-Sims-3-All-Expansions-Stuff-Packs-Global-Origin-Download-Key-/322471913829?var=&hash=item4b14d2e965:m:mQUnFUsxUv930Y8SC0gJEzw
p18
aVhttp://www.ebay.com/itm/Assetto-Corsa-Racing-Sim-MICROSOFT-XBOX-ONE-BRAND-NEW-SEALED-UK-/311765028467?epid=1056991932&hash=item4896a4ce73:g:KcsAAOSwa~BYWxmr
p19
aVhttp://www.ebay.com/itm/THE-SIMS-3-PC-DVD-Apple-MAC-base-game-Simms3-Sims3-SIMMS-UK-Release-FAST-POST-/172575675766?epid=129281544&hash=item282e4fd576:g:DIIAAOSw4CFYuu0A
p20
aVhttp://www.ebay.com/itm/THE-SIMS-4-PC-MAC-FULL-GAME-LIMITED-OFFER-/122603658607?hash=item1c8bbf5d6f:g:pDQAAOSw2kZZbSiE
p21
aVhttp://www.ebay.com/itm/The-Sims-3-PC-Mac-Origin-Download-Key-FULL-GAME-FAST-and-FREE-PLAY-NOW-/263014383058?hash=item3d3ce0fdd2:g:JqsAAOSwX9FZL9-T
p22
aVhttp://www.ebay.com/itm/Microsoft-FLIGHT-SIMULATOR-X-DELUXE-Edition-Pc-DVD-Rom-Main-FSX-Sim-Base-Game-/172426400660?epid=93981863&hash=item28256a1394:g:Wu8AAOSwpzdWrrow
p23
aVhttp://www.ebay.com/itm/The-Sims-2-H-M-Fashion-Stuff-Expansion-Pack-PC-CD-ROM-/302378317101?hash=item466726f52d:g:cEYAAOSwBLlVGpZr
p24
aVhttp://www.ebay.com/itm/THE-SIMS-3-SUPERNATURAL-EXPANSION-PACK-PC-AND-MAC-ORIGIN-KEY-/131802124103?hash=item1eb004cf47:g:zSAAAOSwvgdW3Jbc
p25
aVhttp://www.ebay.com/itm/The-Sims-3-GIOCO-CLASSICS-PER-XBOX-360-X360-NUOVO-E-SIGILLATO-/362019545499?hash=item544a0be19b:g:EHsAAOSwd4tUCdaC
p26
aVhttp://www.ebay.com/itm/The-Sims-3-Late-Night-Expansion-Pack-PC-Windows-or-MAC-/302290390556?epid=219521035&hash=item4661e94e1c:g:n2oAAOSwHPlWcbow
p27
aVhttp://www.ebay.com/itm/The-Sims-3-Game-PS3-Brand-New-/371930117580?epid=1539931808&hash=item5698c335cc:g:4H8AAOSw~FJZEaRu
p28
aVhttp://www.ebay.com/itm/The-Sims-Bustin-Out-MICROSOFT-XBOX-original-/122447442687?hash=item1c826fb2ff:g:UOQAAOSwfVpYp2sl
p29
aVhttp://www.ebay.com/itm/THE-SIMS-3-World-Adventures-Add-On-Expansion-Pack-Pc-DVD-Rom-Apple-MAC-SIMS3-/182436912992?epid=1405123184&hash=item2a7a165f60:g:5NUAAOSwA3dYi49I
p30
aVhttp://www.ebay.com/itm/THE-MOVIES-STUNTS-EFFECTS-Add-On-Expansion-Pack-Pc-Cd-Rom-sim-Fast-Delivery-/182488045981?hash=item2a7d22999d:g:3rQAAOxyTMhSBgy1
p31
aVhttp://www.ebay.com/itm/THE-SIMS-3-SEASONS-Add-On-Expansion-Pack-Pc-DVD-Rom-Apple-MAC-SIMS3-FAST-POST-/182456117632?hash=item2a7b3b6980:g:QeAAAOSw5cNYi7iy
p32
aVhttp://www.ebay.com/itm/The-Sims-3-University-Life-Expansion-Pack-for-PC-DVD-Rom-MAC-/292145142110?hash=item440535195e:g:la8AAOSwCGVX4PVT
p33
aVhttp://www.ebay.com/itm/PC-MAC-The-SIMS-Medieval-Pirates-Nobles-ORIGIN-CD-Key-/122252204908?hash=item1c76cc9b6c:g:smEAAOSwA3dYQZEM
p34
aVhttp://www.ebay.com/itm/EA-The-Sims-Medieval-Pirates-Nobles-PC-Mac-game-expansion-pack-new-sealed-/380419563214?hash=item5892c5dece:g:7WgAAOSweW5VLR48
p35
aVhttp://www.ebay.com/itm/The-Sims-3-PC-Mac-Full-Digital-Game-ORIGIN-DOWNLOAD-KEY-/111809575211?hash=item1a085eb92b:g:-ewAAOSw3ydVu3xl
p36
aVhttp://www.ebay.com/itm/THE-SIMS-DELUXE-1-BASE-GAME-7-EXPANSION-PACKS-COMPLETE-COLLECTION-PC-BUNDLE-/191732185691?hash=item2ca420fa5b:g:GUQAAOSwVL1V~vSN
p37
aVhttp://www.ebay.com/itm/The-Sims-3-Game-Classics-For-Xbox-360-X360-NEW-SEALED-/131095848979?epid=222785567&hash=item1e85ebe813:g:EHsAAOSwd4tUCdaC
p38
aVhttp://www.ebay.com/itm/STUKA-VS-HURRICANE-Pc-Cd-Add-On-Flight-Simulator-Sim-2004-X-FS2004-FSX-NEW-/172679443599?epid=1433736651&hash=item28347f348f:g:WcMAAOSwE0JY9A1k
p39
aVhttp://www.ebay.com/itm/The-Sims-4-Bundle-Pack-3-PC-Mac-Origin-Download-Key-/301994578319?hash=item465047918f:g:uIkAAOSwOVpXbFXf
p40
aVhttp://www.ebay.com/itm/THE-SIMS-3-ISLAND-PARADISE-EXPANSION-PACK-PC-AND-MAC-ORIGIN-KEY-/131453050706?hash=item1e9b365f52:g:RbkAAOSwpDdVceQK
p41
aVhttp://www.ebay.com/itm/The-Sims-3-Town-Life-Stuff-Expansion-Pack-PC-or-MAC-/292164100169?epid=129282964&hash=item4406566049:g:tLgAAOSw-0xYiMqX
p42
aVhttp://www.ebay.com/itm/The-Sims-3-PS3-New-Game-/401281365519?epid=1923163086&hash=item5d6e3bb60f:g:TfIAAOSwc-tY3lSn
p43
aVhttp://www.ebay.com/itm/THE-SIMS-3-PETS-NINTENDO-3DS-2DS-GAME-CARTRIDGE-CART-ONLY-/131765203011?epid=1389112085&hash=item1eadd17043:g:ZOgAAOSwJQdW-XOB
p44
aVhttp://www.ebay.com/itm/THE-SIMS-3-10th-Anniversary-Pc-DVD-Apple-MAC-base-game-Sims3-SIMMS-FAST-POST-/172575678111?hash=item282e4fde9f:g:Y6IAAOSw~AVYuu0I
p45
aVhttp://www.ebay.com/itm/PC-SIMS-The-Complete-Collection-4-Discs-7-Expansion-Packs-REGION-FREE-W-Key-/142416721409?hash=item2128b2b601:g:hhoAAOSwDrNZQ9h6
p46
aVhttp://www.ebay.com/itm/THE-SIMS-3-EXPANSIONS-AND-STUFF-PC-MAC-Region-Free-Origin-Download-KEYS-/122593637735?var=&hash=item1c8b267567:m:m5axHPKrq4AU_Sh_ZarhagQ
p47
aVhttp://www.ebay.com/itm/THE-SIMS-3-LATE-NIGHT-EXPANSION-PACK-PC-AND-MAC-ORIGIN-KEY-/141981870995?hash=item210ec76b93:g:Rv8AAOSwoBtW3KZB
p48
aVhttp://www.ebay.com/itm/THE-SIMS-3-LATE-NIGHT-Pc-DVD-Rom-MAC-SIMS3-Add-On-Expansion-Pack-FAST-POST-/172504613137?epid=219521035&hash=item282a138111:g:Pw0AAOSw9GhYi44O
p49
aVhttp://www.ebay.com/itm/BUNDLE-of-RARE-COLLECTABLE-PSP-GAMES-UMD-MOVIES-SIMPSONS-GTA-1-/252919832514?var=&hash=item3ae3325fc2:m:mNV1W3v0JF8P3Z2tPmPTKfA
p50
aVhttp://www.ebay.com/itm/THE-SIMS-3-PETS-NINTENDO-3DS-2DS-GAME-CARTRIDGE-CART-ONLY-/131765203011?epid=1389112085&hash=item1eadd17043:g:ZOgAAOSwJQdW-XOB
p51
aVhttp://www.ebay.com/itm/THE-SIMS-3-UNIVERSITY-LIFE-Add-On-Expansion-Pack-Pc-DVD-Rom-MAC-SIMS3-/172568166809?hash=item282ddd4199:g:fBEAAOSwB09YKlv-
p52
aVhttp://www.ebay.com/itm/The-Sims-4-Standard-Origin-Account-for-PC-Full-Access-Change-Everything-/272772370509?hash=item3f8280104d:g:19MAAOSwCkZZV4fg
p53
aVhttp://www.ebay.com/itm/THE-SIMS-Complete-Collection-Pc-includes-Simms-1-Base-game-All-Expansion-Packs-/182479538418?epid=1523189686&hash=item2a7ca0c8f2:g:SAIAAOSwbYZXW0IA
p54
aVhttp://www.ebay.com/itm/THE-SIMS-3-EXPANSIONS-AND-STUFF-PC-MAC-Region-Free-Origin-Download-KEYS-/122593637735?var=&hash=item1c8b267567:m:m5axHPKrq4AU_Sh_ZarhagQ
p55
aVhttp://www.ebay.com/itm/THE-SIMS-3-SUPERNATURAL-Add-On-Expansion-Pack-Pc-DVD-Rom-MAC-SIMS3-Fast-Post-/172558280030?hash=item282d46655e:g:XIUAAOSwhlZYuH7j
p56
aVhttp://www.ebay.com/itm/sim-city-5-per-pc-/201234370361?hash=item2eda80cf39:g:j0UAAOSwuMFUgVDI
p57
aVhttp://www.ebay.com/itm/the-Sims-2-nightlife-add-on-disc-PC-game-/142275575784?hash=item212048ffe8:g:F0EAAOxycD9TVRZh
p58
aVhttp://www.ebay.com/itm/The-Sims-3-Late-Night-Expansion-PC-Origin-Digital-Download-KEY-UK-EU-/401220857534?epid=517925436&hash=item5d6aa06ebe:g:1CAAAOSwA3dYHtCn
p59
aVhttp://www.ebay.com/itm/THE-SIMS-3-PETS-Pc-DVD-Rom-MAC-SIMS3-Add-On-Expansion-Pack-FAST-POST-/182483025102?epid=129296552&hash=item2a7cd5fcce:g:uY4AAOSw0JpV5E40
p60
aVhttp://www.ebay.com/itm/The-Sims-4-Bundle-Pack-5-PC-and-Mac-Origin-CD-key-No-Disc-Box-/272730143460?hash=item3f7ffbbae4:g:vb4AAOSwjRpZS59y
p61
aVhttp://www.ebay.com/itm/THE-SIMS-1-UNLEASHED-Pc-Cd-Rom-Add-On-EXPANSION-PACK-FAST-DISPATCH-/172554330240?hash=item282d0a2080:g:nxAAAOSwvzRXyz-2
p62
aVhttp://www.ebay.com/itm/THE-SIMS-1-Complete-DELUXE-BASE-GAME-7-EXPANSION-PACKS-COLLECTION-PC-BUNDLE-/112456916995?hash=item1a2ef46003:g:swAAAOSwlY1ZJB44
p63
aVhttp://www.ebay.com/itm/The-Sims-3-PC-Mac-Origin-Download-Key-/302034040912?hash=item4652a1b850:g:4SYAAOSwbsBXpZW5
p64
aVhttp://www.ebay.com/itm/The-Sims-3-World-Adventures-Expansion-Pack-PC-Windows-or-MAC-/302378317135?epid=93907694&hash=item466726f54f:g:JC0AAOSwuYVWpkDk
p65
aVhttp://www.ebay.com/itm/FLYING-CLUB-X-Pc-DVD-Rom-Add-On-Flight-Simulator-Sim-2004-X-FS2004-FSX-/172655690072?epid=1804305954&hash=item283314c158:g:oksAAMXQAEFSD6u7
p66
aVhttp://www.ebay.com/itm/THE-SIMS-3-GENERATIONS-EXPANSION-PACK-PC-AND-MAC-ORIGIN-KEY-/131738853171?hash=item1eac3f5f33:g:zVsAAOSwG-1W0y5O
p67
aVhttp://www.ebay.com/itm/THE-SIMS-3-SHOWTIME-Katy-Perry-Collectors-Edition-Expansion-Pack-Pc-DVD-MAC-/172552667766?epid=1404921442&hash=item282cf0c276:g:pXIAAOSwopRYi74g
p68
aVhttp://www.ebay.com/itm/PC-SIMS-The-Complete-Collection-4-Discs-7-Expansion-Packs-REGION-FREE-W-Key-/371674489949?hash=item568986a45d:g:Q0EAAOSwbYZXe53T
p69
aVhttp://www.ebay.com/itm/PC-The-Sims-3-Into-The-Future-PC-GAME-NEW-/351803688596?epid=1722557027&hash=item51e9224694:g:-T4AAOSwnQhXps3v
p70
aVhttp://www.ebay.com/itm/THE-SIMS-4-SPA-DAY-GAME-PACK-PC-AND-MAC-ORIGIN-KEY-/142333324587?hash=item2123ba2d2b:g:44QAAOSwSlBY39y8
p71
aVhttp://www.ebay.com/itm/Maxis-The-Sims-hot-date-New-sealed-PC-game-CD-ROM-expansion-pack-/380400212847?hash=item58919e9b6f:g:wbkAAOxygj5SdAho
p72
aVhttp://www.ebay.com/itm/THE-SIMS-3-SHOWTIME-Limited-Edition-Add-On-Expansion-Pack-Pc-DVD-Rom-MAC-SIMS3-/182436927890?hash=item2a7a169992:g:r4AAAOSwo4pYi8Ve
p73
aVhttp://www.ebay.com/itm/The-Sims-4-PC-Mac-Origin-Download-Key-FULL-GAME-FAST-and-FREE-PLAY-NOW-/332275327639?epid=210739679&hash=item4d5d272297:g:gzsAAOSwgv5ZS3Ih
p74
aVhttp://www.ebay.com/itm/The-Sims-4-PC-DVD-Brand-New-and-Sealed-/121579460691?epid=210739679&hash=item1c4eb35853:g:Mz4AAOSw3ydVnWqt
p75
aVhttp://www.ebay.com/itm/The-Sims-3-Generations-Expansion-Pack-PC-Windows-or-MAC-/292145142098?epid=1505142670&hash=item4405351952:g:uhkAAOSweIlZYlcx
p76
aVhttp://www.ebay.com/itm/THE-SIMS-2-APARTMENT-LIFE-Pc-DVD-Rom-SIMS2-Add-On-Expansion-Pack-SIMMS-FAST-POST-/182446767410?hash=item2a7aacbd32:g:YYEAAOSw2ENW7YAt
p77
aVhttp://www.ebay.com/itm/THE-SIMS-4-STANDARD-EDITION-PC-MAC-REDUCED-PRICE-SALE-/222583381483?hash=item33d300ddeb:g:S1gAAOSwsXFZE2eL
p78
aVhttp://www.ebay.com/itm/THE-SIMS-3-NINTENDO-3DS-2DS-GAME-CARTRIDGE-CART-ONLY-/152032193857?epid=1389112085&hash=item2365d32d41:g:Q3EAAOSwYS9ZaQnN
p79
aVhttp://www.ebay.com/itm/The-Sims-2-Mansion-Garden-Stuff-PC-EU-cover-Full-English-In-Game-NEW-/252930803105?epid=93943752&hash=item3ae3d9c5a1:g:~dMAAOSwk1JWb~7M
p80
aVhttp://www.ebay.com/itm/The-SIMS-2-H-M-FASHION-STUFF-Add-On-Expansion-Pack-Pc-Cd-Rom-H-M-FAST-POST-/172576903588?hash=item282e6291a4:g:X5kAAMXQNhdSGRP7
p81
aVhttp://www.ebay.com/itm/The-Sims-3-University-Life-PC-MAC-Region-Free-Origin-Download-KEY-/122593546474?hash=item1c8b2510ea:g:6EwAAOSw4YJZZO6w
p82
aVhttp://www.ebay.com/itm/Nintendo-DS-Games-OVER-40-TITLES-Select-From-List-/162445392944?var=&hash=item25d27ffc30:m:m0A_h1EoLDMCDW5mlUSIalw
p83
aVhttp://www.ebay.com/itm/The-Sims-4-City-Living-Expansion-Pack-PC-Game-Brand-New-/371949441679?epid=1590978392&hash=item5699ea128f:g:md8AAOSwaEhZF2AQ
p84
aVhttp://www.ebay.com/itm/THE-SIMS-3-UNIVERSITY-LIFE-EXPANSION-PACK-PC-AND-MAC-ORIGIN-KEY-/131738377529?hash=item1eac381d39:g:CjYAAOSwWTRW0k1-
p85
aVhttp://www.ebay.com/itm/THE-SIMS-1-BASE-GAME-SET-COMPLETE-COLLECTION-7-EXPANSION-PACKS-bundle-DELUXE-/191846461310?hash=item2caaf0af7e:g:nxcAAOSwFnFWBGaT
p86
aVhttp://www.ebay.com/itm/The-Sims-3-Game-PS3-/201690956253?hash=item2ef5b7c1dd:g:ev4AAOSwXetZQIgQ
p87
aVhttp://www.ebay.com/itm/THE-SIMS-3-PETS-EXPANSION-PACK-PC-AND-MAC-ORIGIN-KEY-/131285838972?hash=item1e913eec7c:g:T9QAAOSwuAVW0lbZ
p88
aVhttp://www.ebay.com/itm/THE-SIMS-1-DELUXE-BASE-GAME-ALL-7-EXPANSION-PACKS-COMPLETE-COLLECTION-PC-BUNDLE-/201461968409?hash=item2ee811ae19:g:GUQAAOSwVL1V~vSN
p89
aVhttp://www.ebay.com/itm/THE-SIMS-3-ISLAND-PARADISE-Add-On-Expansion-Pack-Pc-DVD-Apple-MAC-FAST-POST-/172551461512?epid=180207662&hash=item282cde5a88:g:xTIAAOSw241Yi7r7
p90
aVhttp://www.ebay.com/itm/The-Sims-2-H-M-Fashion-stuff-add-on-disc-pc-game-/142328910832?hash=item212376d3f0:g:XFIAAOSwBadTpGub
p91
aVhttp://www.ebay.com/itm/The-Sims-2-Glamour-Life-Stuff-PC-CD-Very-Good-Windows-XP-PC-Video-Games-/222454168272?epid=94002357&hash=item33cb4d3ad0:m:mpPSGJLeGLobjg84v_jzdkA
p92
aVhttp://www.ebay.com/itm/The-Sims-2-PC-CD-ROM-base-game-4-disc-for-Windows-/291904788544?epid=856854940&hash=item43f6e19840:g:FwkAAOxyCepScm5u
p93
aVhttp://www.ebay.com/itm/the-URBZ-SIMS-IN-THE-CITY-Playstation-2-Ps2-Game-Complete-/122443458080?hash=item1c8232e620:g:udYAAOSw32lYokAY
p94
aVhttp://www.ebay.com/itm/The-Sims-3-Generations-PC-Mac-Origin-Download-Key-/301430505838?hash=item462ea8816e:g:FWUAAOSwIgNXpZm-
p95
aVhttp://www.ebay.com/itm/THE-SIMS-3-4x-Expansion-Packs-Steam-PC-FULL-GAME-BEST-PRICE-/201970665786?epid=222785567&hash=item2f0663c93a:g:ObUAAOSwtZJY9PT6
p96
aVhttp://www.ebay.com/itm/The-Sims-3-Pets-Game-PS3-Brand-New-/292096643841?epid=1623207320&hash=item4402511301:g:IO8AAOSwDiBZEaXm
p97
aVhttp://www.ebay.com/itm/THE-SIMS-3-STARTER-PACK-PC-AND-MAC-ORIGIN-KEY-/131954136645?hash=item1eb9145645:g:mOUAAOSwOyJX7E8r
p98
aVhttp://www.ebay.com/itm/Microsoft-Flight-Simulator-X-Deluxe-Acceleration-FSX-Steam-Edition-PC-Sim-Game-/331569669788?epid=1638704725&hash=item4d3317a69c:g:4FkAAOSwBahVad1D
p99
aVhttp://www.ebay.com/itm/The-Sims-3-Ambitions-Expansion-Pack-PC-Windows-or-MAC-/292145142106?epid=129309396&hash=item440535195a:g:AwsAAOSwNSxVcDsV
p100
aVhttp://www.ebay.com/itm/THE-SIMS-3-WORLD-ADVENTURES-EXPANSION-PACK-PC-AND-MAC-ORIGIN-KEY-/152101423077?hash=item2369f387e5:g:eXsAAOSwvgdW3Jv4
p101
aVhttp://www.ebay.com/itm/Flight-Simulator-2017-DELUXE-Edition-X-Flight-Sim-Windows-10-8-7-XP-PC-5-DVDs-/282165975822?epid=846557439&hash=item41b2671b0e:g:yZcAAOSwgmJX0F-T
p102
aVhttp://www.ebay.com/itm/Sims-2-Christmas-party-pack-add-on-pack-pc-game-/142337026454?hash=item2123f2a996:g:bpAAAOSwdzVXuzKs
p103
aVhttp://www.ebay.com/itm/The-Sims-Expansions-PC-Game-/292131753940?var=&hash=item440468cfd4:m:mbOaC1Y7rVac-RmXwLcZ_4Q
p104
aVhttp://www.ebay.com/itm/The-Sims-3-Fast-Lane-Stuff-PC-Mac-Origin-Download-Key-/291612026406?hash=item43e56e6626:g:uEgAAOSwhcJWP76x
p105
aVhttp://www.ebay.com/itm/The-Sims-2-Nightlife-Expansion-Pack-PC-CD-ROM-/291927513440?epid=685257193&hash=item43f83c5960:g:4zsAAOSwstxVZdTj
p106
aVhttp://www.ebay.com/itm/AIRCRAFT-POWERPACK-inc-Firepower-Pc-Add-On-Flight-Sim-2004-X-CFS-3-FS2004-FSX-/182567750759?epid=1268509059&hash=item2a81e2cc67:g:L2cAAOSw7ThUgzAU
p107
aVhttp://www.ebay.com/itm/THE-SIMS-4-LIMITED-EDITION-PC-MAC-BEST-PRICE-ON-EBAY-/322592481922?epid=210739679&hash=item4b1c02a282:g:DiUAAOSww5NZBIPF
p108
aVhttp://www.ebay.com/itm/The-Sims-2-Pets-Girl-Talk-pc-game-/142301259426?hash=item2121d0e6a2:g:qHsAAOSwr7ZW7Z8j
p109
aVhttp://www.ebay.com/itm/Three-3GB-SIM-Card-Mobile-Broadband-Pay-As-You-Go-Standard-Micro-Nano-Trio-SIM-/321068704416?epid=23003305957&hash=item4ac12fa2a0:g:VSkAAOSwq19XC6-D
p110
aVhttp://www.ebay.com/itm/FIRE-CHIEF-Firefighting-Sim-PC-Brand-New-Win-XP-/190458362322?hash=item2c5833f9d2:m:mvWhEch382imfStLehwyfTQ
p111
aVhttp://www.ebay.com/itm/Lock-on-il-2-sturmovik-aeroplane-sims-pc-game-/142368944809?hash=item2125d9b2a9:g:R-MAAOSwax5Y2n5Q
p112
aVhttp://www.ebay.com/itm/The-Sims-3-Seasons-PC-MAC-Region-Free-Origin-Download-KEY-/122593547097?hash=item1c8b251359:g:B~wAAOSwIhxZZO7m
p113
aVhttp://www.ebay.com/itm/Xbox-URBZ-Sims-In-The-City-MINT-DISC-Microsoft-PAL-/141878162873?epid=55894821&hash=item210898f5b9:g:sMgAAMXQiFxR-kMw
p114
aVhttp://www.ebay.com/itm/VFR-Generation-X-Photographic-Scenery-Version-3-Vol-1-Pc-Add-On-Flight-Sim-X-FSX-/172613598636?hash=item2830927dac:g:maEAAOSwgQ9VzmR-
p115
aVhttp://www.ebay.com/itm/FLYING-CLUB-X-Pc-DVD-Rom-Add-On-Flight-Simulator-Sim-2004-X-FS2004-FSX-/172655690072?epid=1804305954&hash=item283314c158:g:oksAAMXQAEFSD6u7
p116
aVhttp://www.ebay.com/itm/The-Sims-Livin-It-Up-Expansion-Pack-pc-game-/381386393620?hash=item58cc668814:g:248AAOxycmBS1YOK
p117
aVhttp://www.ebay.com/itm/THE-SIMS-3-MASTER-SUITE-Add-On-Expansion-Pack-Pc-DVD-Apple-MAC-SIMS3-FAST-POST-/172573607375?hash=item282e3045cf:g:x9IAAOSwjDZYi5wk
p118
a.