(lp1
Vhttp://www.ebay.com/itm/Campanula-Samantha-Tussock-bellflower-Sent-In-a-9cm-Pot-/371990806257?var=&hash=item569c613ef1:m:mUL3abajjyyjeMJU9r4fwQQ
p2
aVhttp://www.ebay.com/itm/Swazi-Wapiti-Jacket-X-Large-Tussock-Green-X-Large-Tussock-Green-/322452821786?hash=item4b13af971a:g:aEkAAOSwdGFYyOfl
p3
aVhttp://www.ebay.com/itm/Trespass-Tussock-Womens-Mitt-Cover-Fingerless-Knitted-Gloves-One-Size-/302062674167?var=&epid=1683275961&hash=item465456a0f7:m:mJCCUCVxaLvWqd1q60bZZow
p4
aVhttp://www.ebay.com/itm/TUSSOCK-BELLFLOWER-BLUE-Campanula-carpatica-5400-seeds-PERENNIAL-FLOWER-/221571263694?hash=item3396ad2cce:g:HnoAAOSw14xWOm4a
p5
aVhttp://www.ebay.com/itm/TUSSOCK-BELLFLOWER-WHITE-Campanula-carpatica-5400-SEEDS-/221571258640?hash=item3396ad1910:g:uSIAAOSw7hRWOm8X
p6
aVhttp://www.ebay.com/itm/Wild-Flower-Meadow-Tussock-Seed-Mix-for-Wild-Animals-4g-/321544268205?hash=item4add8829ad:g:6S4AAOxy69JTEQfv
p7
aVhttp://www.ebay.com/itm/Wild-Flower-Meadow-Tussock-Seed-Mix-for-Wild-Animals-50g-/331336147661?hash=item4d252c62cd:g:WXkAAOxyJX1TEQfV
p8
aVhttp://www.ebay.com/itm/Wild-Flower-Meadow-Tussock-Seed-Mix-for-Wild-Animals-100g-/321537369330?hash=item4add1ee4f2:g:wJsAAOxyYSdTEQgJ
p9
aVhttp://www.ebay.com/itm/Campanula-Samantha-Tussock-bellflower-Sent-In-a-9cm-Pot-/371990806257?var=&hash=item569c613ef1:m:mUL3abajjyyjeMJU9r4fwQQ
p10
aVhttp://www.ebay.com/itm/Swazi-Wapiti-Jacket-X-Large-Tussock-Green-X-Large-Tussock-Green-/322452821786?hash=item4b13af971a:g:aEkAAOSwdGFYyOfl
p11
aVhttp://www.ebay.com/itm/Trespass-Tussock-Womens-Mitt-Cover-Fingerless-Knitted-Gloves-One-Size-/302062674167?var=&epid=1683275961&hash=item465456a0f7:m:mJCCUCVxaLvWqd1q60bZZow
p12
aVhttp://www.ebay.com/itm/TUSSOCK-BELLFLOWER-BLUE-Campanula-carpatica-5400-seeds-PERENNIAL-FLOWER-/221571263694?hash=item3396ad2cce:g:HnoAAOSw14xWOm4a
p13
aVhttp://www.ebay.com/itm/TUSSOCK-BELLFLOWER-WHITE-Campanula-carpatica-5400-SEEDS-/221571258640?hash=item3396ad1910:g:uSIAAOSw7hRWOm8X
p14
aVhttp://www.ebay.com/itm/Wild-Flower-Meadow-Tussock-Seed-Mix-for-Wild-Animals-4g-/321544268205?hash=item4add8829ad:g:6S4AAOxy69JTEQfv
p15
aVhttp://www.ebay.com/itm/Wild-Flower-Meadow-Tussock-Seed-Mix-for-Wild-Animals-50g-/331336147661?hash=item4d252c62cd:g:WXkAAOxyJX1TEQfV
p16
aVhttp://www.ebay.com/itm/Wild-Flower-Meadow-Tussock-Seed-Mix-for-Wild-Animals-100g-/321537369330?hash=item4add1ee4f2:g:wJsAAOxyYSdTEQgJ
p17
aVhttp://www.ebay.com/itm/Campanula-Samantha-Tussock-bellflower-Sent-In-a-9cm-Pot-/371990806257?var=&hash=item569c613ef1:m:mUL3abajjyyjeMJU9r4fwQQ
p18
aVhttp://www.ebay.com/itm/Swazi-Wapiti-Jacket-X-Large-Tussock-Green-X-Large-Tussock-Green-/322452821786?hash=item4b13af971a:g:aEkAAOSwdGFYyOfl
p19
aVhttp://www.ebay.com/itm/Trespass-Tussock-Womens-Mitt-Cover-Fingerless-Knitted-Gloves-One-Size-/302062674167?var=&epid=1683275961&hash=item465456a0f7:m:mJCCUCVxaLvWqd1q60bZZow
p20
aVhttp://www.ebay.com/itm/TUSSOCK-BELLFLOWER-BLUE-Campanula-carpatica-5400-seeds-PERENNIAL-FLOWER-/221571263694?hash=item3396ad2cce:g:HnoAAOSw14xWOm4a
p21
aVhttp://www.ebay.com/itm/TUSSOCK-BELLFLOWER-WHITE-Campanula-carpatica-5400-SEEDS-/221571258640?hash=item3396ad1910:g:uSIAAOSw7hRWOm8X
p22
aVhttp://www.ebay.com/itm/Wild-Flower-Meadow-Tussock-Seed-Mix-for-Wild-Animals-4g-/321544268205?hash=item4add8829ad:g:6S4AAOxy69JTEQfv
p23
aVhttp://www.ebay.com/itm/Wild-Flower-Meadow-Tussock-Seed-Mix-for-Wild-Animals-50g-/331336147661?hash=item4d252c62cd:g:WXkAAOxyJX1TEQfV
p24
aVhttp://www.ebay.com/itm/Wild-Flower-Meadow-Tussock-Seed-Mix-for-Wild-Animals-100g-/321537369330?hash=item4add1ee4f2:g:wJsAAOxyYSdTEQgJ
p25
a.