(lp1
Vhttp://www.ebay.com/itm/SULLEN-QUERIDA-MUERTA-BLACK-MENS-TATTOO-TEE-SHIRT-NEW-TAGS-S-M-L-XL-XXL-3XL-/261439984824?var=&hash=item3cdf0994b8:m:mCRmikfMyiIMgIGExeyz3vA
p2
aVhttp://www.ebay.com/itm/Sullen-White-Potters-Ground-T-Shirt-/302358412440?var=&epid=26003801084&hash=item4665f73c98:m:mRc54Og_uO-CBR7WpimnK3Q
p3
aVhttp://www.ebay.com/itm/Sullen-Clothing-Shawn-Barber-Mens-T-Shirt-Black-Tattoo-Machine-Tee-Goth-/381656672843?var=&hash=item58dc82aa4b:m:mRX3InMYClXwx3Ai6LThyKw
p4
aVhttp://www.ebay.com/itm/Sullen-Clothing-Torch-Mens-T-Shirt-Tee-Black-Skull-Tattoo-Goth-/361826912937?var=&hash=item543e908aa9:m:mAvcMTrSuRWhWtG34De5W7A
p5
aVhttp://www.ebay.com/itm/Sullen-Black-Badge-Of-Honor-T-Shirt-/282518885773?var=&epid=21002851324&hash=item41c770158d:m:mbj2ghKTp3DmYW0xzR95MuQ
p6
aVhttp://www.ebay.com/itm/Sullen-Clothing-Sacrifice-Mens-T-Shirt-Tee-Black-Tattoo-Gun-Machine-Goth-/361826912145?var=&hash=item543e908791:m:mEFfFAfbt8DawE4Zb654Qgg
p7
aVhttp://www.ebay.com/itm/Sullen-Clothing-For-Lyfe-Mens-T-Shirt-Black-Skull-Tattoo-Tee-Goth-/381564164186?var=&hash=item58d6ff185a:m:mW3NQGfgNZ1JjX93b0jW4xQ
p8
aVhttp://www.ebay.com/itm/Sullen-Clothing-Badge-Of-Honor-Blaq-Mens-T-Shirt-Black-Skull-Tattoo-Goth-Tee-/142117674265?var=&hash=item2116df9d19:m:m_1fS3Y3yPJQ7eFyneUfLKw
p9
aVhttp://www.ebay.com/itm/Sullen-Clothing-Sublime-Sippin-Mens-T-Shirt-Black-Tattoo-Tee-/381589212248?var=&hash=item58d87d4c58:m:mvOM1VC3igwOFvpsmd7p5fg
p10
aVhttp://www.ebay.com/itm/Sullen-Clothing-Dark-Grey-Mens-T-Shirt-Tee-Black-Tattoo-Goth-Skull-/361826910995?var=&hash=item543e908313:m:mIQUns_7dNEhzbiIZgPaATg
p11
aVhttp://www.ebay.com/itm/Sullen-Clothing-Goethe-Mens-T-Shirt-Tee-Black-Skull-Tattoo-Goth-/381846698621?var=&hash=item58e7d63a7d:m:mxSGHWna2q9XBz1G2SgYSSw
p12
aVhttp://www.ebay.com/itm/Sullen-Charcoal-Heather-Life-T-Shirt-/272730726226?var=&epid=2142648010&hash=item3f80049f52:m:mU8j0mgQp2bF2iJ8S642XGA
p13
aVhttp://www.ebay.com/itm/Sullen-Black-White-Standard-Issue-T-Shirt-/302345979390?var=&hash=item46653985fe:m:mOdnPRnwhO_fOWu_ywNUCOw
p14
aVhttp://www.ebay.com/itm/Sullen-Clothing-Sergey-Mens-T-Shirt-Tee-Black-Potrait-Tattoo-Goth-/361826912234?var=&hash=item543e9087ea:m:mhn0ggP2nvKCQpP-JV4CBGw
p15
aVhttp://www.ebay.com/itm/Sullen-Clothing-Vero-Mens-T-Shirt-Black-Snake-Tattoo-Tee-/381564165139?var=&hash=item58d6ff1c13:m:mg5QjCOZ12XUAtIr2l7J1Qw
p16
aVhttp://www.ebay.com/itm/SULLEN-AARON-BELL-COLOURFUL-SKULL-TATTOO-BLACK-T-SHIRT-S-3XL-LIMITED-EDITION-/301916049460?var=&hash=item464b995034:m:mrrEc_0qDkUPaoTe8W2nNAg
p17
aVhttp://www.ebay.com/itm/Sullen-Black-Harley-T-Shirt-/302358412553?var=&epid=10003805380&hash=item4665f73d09:m:mpDV5DbGf_qZN2WzU1IuUbw
p18
aVhttp://www.ebay.com/itm/Sullen-Clothing-Solstice-Mens-T-Shirt-Tee-Grey-Mandala-Tattoo-Goth-/361826912339?var=&hash=item543e908853:m:mvXbIgSc_WFgoh7o62wwg3A
p19
aVhttp://www.ebay.com/itm/Sullen-Clothing-Baroque-Mens-T-Shirt-Tee-Black-Tattoo-Goth-David-Garcia-/361826910532?var=&hash=item543e908144:m:mk6NXUrOc2gX7w17Zdl8rtg
p20
aVhttp://www.ebay.com/itm/Sullen-Clothing-Vero-Wolf-Mens-T-Shirt-Black-Skull-Tattoo-Tee-Goth-/381589214885?var=&hash=item58d87d56a5:m:m6sd90DXBvg-UhueGf9DTPQ
p21
aVhttp://www.ebay.com/itm/Sullen-Clothing-Kit-King-Badge-Mens-T-Shirt-White-Skull-Tattoo-Goth-Tee-/141661159449?var=&hash=item20fba9c019:m:m_2FfBPxQQPxMkDlP5-Vh9g
p22
aVhttp://www.ebay.com/itm/Sullen-Clothing-Florence-Mens-T-Shirt-Black-Goth-Skull-Tattoo-Tee-/141923854137?var=&hash=item210b522739:m:m9DfvaVAB_2-Ju1WJuWhohA
p23
aVhttp://www.ebay.com/itm/Sullen-White-Pillage-T-Shirt-/272730719585?var=&epid=3003803736&hash=item3f80048561:m:mB42iePAlZsBT7BLk-4icew
p24
aVhttp://www.ebay.com/itm/Sullen-Death-Machine-Mens-T-Shirt-Black-Skull-Tattoo-Gun-Tee-/141713829642?var=&hash=item20fecd6f0a:m:mn7cBafFLblIGZcJqNiCwiw
p25
aVhttp://www.ebay.com/itm/Sullen-Clothing-Wikman-Mens-T-Shirt-Black-Rose-Skull-Goth-Tattoo-Tee-/141767373972?var=&hash=item2101fe7494:m:md9XwdHZxHwCSPw9OTT9Wxg
p26
aVhttp://www.ebay.com/itm/SULLEN-THE-MACHINE-CLOCKWORK-SKULL-TATTOO-T-SHIRT-S-M-L-XL-2XL-3XL-NEW-UK-/302276298019?var=&hash=item4661124523:m:mbRd602ASJ3PytvP37bm8MQ
p27
aVhttp://www.ebay.com/itm/Sullen-Clothing-Kalodimas-Mens-T-Shirt-Tee-Black-Skull-Sake-Tattoo-Goth-/142177611648?var=&hash=item211a722f80:m:mMGaFxCtXneRQo97WYOyV-A
p28
aVhttp://www.ebay.com/itm/Sullen-Black-Leiknes-Badge-Limited-Edition-T-Shirt-/272528016465?var=&epid=505102549&hash=item3f73ef8451:m:m1QAN0egz1IQeDs0n_Dbfnw
p29
aVhttp://www.ebay.com/itm/Sullen-Clothing-Grace-Mens-T-Shirt-Tee-Black-Tattoo-Goth-Bullet-BG-/361826911515?var=&hash=item543e90851b:m:mVEl2Bp9oyj_kJpD_iwA_YQ
p30
aVhttp://www.ebay.com/itm/Sullen-Clothing-Roman-Iron-T-Shirt-Mens-Black-Alien-Skull-Tattoo-Goth-Tee-/381062349882?var=&hash=item58b916043a:m:mQXQYjMM9QuIif9jhwh_9ww
p31
aVhttp://www.ebay.com/itm/SULLEN-KALI-LA-HOT-ROD-TIKI-GODDESS-TATTOO-MENS-BLACK-TEE-SHIRT-M-3XL-/301735943854?var=&hash=item4640dd1eae:m:mCXlREw3WKgL6qZoUDxVzWQ
p32
aVhttp://www.ebay.com/itm/Sullen-Clothing-Ritual-Mens-T-Shirt-Tee-Black-Skull-Native-Tattoo-Goth-/142177607727?var=&hash=item211a72202f:m:mgmiVSPpgwMGv4eXCrEdOGA
p33
aVhttp://www.ebay.com/itm/SULLEN-CLOTHING-USA-TIME-ETERNAL-TATTOO-MACHINE-SKULL-T-SHIRT-S-M-L-XL-2XL-NEW-/262327016709?var=&hash=item3d13e89d05:m:mPV_T6mZ9yqKh_45F6iCQzA
p34
aVhttp://www.ebay.com/itm/Sullen-Black-Torres-Classics-Collection-T-Shirt-/282291518159?var=&epid=2106368874&hash=item41b9e2bacf:m:maMG7_6V9L-MbE1GH6ZIREg
p35
aVhttp://www.ebay.com/itm/Sullen-Black-Crown-of-Roses-T-Shirt-/282538677840?var=&epid=25003801621&hash=item41c89e1650:m:m2zrhYN-zTBUM-hRuZDaYMg
p36
aVhttp://www.ebay.com/itm/SULLEN-ARTISTIC-DREAM-NAUTICAL-SKULL-TATTOO-MACHINE-BLACK-T-SHIRT-S-3XL-/262363864729?var=&hash=item3d161ade99:m:mWnQb53vQrEH0FUnWwI7gng
p37
aVhttp://www.ebay.com/itm/Sullen-Black-Artist-Series-Rember-2-T-Shirt-/302061000900?var=&epid=2100649134&hash=item46543d18c4:m:mHHAXnv4OQO1z800_zFQ6Gw
p38
aVhttp://www.ebay.com/itm/SULLEN-PSYCHEDELIC-SKULL-BLACK-RED-TATTOO-INKED-MANDALA-PAINTBRUSH-MENS-T-SHIRT-/262062360680?var=&hash=item3d04224868:m:mSKqkAnJbSH_MCtg9y-4V8A
p39
aVhttp://www.ebay.com/itm/Sullen-Clothing-Eternal-Mens-T-Shirt-Tee-Black-Skull-Tattoo-Goth-/361826910733?var=&hash=item543e90820d:m:mOXZxtKq2EBTjNJI1twEf6g
p40
aVhttp://www.ebay.com/itm/Sullen-Heather-Grey-Badge-of-Honor-Harbor-T-Shirt-/282538662670?var=&epid=8003806589&hash=item41c89ddb0e:m:mr5YYmgyoSC5DPriugdPbFQ
p41
aVhttp://www.ebay.com/itm/SULLEN-REAP-WHAT-YOU-SOW-DEATH-REAPER-WHITE-TATTOO-MENS-T-SHIRT-M-2XL-/301711304364?var=&hash=item463f6526ac:m:moNaAuVu3N9f1GViU2ozKtA
p42
aVhttp://www.ebay.com/itm/SULLEN-USA-HEAD-EATER-WOLF-SKULL-TATTOO-ARTIST-ELVIN-YONG-BLACK-T-SHIRT-S-3XL-/302125111854?var=&hash=item46580f5a2e:m:mwPV1QvpiusKbTeP1x-TIIg
p43
aVhttp://www.ebay.com/itm/SULLEN-REAP-DEATH-REAPER-SKULL-TATTOO-MENS-BLACK-T-SHIRT-S-3XL-BIKER-GOTH-PUNK-/301772558239?var=&hash=item46430bcf9f:m:m48J-XKfVHj32CVTtFGpH8w
p44
aVhttp://www.ebay.com/itm/SULLEN-MY-LOVE-SUGAR-SKULL-BLACK-MENS-TATTOO-TEE-SHIRT-NEW-TAGS-S-M-L-XL-2XL-3XL-/301021521383?var=&hash=item461647e5e7:m:mwvpij2dVvxPvhrp21FL01g
p45
aVhttp://www.ebay.com/itm/SULLEN-CLOTHING-DIAMOND-DUST-MENS-T-SHIRT-/232128362963?var=&hash=item360bedb9d3:m:muOUEdPO3dsYYvik3tz4pfw
p46
aVhttp://www.ebay.com/itm/SULLEN-CLOTHING-ROCK-BADGE-T-SHIRT-/332017298645?var=&hash=item4d4dc5ecd5:m:msFYd2b9uBMKO4-gVLhqNug
p47
aVhttp://www.ebay.com/itm/SULLEN-REAP-WHAT-YOU-SOW-DEATH-REAPER-BLACK-WHITE-TATTOO-RAGLAN-T-SHIRT-S-3XL-/301748656161?var=&hash=item46419f1821:m:mWz6AHL3fE6yv8Kt1OAQzeg
p48
aVhttp://www.ebay.com/itm/Sullen-Athena-Mens-T-Shirt-Black-Skull-Rose-Goth-Tattoo-Tee-/141742459385?var=&hash=item21008249f9:m:mQNb72gXEvK7v-TwPQg90sA
p49
aVhttp://www.ebay.com/itm/SULLEN-CLOTHING-PLAYERS-CLUB-T-SHIRT-/232128363830?var=&hash=item360bedbd36:m:mq-V_E-WLAIvblVTL-55xew
p50
aVhttp://www.ebay.com/itm/SULLEN-TORRES-MENS-BLACK-SKULL-SKELETON-T-SHIRT-TATTOO-S-M-L-XL-2XL-BIKER-ROCK-/301403193252?var=&hash=item462d07bfa4:m:m2O6l6rzh4hgtbnCdcpZUYQ
p51
aVhttp://www.ebay.com/itm/SULLEN-MUERTA-ROSE-DAY-OF-THE-DEAD-TATTOO-MENS-BLACK-T-SHIRT-LTD-EDITION-/301566834646?var=&hash=item4636c8b7d6:m:mXgmN21LEQSxklmB2XVKoaQ
p52
aVhttp://www.ebay.com/itm/SULLEN-DEEP-SKULL-OCTOPUS-KRAKEN-NAUTICAL-TATTOO-MENS-BLACK-GREY-TEE-SHIRT-S-3XL-/262041517573?var=&hash=item3d02e43e05:m:mAemkFG952YH6EQsytn7cSA
p53
aVhttp://www.ebay.com/itm/Sullen-Mens-Black-Throne-Badge-Tshirt-Drip-Skull-Thorn-Wreath-Emblem-Tattoo-/192030015423?var=&epid=1738728193&hash=item2cb5e17fbf:m:mjpsT50giafKC6wvd_3y9CA
p54
aVhttp://www.ebay.com/itm/Sullen-T-Shirt-Badge-Of-Honor-Schwarz-/172724361283?var=&epid=24002854279&hash=item28372c9843:m:mbj2ghKTp3DmYW0xzR95MuQ
p55
a.