(lp1
Vhttp://www.ebay.com/itm/Chef-s-Choice-316-Asian-Electric-Knife-Sharpener-for-Santoku-Sashimi-Deba-NEW-/272166278581?epid=1349387572&hash=item3f5e5fd5b5:g:EFoAAOSwAuNW40RL
p2
aVhttp://www.ebay.com/itm/Complete-Guide-to-Sushi-and-Sashimi-by-Jeffrey-Elliot-Spiral-bound-Book-New-/192099641275?epid=221250343&hash=item2cba07e7bb:g:NxwAAOSw4CFYyZ-D
p3
a.