(lp1
Vhttp://www.ebay.com/itm/Full-Moon-bracelet-bangle-cuff-Blood-Red-Harvest-Super-Lunar-Eclipse-/171651112876?var=&hash=item27f7341fac:m:m_EhjKpeUbZY9EwqbI5Oxxw
p2
aVhttp://www.ebay.com/itm/Moon-Nova-80-And-Lunar-Super-Bright-Front-And-Rear-Bike-LED-Lightset-LAA559-/131401644272?epid=1530518338&hash=item1e9825f8f0:g:27IAAOSwzOxUV7ek
p3
a.