(lp1
Vhttp://www.ebay.com/itm/Italeri-1-24-Scania-R730-Streamline-Team-Chimera-3930-/371980618358?epid=21003046502&hash=item569bc5ca76:g:YFUAAOSwN2VZP~Bx
p2
aVhttp://www.ebay.com/itm/Peco-SL-50-Streamline-Moulded-Ballast-Inlay-OO-HO-Gauge-/232280809911?epid=1119976741&hash=item361503e1b7:g:WDAAAOSwmgJY09xo
p3
aVhttp://www.ebay.com/itm/100-Rolls-57mm-x-40mm-Thermal-Paper-Credit-Card-PDQ-Streamline-Machine-Receipt-/132224253374?epid=1765565027&hash=item1ec92dfdbe:g:AsgAAOSw8vZXNFEd
p4
aVhttp://www.ebay.com/itm/PECO-SL-100-Flexible-Streamline-Code-100-Wooden-sleeper-Flexitrack-New-Free-Post-/281601338173?var=&epid=1305256600&hash=item4190bf6b3d:m:mngUfppMHpx8fG04CNVXdhg
p5
aVhttp://www.ebay.com/itm/4-000-STREAMLINE-MENTHOL-CIGARETTE-FILTER-TIPS-7mm-diameter-/302377518293?epid=20002726758&hash=item46671ac4d5:g:9TUAAOSwg3FUqE53
p6
aVhttp://www.ebay.com/itm/ECO-LEATHER-SEAT-COVERS-FOR-SCANIA-Rseries-2014-STREAMLINE-/201526576091?var=&hash=item2eebeb83db:m:mXjDhXBqFGYkicCKNUoAviQ
p7
aVhttp://www.ebay.com/itm/Genuine-Scania-Blue-Truck-New-Streamline-V8-Euro6-Diecast-Metal-Keyring-New-BNIB-/171909327723?epid=691643750&hash=item2806982b6b:g:HYkAAOSwu4BV31nr
p8
aVhttp://www.ebay.com/itm/lowepro-streamline-sling-camera-bag-slate-grey-/282023354430?epid=1424375801&hash=item41a9e6e03e:g:~qgAAOSwiYFXJcv5
p9
aVhttp://www.ebay.com/itm/SCANIA-STREAMLINE-FLOOR-SET-LEATHERETTE-TRUCK-PARTS-ACCESSORIES-/112418247854?hash=item1a2ca654ae:g:rmoAAOSwOdpXysrB
p10
aVhttp://www.ebay.com/itm/FLOOR-MATS-AND-ENG-COVER-FOR-SCANIA-STREAMLINE-2014-L-H-DRIVE-ECO-LEATHER-/192148790532?hash=item2cbcf5dd04:g:7pUAAOSwcu5US-7M&vxp=mtr
p11
aVhttp://www.ebay.com/itm/Scania-Streamline-2010-LED-Rear-Tail-Lamp-LH-NS-/291946587498?hash=item43f95f656a:g:1IcAAOSw5cNYLxFT
p12
aVhttp://www.ebay.com/itm/Trespass-STREAMLINE-Mens-Waterproof-Fishing-Rain-Coat-Anti-Mosquito-Jacket-/271538302852?var=&epid=1451035664&hash=item3f38f1af84:m:mYPHOeCQe1b0Big1izV95Qg
p13
aVhttp://www.ebay.com/itm/PECO-SL-92-STREAMLINE-LEFT-HAND-SMALL-RADIUS-POINT-INSULFROG-OLD-STYLE-1999-/162546575881?epid=1205274396&hash=item25d887ea09:g:TakAAOSw8GtZOZdN
p14
aVhttp://www.ebay.com/itm/PECO-SL-100-Flexible-Streamline-Code-100-Wooden-sleeper-Flexitrack-New-Free-Post-/281601338173?var=&epid=1305256600&hash=item4190bf6b3d:m:mngUfppMHpx8fG04CNVXdhg
p15
aVhttp://www.ebay.com/itm/PECO-SL-92X-SMALL-RADIUS-LEFT-POINT-OO-HO-INSULFROG-STREAMLINE-FLEXIBLE-TRACK-/322581489338?hash=item4b1b5ae6ba:g:I3kAAOSwXXxZXoaa
p16
aVhttp://www.ebay.com/itm/Peco-SL-90-Streamline-Code-100-Double-Slip-OO-HO-Gauge-/232254851379?epid=1324830266&hash=item361377c933:g:CNYAAOSw4CFYtFtP
p17
aVhttp://www.ebay.com/itm/Peco-SL-E92-Streamline-Electrofrog-Small-Radius-Left-Hand-Point-OO-HO-Gauge-/232316546669?epid=1604315362&hash=item3617252e6d:g:JOEAAOSw~y9ZAzbo
p18
aVhttp://www.ebay.com/itm/Peco-SL-E96-Streamline-Electrofrog-Medium-Radius-Left-Hand-Point-OO-HO-Gauge-/352042093742?epid=1324808896&hash=item51f7580cae:g:djcAAOSwtGlZAzbq
p19
aVhttp://www.ebay.com/itm/Crystal-Two-Strands-Wrap-Slake-Bracelet-Streamline-Effect-Stud-Fastener-/311017453110?var=&epid=1465311877&hash=item486a15b636:m:mwjMry0-0z3ANbE8P5P8Kpw
p20
aVhttp://www.ebay.com/itm/SMOOTH-ECO-LEATHER-FOR-SCANIA-Rseries-2014-STREAMLINE-/191827619990?var=&hash=item2ca9d13096:m:mkfOLmn8erK27k1YdtVw10A
p21
aVhttp://www.ebay.com/itm/Vintage-Art-Deco-Travel-Poster-30s-Streamline-Hiawatha-Locomotive-Dieselpunk-/252574457877?var=&hash=item3ace9c6015:m:mNPt_oTwQUuWeeyo-54LE5Q
p22
aVhttp://www.ebay.com/itm/TRUCK-CURTAINS-FOR-SCANIA-HIGHLINE-STREAMLINE-/191894038975?var=&hash=item2cadc6a9bf:m:mKy94JxkjB1rn3yKEmT7jBQ
p23
aVhttp://www.ebay.com/itm/S-STEEL-CHROME-WIND-KIT-TRIM-FOR-SCANIA-2PCS-new-streamline-/282384474982?hash=item41bf6d2366:g:1CoAAOSw4CFYvD~h
p24
aVhttp://www.ebay.com/itm/Italeri-1-24-3930-Scania-R730-Streamline-Team-Chimera-Model-Truck-Kit-/132252841822?epid=4003352159&hash=item1ecae2375e:g:V0wAAOSwcj5ZXxaS
p25
aVhttp://www.ebay.com/itm/Prestige-Carp-Porter-NEW-MK2-Basic-Streamline-Fishing-Barrow-FREE-Pannier-Bags-/371737669155?hash=item568d4aae23:g:z00AAOSw~XpZS3aV
p26
aVhttp://www.ebay.com/itm/TRUCK-CURTAINS-FOR-SCANIA-HIGHLINE-STREAMLINE-/191894038975?var=&hash=item2cadc6a9bf:m:mKy94JxkjB1rn3yKEmT7jBQ
p27
aVhttp://www.ebay.com/itm/PECO-STREAMLINE-OO-GAUGE-SL-86-INSULFROG-RIGHT-HAND-CURVED-POINT-BOXED-/252863110951?epid=1704306494&hash=item3adfd0df27:g:8dYAAOSww3tY72GR
p28
aVhttp://www.ebay.com/itm/SCANIA-R-STREAMLINE-TRUCK-CENTRE-TABLE-TRUCK-PARTS-ACCESSORIES-/112483593011?hash=item1a308b6b33:g:cPoAAOSw7I5TwZqN
p29
aVhttp://www.ebay.com/itm/SCANIA-STREAMLINE-SERIES-LEATHERETTE-SEAT-COVERS-TRUCK-PARTS-ACCESSORIES-/122514121080?hash=item1c86692178:g:UTQAAOSw-K9ZIHx3
p30
aVhttp://www.ebay.com/itm/Italeri-1-24-3930-Scania-R730-Streamline-Team-Chimera-Model-Truck-Kit-/132252841822?epid=4003352159&hash=item1ecae2375e:g:V0wAAOSwcj5ZXxaS
p31
aVhttp://www.ebay.com/itm/1-50-Scale-WSI-Scania-R-Streamline-Topline-6x2-Red-Passion-BNIB-/272489946696?hash=item3f71aa9e48:g:8EkAAOSwImRYeS0i
p32
aVhttp://www.ebay.com/itm/To-Fit-Scania-Streamline-Corner-Deflector-Polished-Stainless-Steel-Chrome-Trims-/142393056247?hash=item2127499bf7:g:VrwAAOSwY3BZJcXA
p33
aVhttp://www.ebay.com/itm/Two-Strands-Wrap-Slake-Bracelet-Streamline-Effect-Multi-Tones-Crystal-Gold-Studs-/111539577226?var=&hash=item19f846e18a:m:mg7Dc824LNyyqnU-i-0eQpg
p34
aVhttp://www.ebay.com/itm/TRUCK-CURTAINS-FOR-SCANIA-HIGHLINE-STREAMLINE-V8-/201485549977?var=&hash=item2ee9798199:m:mdAwaI2je4hD2YsQBSKcJsw
p35
aVhttp://www.ebay.com/itm/Scania-Streamline-2013-R-series-P-series-4-series-Window-Deflectors-Pair-of-/192197063569?hash=item2cbfd67391:g:hf0AAOSw1WJZJuIi
p36
aVhttp://www.ebay.com/itm/PRESTIGE-CARP-PORTER-MK-2-BASIC-STREAMLINE-WHEELBARROW-FOR-CARP-FISHING-/162553539954?hash=item25d8f22d72:g:DQ8AAOSw9GhYkybA
p37
aVhttp://www.ebay.com/itm/Lighter-Electric-Rechargeable-Arc-Usb-Windproof-Flameless-Dual-Plasma-Torch-/331985731881?var=&hash=item4d4be44129:m:mkrqYHcre3kKjGh6IhQfXIg
p38
aVhttp://www.ebay.com/itm/Crystal-Two-Strands-Wrap-Slake-Bracelet-Streamline-Effect-/111440228845?var=&hash=item19f25af1ed:m:mia8W7InovBqd-StKk6dFgQ
p39
aVhttp://www.ebay.com/itm/TO-FIT-SCANIA-R440-STREAMLINE-2013-GREY-PREMIUM-SOFT-VELVET-FABRIC-SEAT-COVERS-/401294940496?epid=874205917&hash=item5d6f0ad950:g:PRQAAOSwuxFY0SYF
p40
aVhttp://www.ebay.com/itm/Crystal-Two-Strands-Wrap-Slake-Bracelet-Streamline-Effect-/111440228845?var=&hash=item19f25af1ed:m:mia8W7InovBqd-StKk6dFgQ
p41
aVhttp://www.ebay.com/itm/Peco-SL-E1486-Streamline-Righthand-Curved-Turnout-HOm-12mm-Gauge-/232105264304?hash=item360a8d44b0:g:0YgAAOSw8gVX9m0k
p42
aVhttp://www.ebay.com/itm/Apeks-New-Streamline-Contents-Gauge-SPG-BAR-UK-Maindealer-GREEN-/332098808850?epid=791304847&hash=item4d52a1ac12:g:MJoAAOSw5cNYg3CZ
p43
aVhttp://www.ebay.com/itm/S-STEEL-CHROME-DOOR-HANDLE-COVER-TRIM-SET-FITS-SCANIA-R-P-G-NEW-STREAMLINE-/272259886334?epid=1872778287&hash=item3f63f42cfe:g:hKsAAOSw3ihXTb7R
p44
aVhttp://www.ebay.com/itm/Scania-Svempra-Griffin-R-G-V8-Topline-Streamline-Side-Decals-Stickers-LSSCA3-/311487842294?epid=1046199794&hash=item48861f47f6:g:HzkAAOSwlV9WTFey
p45
aVhttp://www.ebay.com/itm/ECO-LEATHER-FOR-SCANIA-R-series-2014-STREAMLINE-/201876310333?var=&hash=item2f00c4093d:m:mKzWgV-0oypPRh5TwQK7BwQ
p46
aVhttp://www.ebay.com/itm/TO-FIT-SCANIA-R440-STREAMLINE-2013-RED-PREMIUM-SOFT-VELVET-FABRIC-SEAT-COVERS-/152480378045?epid=874205917&hash=item238089ecbd:g:LekAAOSwuxFY0Sw7
p47
aVhttp://www.ebay.com/itm/VW-TOURAN-10-ON-Aluminium-Streamline-Aero-Roof-Rail-Rack-Cross-Bars-/182600321203?hash=item2a83d3c8b3:g:3WgAAOSwblZZLuWR&vxp=mtr
p48
aVhttp://www.ebay.com/itm/Scania-Svempra-Griffin-R-G-V8-Topline-Streamline-Side-Decals-Stickers-LSSCA2-/311487836941?epid=1446208675&hash=item48861f330d:g:QvIAAOSwsFpWTFN6
p49
aVhttp://www.ebay.com/itm/Peco-SL-43-Streamline-Loco-Lift-OO-HO-Gauge-/232254851501?epid=1723191167&hash=item361377c9ad:g:CG0AAOSwSlBYtFtW
p50
aVhttp://www.ebay.com/itm/ECO-LEATHER-ENGINE-COVER-FOR-SCANIA-Rseries-2009-2013-STREAMLINE-/191828409338?var=&hash=item2ca9dd3bfa:m:mGX7Ku2ET3V2rM7OKBVW5uA
p51
aVhttp://www.ebay.com/itm/Peco-SL-E86-Streamline-Electrofrog-Long-Right-Hand-Point-OO-HO-Gauge-/351941771401?epid=1425208114&hash=item51f15d4089:g:23MAAOSwUKxYX~~q
p52
aVhttp://www.ebay.com/itm/Streamline-Light-9W-UV-Gel-Nail-Lamp-605-/360498819302?epid=1787947052&hash=item53ef6770e6:g:HJ0AAOSwZjJU~UGs
p53
aVhttp://www.ebay.com/itm/To-Fit-Scania-P-G-R-6-Series-09-Streamline-Mud-Guard-Wing-Top-Strip-Trim-8-Pce-/142393616352?hash=item21275227e0:g:wKgAAOSwPh5ZJon3
p54
aVhttp://www.ebay.com/itm/To-Fit-Scania-P-G-R-6-Series-09-Streamline-Mud-Guard-Wing-Top-Strip-Trim-8-Pce-/142393616352?hash=item21275227e0:g:wKgAAOSwPh5ZJon3
p55
aVhttp://www.ebay.com/itm/Peco-SL-396-N-Gauge-Streamline-Track-Medium-Radius-Left-Hand-Point-Turnout-New-/381785037313?epid=1955555075&hash=item58e4295a01:m:mc-_u2BM3QI2O9lYTjANp5Q
p56
aVhttp://www.ebay.com/itm/1-50-Scale-Wsi-Scania-3-Streamline-Estepe-BNIB-/272487237670?hash=item3f71814826:g:Qb8AAOSw241YUx9F
p57
aVhttp://www.ebay.com/itm/Genuine-Scania-Truck-Streamline-Logo-Enamel-Brushed-Metal-Keyring-BNIP-New-/181872923929?hash=item2a58789519:g:Py8AAOxyJX1TEdKR
p58
aVhttp://www.ebay.com/itm/SCANIA-STREAMLINE-SERIES-LEATHERETTE-SEAT-COVERS-TRUCK-PARTS-ACCESSORIES-/122514121080?hash=item1c86692178:g:UTQAAOSw-K9ZIHx3
p59
aVhttp://www.ebay.com/itm/Peco-SL-43-Streamline-Loco-Lift-OO-HO-Gauge-/232254851501?epid=1723191167&hash=item361377c9ad:g:CG0AAOSwSlBYtFtW
p60
aVhttp://www.ebay.com/itm/SMOOTH-ECO-LEATHER-ENGINE-COVER-FOR-SCANIA-Rseries-2009-2013-STREAMLINE-/201542567535?var=&hash=item2eecdf866f:m:mrZ7vHrvN9_UDqh2TJnRAKw
p61
aVhttp://www.ebay.com/itm/TRIANG-R871-LMS-MAROON-DUCHESS-OF-RUTLAND-STREAMLINE-CORONATION-CAB-No-6228-/262683124469?hash=item3d292262f5:g:6CEAAOSwnDxUdXpc
p62
aVhttp://www.ebay.com/itm/Peco-SL-91-92-Streamline-OO-Gauge-Model-Railway-Small-Radius-RH-LH-Point-New-/112035125943?var=&hash=item1a15d05ab7:m:mM97Da8EABruVUMMZPljZ3g
p63
aVhttp://www.ebay.com/itm/PECO-streamline-00-BUFFER-STOPS-RAIL-TYPE-x-2-SL-40-/382095449863?epid=1605135840&hash=item58f6a9df07:g:PGcAAOSwc49Y6O6D
p64
aVhttp://www.ebay.com/itm/Peco-SL-E88-Streamline-Electrofrog-Large-Right-Hand-Point-OO-HO-Gauge-/381919093173?epid=1524960380&hash=item58ec26e1b5:g:iqgAAOSwImRYdKF8
p65
aVhttp://www.ebay.com/itm/Scania-Streamline-2010-LED-Rear-Tail-Lamp-C-W-Reversing-Alarm-RH-OS-/291946590263?hash=item43f95f7037:g:Mn0AAOSwB09YLxJT
p66
aVhttp://www.ebay.com/itm/Caterpillar-CAT-Streamline-red-yellow-S1P-HRO-SRC-safety-trainer-midsole-6-12-/121574557797?var=&epid=1241781987&hash=item1c4e688865:m:mkBdcSfoRdEdBbswdBPcM2A
p67
aVhttp://www.ebay.com/itm/Genuine-Scania-Blue-Streamline-Truck-Baseball-Cap-Hat-One-Size-Mens-Mens-New-/171571433066?hash=item27f2744e6a:g:4-kAAOSwuMFUg0LO
p68
aVhttp://www.ebay.com/itm/ECO-LEATHER-ENGINE-COVER-AND-FLOOR-MATS-FOR-SCANIA-R-STREAMLINE-/201513594750?var=&hash=item2eeb256f7e:m:muwUihOwa1HL4HSA5-pntRQ
p69
aVhttp://www.ebay.com/itm/PECO-streamline-OO-CODE-100-INSULATED-RAIL-JOINERS-x-24-SL-11-/122563791125?epid=1904329975&hash=item1c895f0915:g:LZ0AAOSw1~JZTm1R
p70
aVhttp://www.ebay.com/itm/HONDA-FR-V-04-09-Aluminium-Streamline-Aero-Roof-Rail-Rack-Cross-Bars-/182600280853?hash=item2a83d32b15:g:zZIAAOSwBt5ZLt8A&vxp=mtr
p71
aVhttp://www.ebay.com/itm/Peco-SL-93-OO-Streamline-Short-Crossing-Model-Railway-Track-24-Angle-New-/381679056231?hash=item58ddd83567:m:mo7PfNg736dPztaWufxf2pw
p72
aVhttp://www.ebay.com/itm/Genuine-Scania-Blue-Streamline-Truck-Baseball-Cap-Hat-One-Size-Mens-Mens-New-/171571433066?hash=item27f2744e6a:g:4-kAAOSwuMFUg0LO
p73
aVhttp://www.ebay.com/itm/Full-Set-of-16-Alloy-Wheels-for-BMW-E90-F30-F31-3-Series-Streamline-306-Wheels-/222500538585?hash=item33ce10c8d9:g:04wAAOSwR29ZDJPq
p74
aVhttp://www.ebay.com/itm/MS116-WRENN-DUBLO-INSTRUCTION-LEAFLET-ORIGINAL-STREAMLINE-CORONATION-T-O-SID-/321726274643?hash=item4ae8615c53:g:~C4AAOSwv0tVLmP1
p75
aVhttp://www.ebay.com/itm/Peco-SL-91-OO-Gauge-Streamline-Track-Right-Hand-Point-Small-Radius-Insulfrog-New-/112035090849?epid=1505520912&hash=item1a15cfd1a1:m:mrWE5sZWJedY0rIibFs3i3g
p76
aVhttp://www.ebay.com/itm/Dinky-Streamline-Bus-No-29b-White-Metal-Kit-/262111944807?hash=item3d0716e067:g:AAwAAOSw~bFWIAVz
p77
aVhttp://www.ebay.com/itm/Peco-SL-E91-Streamline-Electrofrog-Small-Right-Hand-Point-OO-HO-Gauge-/381930084544?epid=1205262767&hash=item58ecce98c0:g:kZcAAOSw5cNYgNiv
p78
aVhttp://www.ebay.com/itm/MEN-SWIMMING-INFINITEX-STREAMLINE-Trunks-Briefs-FOR-SPEED-ALL-SIZE-M-L-XL-/282340855094?var=&hash=item41bcd38d36:m:mag-y1FvLXTTk119n-KTMHg
p79
aVhttp://www.ebay.com/itm/PECO-ST-204-Long-Straight-Streamline-Code-100-Wooden-sleepers-New-Free-Post-/281643937082?var=&epid=1905294153&hash=item4193496d3a:m:m7o-E-cDDmhuh0FK29uIktQ
p80
aVhttp://www.ebay.com/itm/PECO-STREAMLINE-OO-GAUGE-SL-92-INSULFROG-L-H-SMALL-RADIUS-POINT-NEW-SEALED-/252854935032?epid=1205274396&hash=item3adf541df8:g:hD0AAOSwAANY66OQ
p81
aVhttp://www.ebay.com/itm/Peco-SL-E89-Streamline-Electrofrog-Large-Radius-Left-Hand-Turnout-OO-HO-Gauge-/351953967495?epid=1504310398&hash=item51f2175987:g:TSAAAOSw5cNYdKFm
p82
a.