(lp0
Vhttp://www.ebay.com/itm/Jerry-Lee-Lewis-Whatd-I-Say-7-London-HLS9335-EX-1960-Whatd-I-Say-Livin-Lovin-/371387609504?hash=item56786d31a0:g:qmgAAOSw5cNYR1wJ
p1
aVhttp://www.ebay.com/itm/CD-RAY-CHARLES-WHATD-I-SAY-24-TRACKS-BRAND-NEW-SEALED-/282062174683?epid=1307697808&hash=item41ac3739db:g:NAIAAOSwvg9XV~7K
p2
aVhttp://www.ebay.com/itm/Ray-Charles-Whatd-I-Say-Japan-Reissue-NEW-CD-/351211711328?epid=1434437111&hash=item51c5d96b60:g:y8sAAOSwF1dUUld1
p3
aVhttp://www.ebay.com/itm/Ray-Charles-Whatd-I-Say-Import-CD-/400848868204?hash=item5d5474536c:g:GYAAAOSwqrtWp1WG
p4
a.