(lp1
Vhttp://www.ebay.com/itm/ROOT-ORNAMENT-Fish-Aqua-Decoration-Driftwood-Bogwood-Reptile-Terrarium-dm-Pet-/152163817150?var=&epid=1377280829&hash=item236dab96be:m:mAbYFPf9a7rZnHxYMRR9KLw
p2
aVhttp://www.ebay.com/itm/MADD-GEAR-MGP-TPR-Stunt-Scooter-Grips-All-Colours-ODI-Root-Industries-/331735869778?var=&hash=item4d3cffa952:m:mCANnry_dYGB5-DP55-fE1A
p3
aVhttp://www.ebay.com/itm/6-x-AQUA-GLOBES-AUTOMATIC-WATERING-BULBS-HOUSE-HANGING-PATIO-PLANTS-ROOTS-SOIL-/152121702841?epid=1212697893&hash=item236b28f9b9:g:UB4AAOSwOgdYwzgE
p4
aVhttp://www.ebay.com/itm/Root-Industries-Scooter-Bike-BMX-Handle-Bar-Grips-/201757655505?var=501782566466&hash=item2ef9b181d1:g:3woAAOSw6DtYW6jf
p5
aVhttp://www.ebay.com/itm/STUNT-SCOOTER-110mm-METAL-CORE-WHEEL-SCS-CLAMP-FORK-GRIPTAPE-GRIP-PEG-HEADSET-/161831728646?var=460804927534&hash=item25adec3606:g:1i4AAOSwFnFV~aO6
p6
aVhttp://www.ebay.com/itm/8-x-AQUA-GLOBES-AUTOMATIC-WATERING-BULBS-HOUSE-HANGING-PATIO-PLANTS-ROOTS-SOIL-/152121704108?epid=1212697893&hash=item236b28feac:g:bzoAAOSwSlBYwzYm
p7
aVhttp://www.ebay.com/itm/10x-AQUA-GLOBES-AUTOMATIC-WATERING-BULBS-HOUSE-HANGING-PATIO-PLANTS-ROOTS-SOIL-/152597800272?epid=1212697893&hash=item238789a550:g:bzoAAOSwSlBYwzYm
p8
a.