(lp0
Vhttp://www.ebay.com/itm/hard-case-cover-for-lg-google-nexus-5x-abbreviate-/252355513812?hash=item3ac18f8dd4:g:ajcAAOSw3mpXD6WK
p1
aVhttp://www.ebay.com/itm/beau-design-case-cover-fits-lg-google-nexus-5x-abbreviate-/252444199033?hash=item3ac6d8c879:g:FfIAAOSwOVpXdOVy
p2
aVhttp://www.ebay.com/itm/SchutzHulle-tasche-case-fur-die-meisten-Handys-abbreviate-/252238803055?var=&hash=item3aba9ab06f:m:mADhTV6BRc1p0lrfAR8l-SQ
p3
aVhttp://www.ebay.com/itm/pu-leather-pouch-case-for-doro-liberto-820-abbreviate-/262348896846?hash=item3d15367a4e:g:Y-oAAOSwxp9W8oI2
p4
aVhttp://www.ebay.com/itm/pictured-printed-case-cover-for-apple-iphone-6s-plus-mobiles-z54-ref-/262346101951?var=&hash=item3d150bd4bf:m:mo_lM-3dU4JuBDaPsKuJsyg
p5
a.