(lp1
Vhttp://www.ebay.com/itm/Fast-Track-Harmonica-Songbook-1-Music-Book-CD-Beatles-Kinks-Stones-Dylan-Clapton-/271709354325?epid=1828766190&hash=item3f4323b955:g:FEMAAOSws65TqEYH
p2
aVhttp://www.ebay.com/itm/Bob-Marley-for-Ukulele-Chord-Melody-Songbook-Music-Book-/401355039433?epid=1637443237&hash=item5d729fe2c9:g:R7UAAOSwmrlUvohI
p3
aVhttp://www.ebay.com/itm/Oasis-The-Little-Black-Songbook-Guitar-Chords-Lyrics-Music-Song-Book-/272737832344?epid=1493221054&hash=item3f80710d98:m:mG5DjN_ctnY4lwGMJLl9tLg
p4
aVhttp://www.ebay.com/itm/Leonard-Cohen-The-Little-Black-Songbook-Guitar-Chord-Lyrics-Music-Song-Book-/272715630260?hash=item3f7f1e46b4:m:mZAbQgnrf4HpEVTbfOrGYCQ
p5
aVhttp://www.ebay.com/itm/The-6-Chord-Songbook-of-Great-Ukulele-Songs-/331191432841?epid=1727742787&hash=item4d1c8c3689:g:UQoAAMXQDnpTYvGd
p6
aVhttp://www.ebay.com/itm/Ed-Sheeran-Strum-and-Sing-Guitar-Vocal-Chord-Songbook-A-Team-Lego-House-Sing-One-/272458890779?hash=item3f6fd0be1b:g:BMAAAOSwlfxXGJDr
p7
aVhttp://www.ebay.com/itm/Great-Songs-for-the-5-String-Banjo-Chord-Songbook-/400805828372?epid=1924682307&hash=item5d51e39714:g:iOEAAOxyrM5TGbZn
p8
aVhttp://www.ebay.com/itm/Pop-Rock-The-Little-Black-Songbook-Guitar-Chords-Lyrics-Music-Song-Book-/332134301942?hash=item4d54bf40f6:m:mfZmmRdRac4NJFJ1AGU8P4w
p9
aVhttp://www.ebay.com/itm/Recorder-Fun-Frozen-Songbook-Music-Book-WITH-INSTRUMENT-/272480155562?epid=1637938485&hash=item3f711537aa:g:jTYAAOSwstxVNR7e
p10
aVhttp://www.ebay.com/itm/MADNESS-ROCK-GUITAR-TAB-TABLATURE-SONG-BOOK-LIBRARY-SOFTWARE-CD-/142050130089?hash=item2112d8f8a9:g:GskAAOSwddNXgYfK
p11
aVhttp://www.ebay.com/itm/Really-Easy-Piano-Love-Songs-Sheet-Music-Book-Songbook-23-Classic-Love-Songs-/272644964215?hash=item3f7ae7ff77:g:RzsAAOSw6EhUUOdV
p12
aVhttp://www.ebay.com/itm/Ukulele-From-The-Beginning-Songbook-Pupils-Book-Music-Book-Learn-To-Play-/401242798224?hash=item5d6bef3890:g:pCEAAOSwB9xXOy8g
p13
aVhttp://www.ebay.com/itm/The-Six-Chord-Songbook-Great-Indie-Rock-Songs-/331413793103?hash=item4d29cd294f:g:mvIAAOSwfcVUIu7d
p14
aVhttp://www.ebay.com/itm/PAT-METHENY-JAZZ-GUITAR-PIANO-TABS-TABLATURE-SONG-BOOK-SOFTWARE-CD-/141714240126?epid=922180952&hash=item20fed3b27e:g:e9sAAOSw-vlVnjkz
p15
aVhttp://www.ebay.com/itm/Ed-Sheeran-Divide-Songbook-Piano-Vocal-Guitar-Sheet-Music-9781495093654-/232351055515?hash=item361933be9b:g:9AEAAOSwlY1ZKZdL
p16
aVhttp://www.ebay.com/itm/260-CLASSIC-70s-ROCK-GUITAR-TABS-TABLATURE-SONG-BOOK-SOFTWARE-CD-/132238104323?hash=item1eca015703:g:fN4AAOSw6ShZToDl
p17
aVhttp://www.ebay.com/itm/The-Little-Black-Book-of-3-Chord-Songs-Guitar-Chord-Songbook-/401320751580?hash=item5d7094b1dc:g:CWEAAOSwU9xUUnSA
p18
aVhttp://www.ebay.com/itm/4-Chord-Songbook-The-Beatles-Guitar-Chord-Song-Book-with-Lyrics-60s-Pop-/332253556805?hash=item4d5bdaf045:m:mG06P0JPGyCMmLvupVJ4kmA
p19
aVhttp://www.ebay.com/itm/PAPA-ROACH-INFEST-Guitar-TAB-Vocal-Sheet-Music-Book-Songbook-Shop-Soiled-Cover-/192219366028?epid=1178946154&hash=item2cc12ac28c:g:xc8AAOSwq~tZRAMb
p20
aVhttp://www.ebay.com/itm/Acoustic-Hit-Songs-The-Little-Black-Songbook-Guitar-Chords-Lyrics-Music-Book-/401351384776?hash=item5d72681ec8:m:mRz_kGLeem-zhtXJDaqasyw
p21
aVhttp://www.ebay.com/itm/JustinGuitar-com-Beginners-Songbook-Volume-2-Chord-Songbook-Spiral-Bound-/401198109774?hash=item5d6945544e:g:qoMAAOSwwPhWjjf8
p22
aVhttp://www.ebay.com/itm/RADIOHEAD-HAIL-TO-THE-THIEF-Guitar-TAB-Sheet-Music-Book-Vocal-Songbook-S-Soiled-/201926964232?epid=1384972459&hash=item2f03c8f408:g:hkEAAOSw5cRZHEQL
p23
aVhttp://www.ebay.com/itm/JOHN-LENNON-GUITAR-PIANO-TAB-TABLATURE-SONG-BOOK-SOFTWARE-CD-/141808619304?hash=item210473cf28:g:O64AAOSwAYtWKQXD
p24
aVhttp://www.ebay.com/itm/UFO-HEAVY-ROCK-GUITAR-TAB-TABLATURE-SONG-BOOK-SOFTWARE-CD-/141811074878?hash=item210499473e:g:0HMAAOSwo0JWLMr-
p25
aVhttp://www.ebay.com/itm/60s-70s-80s-90s-1200-TABLATURE-TAB-ROCK-POP-GUITAR-SONG-BOOK-CD-SOFTWARE-/141349764112?epid=1788625846&hash=item20e91a3c10:g:-YYAAOSw9N1V0m4~
p26
aVhttp://www.ebay.com/itm/KASABIAN-ROCK-GUITAR-TAB-TABLATURE-SONG-BOOK-TUITION-SOFTWARE-CD-/131573257183?hash=item1ea26093df:g:N8QAAOSwDNdVxJOR
p27
aVhttp://www.ebay.com/itm/DANGER-DANGER-GLAM-METAL-HEAVY-ROCK-GUITAR-TAB-TABLATURE-SONG-BOOK-SOFTWARE-CD-/132224923432?hash=item1ec9383728:g:7MkAAOSwd~RZPxIr
p28
aVhttp://www.ebay.com/itm/Joe-Pass-Virtuoso-Standards-Songbook-Collection-Jazz-Guitar-TAB-Music-Book-/332204958225?epid=1030994298&hash=item4d58f56211:g:7esAAMXQKLdRzMvT
p29
aVhttp://www.ebay.com/itm/AUDIOSLAVE-ROCK-GUITAR-TAB-TABLATURE-SONG-BOOK-TUITION-SOFTWARE-CD-/142011177987?hash=item2110869c03:g:jQMAAOSwdj9XTt0T
p30
aVhttp://www.ebay.com/itm/The-3-Chord-Songbook-Book-1-Guitar-Music-Song-Book-/401364917941?hash=item5d73369eb5:g:gIIAAOSwPYZU~bVz
p31
aVhttp://www.ebay.com/itm/GREATEST-COUNTRY-GUITAR-TAB-COLLECTION-TABLATURE-SONG-BOOK-SOFTWARE-CD-/131545694741?epid=691797702&hash=item1ea0bc0215:g:OWMAAOSwyQtVkBCA
p32
aVhttp://www.ebay.com/itm/The-Little-Black-Book-of-The-Blues-Guitar-Chord-Songbook-Music-Book-/401254213871?hash=item5d6c9d68ef:m:m9YoNWdiJtqzt16QhgVUsNQ
p33
aVhttp://www.ebay.com/itm/60s-Hits-The-Little-Black-Songbook-Guitar-Chords-Lyrics-Music-Song-Book-/401324754463?hash=item5d70d1c61f:m:m9MJPoKudTSZV908FT7PvZg
p34
aVhttp://www.ebay.com/itm/101-Hits-for-Ukulele-The-Red-Book-Chord-Melody-Songbook-/401339078190?hash=item5d71ac562e:g:v84AAOSwZjJU21BR
p35
aVhttp://www.ebay.com/itm/The-3-Chord-Songbook-Book-2-Guitar-Music-Song-Book-/401288815675?hash=item5d6ead643b:g:CTQAAOSwZjJU~bVx
p36
aVhttp://www.ebay.com/itm/101-Hits-for-Ukulele-The-Blue-Book-Melody-Lyrics-Chord-Songbook-/332223381936?hash=item4d5a0e81b0:g:8X0AAOSw7ThUgI8S
p37
aVhttp://www.ebay.com/itm/101-Acoustic-Hits-for-Buskers-Guitar-Keyboard-Music-Book-Chord-Melody-Songbook-/332188326640?hash=item4d57f79af0:g:FLwAAOSwcvdXO3h6
p38
aVhttp://www.ebay.com/itm/The-5-Chord-Songbook-of-Great-Ukulele-Songs-/331191432905?hash=item4d1c8c36c9:g:8tkAAMXQeW5TYvGZ
p39
aVhttp://www.ebay.com/itm/David-Bowie-The-Little-Black-Songbook-Guitar-Chord-Music-Book-Learn-Strum-Play-/271712715062?epid=1587878731&hash=item3f43570136:m:mcBmleDh9bgKWO9kJDhfGPA
p40
aVhttp://www.ebay.com/itm/Really-Easy-Piano-ABBA-Sheet-Music-Book-Songbook-25-Great-Pop-Hits-/401324753996?epid=725658494&hash=item5d70d1c44c:g:0y0AAOSwEppUUOdk
p41
aVhttp://www.ebay.com/itm/John-Lennon-Guitar-TAB-Anthology-Music-Book-Songbook-/272574900293?epid=1337244649&hash=item3f76bae845:g:ozgAAOSw-jhUCcwO
p42
aVhttp://www.ebay.com/itm/Leonard-Cohen-Chord-Songbook-Guitar-Sheet-Music-Book-Best-Of-Greatest-Hits-NEW-/262773603423?epid=510839236&hash=item3d2e86fc5f:g:n7EAAOSweW5Vd1Gh
p43
aVhttp://www.ebay.com/itm/BRYAN-ADAMS-ROCK-GUITAR-TAB-TABLATURE-SONG-BOOK-SOFTWARE-CD-/141695206885?hash=item20fdb145e5:g:b3wAAOSw2VJVgMaU
p44
aVhttp://www.ebay.com/itm/Leonard-Cohen-Chord-Songbook-Guitar-Sheet-Music-Book-Best-Of-Greatest-Hits-NEW-/262773603423?epid=510839236&hash=item3d2e86fc5f:g:n7EAAOSweW5Vd1Gh
p45
aVhttp://www.ebay.com/itm/BRYAN-ADAMS-ROCK-GUITAR-TAB-TABLATURE-SONG-BOOK-SOFTWARE-CD-/141695206885?hash=item20fdb145e5:g:b3wAAOSw2VJVgMaU
p46
aVhttp://www.ebay.com/itm/DEICIDE-DEATH-METAL-ROCK-GUITAR-TAB-TABLATURE-SONG-BOOK-SOFTWARE-CD-/132025496872?hash=item1ebd553528:g:u0wAAOSwa~BYReVc
p47
aVhttp://www.ebay.com/itm/STEELY-DAN-ROCK-GUITAR-TAB-TABLATURE-SONG-BOOK-SOFTWARE-CD-/141974754886?hash=item210e5ad646:g:SWMAAOSw~oFXIghh
p48
aVhttp://www.ebay.com/itm/Coldplay-Mylo-Xyloto-Guitar-TAB-Sheet-Music-Book-Songbook-Learn-to-Play-Songs-/330640107818?hash=item4cfbafa92a:m:mGlegIELu-xxrWMHfw42xuQ
p49
aVhttp://www.ebay.com/itm/Johnny-Cash-The-Little-Black-Songbook-Guitar-Chords-Lyrics-Music-Song-Book-/401296793876?hash=item5d6f272114:m:mrAB8Gh1HxQweS4Wb-N15cQ
p50
aVhttp://www.ebay.com/itm/RORY-GALLAGHER-BLUES-ROCK-GUITAR-TAB-TABLATURE-SONG-BOOK-SOFTWARE-CD-BEST-OF-/131243856581?epid=0&hash=item1e8ebe52c5:g:w7kAAOxyUylTRyLa
p51
aVhttp://www.ebay.com/itm/The-ABRSM-Songbook-1-Vocal-Music-Book-2CDs-Selected-Pieces-Traditional-Songs-/272451679061?epid=1205499293&hash=item3f6f62b355:g:H6AAAOSwk0pVgBNq
p52
aVhttp://www.ebay.com/itm/songbook-HALL-OATES-hot-songs-/162007858717?hash=item25b86bbe1d:g:f7oAAOSwAuNW6DbJ
p53
aVhttp://www.ebay.com/itm/Ukulele-from-the-Beginning-Christmas-Songbook-Chord-Melody-Music-Book-/272485624649?epid=1417209559&hash=item3f7168ab49:g:8F4AAOxyffZSVXQ0
p54
aVhttp://www.ebay.com/itm/GARY-MOORE-ROCK-GUITAR-TAB-TABLATURE-SONG-BOOK-ANTHOLOGY-SOFTWARE-CD-/141352386234?epid=702905274&hash=item20e9423eba:g:QEgAAOSwU-pXqxQd
p55
aVhttp://www.ebay.com/itm/Justinguitar-com-Beginners-Songbook-Justin-Sandercoe-2nd-Edition-Spiral-Bound-/401233975665?hash=item5d6b689971:g:vloAAOxyMxpRpbZZ
p56
aVhttp://www.ebay.com/itm/AC-DC-ROCK-GUITAR-TABS-TABLATURE-SONG-BOOK-ANTHOLOGY-SOFTWARE-CD-/141352375841?epid=1888499834&hash=item20e9421621:g:RxYAAOSwyQtV2PYD
p57
aVhttp://www.ebay.com/itm/The-Little-Black-Book-of-4-Chord-Songs-Guitar-Chords-Lyrics-Music-Songbook-/332206734930?hash=item4d59107e52:m:mRakco9ACeEKnsiNp8hzkuQ
p58
aVhttp://www.ebay.com/itm/AEROSMITH-ROCK-GUITAR-TAB-TABLATURE-SONG-BOOK-ANTHOLOGY-SOFTWARE-CD-/131461226861?epid=0&hash=item1e9bb3216d:g:wrQAAOSw34FVDMQU
p59
aVhttp://www.ebay.com/itm/THIN-LIZZY-ROCK-GUITAR-TAB-TABLATURE-SONG-BOOK-ANTHOLOGY-SOFTWARE-CD-/141352406951?epid=0&hash=item20e9428fa7:g:dp0AAOSwd4tTyuDe
p60
aVhttp://www.ebay.com/itm/THREE-DAYS-GRACE-ROCK-GUITAR-TAB-TABLATURE-SONG-BOOK-SOFTWARE-LIBRARY-CD-/131772524657?hash=item1eae412871:g:nqUAAOSwSzdXA5vb
p61
aVhttp://www.ebay.com/itm/MARILLION-PROGRESSIVE-ROCK-GUITAR-TAB-TABLATURE-SONG-BOOK-ANTHOLOGY-SOFTWARE-CD-/141691196270?hash=item20fd74136e:g:AA8AAOSwpdpVeqKa
p62
aVhttp://www.ebay.com/itm/STONE-SOUR-ROCK-METAL-GUITAR-TAB-TABLATURE-SONG-BOOK-SOFTWARE-CD-/131880015499?hash=item1eb4a9568b:g:wosAAOSwRgJXi1hA
p63
aVhttp://www.ebay.com/itm/The-Don-McLean-Songbook-Guitar-TAB-Music-Book-American-Pie-Vincent-Circus-Song-/401327885599?hash=item5d71018d1f:g:l6AAAOSw8HBZGbGT
p64
aVhttp://www.ebay.com/itm/songbook-Hot-Songs-QUEEN-Book-1-2-/360674860800?hash=item53f9e59f00:g:OxcAAOxyVX1Rt0E2
p65
aVhttp://www.ebay.com/itm/LED-ZEPPELIN-ROCK-GUITAR-TAB-TABLATURE-SONG-BOOK-ANTHOLOGY-SOFTWARE-CD-/131244120214?hash=item1e8ec25896:g:lz0AAOSwBahVWLHT
p66
aVhttp://www.ebay.com/itm/Jason-Mraz-Easy-Guitar-TAB-Music-Book-Songbook-/400758040527?hash=item5d4f0a67cf:g:3tcAAOxyf1dTJslu
p67
aVhttp://www.ebay.com/itm/JOHN-DENVER-FOLK-COUNTRY-GUITAR-TAB-TABLATURE-SONG-BOOK-SOFTWARE-CD-/131634843202?hash=item1ea60c4e42:g:9N8AAOSwAYtWKMeS
p68
aVhttp://www.ebay.com/itm/Justinguitar-Rock-Songbook-Guitar-TAB-Chord-Songbook-by-Justin-Sandercoe-/332140994529?hash=item4d55255fe1:g:KCEAAOxy9tpR9mUq
p69
aVhttp://www.ebay.com/itm/WEEZER-ROCK-GUITAR-TAB-TABLATURE-SONG-BOOK-SOFTWARE-CD-/131638106765?hash=item1ea63e1a8d:g:NxoAAOSwwbdWLnF2
p70
aVhttp://www.ebay.com/itm/The-Little-Black-Book-of-Classic-Songs-for-Ukulele-Chord-Songbook-80-Pop-Songs-/332262438253?hash=item4d5c62756d:g:YpEAAMXQI5tRgprs
p71
aVhttp://www.ebay.com/itm/4-Chord-Songbook-Bob-Dylan-Easy-Guitar-Chord-Song-Book-/332294133334?epid=90860660&hash=item4d5e461656:g:KI4AAOxywFhTcd6-
p72
aVhttp://www.ebay.com/itm/The-Sound-of-Music-Recorder-Songbook-Sheet-Music-Book-Rodgers-Hammerstein-/401284014282?epid=1727949029&hash=item5d6e6420ca:g:VOcAAOSw4A5YttSP
p73
aVhttp://www.ebay.com/itm/311-ROCK-GUITAR-TAB-TABLATURE-SONG-BOOK-ANTHOLOGY-TUITION-SOFTWARE-CD-/142377109578?hash=item212656484a:g:Al0AAOSwjqVZENSF
p74
aVhttp://www.ebay.com/itm/BEST-OF-TRAIN-Guitar-TAB-Tablature-Vocal-Music-Book-Songbook-Shop-Soiled-Cover-/201961908922?hash=item2f05de2aba:g:mfEAAOSw-89ZS82E
p75
aVhttp://www.ebay.com/itm/Favorite-Accordion-Solos-Music-Book-Songbook-/330534526680?hash=item4cf5649ed8:m:mQMaFFbLdDK5gSI7BfvoGTw
p76
aVhttp://www.ebay.com/itm/THE-CULT-HEAVY-ROCK-GUITAR-TAB-TABLATURE-SONG-BOOK-SOFTWARE-LIBRARY-CD-/141662708730?hash=item20fbc163fa:g:yIIAAOSwv0tVT4XK
p77
aVhttp://www.ebay.com/itm/More-Acoustic-Hits-The-Little-Black-Songbook-Guitar-Chord-Music-Song-Book-/272617948148?hash=item3f794bc3f4:m:mxzoHBMkAWSiohLtnPdoZrQ
p78
aVhttp://www.ebay.com/itm/The-Complete-Keyboard-Player-Songbook-2-NEW-2014-EDITION-Sheet-Music-Book-/332100533395?hash=item4d52bbfc93:g:docAAOxyYSdS~PFv
p79
aVhttp://www.ebay.com/itm/The-Little-Black-Book-of-Acoustic-Songs-for-Ukulele-Chord-Songbook-/332047760096?hash=item4d4f96bae0:g:eIoAAOxydgZTGbZb
p80
aVhttp://www.ebay.com/itm/SUNGHA-JUNG-FINGERSTYLE-GUITAR-TAB-TABLATURE-SONG-BOOK-SOFTWARE-CD-/131646780305?hash=item1ea6c27391:g:sPgAAOSwu-BWPges
p81
aVhttp://www.ebay.com/itm/Oasis-Chord-Songbook-Guitar-Sheet-Music-Book-Play-The-Best-Of-Greatest-Hits-NEW-/371533228880?epid=1189022836&hash=item56811b2b50:g:EaUAAOSwpDdVAIJ9
p82
aVhttp://www.ebay.com/itm/Movie-Themes-Of-John-Williams-Film-Sheet-Music-Book-Songbook-Solo-Piano-Best-Of-/201907570818?hash=item2f02a10882:g:jTMAAOxyLm9TDeq3
p83
aVhttp://www.ebay.com/itm/The-Little-Black-Book-of-Beatles-Songs-for-Ukulele-Chord-Songbook-/272603377070?hash=item3f786d6dae:g:hnIAAOxyni9TBIOE
p84
aVhttp://www.ebay.com/itm/Glen-Hansard-Guitar-Songbook-TAB-Chord-Melody-Music-Book-/271346350048?epid=1436770466&hash=item3f2d80b7e0:g:CEwAAOxy4c5Rtdi5
p85
aVhttp://www.ebay.com/itm/DUANE-EDDY-ROCK-N-ROLL-ROCK-GUITAR-TAB-TABLATURE-SONG-BOOK-SOFTWARE-CD-/131760369353?hash=item1ead87aec9:g:824AAOSwzvlW8ock
p86
aVhttp://www.ebay.com/itm/Glen-Hansard-Guitar-Songbook-TAB-Chord-Melody-Music-Book-/271346350048?epid=1436770466&hash=item3f2d80b7e0:g:CEwAAOxy4c5Rtdi5
p87
aVhttp://www.ebay.com/itm/DUANE-EDDY-ROCK-N-ROLL-ROCK-GUITAR-TAB-TABLATURE-SONG-BOOK-SOFTWARE-CD-/131760369353?hash=item1ead87aec9:g:824AAOSwzvlW8ock
p88
aVhttp://www.ebay.com/itm/First-50-Rock-Songs-You-Should-Play-on-Electric-Guitar-TAB-Music-Chord-Songbook-/272657611019?epid=1937818790&hash=item3f7ba8f90b:g:uW4AAOSwEeFU~vEg
p89
aVhttp://www.ebay.com/itm/ADELE-25-Ukulele-Chord-Lyrics-Sheet-Music-Book-Hello-Learn-To-Play-Songbook-/371611618957?epid=1489191197&hash=item5685c74e8d:g:tmUAAOSw1DtXIi-G
p90
aVhttp://www.ebay.com/itm/JIMI-HENDRIX-ROCK-GUITAR-TAB-TABLATURE-SONG-BOOK-ANTHOLOGY-SOFTWARE-LIBRARY-CD-/141349462321?epid=0&hash=item20e915a131:g:GcsAAOSw~OdVWhbV
p91
aVhttp://www.ebay.com/itm/TESLA-HARD-METAL-ROCK-GUITAR-TAB-TABLATURE-SONG-BOOK-SOFTWARE-CD-/141822830396?hash=item21054ca73c:g:1JQAAOSw5ZBWP1WX
p92
aVhttp://www.ebay.com/itm/Hits-of-the-Year-Guitar-Chord-Songbook-2015-Sia-James-Bay-Sam-Smith-Ed-Sheeran-/332066977020?hash=item4d50bbf4fc:g:cRcAAOSwQoFWOyeu
p93
aVhttp://www.ebay.com/itm/RADIOHEAD-AMNESIAC-Guitar-TAB-Vocal-Sheet-Music-Book-Songbook-Shop-Soiled-Cover-/192220872174?hash=item2cc141bdee:g:JeEAAOSwi8VZRiez
p94
aVhttp://www.ebay.com/itm/140-x-JAZZ-GUITAR-TABS-COLLECTION-TABLATURE-SONG-BOOK-SOFTWARE-LIBRARY-CD-/131898170712?epid=16002857064&hash=item1eb5be5d58:g:1ygAAOSwnQhXol8L
p95
aVhttp://www.ebay.com/itm/The-Ukulele-Rock-Playlist-Black-Book-Book-31-Classics-Uke-Chord-Songbook-Strum-/272442482175?hash=item3f6ed65dff:m:m5I8fTRD63RHunzwZKBJLxw
p96
aVhttp://www.ebay.com/itm/Easy-Songs-for-Mandolin-Hal-Leonard-Method-Pop-Blues-Folk-Bluegrass-Songbook-CD-/400792712498?hash=item5d511b7532:m:mdlir6-24ojF1ZO7PToTbow
p97
aVhttp://www.ebay.com/itm/George-Formby-Songbook-Piano-Vocal-Ukulele-Sheet-Music-Book-Chord-Songbook-/272737832518?hash=item3f80710e46:m:m6ZOrj4pzfMzqUhZtr6s1Lw
p98
aVhttp://www.ebay.com/itm/Keyboard-from-the-Beginning-Songbook-Very-Easy-Music-Book-/401287326449?hash=item5d6e96aaf1:g:wEIAAOSwv0tVOj-0
p99
aVhttp://www.ebay.com/itm/Nursery-Rhyme-Songbook-Easy-Piano-Guitar-Vocal-Sheet-Music-Book-Childrens-Songs-/201749787714?hash=item2ef9397442:g:SU4AAOxy63FTAdXb
p100
aVhttp://www.ebay.com/itm/songbook-COLDPLAY-Parachutes-/361239811639?hash=item541b921637:g:TIkAAOSw34FVAZuL
p101
aVhttp://www.ebay.com/itm/Neil-Young-Decade-Piano-Chord-Songbook-/331091094695?hash=item4d16912ca7:g:lWUAAOxy06hSF27K
p102
aVhttp://www.ebay.com/itm/Bob-Dylan-The-Little-Black-Songbook-Revised-Edition-Guitar-Chord-Book-100-Songs-/401306661459?epid=504584058&hash=item5d6fbdb253:g:sr0AAOSwuTxV-Uun
p103
aVhttp://www.ebay.com/itm/BON-JOVI-ROCK-GUITAR-TAB-TABLATURE-SONG-BOOK-ANTHOLOGY-TUITION-SOFTWARE-CD-/141369387888?hash=item20ea45ab70:g:3LAAAOSwEK9T4mFE
p104
aVhttp://www.ebay.com/itm/songbook-THE-LIBERTINES-TAB-/162007863690?hash=item25b86bd18a:g:XvgAAOSwoBtW6Dji
p105
aVhttp://www.ebay.com/itm/THE-BEATLES-ROCK-POP-GUITAR-TAB-TABLATURE-SONG-BOOK-TUITION-SOFTWARE-CD-/141349465599?hash=item20e915adff:g:gioAAOSw3ydV03h7
p106
aVhttp://www.ebay.com/itm/VAN-MORRISON-ROCK-GUITAR-TAB-TABLATURE-SONG-BOOK-CD-/131639005951?hash=item1ea64bd2ff:g:2xEAAOSwA4dWL~nj
p107
aVhttp://www.ebay.com/itm/WINGER-GLAM-HEAVY-ROCK-GUITAR-TAB-TABLATURE-SONG-BOOK-SOFTWARE-CD-/141879002789?hash=item2108a5c6a5:g:yXkAAOSwLnlWmlDZ
p108
aVhttp://www.ebay.com/itm/HEART-ROCK-GUITAR-TAB-TABLATURE-SONG-BOOK-SOFTWARE-CD-/141807877918?hash=item2104687f1e:g:9mQAAOSwYHxWJ~O1
p109
aVhttp://www.ebay.com/itm/First-50-Rock-Songs-You-Should-Play-on-Electric-Guitar-TAB-Music-Chord-Songbook-/272657611019?epid=1937818790&hash=item3f7ba8f90b:g:uW4AAOSwEeFU~vEg
p110
aVhttp://www.ebay.com/itm/Bob-Marley-4-Chord-Songbook-Guitar-Sheet-Music-Book-NEW-Best-Of-Greatest-Hits-/371612409941?hash=item5685d36055:g:0TkAAOSwEK9ULWqH
p111
aVhttp://www.ebay.com/itm/FEEDER-PUSHING-THE-SENSES-Guitar-TAB-Sheet-Music-Book-Songbook-Vocal-Shop-Soiled-/192194934277?hash=item2cbfb5f605:g:s~sAAOSw1WJZI~GV
p112
aVhttp://www.ebay.com/itm/The-Kinks-Chord-Songbook-Guitar-Sheet-Music-Book-Learn-Best-Of-Greatest-Hits-/370511126609?epid=1031312779&hash=item56442f2051:g:XUoAAOSweW5VeDig
p113
aVhttp://www.ebay.com/itm/STRAY-CATS-ROCKABILLY-ROCK-GUITAR-TAB-TABLATURE-SONG-BOOK-CD-/131761688356?hash=item1ead9bcf24:g:bWcAAOSwxcRW9GPU
p114
aVhttp://www.ebay.com/itm/WITHIN-TEMPTATION-ROCK-GUITAR-TAB-TABLATURE-SONG-BOOK-SOFTWARE-CD-/132195603096?hash=item1ec778d298:g:kzcAAOSwq1JZHMAk
p115
aVhttp://www.ebay.com/itm/101-Acoustic-Hits-for-Buskers-Guitar-Keyboard-Music-Book-Chord-Melody-Songbook-/332188326640?hash=item4d57f79af0:g:FLwAAOSwcvdXO3h6
p116
aVhttp://www.ebay.com/itm/570x-ROCK-GUITAR-TAB-TABLATURE-SONG-BOOK-LIBRARY-SOFTWARE-CD-/131248066288?hash=item1e8efe8ef0:g:aXoAAOSwHnFV03IO
p117
aVhttp://www.ebay.com/itm/The-Little-Black-Book-of-Solid-Gold-Hits-Guitar-Chord-Songbook-/271427548154?hash=item3f3257b3fa:g:A0UAAMXQRPRTJslq
p118
aVhttp://www.ebay.com/itm/STATUS-QUO-ROCK-GUITAR-TAB-TABLATURE-SONG-BOOK-ANTHOLOGY-SOFTWARE-TUITION-CD-/141349509717?hash=item20e9165a55:g:9mUAAOSwLVZV2Nq0
p119
aVhttp://www.ebay.com/itm/THE-BEATLES-HITS-FOR-GUITAR-6-CHORD-EASY-SONGBOOK-Chords-Lyrics-Music-Song-Book-/191988218685?hash=item2cb363bb3d:g:1tsAAOSwrklVbYTB
p120
aVhttp://www.ebay.com/itm/songbook-NIRVANA-unplugged-in-new-york-1995-guitar-edition-/162016153385?hash=item25b8ea4f29:g:UdgAAOSwAvJW8rIl
p121
aVhttp://www.ebay.com/itm/CHILDRENS-CHRISTMAS-SONGBOOK-Piano-Vocal-Guitar-Music-Book-Carols-Songs-Recipes-/201742443462?hash=item2ef8c963c6:g:FXcAAOSw~bFWFnHK
p122
aVhttp://www.ebay.com/itm/JOHNNY-CASH-FOR-GUITAR-SONG-BOOK-SHEET-MUSIC-CHORD-BOOK-BEST-OF-/192049125639?hash=item2cb7051907:g:WoEAAOSwstxU5NRV
p123
aVhttp://www.ebay.com/itm/Fast-Track-Ukulele-Songbook-1-TAB-Music-Book-and-Audio-Green-Day-Snow-Patrol-Uke-/331998612957?hash=item4d4ca8cddd:g:RTcAAOSwCGVX~2aw
p124
aVhttp://www.ebay.com/itm/AMERICA-ROCK-GUITAR-TAB-TABLATURE-SONG-BOOK-TUITION-SOFTWARE-CD-/141979210269?hash=item210e9ed21d:g:uq8AAOSw2GlXJz5x
p125
aVhttp://www.ebay.com/itm/NIRVANA-FOR-BASS-GUITAR-TAB-Standard-Notation-Sheet-Music-Book-Songbook-Songs-/192045682745?hash=item2cb6d09039:g:pKUAAOSwG-1WyarE
p126
aVhttp://www.ebay.com/itm/HELLOWEEN-HEAVY-METAL-ROCK-GUITAR-TABS-TABLATURE-SONG-BOOK-SOFTWARE-CD-/131708760039?hash=item1eaa742fe7:g:wPYAAOSwpRRWo2CB
p127
aVhttp://www.ebay.com/itm/The-Waltons-Irish-Songbook-Volume-1-Piano-Vocal-Guitar-Sheet-Music-Book-/331070004024?epid=2126630879&hash=item4d154f5b38:g:9S0AAOSwyjBW3EAI
p128
aVhttp://www.ebay.com/itm/67-BLUES-GUITAR-TABS-TABLATURE-SONG-BOOK-LIBRARY-SOFTWARE-COLLECTION-CD-/141386157358?epid=541838558&hash=item20eb458d2e:g:NagAAOSwQItT-wIH
p129
a.