(lp1
Vhttp://www.ebay.com/itm/Trailer-Boys-sunnyvale-tshirt-/331637410551?var=&hash=item4d37214af7:m:mlke7fe0ACaJE5lz-bxP2yw
p2
aVhttp://www.ebay.com/itm/d-c-fix-Table-PVC-Sunnyvale-City-Scape-Coloured-140cm-x-200cm-/262299413859?hash=item3d12436d63:g:5A0AAOSwB09YNsml
p3
aVhttp://www.ebay.com/itm/Sunnyvale-Noise-Sub-Element-Box-Three-Spool-Five-CD-2007-/291191547905?epid=63074634&hash=item43cc5e6801:g:JyQAAOSwUKxYkQbZ
p4
a.