(lp1
Vhttp://www.ebay.com/itm/Italeri-1-35-Studebaker-US-Truck-with-ZIS-3-Gun-6499-/372005542551?epid=1423965517&hash=item569d421a97:g:DuUAAOSwkttZX1TP
p2
aVhttp://www.ebay.com/itm/STUDEBAKER-1962-1963-GT-HAWK-RHC-RIGHT-HAND-DRIVE-DASH-OVERLAY-SET-NEW-sc-/371466820512?hash=item567d25dba0:m:mKjLRYJBNwRpncSBqcrOK7g&vxp=mtr
p3
a.