(lp1
Vhttp://www.ebay.com/itm/The-Hiding-Place-The-Triumphant-True-Story-of-Corrie-Ten-Boom-9780553256697-/253042024565?epid=91964188&hash=item3aea7ae075:g:uMcAAOSwRvdZZjFJ
p2
aVhttp://www.ebay.com/itm/Pokemon-Card-Darkai-Cresellia-LEGEND-Bottom-Triumphant-100-102-Rare-Holo-/162587334132?hash=item25daf5d5f4:g:38AAAOSw5cNYg33a
p3
aVhttp://www.ebay.com/itm/A-Big-Ask-The-Story-of-Fords-Triumphant-Return-to-Le-Mans-Phillips-David-/391833843823?epid=232680586&hash=item5b3b1df86f:g:J6EAAOSwpONZXovR
p4
a.