(lp1
Vhttp://www.ebay.com/itm/A-Tuneful-Introduction-To-The-Third-Position-Violin-Sheet-Music-/302346354431?epid=1907766775&hash=item46653f3eff:g:JLAAAOSwFJBZPNj0
p2
aVhttp://www.ebay.com/itm/Benger-30-Tuneful-Studies-Solo-Clarinet-SP317-/261656849856?epid=1406165169&hash=item3cebf6adc0:g:I60AAOSw1XdUYEfL
p3
aVhttp://www.ebay.com/itm/The-Tuneful-Tuba-Graded-Studies-for-Eb-Bass-Tuba-Sheet-Music-Book-Stuart-Johnson-/401304123692?epid=1038084929&hash=item5d6f96f92c:g:OX4AAOSw34FVGmnX
p4
aVhttp://www.ebay.com/itm/MACKAY-TUNEFUL-INTRODUCTION-THIRD-POSITION-Violin-/122492250950?epid=870641474&hash=item1c851b6b46:g:MFsAAOSwY3BZFZ0L
p5
aVhttp://www.ebay.com/itm/Neil-Mackay-A-Tuneful-Introduction-to-the-3rd-Position-SB1857-/252345737046?epid=1907766775&hash=item3ac0fa5f56:g:MQYAAOSw5VZXBL-m
p6
aVhttp://www.ebay.com/itm/Vera-Lynn-IF-I-AM-DREAMING-SONGS-OF-THE-TUNEFUL-TWENTIES-/400305540199?epid=111229996&hash=item5d3411cc67:g:JgoAAOxyA7tSZ-sy
p7
aVhttp://www.ebay.com/itm/A-Room-Full-Of-Tuneful-CD-2002-/301244349190?epid=30611338&hash=item46238ffb06:g:XC8AAOSwKrhVelg0
p8
aVhttp://www.ebay.com/itm/TUNEFUL-GRADED-STUDS-VOL1-PRE-GR1-PF-Bradley-Dorothy-FMW-BOE003540-/161302400385?epid=111662251&hash=item258e5f4d81:g:i04AAOSwUdlWhAsX
p9
aVhttp://www.ebay.com/itm/Thirty-Tuneful-Studies-Clarinet-Studies-Clarin-O-Benger-/161766337188?epid=1406165169&hash=item25aa066aa4:g:OIQAAOSwjVVVr4L-
p10
aVhttp://www.ebay.com/itm/Tuneful-Tunes-for-My-Recorder-sheet-music-Dinn-Freda-979022010267-/360828499190?hash=item54030df4f6:g:hwkAAOSwZG9WkBCP
p11
a.