(lp0
Vhttps://www.amazon.co.uk/Freedom-Maladaptive-Daydreaming-Strategies-Fantasizing-ebook/dp/B00GKQJ8E2/ref=sr_1_1/259-4784733-9383658?ie=UTF8&qid=1500121361&sr=8-1&keywords=maladaptive
p1
aVhttps://www.amazon.co.uk/Stinking-Thinking-Maladaptive-Cognitions-Distortions/dp/1491047232/ref=sr_1_2/259-4784733-9383658?ie=UTF8&qid=1500121361&sr=8-2&keywords=maladaptive
p2
aVhttps://www.amazon.co.uk/Maladaptive/dp/B01MT66S5T/ref=sr_1_3/259-4784733-9383658?ie=UTF8&qid=1500121361&sr=8-3&keywords=maladaptive
p3
aVhttps://www.amazon.co.uk/Returning-Reality-Stop-Maladaptive-Daydreaming-ebook/dp/B00LFOJFPQ/ref=sr_1_4/259-4784733-9383658?ie=UTF8&qid=1500121361&sr=8-4&keywords=maladaptive
p4
aVhttps://www.amazon.co.uk/d/Digital-Music/Heal-Maladaptive-Solution/B00AEGJDS0/ref=sr_1_5/259-4784733-9383658?ie=UTF8&qid=1500121361&sr=8-5&keywords=maladaptive
p5
aVhttps://www.amazon.co.uk/dp/B073P7KXKZ/ref=sr_1_6/259-4784733-9383658?ie=UTF8&qid=1500121361&sr=8-6&keywords=maladaptive
p6
aVhttps://www.amazon.co.uk/Narcissim-Machiavellianism-Youth-Implications-Development/dp/1433808455/ref=sr_1_7/259-4784733-9383658?ie=UTF8&qid=1500121361&sr=8-7&keywords=maladaptive
p7
aVhttps://www.amazon.co.uk/Maladaptive-Lover-Original-Mix/dp/B073RLHJHP/ref=sr_1_8/259-4784733-9383658?ie=UTF8&qid=1500121361&sr=8-8&keywords=maladaptive
p8
aVhttps://www.amazon.co.uk/Forgiveness-and-Letting-Go/dp/B06WVC315G/ref=sr_1_9/259-4784733-9383658?ie=UTF8&qid=1500121361&sr=8-9&keywords=maladaptive
p9
aVhttps://www.amazon.co.uk/Early-maladaptive-schemas-anxious-ambivalent-attachment-ebook/dp/B009NZG2GE/ref=sr_1_10/259-4784733-9383658?ie=UTF8&qid=1500121361&sr=8-10&keywords=maladaptive
p10
aVhttps://www.amazon.co.uk/Maladaptive-Lover-Midnight-Operator-Remix/dp/B073RKWM4C/ref=sr_1_11/259-4784733-9383658?ie=UTF8&qid=1500121361&sr=8-11&keywords=maladaptive
p11
aVhttps://www.amazon.co.uk/dp/B073P6Z6VX/ref=sr_1_12/259-4784733-9383658?ie=UTF8&qid=1500121361&sr=8-12&keywords=maladaptive
p12
aVhttps://www.amazon.co.uk/Introduction-Maladaptive-Daydreaming-Pen-ebook/dp/B00H0MC6OE/ref=sr_1_13/259-4784733-9383658?ie=UTF8&qid=1500121361&sr=8-13&keywords=maladaptive
p13
aVhttps://www.amazon.co.uk/Maladaptive-Expressive-Suppression/dp/B00I8CY0HG/ref=sr_1_14/259-4784733-9383658?ie=UTF8&qid=1500121361&sr=8-14&keywords=maladaptive
p14
aVhttps://www.amazon.co.uk/bigo-Speed-Reading/dp/B008026CCK/ref=sr_1_15/259-4784733-9383658?ie=UTF8&qid=1500121361&sr=8-15&keywords=maladaptive
p15
aVhttps://www.amazon.co.uk/Mal-adaptive-Mike-Burton-ebook/dp/B01N4NR5MB/ref=sr_1_16/259-4784733-9383658?ie=UTF8&qid=1500121361&sr=8-16&keywords=maladaptive
p16
aVhttps://www.amazon.co.uk/dp/B073W3HS17/ref=sr_1_17/259-4784733-9383658?ie=UTF8&qid=1500121363&sr=8-17&keywords=maladaptive
p17
aVhttps://www.amazon.co.uk/dp/B073P6T38W/ref=sr_1_18/259-4784733-9383658?ie=UTF8&qid=1500121363&sr=8-18&keywords=maladaptive
p18
aVhttps://www.amazon.co.uk/Maladaptive-Bind-Novel-Sarah-Seeley-ebook/dp/B00FMJIQA0/ref=sr_1_19/259-4784733-9383658?ie=UTF8&qid=1500121363&sr=8-19&keywords=maladaptive
p19
aVhttps://www.amazon.co.uk/dp/B06XJFM972/ref=sr_1_20/259-4784733-9383658?ie=UTF8&qid=1500121363&sr=8-20&keywords=maladaptive
p20
aVhttps://www.amazon.co.uk/Abnormal-Psychology-Problem-Maladaptive-Behaviour/dp/0130801860/ref=sr_1_21/259-4784733-9383658?ie=UTF8&qid=1500121363&sr=8-21&keywords=maladaptive
p21
aVhttps://www.amazon.co.uk/Maladaptive-2Kija/dp/B01MR34AOT/ref=sr_1_22/259-4784733-9383658?ie=UTF8&qid=1500121363&sr=8-22&keywords=maladaptive
p22
aVhttps://www.amazon.co.uk/Treatment-Management-Maladaptive-Schemas-Kreuter-ebook/dp/B00S15CF4U/ref=sr_1_23/259-4784733-9383658?ie=UTF8&qid=1500121363&sr=8-23&keywords=maladaptive
p23
aVhttps://www.amazon.co.uk/Maladaptive-x/dp/B01F4XZA3E/ref=sr_1_24/259-4784733-9383658?ie=UTF8&qid=1500121363&sr=8-24&keywords=maladaptive
p24
aVhttps://www.amazon.co.uk/dp/B073P83CFC/ref=sr_1_25/259-4784733-9383658?ie=UTF8&qid=1500121363&sr=8-25&keywords=maladaptive
p25
aVhttps://www.amazon.co.uk/Maladaptive/dp/B011RU2R1G/ref=sr_1_26/259-4784733-9383658?ie=UTF8&qid=1500121363&sr=8-26&keywords=maladaptive
p26
aVhttps://www.amazon.co.uk/Abnormal-Psychology-Maladaptive-Behavior-Alternative/dp/0131181114/ref=sr_1_27/259-4784733-9383658?ie=UTF8&qid=1500121363&sr=8-27&keywords=maladaptive
p27
aVhttps://www.amazon.co.uk/Coming-Home-Caden-Daniel-Ramses/dp/1548476102/ref=sr_1_28/259-4784733-9383658?ie=UTF8&qid=1500121363&sr=8-28&keywords=maladaptive
p28
aVhttps://www.amazon.co.uk/Adaptive-Maladaptive-Aspects-Developmental-Stress-ebook/dp/B00BLS4MMM/ref=sr_1_29/259-4784733-9383658?ie=UTF8&qid=1500121363&sr=8-29&keywords=maladaptive
p29
aVhttps://www.amazon.co.uk/Maladaptive/dp/B010E0JDSA/ref=sr_1_30/259-4784733-9383658?ie=UTF8&qid=1500121363&sr=8-30&keywords=maladaptive
p30
aVhttps://www.amazon.co.uk/Maladaptive-Websters-Timeline-History-1952/dp/B003NHSF0E/ref=sr_1_31/259-4784733-9383658?ie=UTF8&qid=1500121363&sr=8-31&keywords=maladaptive
p31
aVhttps://www.amazon.co.uk/dp/B073P7ZJWW/ref=sr_1_32/259-4784733-9383658?ie=UTF8&qid=1500121363&sr=8-32&keywords=maladaptive
p32
a.