(lp0
Vhttps://www.amazon.co.uk/Warrior-Strategist-You-Purpose-Potential/dp/1783962739/ref=sr_1_1/261-8505469-5928937?ie=UTF8&qid=1500121394&sr=8-1&keywords=strategist
p1
aVhttps://www.amazon.co.uk/Strategist-Leader-Your-Business-Needs-ebook/dp/B006I1J50G/ref=sr_1_2/261-8505469-5928937?ie=UTF8&qid=1500121394&sr=8-2&keywords=strategist
p2
aVhttps://www.amazon.co.uk/Strategist-William-H-Cunningham-ebook/dp/B00F4DW5M4/ref=sr_1_3/261-8505469-5928937?ie=UTF8&qid=1500121394&sr=8-3&keywords=strategist
p3
aVhttps://www.amazon.co.uk/Mind-Strategist-Art-Japanese-Business/dp/0070479046/ref=sr_1_4/261-8505469-5928937?ie=UTF8&qid=1500121394&sr=8-4&keywords=strategist
p4
aVhttps://www.amazon.co.uk/comfort-zone-Body-Strategist-Gel/dp/B00YKPH0OU/ref=sr_1_5_a_it/261-8505469-5928937?ie=UTF8&qid=1500121394&sr=8-5&keywords=strategist
p5
aVhttps://www.amazon.co.uk/Strategists-Toolkit-Jared-D-Harris/dp/1615981977/ref=sr_1_6/261-8505469-5928937?ie=UTF8&qid=1500121394&sr=8-6&keywords=strategist
p6
aVhttps://www.amazon.co.uk/Strategist-Machinery-Trilogy-Book-ebook/dp/B0155OP8PC/ref=sr_1_7/261-8505469-5928937?ie=UTF8&qid=1500121394&sr=8-7&keywords=strategist
p7
aVhttps://www.amazon.co.uk/Strategist-John-Hardy-Bell/dp/0615871194/ref=sr_1_8/261-8505469-5928937?ie=UTF8&qid=1500121394&sr=8-8&keywords=strategist
p8
aVhttps://www.amazon.co.uk/Content-Trap-Strategists-Digital-Change/dp/B01M4GKADK/ref=sr_1_9/261-8505469-5928937?ie=UTF8&qid=1500121394&sr=8-9&keywords=strategist
p9
aVhttps://www.amazon.co.uk/Strategists-Analysis-Cycle-Handbook/dp/1911498363/ref=sr_1_10/261-8505469-5928937?ie=UTF8&qid=1500121394&sr=8-10&keywords=strategist
p10
aVhttps://www.amazon.co.uk/Charlie-Julianna-Republican-Strategist-December-x/dp/B00BAY5GAE/ref=sr_1_11/261-8505469-5928937?ie=UTF8&qid=1500121394&sr=8-11&keywords=strategist
p11
aVhttps://www.amazon.co.uk/d/Apps-Games/Boxing-Strategist-3/B00FPMKJYU/ref=sr_1_12/261-8505469-5928937?ie=UTF8&qid=1500121394&sr=8-12&keywords=strategist
p12
aVhttps://www.amazon.co.uk/Midterms/dp/B00JEDABF8/ref=sr_1_13/261-8505469-5928937?ie=UTF8&qid=1500121394&sr=8-13&keywords=strategist
p13
aVhttps://www.amazon.co.uk/Nightlife-feat-Yplaya-Strategist/dp/B071JHG5GK/ref=sr_1_14/261-8505469-5928937?ie=UTF8&qid=1500121394&sr=8-14&keywords=strategist
p14
aVhttps://www.amazon.co.uk/d/Books/Strategist-Your-Guide-INTJ-Personality/8379810937/ref=sr_1_15/261-8505469-5928937?ie=UTF8&qid=1500121394&sr=8-15&keywords=strategist
p15
aVhttps://www.amazon.co.uk/Doctor-2010-Paradigm-Wave-Figure/dp/B004E16W44/ref=sr_1_16/261-8505469-5928937?ie=UTF8&qid=1500121394&sr=8-16&keywords=strategist
p16
aVhttps://www.amazon.co.uk/Pink-baby-Investment-Strategist-WORLD/dp/B071Y792P8/ref=sr_1_17/261-8505469-5928937?ie=UTF8&qid=1500121396&sr=8-17&keywords=strategist
p17
aVhttps://www.amazon.co.uk/dp/B073WGZ9P3/ref=sr_1_18/261-8505469-5928937?ie=UTF8&qid=1500121396&sr=8-18&keywords=strategist
p18
aVhttps://www.amazon.co.uk/Mousepad-BEST-Investment-Strategist-WORLD/dp/B06XGNV6HC/ref=sr_1_19/261-8505469-5928937?ie=UTF8&qid=1500121396&sr=8-19&keywords=strategist
p19
aVhttps://www.amazon.co.uk/Table-Investment-Strategist-whats-superpower/dp/B072KZBCHJ/ref=sr_1_20/261-8505469-5928937?ie=UTF8&qid=1500121396&sr=8-20&keywords=strategist
p20
aVhttps://www.amazon.co.uk/Stainless-bottle-FUNNIEST-Investment-Strategist/dp/B071Y7M264/ref=sr_1_21/261-8505469-5928937?ie=UTF8&qid=1500121396&sr=8-21&keywords=strategist
p21
aVhttps://www.amazon.co.uk/Doctor-Who-Strategist-Dalek-Topper/dp/B00PDZPI9A/ref=sr_1_22/261-8505469-5928937?ie=UTF8&qid=1500121396&sr=8-22&keywords=strategist
p22
aVhttps://www.amazon.co.uk/Sales-Strategist-Turning-Organisation-Machine/dp/1546967400/ref=sr_1_23/261-8505469-5928937?ie=UTF8&qid=1500121396&sr=8-23&keywords=strategist
p23
aVhttps://www.amazon.co.uk/comfort-zone-Body-Strategist-Cream/dp/B00YKPOIE0/ref=sr_1_24_a_it/261-8505469-5928937?ie=UTF8&qid=1500121396&sr=8-24&keywords=strategist
p24
aVhttps://www.amazon.co.uk/d/Shoes-Bags/camel-active-Laptop-Roller-Cases-674204044247-liters/B00HVG6T2Y/ref=sr_1_25/261-8505469-5928937?ie=UTF8&qid=1500121396&sr=8-25&keywords=strategist
p25
aVhttps://www.amazon.co.uk/dp/B06XT48XXX/ref=sr_1_26/261-8505469-5928937?ie=UTF8&qid=1500121396&sr=8-26&keywords=strategist
p26
aVhttps://www.amazon.co.uk/Strategist-Brent-Scowcroft-National-Security/dp/1586489631/ref=sr_1_27/261-8505469-5928937?ie=UTF8&qid=1500121396&sr=8-27&keywords=strategist
p27
aVhttps://www.amazon.co.uk/L-Joy-Williams-Political-Strategist/dp/B0059CDJWK/ref=sr_1_28/261-8505469-5928937?ie=UTF8&qid=1500121396&sr=8-28&keywords=strategist
p28
aVhttps://www.amazon.co.uk/In-God-We-Trust/dp/B00ET12BIU/ref=sr_1_29/261-8505469-5928937?ie=UTF8&qid=1500121396&sr=8-29&keywords=strategist
p29
aVhttps://www.amazon.co.uk/Strategists-Toolkit-Jared-Harris-ebook/dp/B00F0KZ4GA/ref=sr_1_30/261-8505469-5928937?ie=UTF8&qid=1500121396&sr=8-30&keywords=strategist
p30
aVhttps://www.amazon.co.uk/d/PC-Video-Games/Combat-Bundle-Strategy-Operations-Pacific-Strategic-Europe/B00XMB6UV2/ref=sr_1_31/261-8505469-5928937?ie=UTF8&qid=1500121396&sr=8-31&keywords=strategist
p31
aVhttps://www.amazon.co.uk/Boxing-Strategist-Wing-Padwork-Training-x/dp/B00HDOFHPE/ref=sr_1_32/261-8505469-5928937?ie=UTF8&qid=1500121396&sr=8-32&keywords=strategist
p32
a.