(lp0
Vhttp://www.ebay.com/itm/Madagascar-Bourbon-Vanilla-Extract-500ml-Original-Pure-Bourbon-Vanilla-Extract-/142423731582?hash=item21291dad7e:g:Lb8AAOSwZKBZJD0N
p1
aVhttp://www.ebay.com/itm/Vanilla-Pods-Beans-PNG-Tahitian-Gourmet-Premium-Grade-Free-UK-P-P-/291700580529?var=&epid=1164536767&hash=item43eab5a0b1:m:my1MtWlKociGEG_2emaH_3Q
p2
aVhttp://www.ebay.com/itm/Dunkin-Donuts-French-Vanilla-Coffee-340g-12-oz-American-Coffee-/152440455873?epid=1337953899&hash=item237e28c2c1:g:4dMAAOSwtfhYpxTX
p3
aVhttp://www.ebay.com/itm/Bruneus-Pure-Vanilla-Extract-USDA-Organic-Kosher-Gluten-Allergen-Free-60ml-/152599144398?hash=item23879e27ce:g:-yEAAOSwYlRZJv7E
p4
aVhttp://www.ebay.com/itm/Organic-Madagascan-Vanilla-Powder-50g-Certified-Organic-/262862255793?hash=item3d33cfb6b1:g:hiEAAOSwSlBY2n6w
p5
aVhttp://www.ebay.com/itm/Fairtrade-Ndali-Finest-Premium-Organic-Vanilla-Powder-/253033834608?epid=1061734366&hash=item3ae9fde870:g:r44AAOSwT5tWJ5q6
p6
aVhttp://www.ebay.com/itm/Taylor-Colledge-Vanilla-Bean-Paste-1-x-65g-/182501365739?epid=1305281487&hash=item2a7dedd7eb:g:YzEAAOSwhQhY1P3T
p7
aVhttp://www.ebay.com/itm/Pure-Vanilla-Extract-USDA-Organic-Kosher-Vegan-Gluten-Allergen-Free-100ML-/152594332539?epid=796774230&hash=item238754bb7b:g:f7wAAOSwWiBY-3rY
p8
aVhttp://www.ebay.com/itm/Taylor-Colledge-Vanilla-Bean-Paste-1-x-50g-/182643152695?hash=item2a86615737:g:dhIAAOSwOMdZVQB4
p9
aVhttp://www.ebay.com/itm/2-Whole-Madagascar-Vanilla-Pod-Bourbon-Vanilla-Bean-/132247629509?hash=item1eca92aec5:g:bvoAAOSwU8hY4k68
p10
aVhttp://www.ebay.com/itm/3-Vanilla-Pods-Madagascan-Gousses-De-Vanilla-/152588583854?hash=item2386fd03ae:g:vsoAAOSwkShY9MOt
p11
aVhttp://www.ebay.com/itm/DOLCE-GUSTO-48-VANILLA-LATTE-MACCHIATO-PODS-24-COFFEE-DRINKS-FREE-P-P-/361452883256?epid=874779291&hash=item5428454d38:g:AOwAAOSwcu5UNdjp
p12
aVhttp://www.ebay.com/itm/Douwe-Egberts-Flavour-Collective-Coffee-Vanilla-Caramel-Hazelnut-50g-/231618153830?var=&epid=1930966983&hash=item35ed848d66:m:mZFZMvQk3I-dOR3XB3BPYhA
p13
aVhttp://www.ebay.com/itm/USN-Diet-Fuel-Meal-Replacement-Weight-Loss-Shake-1kg-2kg-/291083905047?var=&epid=1205344898&hash=item43c5f3e817:m:mfkuEfBaNSXjxJtYI-qTnSg
p14
aVhttp://www.ebay.com/itm/Dr-Oetker-Vanilla-Extract-With-Seeds-75-ml-Baking-Cake-Food-Making-Cooking-/112351672992?epid=714748879&hash=item1a28ae7aa0:g:~X4AAOSwAO9ZOdSb
p15
aVhttp://www.ebay.com/itm/BEANIES-FLAVOURED-COFFEE-50g-JARS-SELECT-YOUR-FLAVOUR-/322416338378?var=&epid=1584251652&hash=item4b1182e5ca:m:mLU1m2j6VQ--LQu1FKSJBPg
p16
aVhttp://www.ebay.com/itm/VANILLA-WHITE-SUKI-FORLIFE-18oz-530ml-2-CUP-LOOSE-LEAF-TEAPOT-WITH-INFUSER-/201755377089?epid=1961380506&hash=item2ef98ebdc1:g:nqYAAOxycD9TWWoi
p17
aVhttp://www.ebay.com/itm/Vanilla-Pod-3-Extra-Large-Madagascan-Pod-Size-20-cm-/192248134395?hash=item2cc2e1bafb:g:4JkAAOSwADNXPYFM
p18
aVhttp://www.ebay.com/itm/Myprotein-Impact-Whey-Protein-Powder-Pouch-1kg-2-5kg-or-5kg-/121362134839?var=&epid=1408147328&hash=item1c41bf3737:m:mR1eRlMwG7-tuRdS1dih0Ww
p19
aVhttp://www.ebay.com/itm/Capella-Vanilla-Custard-flavour-concentrate-/201474360112?epid=854111962&hash=item2ee8cec330:g:Q5gAAOSwL7VWsfgX
p20
aVhttp://www.ebay.com/itm/Capella-Vanilla-Custard-v2-flavour-concentrate-/191904032897?hash=item2cae5f2881:g:h0EAAOSw3YNXa75V
p21
aVhttp://www.ebay.com/itm/Fairtrade-Ndali-Finest-Premium-Vanilla-Extract-100ml-/253033835580?epid=1905120378&hash=item3ae9fdec3c:g:PbgAAOSwAYtWJ26w
p22
aVhttp://www.ebay.com/itm/FW-Vanilla-Custard-Flavor-West-concentrate-/191793532746?epid=854111783&hash=item2ca7c90f4a:g:7TQAAOSwoydWqUKL
p23
aVhttp://www.ebay.com/itm/3-Zuma-Frappe-Vanilla-Powder-Mix-3X-2kg-tub-Suitable-for-Vegetarians-FREE-POST-/263019967093?hash=item3d3d363275:g:mjYAAOSwjL5ZDIiW
p24
aVhttp://www.ebay.com/itm/Caffeluxe-Nespresso-compatible-Hot-Chocolate-Caramel-Coffee-Vanilla-Coffee-40-/162330812973?epid=2116745567&hash=item25cbaba22d:g:vT0AAOSw241YXJWT
p25
aVhttp://www.ebay.com/itm/Yankee-Candle-Vent-Sticks-Car-Air-Freshener-4-Packs-Choose-From-All-17-Scents-/121217286640?var=&epid=1440840646&hash=item1c391d01f0:m:mzJwLhfDxDPGoY-uQdlgbfw
p26
aVhttp://www.ebay.com/itm/Madagascan-Bourbon-Vanilla-Pods-14-16cm-2-per-pack-/152498755418?epid=1582737073&hash=item2381a2575a:g:nowAAOSwFdtXyCc2
p27
aVhttp://www.ebay.com/itm/FOLGERS-FLAVORS-FRENCH-VANILLA-GROUND-COFFEE-1-x-326g-TUB-AMERICAN-IMPORT-/162331500105?epid=1937882161&hash=item25cbb61e49:g:RTgAAOSwEzxYXUUy
p28
aVhttp://www.ebay.com/itm/Nescafe-Dolce-Gusto-Coffee-Capsules-24-Flavours-to-choose-from-8-or-16-cups-/180948952495?var=&epid=1160312268&hash=item2a2165e5af:m:mWkOufBpPeT8vV99XpPdEfw
p29
aVhttp://www.ebay.com/itm/TASSIMO-T-Discs-Capsules-Pods-CHOOSE-from-40-FLAVOURS-pick-mix-/321441023123?var=&epid=1581304830&hash=item4ad760c493:m:mfVPCPiUkmcyQJbrC6ZFBMw
p30
aVhttp://www.ebay.com/itm/Dunkin-Donuts-Coffee-311g-11-oz-American-Coffee-Various-Flavour-USA-Import-/272471649081?var=&hash=item3f70936b39:m:mhHkIzDBK9n6-QaIyT-AR5A
p31
aVhttp://www.ebay.com/itm/24-x-Tassimo-Costa-Latte-Vanilla-Milk-Creamer-T-disc-Large-Cup-Size-/172563161349?epid=600861715&hash=item282d90e105:g:8lQAAOSwWxNYvJan
p32
aVhttp://www.ebay.com/itm/TFA-Vanilla-Swirl-flavour-concentrate-/201451305944?hash=item2ee76efbd8:g:FykAAOSwdU1W-u7Q
p33
aVhttp://www.ebay.com/itm/2-The-Nines-Salon-30ml-Vanilla-Mango-Moustache-Wax-/191558516256?epid=1240685526&hash=item2c99c6fe20:g:aVMAAOSwf-VWVZyA
p34
aVhttp://www.ebay.com/itm/Tassimo-Costa-Latte-Lovers-3-Variety-Latte-Caramel-Vanilla-48-Discs-24-Drinks-/192139953357?hash=item2cbc6f04cd:g:A9IAAOSw42JZHgs8
p35
aVhttp://www.ebay.com/itm/Betty-Crocker-Super-Moist-French-Vanilla-Cake-Mix-15-25oz-/162499227523?epid=1727753208&hash=item25d5b56f83:g:zBUAAOSwcgNZB5lO
p36
aVhttp://www.ebay.com/itm/Vanilla-Absolute-Essential-Oil-Infusion-/122398178400?var=&epid=682263160&hash=item1c7f7ffc60:m:mdjXZW9ZmrdK2h60xTFaS5w
p37
aVhttp://www.ebay.com/itm/2-The-Nines-Moustache-Wax-Beard-Oil-Balm-Grooming-Kit-Vanilla-Mango-/321694149712?epid=1439218009&hash=item4ae6772c50:g:efcAAOSwOyJX8lEA
p38
aVhttp://www.ebay.com/itm/6-X-AIRWICK-AIR-WICK-PLUG-IN-OIL-REFILLS-EBONY-MADAGASCAN-VANILLA-/272567656155?epid=1388168857&hash=item3f764c5edb:g:nJQAAOSwfVpYsC5d
p39
aVhttp://www.ebay.com/itm/Tassimo-Variety-Pack-Costa-Latte-Cappuccino-Carte-Noire-Vanilla-32-Drinks-/172684326269?hash=item2834c9b57d:g:h-EAAOSw3gJZH1kJ
p40
aVhttp://www.ebay.com/itm/8-x-Tassimo-Costa-Vanilla-Latte-Loose-T-Discs-Pods-4-Large-Drinks-310ml-Cups-/391664808624?epid=1581304830&hash=item5b310ab2b0:g:27MAAOSwnHZYZj8m
p41
aVhttp://www.ebay.com/itm/Air-Wick-Home-Signature-Reed-Diffuser-Vanilla-Bean-White-Truffle-Air-Freshener-/201604286068?epid=1661669911&hash=item2ef08d4674:g:qk8AAOSweWVXdv4X
p42
aVhttp://www.ebay.com/itm/Deluxe-2-Gousses-De-Vanilla-de-Madagascar-2-Vanilla-Pods-From-Madagascar-/192219118887?hash=item2cc126fd27:g:dv0AAOSwTM5Y77xI
p43
aVhttp://www.ebay.com/itm/2-X-1000ml-Suntana-Strawberry-Vanilla-Fragranced-Rapid-Fast-Tan-2-x-Litres-/252396856996?hash=item3ac40666a4:g:t3MAAOSwxN5WXuw0
p44
aVhttp://www.ebay.com/itm/Aspen-Mulling-Cider-Spices-160g-Vanilla-Spice-Mulled-Wine-Cider-and-Punches-/192017700373?hash=item2cb5259615:g:7DIAAOSwal5YG2A9
p45
aVhttp://www.ebay.com/itm/BSN-SYNTHA-6-EDGE-PROTEIN-1-78KG-VANILLA-ICE-CREAM-/371981031853?epid=1439620132&hash=item569bcc19ad:g:HwgAAOSwuMZZMKdt
p46
aVhttp://www.ebay.com/itm/48-x-Tassimo-Costa-Latte-Vanilla-Milk-Creamer-T-disc-Large-Cup-Size-/182478055120?epid=601257835&hash=item2a7c8a26d0:g:OjsAAOSwhlZYvJaa
p47
aVhttp://www.ebay.com/itm/Madagascan-Pure-Vanilla-Extract-Farm-Grown-2-fl-oz-59-ml-Simply-Organic-/152498935243?epid=1024736568&hash=item2381a515cb:g:rYgAAOSw3utY5P6L
p48
aVhttp://www.ebay.com/itm/Nestle-Coffee-Mate-French-Vanilla-American-Large-425g-/201654976179?epid=1328460315&hash=item2ef392beb3:g:TNUAAOSwgZ1XwX9P
p49
aVhttp://www.ebay.com/itm/Yankee-Candle-22oz-Large-Jar-46-Off-FREE-P-P-/201631340798?var=&hash=item2ef22a18fe:m:mTgzWggdZuVosz7omNcrskQ
p50
aVhttp://www.ebay.com/itm/Aspen-Mulling-Cider-Spices-160g-Vanilla-Spice-Mulled-Wine-Cider-and-Punches-/192017700373?hash=item2cb5259615:g:7DIAAOSwal5YG2A9
p51
aVhttp://www.ebay.com/itm/Madagascan-Bourbon-Vanilla-Powder-in-Jar-15g-/192248134388?hash=item2cc2e1baf4:g:bWUAAOSwJ7RYSw1l
p52
aVhttp://www.ebay.com/itm/Myprotein-Impact-Whey-Protein-/222286816451?var=&epid=1408147328&hash=item33c153a4c3:m:mR1eRlMwG7-tuRdS1dih0Ww
p53
aVhttp://www.ebay.com/itm/Capella-Vanilla-Bean-Ice-Cream-flavour-concentrate-/191802930086?hash=item2ca85873a6:g:0-sAAOSwQYZWulO9
p54
aVhttp://www.ebay.com/itm/4-Boxes-Latte-Macchiato-Vanilla-Nescafe-Dolce-Gusto-Coffee-Pods-64-Capsules-UK-/172618649466?epid=730075760&hash=item2830df8f7a:g:t78AAOSwpP9Y6oFM
p55
aVhttp://www.ebay.com/itm/Air-Wick-Home-Signature-Reed-Diffuser-Vanilla-Bean-White-Truffle-Air-Freshener-/201604286068?epid=1661669911&hash=item2ef08d4674:g:qk8AAOSweWVXdv4X
p56
aVhttp://www.ebay.com/itm/LONKA-VANILLA-FUDGE-500G-WEDDING-FAVOURS-FREE-POSTAGE-/230637393383?epid=806095538&hash=item35b30f55e7:g:jxcAAOSw8gVX~AGL
p57
aVhttp://www.ebay.com/itm/50-x-Nescafe-Dolce-Gusto-Coffee-Capsules-30-Flavours-2-choose-from-Sold-Loose-/181149645111?var=&hash=item2a2d5c3937:m:meDGYXb0w08iDS99UIdoadg
p58
aVhttp://www.ebay.com/itm/TFA-French-Vanilla-Deluxe-flavour-concentrate-/191802906295?epid=854053107&hash=item2ca85816b7:g:7~cAAOSwWTRWujrb
p59
aVhttp://www.ebay.com/itm/FW-Madagascar-Vanilla-Flavor-West-concentrate-/201512990583?hash=item2eeb1c3777:g:7TQAAOSwoydWqUKL
p60
aVhttp://www.ebay.com/itm/96-Dolce-Gusto-Compatible-Coffee-Pods-3-Espressos-Choc-Milk-Creme-Brule-/142260613526?var=&hash=item211f64b196:m:m3MmQ-FaLsK0CTndPTJjzQw
p61
aVhttp://www.ebay.com/itm/Yankee-Candle-Vanilla-Medium-Jar-FREE-P-P-/201770257053?epid=1656536395&hash=item2efa71ca9d:g:VZ4AAOSw9OFZNmgd
p62
aVhttp://www.ebay.com/itm/Eveline-Spa-Professional-Vanilla-Argan-Body-Balm-Shower-or-Scrub-/172116063536?var=&epid=1540480663&hash=item2812eab530:m:mtLCoAnvdb50khNluHCslHA
p63
aVhttp://www.ebay.com/itm/Dolce-Gusto-Coffee-Capsules-Latte-Caramel-Latte-Vanilla-2-Boxes-32-Pods-/182256370388?hash=item2a6f5382d4:g:JEcAAOSw0UdXvyEx
p64
aVhttp://www.ebay.com/itm/FW-Vanilla-Bean-Ice-Cream-Flavor-West-concentrate-/191793532732?epid=854113669&hash=item2ca7c90f3c:g:7TQAAOSwoydWqUKL
p65
aVhttp://www.ebay.com/itm/BSN-DNA-Whey-Protein-1-87kg-100-Muscle-Building-Whey-Protein-Powder-Shake-/121766350793?var=&epid=1742064330&hash=item1c59d70fc9:m:mMLRl28zatetG8TftBrDnPQ
p66
aVhttp://www.ebay.com/itm/Taylor-Colledge-Vanilla-Bean-Grinder-1-x-12g-/182655938066?epid=1137825972&hash=item2a87246e12:g:w-oAAOSwEUVZX5PI
p67
aVhttp://www.ebay.com/itm/Myprotein-Impact-Whey-Isolate-Powder-Pouch-1kg-2-5kg-4kg-5kg-/131318921789?var=&epid=1153923934&hash=item1e9337ba3d:m:m3_OAOTdzRRE8aN3zjztMmQ
p68
aVhttp://www.ebay.com/itm/Douwe-Egberts-The-Flavour-Collective-Delicate-Vanilla-50g-Pack-of-6-/201694111568?epid=22003606807&hash=item2ef5e7e750:g:lrAAAOSw4shYBejm
p69
aVhttp://www.ebay.com/itm/Nescafe-Cafe-Menu-Choose-from-19-Various-Flavours-8-Sachets-1-Box-/171478349589?var=&hash=item27ece7f715:m:mqMdbUbfweyXiuhgEkTcFJw
p70
aVhttp://www.ebay.com/itm/6-x-20ml-Airwick-Scented-Oil-Plug-in-Refills-Limited-Edition-Scents-Air-Wick-/142445125499?var=&epid=1023917805&hash=item212a641f7b:m:mBpz0t-WBIw73tRo8-e_Xew
p71
aVhttp://www.ebay.com/itm/Abido-Vanilla-50-gm-packet-Product-of-Lebanon-P-P-UK-/172620252083?hash=item2830f803b3:g:kjwAAOSwaEhZD5PN
p72
aVhttp://www.ebay.com/itm/Dolce-Gusto-Latte-Machiato-Vanilla-Coffe-3-Boxes-Total-48-Capsules-24-Servings-/170931624482?epid=917377894&hash=item27cc519a22:g:ANoAAOSwYSlXh6WB
p73
aVhttp://www.ebay.com/itm/Beanies-Instant-Coffee-2-X-50g-Jars-PICK-AND-CHOOSE-/192061173313?var=&epid=1584251652&hash=item2cb7bcee41:m:mkbPgvDZ1fa7is-Vy9bm2hA
p74
aVhttp://www.ebay.com/itm/Nestle-270g-Meritene-Energis-Vitamin-Shakes-Chocolate-or-Vanilla-1-2-or-3-/282355451293?var=&hash=item41bdb2459d:m:mT3zmrVpPmTGOMxUs94ZIZw
p75
aVhttp://www.ebay.com/itm/100-NESPRESSO-COMPATIBLE-COFFEE-CAPSULES-PODS-CHOCOLATE-VANILLA-CARAMEL-BLENDS-/272272865444?var=&hash=item3f64ba38a4:m:msXej8S-_qvXogxcWajHUHA
p76
aVhttp://www.ebay.com/itm/Yankee-Candle-Vanilla-Wax-Tart-Melt-FREE-P-P-/201521831398?epid=1456617638&hash=item2eeba31de6:g:MRsAAOSwhQhY5saH
p77
aVhttp://www.ebay.com/itm/Antipodes-Vanilla-Pod-Hydrating-Day-Cream-60ml-/371086663346?epid=1004356066&hash=item56667d1eb2:g:VFoAAOxySoJTR9qI
p78
aVhttp://www.ebay.com/itm/Yankee-Candle-French-Vanilla-Vent-Stick-Air-Freshener-FREE-P-P-/200973776612?epid=1712666176&hash=item2ecaf876e4:g:PSAAAOSwurZZMevX
p79
aVhttp://www.ebay.com/itm/Yankee-Candle-Vanilla-Cupcake-Large-Jar-FREE-P-P-/401253016254?epid=1705266430&hash=item5d6c8b22be:g:PLsAAOSwcB5ZKiJV
p80
aVhttp://www.ebay.com/itm/Nescafe-Dolce-Gusto-Coffee-Pods-Capsules-choose-from-34-FLAVORS-48-PODS-3-BOXES-/322049833052?var=&hash=item4afbaa785c:m:mO1hQSxHPcuOgvuQlQVEwgQ
p81
aVhttp://www.ebay.com/itm/Yankee-Candle-22oz-623g-Large-Jar-Deerfield-Crunchy-Pistachio-Vanilla-/152536421324?epid=1504311124&hash=item2383e113cc:g:essAAOSwDmBY5Qbw
p82
aVhttp://www.ebay.com/itm/Wilton-Clear-Vanilla-Extract-8oz-236ml-Bottle-/121682301515?epid=1811952168&hash=item1c54d4924b:g:gmQAAOSwQYZWvAD6
p83
aVhttp://www.ebay.com/itm/Optimum-Nutrition-Gold-Standard-2lb-10lb-100-Whey-Protein-5lb-2-25kg-/141367243045?var=&epid=1805155865&hash=item20ea24f125:m:mtmDtCqlOateW1Y0nM0f1jQ
p84
aVhttp://www.ebay.com/itm/Sunwarrior-Sun-Warrior-Blend-Vanilla-1kg-Protein-Powder-/162027948072?epid=2131849270&hash=item25b99e4828:g:-l8AAOSwsN9XAh4b
p85
aVhttp://www.ebay.com/itm/Strawberry-Vanilla-Scented-Starbucks-Fluffy-Slime-10oz-Limited-Edition-/252977328273?hash=item3ae69fb091:g:fBMAAOSwcB5ZNtSu
p86
aVhttp://www.ebay.com/itm/Tassimo-T-Discs-Pods-Capsules-Tea-Coffee-or-Chocolate-/252109730361?var=&hash=item3ab2e93239:m:mF9W3D59N9Z50Grr8cS7_8Q
p87
aVhttp://www.ebay.com/itm/TFA-Vanilla-Cupcake-DX-flavour-concentrate-/201520755640?hash=item2eeb92b3b8:g:7~cAAOSwWTRWujrb
p88
aVhttp://www.ebay.com/itm/Coty-Vanilla-Fields-100ml-EDP-Spray-BRAND-NEW-BOXED-SEALED-FREE-P-P-/262945107415?epid=1592538430&hash=item3d38bfedd7:g:DwUAAOSwSypY-IjD
p89
aVhttp://www.ebay.com/itm/3-x-Airwick-Pearl-Infusions-WHITE-VANILLA-BEAN-Fragranced-Candle-Pack-of-3-/162328478082?hash=item25cb880182:g:DxoAAOSwA3dYWjjo
p90
aVhttp://www.ebay.com/itm/Organic-Vanilla-Pod-Certified-Organic-by-the-Soil-Association-/252442126084?hash=item3ac6b92704:g:XfQAAOSw9mFWKmNG
p91
aVhttp://www.ebay.com/itm/Monin-Coffee-Syrups-1-Litre-Bottles-as-used-by-Costa-Coffee-Select-Flavour-/131938977282?var=&hash=item1eb82d0602:m:mKOfHFMex0rUHER6nZsNfjQ
p92
aVhttp://www.ebay.com/itm/Reflex-Nutrition-Instant-Mass-Heavyweight-5-4kg-Mass-Gainer-Protein-Fast-P-P-/141369305411?var=&epid=1828762219&hash=item20ea446943:m:mRAxVWxxXqESyCPrHWg1bmw
p93
aVhttp://www.ebay.com/itm/Pure-Vanilla-Bean-Paste-Nielsen-Massey-60ml-/263072938570?hash=item3d405e7a4a:g:j~MAAOSw~XpZS-Tn
p94
aVhttp://www.ebay.com/itm/Stellar-3000-5pce-Saucepan-Set-Red-Vanilla-or-Black-/252692315481?var=&epid=1613520813&hash=item3ad5a2bd59:m:mowcV12MFe0_seiTQ0MSoJg
p95
aVhttp://www.ebay.com/itm/Wilton-PURE-VANILLA-Extract-Cake-Baking-Decorating-Flavouring-4oz-/121997835266?epid=1105077983&hash=item1c67a33c02:g:-l8AAOSwagdXRtlM
p96
aVhttp://www.ebay.com/itm/TFA-French-Vanilla-flavour-concentrate-/191802906323?hash=item2ca85816d3:g:7~cAAOSwWTRWujrb
p97
aVhttp://www.ebay.com/itm/Eveline-Spa-Professional-Body-Balms-Scrubs-/172115957960?var=&epid=1540480663&hash=item2812e918c8:m:mn7wDiqrHmu9sWCG_njd8Jg
p98
aVhttp://www.ebay.com/itm/Capella-French-Vanilla-v2-flavour-concentrate-/201609638894?hash=item2ef0def3ee:g:20oAAOSwM4xXa7e5
p99
aVhttp://www.ebay.com/itm/TASSIMO-Costa-Vanilla-Latte-Coffee-T-Discs-8-Pods-Capsules-Pack-of-5-40-Drinks-/272484540441?hash=item3f71582019:g:qZ4AAOSwcUBYUBxF
p100
aVhttp://www.ebay.com/itm/Bourjois-123-Perfect-Foundation-30ml-51Light-Vanilla-/281891407952?epid=1810317647&hash=item41a2098850:g:mP0AAOSwnipWbtTX
p101
aVhttp://www.ebay.com/itm/VANILLA-CANDLE-BATH-MAKING-FRAGRANCE-OIL-SCENT-SOAP-BATH-BOMB-/142341824419?var=&hash=item21243bdfa3:m:mCtKozJt1P8BKWSh3208iYg
p102
aVhttp://www.ebay.com/itm/FW-Vanilla-Butternut-Flavor-West-concentrate-/201512990588?hash=item2eeb1c377c:g:7TQAAOSwoydWqUKL
p103
aVhttp://www.ebay.com/itm/Reflex-Instant-Mass-Heavyweight-2kg-Or-5-4kg-Mass-Gain-Protein-From-R-Nutrition-/122311439671?var=&epid=1828762219&hash=item1c7a547537:m:mgM2rGquElZ0CWLumDzrkwg
p104
aVhttp://www.ebay.com/itm/FW-Vanilla-Cup-Cake-Flavor-West-concentrate-/201654308354?hash=item2ef3888e02:g:rV4AAOSw6n5XwAQG
p105
aVhttp://www.ebay.com/itm/Simply-Organic-Madagascar-Pure-Vanilla-Extract-Farm-Grown-2-fl-oz-59-ml-/282239444903?epid=1024736568&hash=item41b6c827a7:g:BnwAAOSwcUBYFxl-
p106
aVhttp://www.ebay.com/itm/Ashleigh-Burwood-Premium-Fragrance-Lamp-Oil-Burner-Refill-Bottle-500ml-Gift-/192167442628?var=&epid=570010344&hash=item2cbe1278c4:m:mzXjEO52rAo7SdbHLkN9Mag
p107
aVhttp://www.ebay.com/itm/GENUINE-CITROEN-C3-C4-PICASSO-DS3-BERLINGO-AIR-FRESHENER-FRAGRANCE-REFILLS-/222576552544?var=&hash=item33d298aa60:m:muVUM0neGz330-aOiRzsFSg
p108
aVhttp://www.ebay.com/itm/Capella-Vanilla-Whipped-Cream-flavour-concentrate-/191751307436?hash=item2ca544c0ac:g:mLMAAOSwoydWsfdu
p109
aVhttp://www.ebay.com/itm/Oud-24-Hours-100ml-EDP-Spray-by-Ard-al-Zaafaran-Woody-Musky-Chocolate-Vanilla-/201708037129?epid=1935022213&hash=item2ef6bc6409:g:QEUAAOSw1~JZQsAr
p110
aVhttp://www.ebay.com/itm/NESCAFE-GOLD-VANILLA-LATTE-3-x-8-SACHETS-/221420444601?hash=item338dafdbb9:g:DzYAAOSw~AVYqxa-
p111
aVhttp://www.ebay.com/itm/Yogi-Herbal-Organic-Ayurvedic-Tea-Bedtime-Rooibos-Vanilla-Buy-More-Save-More-/361958271660?var=&epid=1623330238&hash=item544664eaac:m:mwKFWUwrrVdl8qflRzpGc_Q
p112
aVhttp://www.ebay.com/itm/GENUINE-CITROEN-C3-C4-PICASSO-DS3-BERLINGO-AIR-FRESHENER-FRAGRANCE-REFILLS-/222576552544?var=&hash=item33d298aa60:m:muVUM0neGz330-aOiRzsFSg
p113
aVhttp://www.ebay.com/itm/TFA-Vanilla-Bean-Ice-Cream-flavour-concentrate-/191718750194?hash=item2ca353f7f2:g:0ygAAOSwOfxXBRJV
p114
aVhttp://www.ebay.com/itm/Suntana-Rapid-Tan-Strawberry-Vanilla-Fragranced-Spray-Tan-500ml-/331089210854?hash=item4d16746de6:g:GFMAAOSw0vBUhwEo
p115
aVhttp://www.ebay.com/itm/30-CAPSULES-NESPRESSO-VARIATIONS-10-each-CARAMEL-VANILLA-CHOCOLATE-FLAVOURS-/231013808482?epid=1488362063&hash=item35c97ef962:g:Nm0AAOxyI8lR-VkM
p116
aVhttp://www.ebay.com/itm/NEW-Yankee-Candle-Home-Inspirations-Large-Jar-Creamy-Vanilla-Coconut-/352028826610?epid=596085332&hash=item51f68d9bf2:g:ZLIAAOSwRXRZUWhX
p117
aVhttp://www.ebay.com/itm/SCITEC-NUTRITION-100-WHEY-PROTEIN-PROFESSIONAL-/111198538719?var=&epid=1642477443&hash=item19e3f30bdf:m:m97Td3L7PGO2LgPyLA9jG5w
p118
aVhttp://www.ebay.com/itm/2kg-Isopure-Zero-Carb-Pure-100-Iso-Whey-Protein-Isolate-Free-P-P-/112064175887?var=&epid=1317733152&hash=item1a178b9f0f:m:ml0gsdL90EJDAwIgHC0iKAg
p119
aVhttp://www.ebay.com/itm/Exotic-Incense-Sticks-in-Tube-30-Joss-Sticks-holder-VANILLA-FREE-DELIVERY-/122216700519?epid=1372725590&hash=item1c74aeda67:g:~sAAAOSw4GVYIcUj
p120
aVhttp://www.ebay.com/itm/Rieker-Flint-Womens-Casual-Sandals-/182530406488?var=&epid=1575393577&hash=item2a7fa8f858:m:mv5f5nEqIbb8TdsMjehO2RA
p121
aVhttp://www.ebay.com/itm/Vanilla-Powder-White-500gr-Natural-Madagascar-Bourbon-Vanilla-Flavour-Powder-/142422639534?hash=item21290d03ae:g:HLgAAOSw1DtXFihx
p122
aVhttp://www.ebay.com/itm/Raghba-Muski-by-Lattafa-Perfumes-100ml-EDP-Spray-Musky-Vanilla-Floral-Sweet-/201902861017?epid=1454364297&hash=item2f02592ad9:g:v60AAOSw5UZY~POc
p123
aVhttp://www.ebay.com/itm/Yankee-Candle-Car-Jar-Air-Freshener-BUY-ANY-5-FOR-THE-PRICE-OF-4-/160913018039?var=&hash=item257729ccb7:m:mMTHoZ43_4orGtQu4ypC7EA
p124
aVhttp://www.ebay.com/itm/Yankee-Candle-Car-Vent-Sticks-Air-Freshener-Fragrances-Pack-of-Four-/181804252818?var=&epid=1660388318&hash=item2a5460be92:m:m62BJjmOsDUh-38TCXQl1uA
p125
aVhttp://www.ebay.com/itm/50-100-NESPRESSO-COMPATIBLE-ITALIAN-COFFEE-CAPSULES-PODS-CAFFE-BONINI-/192004552176?var=&hash=item2cb45cf5f0:m:mMA4IOfk4PbCL2sE55LFiow
p126
aVhttp://www.ebay.com/itm/100-x-Nespresso-Compatible-Capsules-Coffee-Pods-for-Nespresso-Machines-Inc-Choc-/301323645402?var=&hash=item462849f1da:m:msXej8S-_qvXogxcWajHUHA
p127
aVhttp://www.ebay.com/itm/Air-Wick-Colour-Changing-candle-Vanilla-Sugar-Cookies-Fragrance-AIRWICK-New-/151977681508?epid=1841409040&hash=item2362936264:g:wUoAAOSwA4dWHXKH
p128
aVhttp://www.ebay.com/itm/PME-Madagascar-Madagascan-Vanilla-Bean-Pods-Sticks-Flavour-Flavouring-3-Pack-/142073544244?epid=1580145986&hash=item21143e3e34:g:Q-0AAOSwZVlXoNb-
p129
aVhttp://www.ebay.com/itm/GOLD-MEDAL-FLOSSINE-Candy-Floss-Colouring-450gms-FREE-shipping-Europe-/400879912440?var=&hash=item5d564e05f8:m:mgg6qJTDC537liI3DqptzHw
p130
aVhttp://www.ebay.com/itm/Optimum-Nutrition-Gold-Standard-100-Whey-High-Protein-5lb-Fast-Free-Delivery-/111473571301?var=&epid=1205214680&hash=item19f457b5e5:m:mkzw6LNCykamavOpcWKZksQ
p131
aVhttp://www.ebay.com/itm/FW-French-Vanilla-Flavor-West-concentrate-/201512990570?hash=item2eeb1c376a:g:7TQAAOSwoydWqUKL
p132
aVhttp://www.ebay.com/itm/Capella-French-Vanilla-flavour-concentrate-/191718783722?hash=item2ca3547aea:g:5dsAAOSwO~hXHqRr
p133
aVhttp://www.ebay.com/itm/Pacifica-Island-Vanilla-Perfume-29ml-/292072290512?epid=1510438907&hash=item4400dd78d0:g:hCUAAOSwA29Y3ilk
p134
aVhttp://www.ebay.com/itm/3-x-Avon-Naturals-Scented-Spritz-Sugar-Plum-Vanilla-Room-Body-Spray-100ml-/232347699255?hash=item3619008837:g:NgkAAOSwR29ZJZSN
p135
aVhttp://www.ebay.com/itm/Douwe-Egberts-The-Flavour-Collective-Delicate-Vanilla-50g-Pack-of-6-/152366000515?epid=1841923940&hash=item2379b8a983:g:E8UAAOSwhqJYW~bE
p136
aVhttp://www.ebay.com/itm/Eucalyptus-Vanilla-Scented-Starbucks-Fluffy-Slime-10oz-Limited-Edition-/252977331872?hash=item3ae69fbea0:g:nUoAAOSwYvFZNtTl
p137
aVhttp://www.ebay.com/itm/Yankee-Candle-Car-Vent-Sticks-All-Fragrances-FREE-POSTAGE-/291801593313?var=&epid=1774939269&hash=item43f0baf5e1:m:mwtYjpFJx10y5_rPYE8wtxw
p138
aVhttp://www.ebay.com/itm/DEATH-VANILLA-From-Above-Vinyl-limited-blue-vinyl-7-/111992659102?hash=item1a13485c9e:g:yGkAAOSwtfhYrvB4
p139
aVhttp://www.ebay.com/itm/Yankee-Candle-10-Wax-Tart-Packs-All-Fragrances-FREE-POSTAGE-/112044298936?var=&epid=1475603707&hash=item1a165c52b8:m:mDEcQ-mCrtYbo3Lx67BgifQ
p140
aVhttp://www.ebay.com/itm/Monin-Coffee-Syrups-1-Litre-Bottles-as-used-by-Costa-Coffee-Select-Flavour-/131870178724?var=&hash=item1eb4133da4:m:mTv1cwNeGxKsBUF0H5PL9Yw
p141
aVhttp://www.ebay.com/itm/BSN-Whey-DNA-1-87kg-55-Servings-/152549408320?var=&epid=1742064330&hash=item2384a73e40:m:m_8J3muh_HLn9w4EGCevkLA
p142
aVhttp://www.ebay.com/itm/Yankee-Candle-Large-Jar-only-a-Free-Surprise-Sample-/253014355185?var=&hash=item3ae8d4acf1:m:msFyOhoJQYwwjiI4obFkcPw
p143
aVhttp://www.ebay.com/itm/Vanilla-Hazelnut-Cream-Flavour-Coffee-Beans-100-Arabica-Bean-or-Ground-Coffee-/120984422857?var=&epid=1563891270&hash=item1c2b3bc9c9:m:mFKrKzRvbUyL8KzHwxAz2Gg
p144
aVhttp://www.ebay.com/itm/Ashleigh-Burwood-Premium-Fragrance-Lamp-Oil-Burner-Refill-Bottle-500ml-Gift-/192167442628?var=&epid=570010344&hash=item2cbe1278c4:m:mzXjEO52rAo7SdbHLkN9Mag
p145
aVhttp://www.ebay.com/itm/80-Nespresso-Compatible-Pods-FREE-Espresso-Cup-Saucer-Caffesso-Pods-/272407421440?var=&hash=item3f6cbf6200:m:mtALJUMhZh3Ijf3KVizfn_w
p146
aVhttp://www.ebay.com/itm/Classikool-200g-Simmering-Granules-Home-Fragrance-Oil-Burner-Scented-Sprinkles-/311639352857?var=&hash=item488f272619:m:mx6ew0msXk9LPD_3MIiJMwg
p147
aVhttp://www.ebay.com/itm/1-Pcs-Vanilla-Plastic-canvas-similar-Aida-14-ct-30-x-50-cm-/282380826105?hash=item41bf3575f9:g:QywAAOSwXeJYGJY~
p148
aVhttp://www.ebay.com/itm/CANDLE-AND-BATH-MAKING-FRAGRANCE-OILS-1OML-186-SCENTS-SOAP-BATH-BOMBS-CANDLES-/282379955161?var=&hash=item41bf282bd9:m:mxYMNLUFtxQjbmT-RIHitcw
p149
aVhttp://www.ebay.com/itm/Yorkshire-Farm-Oat-Whey-Protein-weight-Gainer-2-4kg-Strawberry-Vanilla-Chocolate-/252761839243?var=&epid=1452885436&hash=item3ad9c7968b:m:mbOENbbyk_G_4LY7Q6oI1Ng
p150
aVhttp://www.ebay.com/itm/100-NESPRESSO-COMPATIBLE-COFFEE-CAPSULES-PODS-RISTRETTO-ARPEGGIO-EQUIVALENT-/301650439619?var=&epid=1784568704&hash=item463bc46dc3:m:mtALJUMhZh3Ijf3KVizfn_w
p151
aVhttp://www.ebay.com/itm/French-Vanilla-Flavoured-Coffee-Beans-250g-/191900209893?var=&hash=item2cae24d2e5:m:m2u-p1v0PphTt2zI1q-zMtw
p152
aVhttp://www.ebay.com/itm/Optimum-Nutrition-Serious-Mass-5-4kg-Weight-Gainer-Gain-Protein-All-Flavours-/111523360350?var=&epid=1934362086&hash=item19f74f6e5e:m:mm8UW5hR2BQzMfoNgdVV4ZA
p153
aVhttp://www.ebay.com/itm/Yankee-Candle-Large-Jar-22oz-Up-to-40-off-Selected-Fragrances-FREE-POSTAGE-/161187862122?var=&hash=item25878b966a:m:mHkqXbDnCeZd8jUEF9XDDsA
p154
aVhttp://www.ebay.com/itm/Wooden-Incense-Burner-Incense-Stick-Holder-Joss-Stick-Burner-and-10-FREE-Sticks-/222567424668?var=&hash=item33d20d629c:m:mVwzvhQq4AL_a2kCoDTti3w
p155
aVhttp://www.ebay.com/itm/Optimum-Nutrition-Optimum-Nutrition-Gold-Standard-Whey-Protein-2-27kg-/302243016821?var=&epid=1205214680&hash=item465f167075:m:mxfLeeHwQwescokoeIpXO4w
p156
aVhttp://www.ebay.com/itm/Tassimo-T-Discs-Full-Packs-Capsules-Coffee-Pods-Choose-From-24-Flavours-/112430015645?var=&hash=item1a2d59e49d:m:m2gOki52_JfZBAcw_HD-4uw
p157
aVhttp://www.ebay.com/itm/VELVET-VANILLA-Concentrated-Perfume-Oil-Alcohol-Free-by-SWISS-ARABIAN-Perfumes-/252950239396?var=&hash=item3ae50258a4:m:mvltaDYUYodLQoUNy0Bp-eQ
p158
aVhttp://www.ebay.com/itm/120-Rene-Compatible-Nespresso-Coffee-Capsules-Pods-12-Flavours-/271304457070?var=&epid=1763971562&hash=item3f2b017b6e:m:msXej8S-_qvXogxcWajHUHA
p159
aVhttp://www.ebay.com/itm/Lubrisolve-Online-Flavour-Concentrates-e-liquids-/301895051469?var=&hash=item464a58e8cd:m:mo3IHepg-_gmXhu2h5KhiCw
p160
aVhttp://www.ebay.com/itm/Vanilla-Deluxe-Flavour-Coffee-Beans-100-Arabica-Bean-or-Ground-Coffee-/111446868464?var=&hash=item19f2c041f0:m:mPUhaHqoRbCpD8H2J0IHRLQ
p161
aVhttp://www.ebay.com/itm/Candle-Fragrance-Oil-Premium-Wax-Melt-Scent-Crafts-CLP-PROVIDED-LISTING-1-/141669832658?var=&hash=item20fc2e17d2:m:meNKO5JfoBCJS5Y7WLPr-zA
p162
aVhttp://www.ebay.com/itm/USN-Hyperbolic-Mass-Weight-Gainer-Builder-2kg-6kg-/360930369565?var=&epid=1137703568&hash=item540920601d:m:mOPxvq3IaHlDLfOYuFrLAEQ
p163
aVhttp://www.ebay.com/itm/2-Packs-Tassimo-Costa-Vanilla-Latte-T-Discs-Pods-16-Large-Drinks-310ml-Cups-/391654294138?hash=item5b306a427a:g:6g4AAOSw241YVDHT
p164
aVhttp://www.ebay.com/itm/NEW-Helmbold-VANILLA-medium-dense-curled-mohair-25-mm-pile-/112382866245?hash=item1a2a8a7345:g:h8gAAOSwBLlVR73d
p165
aVhttp://www.ebay.com/itm/Capella-Vanilla-Cupcake-v2-flavour-concentrate-/191826427207?hash=item2ca9befd47:g:Z7UAAOSwoudW5pbJ
p166
aVhttp://www.ebay.com/itm/Ashleigh-Burwood-Premium-Fragrance-Lamp-Oil-Burner-Refill-Bottle-500ml-Gift-/192167442628?var=&epid=570010344&hash=item2cbe1278c4:m:mzXjEO52rAo7SdbHLkN9Mag
p167
aVhttp://www.ebay.com/itm/Organic-Shop-Body-Mousse-Bourbon-Vanilla-Organic-Vanilla-Orchid-250ml-/262797457046?epid=1273730245&hash=item3d2ff2f696:g:UTkAAOSwOMdZPTxo
p168
aVhttp://www.ebay.com/itm/Dolce-Gusto-Latte-Macchiato-Vanilla-Pack-of-2-Unit-Quantity-32-16-Servings-/271409415147?epid=28004672899&hash=item3f314303eb:g:ijMAAOxy0NtTCc9J
p169
aVhttp://www.ebay.com/itm/USN-Pure-Protein-GF-1-2-28kg-/162500251501?var=&epid=1105283386&hash=item25d5c50f6d:m:miLgKtHLUfr7SLUz6GzxKyg
p170
aVhttp://www.ebay.com/itm/DSW-Side-Dining-Chair-Scandi-Retro-WALNUT-OR-NATURAL-WOOD-LEGS-/322557698658?var=&hash=item4b19efe262:m:my-iV4ScSEryGfVy9iNO9Eg
p171
aVhttp://www.ebay.com/itm/Yankee-Candle-Vanilla-Cupcake-Ultimate-Car-Jar-Air-Freshener-FREE-P-P-/401269329348?epid=1140146146&hash=item5d6d840dc4:g:QjYAAOSw~FJZMIUL
p172
aVhttp://www.ebay.com/itm/6-X-AIRWICK-AIR-WICK-PLUG-IN-OIL-REFILLS-WHITE-VANILLA-BEAN-/272567656237?epid=1312669141&hash=item3f764c5f2d:g:~3MAAOSwSlBYsC5n
p173
aVhttp://www.ebay.com/itm/6-X-AIRWICK-AIR-WICK-PLUG-IN-OIL-REFILLS-VANILLA-ORCHID-/282372683545?epid=1368144424&hash=item41beb93719:g:t7oAAOSwdGFYsC5o
p174
aVhttp://www.ebay.com/itm/Yankee-Candle-Vanilla-Large-Jar-FREE-P-P-/182428385880?epid=1056501554&hash=item2a79944258:g:5poAAOSwCQZZL0oN
p175
a.