(lp0
Vhttps://www.amazon.co.uk/LEFT-WING-COMMUNISM-Infantile-Disorder/dp/090622490X/ref=sr_1_1/261-5494620-4951918?ie=UTF8&qid=1500121054&sr=8-1&keywords=infantile
p1
aVhttps://www.amazon.co.uk/Know-That-Youre-Wanking-infantile-ebook/dp/B00JW0O4TM/ref=sr_1_2/261-5494620-4951918?ie=UTF8&qid=1500121054&sr=8-2&keywords=infantile
p2
aVhttps://www.amazon.co.uk/Zaapa-WB-FHDD717-disks-dibujos-Infantile/dp/B00I8VQRS2/ref=sr_1_3/261-5494620-4951918?ie=UTF8&qid=1500121054&sr=8-3&keywords=infantile
p3
aVhttps://www.amazon.co.uk/d/Indoor-Lighting/Navega-Infantile-8436547480418-Pendant-Stainless/B00FPBCA16/ref=sr_1_4/261-5494620-4951918?ie=UTF8&qid=1500121054&sr=8-4&keywords=infantile
p4
aVhttps://www.amazon.co.uk/Pyotr-Ilyich-Tchaikovsky-stagioni-infantile-x/dp/B01M13QJL0/ref=sr_1_5/261-5494620-4951918?ie=UTF8&qid=1500121054&sr=8-5&keywords=infantile
p5
aVhttps://www.amazon.co.uk/d/c7h/Intime-Rectangle-Imprim%C5%A1%C5%A0-Floral-Infantile-Piscine-Baignoire/B01302RCUU/ref=sr_1_6/261-5494620-4951918?ie=UTF8&qid=1500121054&sr=8-6&keywords=infantile
p6
aVhttps://www.amazon.co.uk/dp/B01MTYS6DC/ref=sr_1_7/261-5494620-4951918?ie=UTF8&qid=1500121054&sr=8-7&keywords=infantile
p7
aVhttps://www.amazon.co.uk/Pezzi-Infantili-Mondo-Delle-Fiabe/dp/8850705565/ref=sr_1_8/261-5494620-4951918?ie=UTF8&qid=1500121054&sr=8-8&keywords=infantile
p8
aVhttps://www.amazon.co.uk/MASHA-LORSO-ZAINETTO-INFANTILE-23X18X6/dp/B00X3VR7F4/ref=sr_1_9/261-5494620-4951918?ie=UTF8&qid=1500121054&sr=8-9&keywords=infantile
p9
aVhttps://www.amazon.co.uk/Bubble-Meows-Lame-O-Baby-Jib/dp/B01M1427Z4/ref=sr_1_10/261-5494620-4951918?ie=UTF8&qid=1500121054&sr=8-10&keywords=infantile
p10
aVhttps://www.amazon.co.uk/Para-Tocar-Canciones-Infantile-Songbook/dp/987611039X/ref=sr_1_11/261-5494620-4951918?ie=UTF8&qid=1500121054&sr=8-11&keywords=infantile
p11
aVhttps://www.amazon.co.uk/d/Books/Why-Grow-Up-Subversive-Thoughts-Infantile-Age/0141982497/ref=sr_1_12/261-5494620-4951918?ie=UTF8&qid=1500121054&sr=8-12&keywords=infantile
p12
aVhttps://www.amazon.co.uk/Wiederkehr-Totemismus-%C3%9Cbereinstimmungen-Seelenleben-Neurotiker-ebook/dp/B005HKKIUK/ref=sr_1_13/261-5494620-4951918?ie=UTF8&qid=1500121054&sr=8-13&keywords=infantile
p13
aVhttps://www.amazon.co.uk/Infantile/dp/B01B0ZXICK/ref=sr_1_14/261-5494620-4951918?ie=UTF8&qid=1500121054&sr=8-14&keywords=infantile
p14
aVhttps://www.amazon.co.uk/Navega-Europa-Infantile-8436547480142-Ceiling/dp/B00BSL3IVS/ref=sr_1_15/261-5494620-4951918?ie=UTF8&qid=1500121054&sr=8-15&keywords=infantile
p15
aVhttps://www.amazon.co.uk/Walt-Disney-Treasures-Mickey-Living/dp/B0007N1BA8/ref=sr_1_16/261-5494620-4951918?ie=UTF8&qid=1500121054&sr=8-16&keywords=infantile
p16
aVhttps://www.amazon.co.uk/bambini-controllo-cappello-percalle-estate/dp/B00LLDX4CQ/ref=sr_1_17/261-5494620-4951918?ie=UTF8&qid=1500121057&sr=8-17&keywords=infantile
p17
aVhttps://www.amazon.co.uk/Great-Plastic-Stackable-Decorated-Infantile/dp/B06XNVJ4S1/ref=sr_1_18/261-5494620-4951918?ie=UTF8&qid=1500121057&sr=8-18&keywords=infantile
p18
aVhttps://www.amazon.co.uk/Banjado-anthracite-toiletseat-closetseat-Crocodile/dp/B0718XYV9V/ref=sr_1_19/261-5494620-4951918?ie=UTF8&qid=1500121057&sr=8-19&keywords=infantile
p19
aVhttps://www.amazon.co.uk/Baby-Einstein-Mozart-Music-Festival/dp/B0000934BJ/ref=sr_1_20/261-5494620-4951918?ie=UTF8&qid=1500121057&sr=8-20&keywords=infantile
p20
aVhttps://www.amazon.co.uk/dp/B01NABFITF/ref=sr_1_21/261-5494620-4951918?ie=UTF8&qid=1500121057&sr=8-21&keywords=infantile
p21
aVhttps://www.amazon.co.uk/MASHA-ORSO-BOY-ZAINETTO-INFANTILE/dp/B00X3TZTZG/ref=sr_1_22/261-5494620-4951918?ie=UTF8&qid=1500121057&sr=8-22&keywords=infantile
p22
aVhttps://www.amazon.co.uk/Infantile-Autism-Syndrome-Implications-Behavior/dp/1849057893/ref=sr_1_23/261-5494620-4951918?ie=UTF8&qid=1500121057&sr=8-23&keywords=infantile
p23
aVhttps://www.amazon.co.uk/Lautisme-infantile-sais-je-3508-French-ebook/dp/B00AQWA4H6/ref=sr_1_24/261-5494620-4951918?ie=UTF8&qid=1500121057&sr=8-24&keywords=infantile
p24
aVhttps://www.amazon.co.uk/Infantili-e-crudeli/dp/B01ASA3NYG/ref=sr_1_25/261-5494620-4951918?ie=UTF8&qid=1500121057&sr=8-25&keywords=infantile
p25
aVhttps://www.amazon.co.uk/anapn-PhotoFrame/dp/B00801XPS0/ref=sr_1_26/261-5494620-4951918?ie=UTF8&qid=1500121057&sr=8-26&keywords=infantile
p26
aVhttps://www.amazon.co.uk/Infantile-Spiele-Explicit-Umbra-Imago/dp/B003717D22/ref=sr_1_27/261-5494620-4951918?ie=UTF8&qid=1500121057&sr=8-27&keywords=infantile
p27
aVhttps://www.amazon.co.uk/Ethics-101/dp/B00FZQZQ5S/ref=sr_1_28/261-5494620-4951918?ie=UTF8&qid=1500121057&sr=8-28&keywords=infantile
p28
aVhttps://www.amazon.co.uk/d/Health-Baby-Care/ScratchSleeves-Stay-Scratch-Babies-Oatmeal/B00DM2OI3S/ref=sr_1_29/261-5494620-4951918?ie=UTF8&qid=1500121057&sr=8-29&keywords=infantile
p29
aVhttps://www.amazon.co.uk/ScratchSleeves-Stay-Scratch-Babies-months/dp/B00A6FT83E/ref=sr_1_30/261-5494620-4951918?ie=UTF8&qid=1500121057&sr=8-30&keywords=infantile
p30
aVhttps://www.amazon.co.uk/Banjado-toiletseat-closetseat-Crocodile-Infantile-x/dp/B06Y64LF84/ref=sr_1_31/261-5494620-4951918?ie=UTF8&qid=1500121057&sr=8-31&keywords=infantile
p31
aVhttps://www.amazon.co.uk/banjado-bulletin-noticeboard-Crocodile-Infantile/dp/B01FLXEHDG/ref=sr_1_32/261-5494620-4951918?ie=UTF8&qid=1500121057&sr=8-32&keywords=infantile
p32
a.