(lp1
Vhttp://www.ebay.com/itm/Nuvo-jSax-Student-Saxophone-BLACK-With-BLACK-Trim-NEW-/302259079751?hash=item46600b8a47:g:zNUAAOSw-YVXnbTA
p2
aVhttp://www.ebay.com/itm/CLEAN-YOUR-TENOR-SAXOPHONE-QUICKLY-AND-SAFELY-/160672378900?epid=1488250953&hash=item2568d1f014:g:gb8AAOxy9tpR~MdP
p3
aVhttp://www.ebay.com/itm/PERSONALISED-ENGRAVED-LEAD-CRYSTAL-SAXOPHONE-WHISKY-JUICE-GLASS-Birthday-NEW-/400759360791?var=&hash=item5d4f1e8d17:m:m5EkG4vBSS2l0ldOdbXSBeQ
p4
aVhttp://www.ebay.com/itm/Saxophone-Fingering-Chart-Alto-Tenor-Soprano-NEW-/151575825162?hash=item234a9f8b0a:m:mJKJs15Ab6o2TxTIOrPk7Qg
p5
aVhttp://www.ebay.com/itm/BAM-Softpack-Alto-Case-Black-/371980682829?hash=item569bc6c64d:g:MDMAAOSwIhxZZ5WH
p6
aVhttp://www.ebay.com/itm/WILLIAM-WIDDOP-MINIATURE-SAXOPHONE-CLOCK-MODEL-MUSICAL-INSTRUMENT-9687-/361112096299?epid=595980312&hash=item5413f54e2b:g:uL4AAOxy77hSFHu7
p7
aVhttp://www.ebay.com/itm/Yamaha-Alto-Saxophone-mouthpiece-7C-/302354549381?epid=1907814468&hash=item4665bc4a85:g:m9sAAMXQDrJR5UjM
p8
aVhttp://www.ebay.com/itm/Alto-Tenor-Saxophone-Sax-Mouthpiece-Patches-Cushion-Silicone-Pads-Black-0-8mm-/132130585182?hash=item1ec398ba5e:g:LBQAAOSwNnRYjQtS
p9
aVhttp://www.ebay.com/itm/La-Voz-Alto-Sax-Saxophone-Reeds-Single-Reed-Various-Strengths-/222466422583?var=&epid=1674766919&hash=item33cc083737:m:mLYB4YAp6yG5WSG6WPvGhWA
p10
aVhttp://www.ebay.com/itm/SILVER-PLATE-YOUR-ALTO-SAXOPHONE-WITH-INSTANT-RESULTS-/160672381871?epid=1488248144&hash=item2568d1fbaf:g:gzgAAOxyBLBSBB~a
p11
aVhttp://www.ebay.com/itm/Reig-Deluxe-Saxophone-Silver-/122190207041?hash=item1c731a9841:g:QKoAAOSwPCVYB7l0
p12
aVhttp://www.ebay.com/itm/Baritone-Tenor-Alto-Sax-Saxophone-Strap-Harness-Black-/251939025575?epid=1455975999&hash=item3aa8bc72a7:g:~zsAAOSw-CpX~0kj
p13
aVhttp://www.ebay.com/itm/Miniature-Saxophone-Musical-Instrument-Ornament-Musical-Boxed-dolls-house-LGW-/331959269352?hash=item4d4a5077e8:g:LCMAAOSwZ8ZW5X34
p14
aVhttp://www.ebay.com/itm/D6-8pcs-Alto-Tenor-Saxophone-Sax-Mouthpiece-Patches-Pads-Cushions-Black-0-3mm-/222319505008?epid=1569012028&hash=item33c3466e70:g:kXgAAOSw44BYL8Xs
p15
aVhttp://www.ebay.com/itm/AAS33-Amati-Alto-Saxophone-in-Black-Lacquer-/232277487277?epid=697511277&hash=item3614d12ead:g:WpIAAOSwSlBY0ATi
p16
aVhttp://www.ebay.com/itm/K-M-Konig-Meyer-Adjustable-Folding-Saxophone-Stand-for-Eb-Alto-Bb-Tenor-Sax-/112060188981?epid=1405133492&hash=item1a174ec935:g:~-IAAOSwIgNXjMFT
p17
aVhttp://www.ebay.com/itm/Alfreds-Care-Kit-Complete-for-Tenor-Saxophone-Clean-Maintain-Your-Instrument-/332035638408?epid=1351190740&hash=item4d4eddc488:g:8r4AAOSwfZ1WZuxe
p18
aVhttp://www.ebay.com/itm/Reig-Deluxe-Saxophone-Silver-Kids-Childrens-Sax-ABS-Plastic-FREE-P-P-/281921378177?epid=2069889340&hash=item41a3d2d781:g:uEEAAOSwFMZWqhvu
p19
aVhttp://www.ebay.com/itm/Saxophone-Mouthpiece-For-Alto-Sax-With-Ligature-And-Cap-/151834940742?hash=item235a115546:g:CFoAAOSwBadTpTN6
p20
aVhttp://www.ebay.com/itm/Ammoon-Mini-Pocket-Bb-Saxophone-ABS-Sax-Mouthpiece-With-High-2-Reeds-Transport-/132235538889?hash=item1ec9da31c9:g:q-0AAOSwFqNZS5wK
p21
aVhttp://www.ebay.com/itm/Toy-Saxophone-Bontempi-Sax-Musical-Instrument-For-School-Child-Like-Trumpet-/121595731278?epid=904043086&hash=item1c4fab9d4e:g:af0AAOSwnDxUijbG
p22
aVhttp://www.ebay.com/itm/Nuvo-jSax-Student-Saxophone-WHITE-With-BLUE-Trim-NEW-/282188213055?epid=1179849910&hash=item41b3ba6b3f:g:pNUAAOSwbsBXnbQC
p23
aVhttp://www.ebay.com/itm/Parchment-Alto-Sax-Outift-/141768149274?hash=item21020a491a:g:vWIAAOSwMmBV7Znk
p24
aVhttp://www.ebay.com/itm/Duckbill-pliers-Flat-nose-woodwind-repair-Tools-Jewelery-Making-Prestige-11915-/232396943083?epid=19004606521&hash=item361befeeeb:g:RCIAAOSwEetV9J-p
p25
a.