(lp1
Vhttp://www.ebay.com/itm/FLOWER-BEGONIA-TUBEROUS-ILLUMINATION-MIXED-F1-150-PELLETS-BULK-/281561908321?epid=748700764&hash=item418e65c461:g:ubAAAOSwYGFUroj0
p2
aVhttp://www.ebay.com/itm/FLOWER-BEGONIA-TUBEROUS-F1-NON-STOP-YELLOW-150-PELLETS-BULK-/371235080960?epid=749833298&hash=item566f55cb00:g:sDsAAOSwa39Uroua
p3
aVhttp://www.ebay.com/itm/FLOWER-BEGONIA-TUBEROUS-ILLUMINATION-F1-ROSE150-PELLETS-BULK-/371235080956?epid=746400850&hash=item566f55cafc:g:TPAAAOSwk5FUrlv7
p4
aVhttp://www.ebay.com/itm/FLOWER-BEGONIA-TUBEROUS-ILLUMINATION-F1-GOLDEN-PICOTEE-150-PELLETS-BULK-/371235080955?epid=748437328&hash=item566f55cafb:g:hOMAAOSwWKtUrlqz
p5
aVhttp://www.ebay.com/itm/FLOWER-BEGONIA-TUBEROUS-NON-STOP-WHITE-F1-150-PELLETS-BULK-/371235080951?epid=785055233&hash=item566f55caf7:g:~HUAAOSw8d9UrmKD
p6
aVhttp://www.ebay.com/itm/FLOWER-BEGONIA-TUBEROUS-ON-TOP-F1-PINK-HALO-150-PELLETS-BULK-/371235080957?epid=748609107&hash=item566f55cafd:g:UY0AAOSw2s1Urmme
p7
aVhttp://www.ebay.com/itm/FLOWER-BEGONIA-TUBEROUS-ON-TOP-PINK-HALO-F1-15-PELLETS-/391027523102?epid=746398684&hash=item5b0b0e7e1e:g:UY0AAOSw2s1Urmme
p8
aVhttp://www.ebay.com/itm/FLOWER-BEGONIA-TUBEROUS-ILLUMINATION-WHITE-F1-15-PELLETS-/391027523100?epid=746398531&hash=item5b0b0e7e1c:g:QvsAAOSwYGFUrlwy
p9
aVhttp://www.ebay.com/itm/FLOWER-BEGONIA-TUBEROUS-ILLUMINATION-ROSE-F1-15-PELLETS-/281561908318?epid=748599875&hash=item418e65c45e:g:TPAAAOSwk5FUrlv7
p10
aVhttp://www.ebay.com/itm/FLOWER-BEGONIA-TUBEROUS-ILLUMINATION-MIXED-F1-15-PELLETS-/281561908323?epid=758500466&hash=item418e65c463:g:IjMAAOSwWKtUroiN
p11
aVhttp://www.ebay.com/itm/FLOWER-BEGONIA-TUBEROUS-NON-STOP-YELLOW-F1-15-PELLETS-/281561908319?epid=748629055&hash=item418e65c45f:g:gOwAAOSwWKtUrmLB
p12
aVhttp://www.ebay.com/itm/FLOWER-BEGONIA-TUBEROUS-NON-STOP-WHITE-F1-15-PELLETS-/281561908322?epid=746398437&hash=item418e65c462:g:4GkAAOSw8d9Uror-
p13
aVhttp://www.ebay.com/itm/FLOWER-BEGONIA-TUBEROUS-ILLUMINATION-GOLDEN-PICOTEE-F1-15-PELLETS-/281561908320?epid=758245049&hash=item418e65c460:g:hOMAAOSwWKtUrlqz
p14
aVhttp://www.ebay.com/itm/Tuberous-Begonias-An-Essential-Guide-by-Jack-Larter-9781847972316-/252689563717?epid=97653262&hash=item3ad578c045:g:6yoAAOSwo4pYWOGQ
p15
aVhttp://www.ebay.com/itm/Tuberous-Begonias-An-Essential-Guide-Hardcover-NEW-Larter-Jack-2011-02-25-/280968889594?epid=97653262&hash=item416b0d04fa:g:yJ4AAOSwBahVAB7w
p16
aVhttp://www.ebay.com/itm/Begonias-The-Care-and-Cultivation-of-Tuberous-Varieti-Brian-Langdon-Hardback-/142161171728?epid=89957790&hash=item2119775510:g:g7QAAOSwD8BZb-KM
p17
aVhttp://www.ebay.com/itm/Begonias-The-Care-and-Cultivation-of-Tuberous-Varieti-Brian-Langdon-Hardback-/302036620954?epid=89957790&hash=item4652c9169a:g:JJwAAOSwHLNZU3N3
p18
a.