(lp1
Vhttp://www.ebay.com/itm/Puma-EvoPower-1-2-Mixed-SG-Football-Boots-Soccer-Cleats-in-Blue-Red-103172-01-/182433757705?var=&epid=0&hash=item2a79e63a09:m:mEBhKup3WuXB4ashlvnsVJg
p2
aVhttp://www.ebay.com/itm/Football-Training-Soccer-Practice-Kick-Trainer-Solo-Kick-Waistband-Returner-/292042159739?hash=item43ff11b67b:g:~08AAOSw4A5Ytxfu
p3
aVhttp://www.ebay.com/itm/NEW-Adidas-Messi-15-4-Junior-Football-Trainers-Black-Soccer-Shoes-/162295714563?var=&epid=1947269342&hash=item25c9941303:m:mAzsmCjUCqrQNp1Nxb2r1EQ
p4
aVhttp://www.ebay.com/itm/NEW-Adidas-Messi-15-4-Junior-Football-Trainers-Green-Soccer-Shoes-/152429061772?var=&epid=1164819033&hash=item237d7ae68c:m:mVnaxWHTVqxyDmI9AAVbN6A
p5
aVhttp://www.ebay.com/itm/adidas-Janerinha-Sala-B-V23734-Mens-Trainers-Football-Soccer-UK-6-5-to-11-Only-/272550666620?var=&hash=item3f7549217c:m:mdSF7IZmirSZQ21bFb8IoZA
p6
aVhttp://www.ebay.com/itm/MENS-LACE-UP-SPORTS-FOOTBALL-RUNNING-SOCCER-KAPPA-BOYS-TRAINERS-SHOES-SIZE-6-12-/272616535073?var=&hash=item3f79363421:m:mHfpoeNLZcRoKbFCOa2J3lA
p7
aVhttp://www.ebay.com/itm/Puma-EvoPower-2-2-Mixed-SG-Football-Boots-Soccer-Cleats-White-Orange-103212-04-/122160028197?var=&hash=item1c714e1a25:m:mL1JdlmBb5fxAeTAec8_IIw
p8
aVhttp://www.ebay.com/itm/Nike-Magistax-Pro-Indoor-Boys-Junior-Football-Trainers-Futsal-Soccer-Shoes-UK1-5-/331958408377?var=&hash=item4d4a4354b9:m:memGVWYAKYYORY6d9UM8WLw
p9
aVhttp://www.ebay.com/itm/Size-5-ADIDAS-Messi-Q2-Football-Ball-Green-AC5525-Soccer-Balls-Green-Lionel-/152462795191?epid=1982495645&hash=item237f7da1b7:g:AZoAAOSwCU1YrcL~
p10
aVhttp://www.ebay.com/itm/Boys-Nike-tiempo-III-Astro-Turf-Trainers-Black-Kids-Soccer-Astroturf-Shoes-/112340186365?var=&epid=2007798404&hash=item1a27ff34fd:m:myRg3-HOioPdFf3Ovm9yqPQ
p11
aVhttp://www.ebay.com/itm/Puma-V3-06-SG-Mens-Soccer-Cleats-Shoes-White-/381803041937?var=&hash=item58e53c1491:m:mkl67DCCPo6M4WMpK0qCpcA
p12
aVhttp://www.ebay.com/itm/Premier-League-Football-2018-Soccer-Ball-FIFA-Specified-Size-5-Spedster-/152365200096?epid=2115244857&hash=item2379ac72e0:g:broAAOSwNE5YWw3l
p13
aVhttp://www.ebay.com/itm/Nike-201718-Mini-English-Premier-League-Skills-Football-Soccer-Ball-Size-1-MINI-/232414943417?var=&hash=item361d0298b9:m:mEVhYq8hgTWqk7OfUOiMcHw
p14
aVhttp://www.ebay.com/itm/PUMA-Mens-Astro-Turf-TT-Football-Trainers-Black-White-Soccer-Shoes-UK-6-11-NEW-/232244487923?var=&hash=item3612d9a6f3:m:mBSigx5xWdjqMAInK69UPLw
p15
aVhttp://www.ebay.com/itm/Puma-V1-08-4-Trainer-Mens-Soccer-Boots-Cleats-Gold-1501-/152402572501?var=&hash=item237be6b4d5:m:mfw6AC6bz6oHX28MQkgLmIw
p16
aVhttp://www.ebay.com/itm/Adidas-Starlancer-Football-Soccer-Ball-Size-5-Green-New-/371921136055?epid=1554561331&hash=item56983a29b7:g:uN8AAOSw~CFY8jyW
p17
aVhttp://www.ebay.com/itm/Real-Madrid-Football-Official-Match-ball-Size-5-4-3-Soccer-ball-Spedster-/112451278512?var=&hash=item1a2e9e56b0:m:mR_in4PeFA15th1NyZTP_XQ
p18
aVhttp://www.ebay.com/itm/NEW-Nike-Mercurial-Fade-Pitch-Football-Soccer-Ball-Pink-Black-Size-3-4-5-/332179156580?var=&hash=item4d576bae64:m:m8HNE4bBBUQezT-H3KnRrHw
p19
aVhttp://www.ebay.com/itm/Barcelona-Football-FIFA-Specified-Match-Ball-Soccer-Ball-Size-5-4-3-Spedster-/152360329582?var=&hash=item237962216e:m:md9zKjMeO7XeXaU5YuloOjg
p20
aVhttp://www.ebay.com/itm/adidas-Messi-15-4-Street-Football-Trainers-Mens-Indoor-Soccer-Futsal-Shoes-Red-/332191673431?var=&epid=1767099747&hash=item4d582aac57:m:m5WwQfdVHhrYRgp3wpAkF1w
p21
aVhttp://www.ebay.com/itm/NEW-Adidas-Real-Madrid-2016-17Mini-Football-Soccer-Ball-White-Blue-Size-1-Mini-/172725238224?var=&hash=item283739f9d0:m:mFaoUqFVokkLdX8Dgnki5Xw
p22
aVhttp://www.ebay.com/itm/Adidas-Ace-15-4-TF-Junior-Boys-Black-Astro-Football-Trainers-Soccer-Sports-Shoes-/162235298324?var=&epid=1762513999&hash=item25c5fa3214:m:mKJkRgEaXf6y9aH3NyOoNEA
p23
aVhttp://www.ebay.com/itm/NEW-Nike-FC-Barcelona-Club-Crest-Supporters-2017-Football-Soccer-Ball-Size-5-/263057983454?epid=2128147756&hash=item3d3f7a47de:g:rTEAAOSwRUhY-Mc-
p24
aVhttp://www.ebay.com/itm/Adidas-Boys-Kids-X15-4-TF-Football-Trainers-Astro-Turf-Shoes-Soccer-Sports-Black-/252973931543?var=&hash=item3ae66bdc17:m:mwVOLOaqONzcvZeCIKcCElQ
p25
aVhttp://www.ebay.com/itm/Nike-Strike-Premier-League-Football-2017-2018-Size-5-Soccer-Ball-/272716214682?epid=1081148042&hash=item3f7f27319a:g:T9cAAOSw8GtZQGJ7
p26
aVhttp://www.ebay.com/itm/Perrini-Futsal-Official-Size-4-Soccer-Ball-Black-and-Yellow-/252400329222?epid=1554087135&hash=item3ac43b6206:g:FHYAAOSw3YJZSDnL
p27
aVhttp://www.ebay.com/itm/NEW-Adidas-2017-Mini-Champions-League-Final-Football-Soccer-Ball-SIze-1-Mini-/381975282346?var=&hash=item58ef8042aa:m:mGqMP9hBu94mrx1Wf0XABtA
p28
aVhttp://www.ebay.com/itm/Club-Branded-Childrens-Kids-Soccer-Manchester-City-Size-5-Football-Sky-/332172908273?epid=725654343&hash=item4d570c56f1:g:fhwAAOSw3utY4lql
p29
aVhttp://www.ebay.com/itm/New-Red-White-Or-Blue-Lionel-Messi-Training-Balls-Football-Soccer-Game-Official-/112350741530?var=&epid=2068696765&hash=item1a28a0441a:m:mKJE7age8FWFbGTXrIH2UMg
p30
aVhttp://www.ebay.com/itm/Mens-Adidas-Predito-Instinct-Astro-Turf-Football-Trainers-Soccer-astroturf-shoes-/112340574064?var=&epid=1762880250&hash=item1a28051f70:m:mPWSkz2QZRYh5Va9EB9xsmw
p31
aVhttp://www.ebay.com/itm/Club-Branded-Childrens-Kids-Soccer-Everton-Size-5-Football-Blue-/232291698888?epid=725703504&hash=item3615aa08c8:g:c08AAOSwA29Y4mBl
p32
aVhttp://www.ebay.com/itm/PUMA-Astro-Turf-V6-TT-Mens-Football-Trainers-White-Red-Soccer-Shoes-UK7-10-NEW-/232263325179?var=&epid=604956190&hash=item3613f915fb:m:mN-4cs0CV5qHJhjbpT8CAow
p33
aVhttp://www.ebay.com/itm/Puma-Esito-XL-i-FG-Mens-Soccer-Cleats-Boots-Black-and-Silver-/381773192020?var=&hash=item58e3749b54:m:mY-YQZDOpVWzr7WM4VjuD3w
p34
aVhttp://www.ebay.com/itm/Adidas-Manchester-United-FC-Training-Shorts-Mens-Black-White-Football-Soccer-/401283786556?var=&epid=1683569808&hash=item5d6e60a73c:m:mc0RQDccZu7mZCKO4yScORg
p35
aVhttp://www.ebay.com/itm/adidas-Messi-15-4-Indoor-B-AF4675-Mens-Trainers-Football-Soccer-UK-6-to-13-Only-/262843723882?var=&epid=1855451167&hash=item3d32b4f06a:m:mKgnJh50jb1zN1PhzojZsTQ
p36
aVhttp://www.ebay.com/itm/NEW-Adidas-Real-Madrid-2016-17-Football-Soccer-Ball-Blue-White-Full-Size-5-/381965774599?var=&epid=1279811924&hash=item58eeef2f07:m:mU1vJ65ZSjloGn_cXbvjO2Q
p37
aVhttp://www.ebay.com/itm/adidas-Ace-17-3-Pimemesh-Firm-Ground-B-BA8506-Mens-Football-Boots-UK-6-5-11-Only-/332238642565?var=&epid=2087945379&hash=item4d5af75d85:m:mN_lTRMu3gt8Jh1CVfA9CVA
p38
aVhttp://www.ebay.com/itm/adidas-Messi-15-3-Boys-Infant-Junior-Indoor-Football-Trainers-Futsal-Soccer-Shoe-/232136763349?var=&epid=1276990213&hash=item360c6de7d5:m:msIwdlYk7DgzyHyxjliFz1w
p39
aVhttp://www.ebay.com/itm/NEW-Nike-Mercurial-Fade-Pitch-Football-Soccer-Ball-Ronaldo-range-Lime-Size-3-4-5-/232233501197?var=&hash=item361232020d:m:mHwZecP04vT7byHc9LEmqwA
p40
aVhttp://www.ebay.com/itm/Nike-Strike-Premier-League-Football-English-Soccer-Ball-Premiership-15-16-2015-/332170323089?epid=1456708288&hash=item4d56e4e491:g:6gcAAOSwCU1Y4VMZ
p41
aVhttp://www.ebay.com/itm/NEW-Adidas-Official-2017-Messi-Football-Soccer-Ball-Sizes-3-4-5-Royal-Orange-/382153208412?var=&hash=item58fa1b325c:m:my1vsDI1m7MAGEV5lwV72WA
p42
aVhttp://www.ebay.com/itm/Adidas-Boys-Kids-Ace-15-4-X-Tf-Football-Trainers-Astro-Turf-Sports-Boots-Shoes-/122371314871?var=&epid=707006590&hash=item1c7de614b7:m:mcniG6PynSwQ5M-s03urJIg
p43
aVhttp://www.ebay.com/itm/Adidas-Boys-Kids-Ace-15-4-X-Tf-Football-Trainers-Astro-Turf-Sports-Boots-Shoes-/122371314871?var=&epid=707006590&hash=item1c7de614b7:m:mcniG6PynSwQ5M-s03urJIg
p44
aVhttp://www.ebay.com/itm/Nike-Strike-Premier-League-Football-2017-2018-Size-4-Soccer-Ball-/282523933490?epid=1081148042&hash=item41c7bd1b32:g:T9cAAOSw8GtZQGJ7
p45
aVhttp://www.ebay.com/itm/New-Nike-Mercurial-Vortex-CR7-Ronaldo-junior-Astro-Turf-TF-Football-Trainers-/332182167654?var=&hash=item4d5799a066:m:mk_c1kAo_pI7ZkJkGeGljnw
p46
aVhttp://www.ebay.com/itm/nike-mercurial-veloce-II-FG-mens-football-boots-651618-060-soccer-CLEARANCE-/302247031334?var=&epid=619939515&hash=item465f53b226:m:mfQNFTTQWkfaUBWE5MJoSKg
p47
aVhttp://www.ebay.com/itm/adidas-Boys-Messi-15-4-Indoor-Football-Trainers-Junior-Futsal-Soccer-Size-UK3-5-/331935139083?var=&epid=1152223967&hash=item4d48e0450b:m:m7xdwY2_Z9JfEiN39c38TtQ
p48
aVhttp://www.ebay.com/itm/Adidas-confederation-cup-2017-soccer-ball-Size-5-Training-Pro-Football-/182388079463?epid=910678319&hash=item2a772d3b67:g:REMAAOSwtGlZJeug
p49
aVhttp://www.ebay.com/itm/OFFICIAL-DC-COMICS-BATMAN-V-SUPERMAN-SIZE-3-FOOTBALL-SOCCER-BALL-/361918830609?var=&hash=item54440b1811:m:mogy1bCs9NoUFEm-7w2-1_Q
p50
aVhttp://www.ebay.com/itm/Nike-Pitch-2016-17-English-Premier-League-Pitch-Football-Ball-Soccer-Polar-Blue-/332177558149?var=&hash=item4d57534a85:m:mza1Yq5PYQY_cZ-nLvRDusw
p51
aVhttp://www.ebay.com/itm/Nike-Pitch-2016-17-English-Premier-League-Pitch-Football-Ball-Soccer-Royal-Blue-/332144859085?var=&hash=item4d556057cd:m:mQdFwlzgob_ZbDHV0lIGgBw
p52
aVhttp://www.ebay.com/itm/NEW-KIDS-PUMA-ESQUADRA-TT-JR-BOYS-BLACK-WHITE-ASTRO-TURF-SOCCER-TRAINERS-/151734506935?var=&epid=1458044598&hash=item235414d5b7:m:misK6pfRh-xdq_7BWloj5aQ
p53
aVhttp://www.ebay.com/itm/Puma-V1-10-SG-II-Mens-Soccer-Cleats-Shoes-White-/152288020331?var=&hash=item237512c76b:m:mLio4yfiJmMfbi7vQQtFZug
p54
aVhttp://www.ebay.com/itm/Puma-V3-08-i-FG-Mens-Leather-Soccer-Cleats-Shoes-Blue-/381948018270?var=&hash=item58ede03e5e:m:mHtZLecg6TjFFQvTPvAGJ5A
p55
aVhttp://www.ebay.com/itm/Puma-V-Konstrukt-II-SG-Mens-Leather-Soccer-Cleats-Boots-red-/152289148229?var=&hash=item237523fd45:m:mmDTOMp9p_Z1Vbi_Sc3dwpA
p56
aVhttp://www.ebay.com/itm/PUMA-evoPower-4-2-TT-Boys-Astro-Turf-Football-Trainers-Junior-Kids-Girls-Soccer-/332129654235?var=&hash=item4d547855db:m:m0W0NApoxH3vBhybyufy9JA
p57
aVhttp://www.ebay.com/itm/Puma-PowerCat-1-12-FG-Mens-Leather-Soccer-Cleats-Shoes-White-Red-/401262081363?var=&hash=item5d6d157553:m:mOpAW0ExAcM6_GTYTkLzq3A
p58
aVhttp://www.ebay.com/itm/Puma-PowerCat-3-12-SG-Mens-Soccer-Cleats-Boots-white-blue-/382129306286?var=&hash=item58f8ae7aae:m:mYdrORE_vHqE-e4P8tQ-sfw
p59
aVhttp://www.ebay.com/itm/Nike-Boys-Tiempo-Genio-TF-Football-Kids-Trainers-Astro-Turf-Shoes-Soccer-Junior-/252983179029?var=&epid=1585655428&hash=item3ae6f8f715:m:mm6A6nEgyIOH9-YSmUv9bzw
p60
aVhttp://www.ebay.com/itm/Puma-EvoPower-1-2-L-FG-Football-Boots-Soccer-Cleats-in-White-Orange-103210-08-/122159567027?var=&hash=item1c714710b3:m:m_y9KyRjq5tZsd0p6dyqWEw
p61
aVhttp://www.ebay.com/itm/New-Red-White-Or-Blue-Lionel-Messi-Training-Balls-Football-Soccer-Game-Official-/112350741530?var=&epid=2068696765&hash=item1a28a0441a:m:mKJE7age8FWFbGTXrIH2UMg
p62
aVhttp://www.ebay.com/itm/Puma-v5-08-Tricks-FG-Mens-Soccer-Cleats-Shoes-Black-/381949257500?var=&hash=item58edf3271c:m:mt2oVdeyA4rRKHqe7c3lr5w
p63
aVhttp://www.ebay.com/itm/Chelsea-FC-Football-Soccer-Training-Ball-Size-5-Blue-White-Silver-Official-/252560857965?hash=item3acdccdb6d:g:YHoAAOSwNRdX69cX
p64
aVhttp://www.ebay.com/itm/Lionel-MESSI-Training-Ball-Blue-Football-Soccer-/332034025249?epid=2055683917&hash=item4d4ec52721:g:9fkAAOSw5cNYLExK
p65
aVhttp://www.ebay.com/itm/Size-5-Football-Soccer-Trainer-Return-Practice-Ball-Elastic-Pump-Set-Kids-Toys-/272576105910?epid=1405377739&hash=item3f76cd4db6:g:Mc4AAOSwTM5YuYEj
p66
aVhttp://www.ebay.com/itm/ORIGINAL-JUNIOR-BOYS-ADIDAS-DAVICTO-VI-FOOTBALL-CASUAL-SOCCER-SPORTS-TRAINERS-/192001536243?var=&hash=item2cb42ef0f3:m:mL94c6RRA541vfpelssGndg
p67
aVhttp://www.ebay.com/itm/adidas-Messi-15-4-Indoor-Futsal-Soccer-Football-Boots-Childrens-Kids-/201472143664?var=&epid=1641980979&hash=item2ee8acf130:m:mhG-8EIOUgRaCxZbcdBXxHQ
p68
aVhttp://www.ebay.com/itm/Size-5-Football-Soccer-Trainer-Return-Practice-Ball-Elastic-Pump-Set-Kids-Toys-/272576105910?epid=1405377739&hash=item3f76cd4db6:g:Mc4AAOSwTM5YuYEj
p69
aVhttp://www.ebay.com/itm/Puma-V1-08-Tricks-Top-Trainer-Mens-Soccer-Sneakers-Boots-Gray-/401184419141?var=&epid=1683584691&hash=item5d68746d45:m:moqEhoCPZTrVUreVX12dSVg
p70
aVhttp://www.ebay.com/itm/Puma-PowerCat-1-10-Synth-Grass-Mens-Leather-Soccer-Boots-Cleats-Yellow-9903-/152068669349?var=&epid=1047425691&hash=item2367ffbfa5:m:mIrvfwAHgqLa2SAalJDSTxw
p71
aVhttp://www.ebay.com/itm/Puma-V-Konstrukt-II-GCi-FG-Mens-Soccer-Cleats-Boots-white-/381809675544?var=&hash=item58e5a14d18:m:mqcioukEHENmQk8mS87gzQQ
p72
aVhttp://www.ebay.com/itm/Puma-V3-08-i-FG-Mens-Leather-Soccer-Cleats-Shoes-Black-and-Red-/401202243630?var=&hash=item5d6984682e:m:mQBxyaySkXBeFkWbx3L-1Cw
p73
aVhttp://www.ebay.com/itm/Puma-V1-10-K-SG-Mens-Leather-Soccer-Cleats-Shoes-White-4301-/401184972564?var=&hash=item5d687cdf14:m:mDxthxOFOF5-w-axLuSZttQ
p74
aVhttp://www.ebay.com/itm/20cm-Large-Foam-Sponge-Football-Size-5-Ball-Soft-Indoor-Outdoor-Soccer-Toy-/192142415892?var=&epid=1738264490&hash=item2cbc949814:m:mA6Iv7LwScf84Q_eDuZcvIA
p75
aVhttp://www.ebay.com/itm/Puma-PowerCat-2-10-TT-Mens-Soccer-Astro-Turf-Sneakers-Boots-black-/152403733236?var=&hash=item237bf86af4:m:miWkJn-NY5n5unuSF0jE-zQ
p76
aVhttp://www.ebay.com/itm/Puma-evoTOUCH-3-IT-Mens-Black-Indoor-Football-Trainers-Sports-Shoes-/162473051937?var=&epid=1783529912&hash=item25d4260721:m:mpKTp65lW0uwxWSEpSN02nw
p77
aVhttp://www.ebay.com/itm/Nike-5-Bomba-Pro-Football-Shoes-Trainers-Black-100-Authentic-/112290860551?var=&hash=item1a250e8e07:m:mh9-OoJx0U7xKlAXawU4oyg
p78
aVhttp://www.ebay.com/itm/Adidas-Questra-World-Cup-1994-Football-Soccer-Ball-Modern-Re-issue-Size-5-/382100184346?hash=item58f6f21d1a:g:yB4AAOSw~rpZPD43
p79
aVhttp://www.ebay.com/itm/Sondico-Football-size-4-and-5-Multi-Styles-Colours-Sport-Equipment-Soccer-Balls-/311693681034?var=&hash=item489264218a:m:m2VT1yLthjHyeXH21OYqeHg
p80
aVhttp://www.ebay.com/itm/adidas-ace-16-4-performance-shoes-childrens-blue-indoor-football-sports-trainers-/302252609353?var=&epid=1065845056&hash=item465fa8cf49:m:m2iNfopo6XoEKeWu7Amix-g
p81
aVhttp://www.ebay.com/itm/Puma-V1-10-i-FG-Mens-Soccer-Boots-Cleats-Black-and-Gold-/152402568819?var=&hash=item237be6a673:m:mSXkOhTNjebhMT9ptUDur-Q
p82
aVhttp://www.ebay.com/itm/Size-Junior-5-NEW-BALANCE-Furon-Dispatch-FG-Football-Boots-Kids-Boys-Black-/162448028470?hash=item25d2a83336:g:6SAAAOSw-0xYXsvE
p83
aVhttp://www.ebay.com/itm/adidas-Childrens-Football-Trainers-Predator-Davicto-F10-F5-Astroturf-Soccer-/331607641697?var=&epid=1435767008&hash=item4d355b0e61:m:me1kzZbntu0unCEkZ47zLVw
p84
aVhttp://www.ebay.com/itm/Kelme-Millennium-Indoor-Soccer-Football-Boots-Lace-Up-Gents-Mens-/201472141756?var=&epid=1542234428&hash=item2ee8ace9bc:m:mkEj8ql_YXJIXLeS3K9HjQg
p85
aVhttp://www.ebay.com/itm/Adidas-confederation-cup-2017-soccer-ball-Size-5-Training-Pro-Football-/182388079463?epid=910678319&hash=item2a772d3b67:g:REMAAOSwtGlZJeug
p86
aVhttp://www.ebay.com/itm/Leather-Football-Size-5-Soccer-Balls-32-panel-Traditional-Black-White-PU-UK-/252874838621?epid=772395890&hash=item3ae083d25d:g:zPAAAOSwvihY9RmG
p87
aVhttp://www.ebay.com/itm/Puma-evoPOWER-3-2-FG-Mens-Soccer-Cleats-Boots-White-/401242783147?var=&epid=2105977480&hash=item5d6beefdab:m:mxVlQ_og3CAqeSlYw1D7E_w
p88
aVhttp://www.ebay.com/itm/Puma-V1-11-i-FG-Mens-Soccer-Cleats-Boots-Yellow-/152229638151?var=&hash=item237197f007:m:mMqgbMEKE381Qc7AbpwJtaQ
p89
aVhttp://www.ebay.com/itm/Euro-2018-Football-Official-Match-ball-FIFA-Specified-Size5-Soccer-Ball-Spedster-/112159988595?epid=748530043&hash=item1a1d419b73:g:zt4AAOSwpP9Y7QSS
p90
aVhttp://www.ebay.com/itm/NEW-Nike-CR7-Prestige-Soccer-Ball-Football-Soccer-Ball-Size-5-SC3058-485-/152553835936?hash=item2384eacda0:g:CPsAAOSwRQlXff0x
p91
aVhttp://www.ebay.com/itm/New-Mens-Puma-Adreno-TT-AstroTurf-Football-Trainers-Soccer-Shoes-/162069636723?var=&epid=1065963973&hash=item25bc1a6673:m:myuK65o3UH6Cbmy4ocQX1fQ
p92
aVhttp://www.ebay.com/itm/Puma-V3-08-i-FG-Mens-Leather-Soccer-Cleats-Shoes-Black-Gold-/381852130874?var=&hash=item58e8291e3a:m:mjmy3SW_nJE6Bz70ygNZKNQ
p93
aVhttp://www.ebay.com/itm/New-Nike-Mercurial-Vortex-CR7-Ronaldo-junior-Astro-Turf-TF-Football-Trainers-/332182167654?var=&hash=item4d5799a066:m:mk_c1kAo_pI7ZkJkGeGljnw
p94
aVhttp://www.ebay.com/itm/nike-mercurial-veloce-AG-mens-football-boots-555609-703-soccer-cleats-CLEARANCE-/112329341720?var=&epid=2131406653&hash=item1a2759bb18:m:muMi5zqIBqTlz6kITJgsLqQ
p95
aVhttp://www.ebay.com/itm/Nike-Hypervenom-X-Proximo-TF-/272572626776?var=&hash=item3f76983758:m:m6V2plM149TGJNv099W7l9g
p96
aVhttp://www.ebay.com/itm/Adidas-Champions-League-2017-Final-Capitano-Football-Soccer-Ball-Cardiff-2017-/332134247592?var=&epid=1540527268&hash=item4d54be6ca8:m:mabKhmJQFoz_BbX-G7ZjRYQ
p97
aVhttp://www.ebay.com/itm/Puma-V1-08-SG-Mens-Soccer-Boots-Cleats-Red-Black-5409-/152068567087?var=&hash=item2367fe302f:m:mtwSk1LhdriNM-HK9y3ME_g
p98
aVhttp://www.ebay.com/itm/New-Balance-Audazo-Indoor-Football-Trainers-/401298134430?var=&hash=item5d6f3b959e:m:mtrKuDgeLKrqT8U75Gm8h-Q
p99
aVhttp://www.ebay.com/itm/Puma-V-Konstrukt-III-GCi-FG-Mens-Leather-Soccer-Boots-Cleats-Silver-/381612368372?var=&hash=item58d9dea1f4:m:mW8Tu5TXLnJaF1JNNly30gA
p100
aVhttp://www.ebay.com/itm/Puma-V1-08-K-SG-Mens-Leather-Soccer-Boots-Cleats-White-4601-/401111639667?var=&hash=item5d641de673:m:m4sEAvX3LfzpEzBmXbhXCBw
p101
aVhttp://www.ebay.com/itm/Puma-EvoPower-1-2-2-2-Football-Boots-Soccer-Cleats-In-Black-White-Red-Orange-/152280431288?var=&epid=1148580166&hash=item23749efab8:m:mrb1pKas7QZcwVdgRYn5YWg
p102
aVhttp://www.ebay.com/itm/Puma-V1-10-Tricks-SG-Mens-Soccer-Cleats-Boots-Black-/381803085729?var=&hash=item58e53cbfa1:m:m7J0o0JTT39smjoG5w69IdQ
p103
aVhttp://www.ebay.com/itm/Manchester-United-Football-FIFA-Specified-Match-Ball-Soccer-Ball-Size-5-4-3-/152402390333?var=&epid=2111272798&hash=item237be3ed3d:m:mK-1c4mg4KCu--QaE5DOEtw
p104
aVhttp://www.ebay.com/itm/Nike-Pitch-EPL-Football-Ball-size-5-premier-league-training-5-aside-soccer-/221976927897?var=&hash=item33aedb1e99:m:maIfG6Wtmf_d00pjDV_k8DQ
p105
aVhttp://www.ebay.com/itm/Puma-V1-08-Tricks-i-FG-Mens-Football-Boots-Cleats-Grey-Yellow-/152068566171?var=&hash=item2367fe2c9b:m:mEqn3bkaqndKkWxq0_SXy6w
p106
aVhttp://www.ebay.com/itm/Puma-V1-08-SG-Mens-Soccer-Boots-Cleats-Black-5401-/381612359877?var=&hash=item58d9de80c5:m:mBebw2toIZ3j_-0ITYNL3mA
p107
aVhttp://www.ebay.com/itm/Puma-V1-10-SG-Mens-Soccer-Boots-Cleats-White-blue-1807-/381612360340?var=&hash=item58d9de8294:m:m7BgMfRSF1LIn8fons7cdLQ
p108
a.