(lp0
Vhttp://www.ebay.com/itm/AUSTRALIA-2016-RSL-RETURNED-SERVICEMEN-LEAGUE-1-MNH-/311877926083?hash=item489d5f7cc3:g:olwAAOSwzJ5XcjsS
p1
aVhttp://www.ebay.com/itm/Original-British-WW2-1939-45-WAR-Medal-Ribbon-Named-To-Indian-Army-Servicemen-/281543945861?hash=item418d53ae85:g:My4AAOxyTMdTMEJA
p2
aVhttp://www.ebay.com/itm/ICM-Models-1-35-Soviet-Army-Servicemen-1979-1991-Military-Figures-Model-Kit-/262242489150?epid=1254510340&hash=item3d0eded33e:g:xLsAAOSwKtlWmTgY
p3
a.