(lp1
Vhttp://www.ebay.com/itm/Trespass-Scarp-Mens-Approach-Suede-Lace-Up-Hiking-Shoes-Walking-Trainers-/302197786228?var=&epid=1069998057&hash=item465c644674:m:mo2vblmvVHojLq6Ic9KG4eg
p2
aVhttp://www.ebay.com/itm/Rivestimenti-Di-Scarpa-Pagliacci-Adulti-Rossi-E-Gialli-L-Scarp-Coprono-Il-/401216755970?hash=item5d6a61d902:g:8PsAAOSwo4pYFfUn
p3
aVhttp://www.ebay.com/itm/Scissors-Sewing-Scarp-Book-Crafts-Sew-Kitchen-Meat-Stationary-Farbic-Gardening-/291868633793?hash=item43f4b9eac1:g:BwUAAOSwOdpX0abL
p4
aVhttp://www.ebay.com/itm/Trespass-Scarp-Mens-Approach-Suede-Lace-Up-Hiking-Shoes-Walking-Trainers-/302197786228?var=&epid=1069998057&hash=item465c644674:m:mo2vblmvVHojLq6Ic9KG4eg
p5
aVhttp://www.ebay.com/itm/Rivestimenti-Di-Scarpa-Pagliacci-Adulti-Rossi-E-Gialli-L-Scarp-Coprono-Il-/401216755970?hash=item5d6a61d902:g:8PsAAOSwo4pYFfUn
p6
aVhttp://www.ebay.com/itm/Scissors-Sewing-Scarp-Book-Crafts-Sew-Kitchen-Meat-Stationary-Farbic-Gardening-/291868633793?hash=item43f4b9eac1:g:BwUAAOSwOdpX0abL
p7
aVhttp://www.ebay.com/itm/Trespass-Scarp-Mens-Approach-Suede-Lace-Up-Hiking-Shoes-Walking-Trainers-/302197786228?var=&epid=1069998057&hash=item465c644674:m:mo2vblmvVHojLq6Ic9KG4eg
p8
aVhttp://www.ebay.com/itm/Rivestimenti-Di-Scarpa-Pagliacci-Adulti-Rossi-E-Gialli-L-Scarp-Coprono-Il-/401216755970?hash=item5d6a61d902:g:8PsAAOSwo4pYFfUn
p9
aVhttp://www.ebay.com/itm/Scissors-Sewing-Scarp-Book-Crafts-Sew-Kitchen-Meat-Stationary-Farbic-Gardening-/291868633793?hash=item43f4b9eac1:g:BwUAAOSwOdpX0abL
p10
aVhttp://www.ebay.com/itm/Trespass-Scarp-Mens-Approach-Suede-Lace-Up-Hiking-Shoes-Walking-Trainers-/302197786228?var=&epid=1069998057&hash=item465c644674:m:mo2vblmvVHojLq6Ic9KG4eg
p11
aVhttp://www.ebay.com/itm/Rivestimenti-Di-Scarpa-Pagliacci-Adulti-Rossi-E-Gialli-L-Scarp-Coprono-Il-/401216755970?hash=item5d6a61d902:g:8PsAAOSwo4pYFfUn
p12
aVhttp://www.ebay.com/itm/Scissors-Sewing-Scarp-Book-Crafts-Sew-Kitchen-Meat-Stationary-Farbic-Gardening-/291868633793?hash=item43f4b9eac1:g:BwUAAOSwOdpX0abL
p13
a.