(lp0
Vhttp://www.ebay.com/itm/Antique-Silver-Tone-Octopus-Tentacle-Ring-Pirate-Nautical-Steampunk-Gothic-uk-/302356221848?hash=item4665d5cf98:g:DUsAAOSwbopZSaa4
p1
aVhttp://www.ebay.com/itm/Silver-Octopus-Kraken-Tentacle-Ring-Goth-Sea-Alternative-Squid-Ursula-UK-Seller-/332256779173?hash=item4d5c0c1ba5:g:P6wAAOSw8d5ZQaNU
p2
aVhttp://www.ebay.com/itm/Silver-Octopus-Tentacle-Ring-Adjustable-Open-Size-Pirate-Steampunk-Gothic-/263080520211?hash=item3d40d22a13:g:67YAAOSwjvJZXfmT
p3
aVhttp://www.ebay.com/itm/Octopus-Ring-Tentacle-Ring-Fun-Animal-Ring-2E1-/182589663036?hash=item2a8331273c:g:BpEAAOSw3gJZJVzs
p4
aVhttp://www.ebay.com/itm/BOXED-Stainless-Steel-Octopus-Tentacle-Ring-Adjustable-SIZE-Q-P-R-S-T-U-V-W-Y-/332014651072?hash=item4d4d9d86c0:g:xb4AAOSwx2dYEOte
p5
aVhttp://www.ebay.com/itm/Stainless-Steel-Octopus-Tentacle-Ring-Size-Adjustable-Size-q-p-r-s-t-u-v-w-z-/112182698703?hash=item1a1e9c22cf:g:AxIAAOSwo4pYEOMx
p6
aVhttp://www.ebay.com/itm/Octopus-Tentacle-Ring-With-Crystals-Adjustable-Q-P-R-S-T-U-V-W-Y-/112198293625?var=&hash=item1a1f8a1879:m:m6-24uk0u7Z76zQ7dpZhW0A
p7
aVhttp://www.ebay.com/itm/Surgical-Stainless-Steel-Octopus-Tentacle-Ring-Adjustable-SIZE-Q-P-R-S-T-U-V-W-Y-/172460148385?hash=item28276d06a1:g:sDEAAOSwux5YKKj3
p8
aVhttp://www.ebay.com/itm/Antique-Silver-Tone-Octopus-Tentacle-Ring-Pirate-Nautical-Steampunk-Gothic-/253044090354?hash=item3aea9a65f2:g:6PoAAOSwlRpZZhJ5
p9
aVhttp://www.ebay.com/itm/Surgical-Steel-Industrial-Scaffold-Ear-Piercing-Bar-Barbell-Choose-Design-/361332550512?var=&hash=item5421192b70:m:mDm98m84peTp2UOOxCutTwQ
p10
aVhttp://www.ebay.com/itm/A5-Tentacles-Wall-Stencil-Template-WS00001748-/222459870575?hash=item33cba43d6f:g:XZAAAOSww3tY4DRL
p11
aVhttp://www.ebay.com/itm/Octopus-Tentacles-Wall-Art-Decal-Vinyl-Sticker-For-Bathroom-Or-Bath-/141137098031?var=&hash=item20dc6d352f:m:mSTi5xIoRuQCMpE5sCBZ1gw
p12
aVhttp://www.ebay.com/itm/316L-Stainless-Steel-Octopus-Tentacle-Ring-Adjustable-SIZE-Q-P-R-S-T-U-V-W-Y-/132257303539?epid=721981793&hash=item1ecb264bf3:g:6GYAAOSw~rpZQHg1
p13
aVhttp://www.ebay.com/itm/NOVELTY-STRETCHY-TENTACLE-SHAPED-PEN-BIRO-SET-OF-FOUR-PENS-/361906979873?hash=item5443564421:g:l8wAAOSwTuJYpyDA
p14
aVhttp://www.ebay.com/itm/Funny-Snail-tentacle-hat-Adults-Teens-Sml-Med-Black-Red-Alien-Eyes-Festival-Wear-/162371100371?var=&hash=item25ce125ed3:m:mlFTNl1S9k7Q6elWsMyJKVQ
p15
aVhttp://www.ebay.com/itm/Xootz-Tentacles-Skateboard-Double-Kick-/232312137096?hash=item3616e1e588:g:YQgAAOSwvKtY~d83
p16
aVhttp://www.ebay.com/itm/Fun-Sensory-Toys-Stretch-Fiddle-Fidget-Stress-Autism-ADHD-Special-Needs-SEN-SEND-/282387667896?var=&epid=1617259647&hash=item41bf9ddbb8:m:m16nqQCMzH3Agy0qICErQbA
p17
aVhttp://www.ebay.com/itm/A4-Skull-With-Tentacles-Motif-Wall-Stencil-Template-WS00003549-/322470617592?hash=item4b14bf21f8:g:TwwAAOSwuLZY4DRc
p18
aVhttp://www.ebay.com/itm/Surgical-Steel-Industrial-Scaffold-Bars-UK-Scaffolding-Bar-Upper-Ear-Cartilage-/172279762958?var=&hash=item281cac900e:m:mLYAYJe7eult47h9y0Vu06g
p19
aVhttp://www.ebay.com/itm/OCTOPUS-TENTACLE-WRAPPED-INDUSTRIAL-BARBELL-SCAFFOLD-BAR-1-6mm-x-38mm-/391698477875?hash=item5b330c7333:g:lGwAAOSwPc9W0Cld
p20
aVhttp://www.ebay.com/itm/DAY-OF-THE-TENTACLE-SAM-MAX-Hit-The-Road-Pc-Cd-Maniac-Mansion-II-FAST-POST-/182528735840?hash=item2a7f8f7a60:g:-rYAAOxywOtSZVmw
p21
aVhttp://www.ebay.com/itm/Fun-Sensory-Toys-Fiddle-Fidget-Stress-Sensory-Autism-ADHD-Special-Needs-/162494569389?var=&hash=item25d56e5bad:m:m8UU_FWxbj6vmaMuwpTYodg
p22
aVhttp://www.ebay.com/itm/New-Alchemy-Gothic-Pewter-Ear-Wrap-Cuff-Single-Earring-For-Left-Ear-Made-in-UK-/191975009167?var=&epid=1305707756&hash=item2cb29a2b8f:m:mJ4-qmDW7M0SPnBd_syB9xQ
p23
aVhttp://www.ebay.com/itm/Green-Alien-Hat-Festival-Wear-Adults-Tentacles-Knitted-Prank-joke-Shrek-Wool-UK-/162503159487?hash=item25d5f16ebf:g:J9UAAOSwrhBZCzhI
p24
aVhttp://www.ebay.com/itm/Ozric-Tentacles-At-The-Pongmasters-Ball-NEW-CD-DVD-/311743364577?epid=1992134130&hash=item48955a3de1:g:AYEAAOSw4GVYLrms
p25
aVhttp://www.ebay.com/itm/TENTACLE-BALL-STRETCH-SQUEEZY-STRESS-FIDGET-FIDDLE-SEN-ADHD-BOYS-GIRLS-TOY-/252585134416?hash=item3acf3f4950:g:O~4AAOSw8gVYALdK
p26
a.