(lp1
Vhttp://www.ebay.com/itm/Radley-Chin-Wag-Ivory-Leather-Bifold-Purse-Wallet-Medium-New-RRP-55-/391832612207?epid=1661515257&hash=item5b3b0b2d6f:g:PtsAAOSwux5YVnPO
p2
aVhttp://www.ebay.com/itm/RADLEY-LEATHER-TRAVEL-ID-OYSTER-CARD-HOLDER-VARIOUS-DESIGN-/262846769286?var=561845738132&hash=item3d32e36886:g:-kQAAOSw5cNYJJWu
p3
aVhttp://www.ebay.com/itm/BNWT-RADLEY-MONO-DOG-IVORY-CREAM-LEATHER-MATINEE-PURSE-RRP-75-/282515015408?epid=1995807222&hash=item41c73506f0:g:MZoAAOSw5cNYSXtE
p4
aVhttp://www.ebay.com/itm/Radley-Darwins-Dogs-Ivory-/331953575872?hash=item4d49f997c0:g:x90AAOSwEppUSVQt
p5
aVhttp://www.ebay.com/itm/BNWT-RADLEY-LARGE-TRIFOLD-LEATHER-PURSE-INC-DUST-BAG-RRP-75-/192180181383?var=492097649518&hash=item2cbed4d987:g:3UoAAOSwjL5ZDuIJ
p6
aVhttp://www.ebay.com/itm/Tula-By-Radley-Smooth-Originals-Leather-Purse-BNWT-RRP-49-/122124569152?var=422736879917&epid=1186626851&hash=item1c6f310a40:g:hjwAAOSwOtdYU9wE
p7
aVhttp://www.ebay.com/itm/Tula-Alpine-Originals-Ivory-Large-Leather-Purse-Brand-New-RRP-55-/142102401166?epid=1082453866&hash=item2115f6908e:g:okMAAOSwZJBX~2Q1
p8
aVhttp://www.ebay.com/itm/Banned-Apparel-Rockabilly-50s-Polka-Dot-Tattoo-Swallow-Heart-Wallet-IVORY-Gift-/151896619037?hash=item235dbe781d:g:Dj0AAOSwcBhWV5cd
p9
aVhttp://www.ebay.com/itm/Diamante-New-Ladies-Satin-Evening-Clutch-Envelope-Bag-Wedding-Bridal-Party-Prom-/332099543482?var=541129153115&hash=item4d52ace1ba:g:AxgAAOSw-0xYhJ~L
p10
aVhttp://www.ebay.com/itm/RADLEY-LEATHER-MEDIUM-ZIP-PURSE-WALLET-VARIOUS-DESIGN-WITH-DUST-BAG-/262836384939?var=561834832832&hash=item3d3244f4ab:g:z7oAAOSwHMJYNgw9
p11
aVhttp://www.ebay.com/itm/Radley-NEW-Laurel-Leaf-Leather-Coin-Purse-Ivory-BNWT-/231708190267?hash=item35f2e2663b:g:hZ0AAOSw42JWDoTp
p12
aVhttp://www.ebay.com/itm/AUSTRALIAN-SURFER-STYLE-Mens-Necklace-Leather-Chain-Pendant-Tusk-Cross-Gift-Boys-/111353569930?var=410335780084&hash=item19ed30a28a:m:mm4g-TsBtPD6OGDOFAvZu-Q
p13
aVhttp://www.ebay.com/itm/Kukubird-Marble-Texture-Metal-Frame-Prom-Party-Clutch-Bag-Purse-Wallet-/272494594860?var=571545432700&epid=2116206047&hash=item3f71f18b2c:g:9~MAAOSw2xRYW~zY
p14
aVhttp://www.ebay.com/itm/Radley-Quad-Dog-Large-Flapover-Bifold-Purse-Leather-RRP-79-/262751611840?var=561708113607&hash=item3d2d376bc0:g:n38AAOSwnHZYRyqQ
p15
aVhttp://www.ebay.com/itm/GENUINE-RADLEY-LEATHER-MEDIUM-ZIP-PURSE-WALLET-WITH-DUST-BAG-/262840578470?var=561839094963&hash=item3d3284f1a6:g:7QQAAOSwjDZYmOT~
p16
aVhttp://www.ebay.com/itm/LadLadies-Designer-Faux-Leather-Owl-Purse-Wallet-Coin-Small-Clutch-Handbag-Chic-/291438371562?var=590535365628&hash=item43db14a2ea:g:~oQAAOSwNSxVNShm
p17
aVhttp://www.ebay.com/itm/Radley-Leather-Small-Coin-Purse-Love-is-All-Around-RRP-25-/262753208271?var=561711144282&hash=item3d2d4fc7cf:g:AbgAAOSwbwlXBr45
p18
aVhttp://www.ebay.com/itm/Tula-By-Radley-Mallory-Leather-Purse-Brand-New-RRP-45-/111947350552?var=411211100619&epid=1281974785&hash=item1a10950218:g:7igAAOSwmLlX93II
p19
a.