(lp1
Vhttp://www.ebay.com/itm/Maroon-5-Songs-About-Jane-It-Wont-Be-Soon-Before-Long-2010-2CD-NEW-SEALED-/232274063238?epid=83051211&hash=item36149cef86:g:KqIAAOSwTM5Yy-UU
p2
aVhttp://www.ebay.com/itm/PETER-TOSH-SOON-COME-Live-Capri-Theater-Atlanta-Feb-1979-2CDs-NEW-SEALED-/272198516504?epid=1639847162&hash=item3f604bbf18:g:iP0AAOSw9KpXATvd
p3
aVhttp://www.ebay.com/itm/Woodware-Clear-Magic-Get-Well-Soon-stamp-FRS013-/112474097824?epid=1353928109&hash=item1a2ffa88a0:g:KdUAAOSwzgRWuEZA
p4
aVhttp://www.ebay.com/itm/Gordon-Haskell-King-Crimson-One-Day-Soon-CD-NEW-SEALED-/132110837243?epid=90647584&hash=item1ec26b65fb:m:mCshvop-g6lZAtYPaWNoW2A
p5
aVhttp://www.ebay.com/itm/Soon-To-Be-Mr-Mrs-Wedding-Planner-Book-Diary-Journal-Engagement-gift-/122312376349?epid=0&hash=item1c7a62c01d:g:Xo4AAOSw5cNYe65k
p6
aVhttp://www.ebay.com/itm/HAMPTON-ART-ART-IMPRESSIONS-CLEAR-STAMPS-GET-WELL-SOON-11-STAMPS-/152606596707?epid=0&hash=item23880fde63:g:me8AAOSwTM5YxbJk
p7
aVhttp://www.ebay.com/itm/Waffle-Flower-Clear-Stamps-Set-Get-Well-Soon-271113-/262966931443?hash=item3d3a0ceff3:g:ADwAAOSwjKFZRd~P
p8
aVhttp://www.ebay.com/itm/Beautiful-Personalised-Get-Well-Soon-Teddy-Bear-and-Gift-Bag-Add-a-Name-Gift-/181012257374?hash=item2a252bda5e:g:n6cAAMXQNo5TZQA7
p9
aVhttp://www.ebay.com/itm/NEW-YORK-DOLLS-TRASH-SHOES-T-SHIRT-XL-NEW-OFFICIAL-TOO-MUCH-TOO-SOON-GLAM-ROCK-/162446697720?hash=item25d293e4f8:g:mVAAAOSwi0RXyYmB
p10
aVhttp://www.ebay.com/itm/Hey-Duggee-The-Get-Well-Soon-Badge-and-Other-Stories-DVD-/291669351570?epid=1055503476&hash=item43e8d91c92:g:dIQAAOSwX~dWpfpj
p11
aVhttp://www.ebay.com/itm/Hey-Duggee-The-Get-Well-Soon-Badge-Other-Stories-DVD-NEW-/351856595122?epid=1056594945&hash=item51ec4990b2:g:d7gAAOSw8w1X66AM
p12
aVhttp://www.ebay.com/itm/Awaiting-stock-come-back-soon-/111939222344?hash=item1a1018fb48:g:pE8AAOSwPK1ZP~4o
p13
aVhttp://www.ebay.com/itm/Major-Lazer-Apocalypse-Soon-NEW-12-VINYL-LP-CD-/351754669656?epid=1524696065&hash=item51e6364e58:g:Vf8AAOSw9eVXWYOW
p14
aVhttp://www.ebay.com/itm/Dalmatian-Get-Well-Soon-Card-By-Starprint-No-1-/350245177216?hash=item518c3d4780:m:mBCBe149ULxhlMuMj7ABJPw
p15
aVhttp://www.ebay.com/itm/Once-Then-Now-After-Soon-Morris-Gleitzman-Collection-5-Books-Set-/142227478886?epid=1486704543&hash=item211d6b1966:g:wNsAAOSw9GhYZOuY
p16
aVhttp://www.ebay.com/itm/AND-SOON-THE-DARKNESS-DVD-New-/201879963623?epid=59543596&hash=item2f00fbc7e7:g:cY8AAOSwc-tY467r
p17
aVhttp://www.ebay.com/itm/Rottweiler-Get-Well-Soon-Card-by-Starprint-No-1-/310157184259?hash=item4836cf0d03:m:mTcuDU5UTdfbJxDLx08Z8hQ
p18
aVhttp://www.ebay.com/itm/Is-it-to-soon-to-ask-for-a-PONY-baby-grow-vest-LONG-SLEEVE-bodysuit-horse-14210-/192061195810?var=&hash=item2cb7bd4622:m:m84rTLzYNYjDhh9AvbgTrDw
p19
aVhttp://www.ebay.com/itm/Get-Well-Soon-Nurse-Doctor-Medical-Mould-by-Fairie-Blessings-/221473010069?hash=item3390d1f195:g:OnMAAOSwpDdVEIyE
p20
aVhttp://www.ebay.com/itm/The-Hurried-Child-Growing-Up-Too-Fast-Too-Soon-David-E-/120727310734?epid=88440229&hash=item1c1be8918e:m:mCtgeCrlvmoUz8GClu7FHzw
p21
aVhttp://www.ebay.com/itm/Get-Well-Soon-by-Julie-Halpern-9780312581480-Paperback-2009-/332142199471?epid=200823338&hash=item4d5537c2af:g:NcEAAOSwCU1Ytw3x
p22
aVhttp://www.ebay.com/itm/PUSHEEN-GET-WELL-SOON-GREETING-CARD-NEW-GIFT-/361723385699?epid=1784219365&hash=item543864d763:g:HE0AAOSwMgdX0~mv
p23
aVhttp://www.ebay.com/itm/Get-Well-Soon-Card-Funny-After-Your-Operation-Sarcastic-/162134175997?epid=1792702205&hash=item25bff330fd:g:9pMAAOSwHgBZb320
p24
aVhttp://www.ebay.com/itm/Soon-I-Will-be-Invincible-Austin-Grossman-/382149236044?epid=90529746&hash=item58f9de954c:g:UHIAAOSwXXxZWfI4
p25
aVhttp://www.ebay.com/itm/NEW-MENS-SIX-PACK-COMING-SOON-IS-IT-LEGAL-VEGAN-MUSCLE-VEST-TANK-TOP-SIZES-S-2XL-/182491910562?var=&hash=item2a7d5d91a2:m:mFLKYLa1w46zaG7j6M5CsfA
p26
aVhttp://www.ebay.com/itm/Is-it-to-soon-to-ask-for-a-Motor-Bike-baby-grow-vest-LONG-SLEEVE-bodysuit-14211-/192061195809?var=&hash=item2cb7bd4621:m:mmBBzqX0FcfF6dj_niQBEkg
p27
a.