(lp0
Vhttp://www.ebay.com/itm/Men-Slimming-Belt-Shaper-Waist-Tummy-Abdomen-Girdle-Fitness-Underwear-Slim-/322351555993?var=&hash=item4b0da66599:m:m25FV1rlDt0AXwtP_pv3UKw
p1
aVhttp://www.ebay.com/itm/Postpartum-Recovery-Belly-Abdomen-Waist-Belt-Corset-Binder-Corset-Girdle-Style-/172418688278?hash=item2824f46516:g:CPsAAOSwux5YNUFv
p2
aVhttp://www.ebay.com/itm/Reductor-Abdomen-Control-Cuerpo-Firme-Delineador-Fajas-Adelgazantes-Sin-Costuras-/281897868424?var=&hash=item41a26c1c88:m:mMeN0Sb368jeFm_d23tymvA
p3
aVhttp://www.ebay.com/itm/3X-Postpartum-Support-Recovery-Belly-Waist-Belt-Shaper-After-Pregnancy-Maternity-/371715254208?var=&hash=item568bf4a7c0:m:mlLE0G1dbBxpv9lowgP9EDg
p4
aVhttp://www.ebay.com/itm/Unisex-Waist-Slimming-Belt-Body-Abdomen-Shape-tight-Fat-Burner-Corset-Underwear-/172159894898?hash=item2815878572:g:i9UAAOSwJQdXBj3E
p5
aVhttp://www.ebay.com/itm/Abdomen-Ultra-Thin-Body-Body-Seamless-High-Waist-Abdomen-Mention-Hip-Pants-/172668358702?var=&hash=item2833d6102e:m:mlmvSf-hy6GoLJZ0i0Ns7WA
p6
aVhttp://www.ebay.com/itm/ABS-sixpad-Arm-Waist-Abdomen-Training-Body-Fitness-Electrical-Muscle-Stimulation-/122538398443?hash=item1c87db92eb:g:Ar0AAOSwcgNZGqJN
p7
aVhttp://www.ebay.com/itm/EMS-Muscle-Workout-ABS-Sixpad-Abdomen-Bodybuilding-Stimulation-Fitness-Equipment-/252999418142?hash=item3ae7f0c11e:g:pFwAAOSw~y9ZIotk
p8
aVhttp://www.ebay.com/itm/Magic-Medical-Waist-Trimmer-Postpartum-Support-Body-Abdomen-Brac-Slimming-Belt-/292127554062?var=&hash=item440428ba0e:m:mOU4ixEyBFOO48DvcBfOhvw
p9
aVhttp://www.ebay.com/itm/Slimming-Hip-Body-Control-Corset-High-Waist-Tummy-Abdomen-Shaper-Underwear-Brief-/201614129004?var=&hash=item2ef123776c:m:m1G5su5hBL4gbbvWVKoj25Q
p10
aVhttp://www.ebay.com/itm/UK-Seller-Waist-Trimmer-Body-Shaper-Sculpting-Adjustable-Slimming-Abdomen-Belt-/252380427545?var=&hash=item3ac30bb519:m:msioUj6qmMObo7UEe2hV3bg
p11
aVhttp://www.ebay.com/itm/AB-WHEEL-TONING-ABDOMEN-ROLLER-STRENGTH-TRAINING-FITNESS-/112253575054?hash=item1a22d59f8e:g:oDoAAOSwo4pYZsSs
p12
aVhttp://www.ebay.com/itm/Bum-Enhancer-Abdomen-Control-Pants-Invisible-Line-Shapewear-Nude-M-XL-CURV-/232118803517?var=&hash=item360b5bdc3d:m:mzACjnmYmjvQdqh0ROYSLNw
p13
aVhttp://www.ebay.com/itm/Portable-Ab-Roller-Foldable-Wheel-Abdomen-Stepper-Exercise-Abdominal-Fitness-Gym-/282272186124?var=&hash=item41b8bbbf0c:m:mj5qDK0Y73tdZR-ymVnf8-w
p14
aVhttp://www.ebay.com/itm/Women-Body-Shaper-Hip-Abdomen-Tummy-Control-Panties-High-Waist-Underwear-New-Hot-/262688807111?hash=item3d297918c7:g:OyYAAOSwHMJYDbJz
p15
aVhttp://www.ebay.com/itm/100KG-Ab-Roller-Foldable-Abdominal-Wheel-Alloy-Tube-Handle-Abdomen-Fitness-Gym-/291841395035?hash=item43f31a495b:g:bNkAAOSwawpXqcFy
p16
aVhttp://www.ebay.com/itm/Men-Body-Abdomen-Waist-Trimmer-Slimming-Belt-Girdle-Shape-Corset-Belt-Underwear-/201259065829?var=&hash=item2edbf9a1e5:m:mAJh9id-0wvYwF8c1quMHQA
p17
aVhttp://www.ebay.com/itm/Mens-Slimming-Body-Fit-Abdomen-Shaper-Belly-Fatty-Underwear-Vest-Shirt-Buster-BE-/311395115953?var=&hash=item48809863b1:m:m4mQQ5Uz-_Bba10yIgGY6AA
p18
aVhttp://www.ebay.com/itm/New-Mens-Compression-White-Slimming-Body-Shaper-Vest-Shirt-Abs-Abdomen-Slim-UK-/322545070768?var=&hash=item4b192f32b0:m:mIpcNWhpTRofbAzs25nsj8A
p19
aVhttp://www.ebay.com/itm/Pocket-Atlas-of-Sectional-Anatomy-Thorax-Heart-Abdomen-and-P-9783131256041-/332198373474?epid=170073588&hash=item4d5890e862:g:fnEAAOSwdjNZAwkh
p20
aVhttp://www.ebay.com/itm/Abdomen-Massager-Fat-Burning-Massor-Slimming-Foot-Massage-Breast-/272450016601?epid=562304985&hash=item3f6f495559:g:lM8AAOSwKOJYKnxO
p21
aVhttp://www.ebay.com/itm/MUJER-banador-REDUCTOR-ABDOMEN-Desmontable-ACOLCHADO-Copas-Ropa-talla-S-XXXL-/182449775617?var=&hash=item2a7adaa401:m:mInpid_htC3h5Q3ZWjfe44g
p22
aVhttp://www.ebay.com/itm/Slimming-Belt-Mens-Slim-Belt-Abdomen-Waist-Tummy-Shaper-Waist-Training-5-Zipper-/311397049078?hash=item4880b5e2f6:g:mboAAOSwDN1UNRj5
p23
aVhttp://www.ebay.com/itm/LARGE-MENS-SLIMMING-VEST-SHIRT-BODY-SHAPER-ABDOMEN-COMPRESSION-ABS-T-SHIRT-L-UK-/221124333727?hash=item337c09909f:m:mkhmp7tgVbsXcEalrovLCQg
p24
aVhttp://www.ebay.com/itm/Postpartum-Support-Belly-Belt-Abdomen-Pelvis-Band-Corset-Post-Natal-Wrap-Girdle-/222384457777?var=&hash=item33c7258831:m:mq5pdLd4TdVgd1Kfpg0gN4Q
p25
aVhttp://www.ebay.com/itm/Alpinestars-SATURN-Motocross-Kidney-Belt-Black-White-Abdomen-and-Lower-Back-/122521119390?var=&hash=item1c86d3ea9e:m:mc43t9Q-yNlAczuExB_M1fg&vxp=mtr
p26
aVhttp://www.ebay.com/itm/Women-Maternity-Support-Postpartum-Pregnancy-Recovery-Belly-Abdomen-Waist-Belt-/152357003430?var=&hash=item23792f60a6:m:mV0jFX9IY8hd6wen7g3Fmqg
p27
aVhttp://www.ebay.com/itm/Muscle-Training-Body-Building-Waist-Abdomen-ABS-SixPad-Fit-Electrical-Simulation-/122538398319?hash=item1c87db926f:g:Ar0AAOSwcgNZGqJN
p28
aVhttp://www.ebay.com/itm/USB-Smart-Fitness-Gear-Wireless-EMS-Muscle-Training-Equipment-for-Arm-Abdomen-/232286266346?hash=item36155723ea:g:zGwAAOSwdGFY1-KL
p29
aVhttp://www.ebay.com/itm/Post-Natal-Recovery-Belly-Tummy-Belt-Slim-Shaper-Girdle-Corset-Abdominal-Band-/222255838550?var=&hash=item33bf7af556:m:meS6-5NQgFIxf1k_RRZpukA
p30
aVhttp://www.ebay.com/itm/Men-Slimming-Body-Shaper-Underwear-Waist-Training-Corset-Abdomen-Less-Beer-Belly-/181794071270?var=&hash=item2a53c562e6:m:mm01V-4y3X2CZ2iROPmUCvQ
p31
aVhttp://www.ebay.com/itm/Framed-Print-MRI-Scan-of-the-Human-Abdomen-Body-Medical-Picture-Doctor-Art-/222066883996?hash=item33b437bd9c:g:iBoAAOSwZ8ZW-Fne
p32
aVhttp://www.ebay.com/itm/Foot-Massage-Breast-Massager-Abdomen-Slimming-Fat-Burning-/252451206394?epid=622892379&hash=item3ac743b4fa:g:ha4AAOSw-KFXfKmi
p33
aVhttp://www.ebay.com/itm/Belly-Wing-MYMI-Abdomen-Treatment-Weight-Loss-Korean-Fat-Burn-/172694701212?var=&hash=item283568049c:m:mzelvuvvdyUGa4yIx4bWAHg
p34
aVhttp://www.ebay.com/itm/Men-Forced-abdomen-high-waist-short-Body-Building-Slimming-Pants-/231272705819?var=&hash=item35d8ed6f1b:m:mMi6ji8kly-PI8UUGJuPVVQ
p35
aVhttp://www.ebay.com/itm/Engarzado-Gema-Pave-Colgante-Hada-Barra-Abdomen-ombligo-Anillo-/201086136747?var=&hash=item2ed1aaf1ab:m:mQsKbCl48A0irnhW9UGuzvg
p36
aVhttp://www.ebay.com/itm/14g-1-6mm-Bioflex-Baby-On-Board-Logo-Embarazo-Barra-Abdomen-ombligo-Anillo-/192169658109?hash=item2cbe3446fd:g:wWkAAOxyUSFSINgQ
p37
aVhttp://www.ebay.com/itm/Revuele-Slim-Detox-Anti-cellulite-cream-Gel-for-Waist-and-Abdomen-Weight-loss-/272735254008?hash=item3f8049b5f8:g:hqwAAOSw6YtZUDIk
p38
aVhttp://www.ebay.com/itm/Belly-Wing-Wonder-Patch-Slim-Belly-Fat-Burn-Abdomen-Slimming-Body-/181943324758?hash=item2a5caad056:g:w7cAAOSwAKxWV0ok
p39
aVhttp://www.ebay.com/itm/Medium-White-Mens-Slimming-Body-Shaper-Vest-T-Shirt-Abs-Abdomen-Slim-Lift-Gym-M-/310950920025?hash=item48661e7f59:g:O58AAOSwnDZULmUv
p40
aVhttp://www.ebay.com/itm/Stomach-Abdomen-Slimming-Treatment-Patch-Fat-Loss-Burn-Fat-Cellulite-Cream-/152416149651?hash=item237cb5e093:g:RP0AAOSwn-tZJc~w
p41
aVhttp://www.ebay.com/itm/Faja-Reductora-Invisible-Abdomen-Cinturilla-Corse-Correa-Adelgazante-/221597660079?var=&hash=item33983ff3af:m:mosC72HVsVPibCYBUcQ3IVA
p42
aVhttp://www.ebay.com/itm/Eveline-Thermo-Active-Serum-Shaping-Waist-Abdomen-Buttocks-Slim-Extreme-3D-/252638733794?epid=1907810413&hash=item3ad27125e2:g:2LsAAOSwo4pYTurk
p43
aVhttp://www.ebay.com/itm/TRAJE-DE-BANO-REDUCTOR-ABDOMEN-CON-FALDA-BANADOR-DESMONTABLE-COPAS-RELLENAS-/172352992401?var=&hash=item282109f491:m:m-oIEvhz6TPcz65xejT9iwA
p44
aVhttp://www.ebay.com/itm/Cristal-Pave-Mariposa-Acero-Quirurgico-Barra-Abdomen-ombligo-Anillo-/192151689617?var=&hash=item2cbd221991:m:m631NG10DzAFwvOJeRcrNgA
p45
aVhttp://www.ebay.com/itm/Mens-Inner-Muscle-Slimming-Waist-Belt-Beer-Belly-Body-Shaper-Abdomen-Fat-Burner-/172311536124?var=&hash=item281e9161fc:m:mz3FehsQ44SnsStGhZiAUZA
p46
aVhttp://www.ebay.com/itm/5pcs-MYMI-Wonder-Patch-Belly-Wing-Weight-Loss-Abdomen-Treatment-Korean-Fat-Burn-/262783830165?hash=item3d2f230895:g:aKQAAOSw-0xYZWXA
p47
aVhttp://www.ebay.com/itm/Eveline-Slim-Extreme-3D-Thermo-Active-Serum-Shaping-Waist-Abdomen-and-Buttocks-/142272586139?epid=1907810413&hash=item21201b619b:g:DLcAAOSw241Ym3ga
p48
aVhttp://www.ebay.com/itm/PW80-Portwest-elasticated-lower-back-and-abdomen-support-belt-brace-workwear-/142239325456?var=&epid=1038288684&hash=item211e1fdd10:m:m2aZV9iRkdOHuA0LkeF5ApA
p49
aVhttp://www.ebay.com/itm/XXL-White-Mens-Slimming-Body-Shaper-Vest-T-Shirt-Abs-Abdomen-Slim-Lift-Gym-/311404861334?hash=item48812d1796:g:O58AAOSwnDZULmUv
p50
aVhttp://www.ebay.com/itm/BODI-TEK-SAUNA-FITNESS-TONING-SHORTS-COMPRESSION-WRAPS-SLIM-THIGHS-BUM-ABDOMEN-/382083569712?epid=883656235&hash=item58f5f49830:g:3RQAAOSw~y9ZGsxx
p51
aVhttp://www.ebay.com/itm/Compression-White-Slimming-Body-Shaper-Vest-Shirt-Abs-Abdomen-Slim-Support-XL-/310950920014?hash=item48661e7f4e:g:VmcAAOSwKtlWl4TC
p52
aVhttp://www.ebay.com/itm/Eveline-Slim-Extreme-3D-Thermo-Active-Serum-Shaping-Waist-Abdomen-and-Buttocks-/182351631890?epid=1907810413&hash=item2a75011612:g:s3wAAOSwY3BZGWLH
p53
aVhttp://www.ebay.com/itm/Gema-Amor-Corazon-Colgante-Barra-Abdomen-ombligo-Anillo-/191172480861?hash=item2c82c48f5d:g:JKQAAOxy63FSr26O
p54
aVhttp://www.ebay.com/itm/Electrical-Muscle-Stimulation-Trainer-Body-Building-Fitness-Arm-Abdomen-Training-/122538398648?hash=item1c87db93b8:g:Ar0AAOSwcgNZGqJN
p55
aVhttp://www.ebay.com/itm/NuttyBuddy-Abdomen-guard-Cricket-box-/172587097194?var=&hash=item282efe1c6a:m:mNqMsa19JDmpzJAL5d5qQFg
p56
aVhttp://www.ebay.com/itm/REVOFLEX-AB-ABDOMEN-STRENGTH-TRAINING-FITNESS-TOTAL-BODY-WORKOUT-GYM-RESISTANCE-/262684678355?epid=1088258476&hash=item3d293a18d3:g:emYAAOSw4f5YCiFc
p57
aVhttp://www.ebay.com/itm/Abdomen-Poster-by-Frederic-Delavier-9780736059367-Poster-2005-/232354454377?epid=90796220&hash=item3619679b69:g:n0EAAOSwYvFZLdHq
p58
aVhttp://www.ebay.com/itm/Mujer-Reductor-ABDOMEN-Camiseta-de-tirantes-Faja-Ropa-post-Maternidad-TOP-/182577277758?var=&hash=item2a82742b3e:m:mjoUyxi6UywsPQsqb_SJA-A
p59
aVhttp://www.ebay.com/itm/colgante-de-circonita-Awareness-Cinta-Barra-Abdomen-ombligo-Anillo-/191192750094?var=&hash=item2c83f9d80e:m:m0uaclbc2L250Zrbx28Jyhg
p60
aVhttp://www.ebay.com/itm/Fat-Burning-Octopus-Foot-Massage-Massager-Breast-Abdomen-Slimming-/322165108597?epid=578064219&hash=item4b02896f75:g:oN4AAOSwMNxXaztb
p61
aVhttp://www.ebay.com/itm/5pcs-MYMI-Wonder-Patch-Belly-Wing-Abdomen-Treatment-Weight-Loss-Korean-Fat-Burn-/282370625814?hash=item41be99d116:g:QQkAAOSwWxNYrf9j
p62
aVhttp://www.ebay.com/itm/etnico-Arabe-Africano-Beduino-Bereber-Danza-Abdomen-Tribal-U-Collar-4-Colores-/151378153964?var=&hash=item233ed751ec:m:mVNvUmtTSamxdhM_t9g2bCw
p63
aVhttp://www.ebay.com/itm/etnico-Arabe-Africano-Beduino-Bereber-Danza-Abdomen-Tribal-U-Collar-4-Colores-/151378153964?var=&hash=item233ed751ec:m:mVNvUmtTSamxdhM_t9g2bCw
p64
aVhttp://www.ebay.com/itm/Large-White-Mens-Slimming-Body-Shaper-Vest-T-Shirt-Abs-Abdomen-Slim-Lift-Gym-L-/191235089273?hash=item2c867fe379:g:dKgAAOSwa-dWl4J6
p65
aVhttp://www.ebay.com/itm/Con-joyas-Corazon-Colgante-CIRCONITA-CUBICA-Cadena-Barra-Abdomen-ombligo-Anillo-/201097171845?var=&hash=item2ed2535385:m:mFNsiAZ41y--xt4aP1yguGw
p66
aVhttp://www.ebay.com/itm/OPPO-1060-Body-Shaper-Waist-Cincher-Corset-Tummy-Trimmer-Fit-Slimming-Belt-/271568272481?hash=item3f3abafc61:g:C1MAAOSwxH1T4OL8
p67
aVhttp://www.ebay.com/itm/Crema-Serum-Eveline-Slim-Extreme-3D-Adelgazante-Cintura-Abdomen-Y-Gluteos-/171643412454?hash=item27f6be9fe6:g:8TkAAOxyoN1TPoVa
p68
aVhttp://www.ebay.com/itm/5-Patches-Korea-Wonder-Patch-Burn-Belly-Fat-Wing-Lose-Weight-Abdomen-NEW-/272181829771?hash=item3f5f4d208b:g:4oEAAOSwxvxW8N9P
p69
aVhttp://www.ebay.com/itm/BRAND-NEW-Budo-Nord-Olymp-Female-Groin-Abdomen-Guard-Protector-PU-Karate-Judo-/271127839520?var=&epid=1559305492&hash=item3f207a8320:m:m6bUaiwl-Z9ZrjK2-056suA
p70
aVhttp://www.ebay.com/itm/Forskolin-Abdomen-Cenido-Dieta-Adelgazante-Crema-Peso-Perdida-Rapida-15-Day-/272490833067?hash=item3f71b824ab:g:vfUAAOSwv0tVHTas
p71
a.