(lp1
Vhttp://www.ebay.com/itm/FERNOX-TF1-TOTAL-MAGNETIC-FILTER-22MM-CENTRAL-HEATING-SLUDGE-REMOVER-BNIB-/221541657109?epid=1757961713&hash=item3394e96a15:g:PxQAAOSws65TqpRx
p2
aVhttp://www.ebay.com/itm/TRANSFORMERS-GENERATION-1-G1-AUTOBOT-PARTS-DINOBOT-SLUDGE-GUN-/351317640540?hash=item51cc29c55c:g:xboAAOSwPhdU40uz
p3
aVhttp://www.ebay.com/itm/FERNOX-TF1-TOTAL-MAGNETIC-FILTER-28MM-CENTRAL-HEATING-SLUDGE-REMOVER-BNIB-/200832289299?epid=1456730902&hash=item2ec2898a13:g:iGMAAOSwEK9T1hv5
p4
aVhttp://www.ebay.com/itm/OASE-PONTEC-PONDOMATIC-3-POND-VACUUM-SILT-SLUDGE-REMOVER-HOOVER-VAC-CLEANER-KOI-/172690928989?epid=1405403802&hash=item28352e755d:g:AGcAAOSwAPVZJEgM
p5
aVhttp://www.ebay.com/itm/MELVINS-HOUDINI-SLUDGE-METAL-STONER-ROCK-FANTOMAS-NEW-WHITE-T-SHIRT-4-/222157907246?var=&hash=item33b9a4a52e:m:mhuNTolj3P9-jRv_iEikIAg
p6
aVhttp://www.ebay.com/itm/Pond-vacuum-collection-basket-Removes-sludge-solids-and-even-stones-hoover-/222561118122?epid=915991255&hash=item33d1ad27aa:g:8x0AAOSwjRpZUkXT
p7
aVhttp://www.ebay.com/itm/EHEIM-QUICK-VAC-3531-BATTERY-SLUDGE-VACUUM-GRAVEL-CLEANER-FISH-TANK-AQUARIUM-/232112878529?hash=item360b0173c1:g:AUUAAOSw4f5YCbKS
p8
aVhttp://www.ebay.com/itm/API-Goldfish-Aquarium-Tank-Cleaner-118ml-Breaks-Down-Waste-Sludge-/262822043690?epid=1705233165&hash=item3d316a202a:g:jNoAAOSwnHZYh91U
p9
aVhttp://www.ebay.com/itm/POWERFUL-SLUDGE-EXTRACTOR-MUD-LEAVES-POND-FLOOR-VACUUM-FREE-P-P-UK-OFFER-/291577574163?epid=1640376307&hash=item43e360b313:g:sqwAAOSw0HVWC52A
p10
aVhttp://www.ebay.com/itm/Hozelock-Pond-Vac-Vacuum-Garden-Sludge-Silt-Hoover-Remover-Cleaner-/221055497501?epid=1904322187&hash=item3377ef351d:g:UOAAAOSwdAxZbIe4
p11
aVhttp://www.ebay.com/itm/BoilerMag-Magnetic-Central-Heating-Water-Filter-System-22mm-BM22-BNIB-sludge-/262531971764?epid=1105353616&hash=item3d201ffab4:g:FaAAAOSwqfNXjNtb
p12
aVhttp://www.ebay.com/itm/NEW-Dennerle-Bacto-Clean-FB4-Sediment-Ex-Pond-Sludge-remover-for-10-000L-500ml-/252301619004?epid=1963547948&hash=item3abe592f3c:g:uvYAAOSwuAVW0bf9
p13
aVhttp://www.ebay.com/itm/Dennerle-Bacto-Elixir-FB7-Filter-Bacteria-Sludge-Remover-Cleaner-Aquarium-500ml-/262479710374?epid=1773529165&hash=item3d1d0288a6:g:tZMAAOSwbYZXXCAr
p14
aVhttp://www.ebay.com/itm/Fernox-TF1-Total-Magnetic-Filter-22mm-Central-Heating-Sludge-Remover-/190822964303?epid=1505456021&hash=item2c6def5c4f:g:5LsAAOSw-zxWoLvf
p15
aVhttp://www.ebay.com/itm/HIGH-ON-FIRE-PATCH-Sludge-Stoner-Doom-Sleep-Thrones-Melvins-Bongzilla-Om-NEW-/222396912204?hash=item33c7e3924c:g:v~0AAOSw65FXuFZp
p16
aVhttp://www.ebay.com/itm/MAGNETIC-BOILER-FILTER-CLEANER-22MM-CENTRAL-HEATING-SLUDGE-REMOVER-/272647633160?hash=item3f7b10b908:g:8y8AAOSwUKxYkj1h
p17
aVhttp://www.ebay.com/itm/Pontec-by-OASE-Pondomatic-pond-vacuum-hoover-silt-sludge-waste-1400-watts-vac-/322569827163?epid=1405403802&hash=item4b1aa8f35b:g:jqgAAOSwPK1ZUl-j
p18
aVhttp://www.ebay.com/itm/1200W-GARDEN-POND-VACUUM-CLEANER-SLUDGE-REMOVER-WATER-FISH-TANK-30L-BLACK-GREEN-/201813008788?var=&epid=1440344317&hash=item2efcfe2194:m:myyAOBZxSbMn0jUyYtXxP7g
p19
aVhttp://www.ebay.com/itm/Salus-MD22A-Mag-Defender-22mm-Magnetic-Filter-Corrosion-Sludge-Removal-/182081364104?epid=18003300936&hash=item2a64e52088:g:Ft0AAOSwLF1X81cv
p20
aVhttp://www.ebay.com/itm/MagnaClean-Micro-22mm-Magnetic-Filter-Central-Heating-Sludge-Remover-MCM22001-/201909814399?epid=1808175834&hash=item2f02c3447f:g:534AAOSwB-1YnMXP
p21
aVhttp://www.ebay.com/itm/Pond-Water-Treatment-Green-Water-Blanket-Weed-Sludge-Remover-Nuggets-Blocks-/261800507594?var=&hash=item3cf486b8ca:m:mv95JvhBHEtT2mJg5bO1vZw
p22
aVhttp://www.ebay.com/itm/Eheim-Quick-Vac-Pro-Automatic-Gravel-Cleaner-Sludge-Extractor-/122074321666?epid=1939830343&hash=item1c6c325302:g:sEkAAOSwImpXpgZL
p23
aVhttp://www.ebay.com/itm/Fly-London-Lok-Womens-Boots-/191745362392?var=&epid=1640974042&hash=item2ca4ea09d8:m:mlOn0i_75KsHQhS4J-xgDDQ
p24
aVhttp://www.ebay.com/itm/BLACK-1400-W-POWERFUL-POND-GARDEN-VACUUM-CLEANER-FISH-AQUARIUM-MUD-SLUDGE-30-L-/201810187547?epid=549024075&hash=item2efcd3151b:g:S34AAOSwImRYmYhX
p25
aVhttp://www.ebay.com/itm/EHEIM-QUICK-VAC-3531-BATTERY-SLUDGE-VACUUM-GRAVEL-CLEANER-FISH-TANK-AQUARIUM-/220527755712?epid=1705209520&hash=item33587a81c0:g:9GEAAOSwjRpZVP-l
p26
aVhttp://www.ebay.com/itm/BLANKET-WEED-GREEN-WATER-SLUDGE-REMOVER-FISH-KOI-POND-GOLD-FISH-HAIR-ALGAE-/122488351478?var=&epid=1062983349&hash=item1c84dfeaf6:m:m_HDO5DjV8x33jew1PqHnuQ
p27
aVhttp://www.ebay.com/itm/SUBMERSIBLE-SLUDGE-MUD-TRASH-DIRT-SEWAGE-WATER-PUMP-HIGH-PRESSUE-WATER-JETTER-/131867965792?hash=item1eb3f17960:m:m-n-LH9fKGYa-1gxNFFUOwQ
p28
aVhttp://www.ebay.com/itm/Fly-London-Suzu-Osuede-Wedge-Sludge-Womens-Boots-/371673882879?var=&epid=1277774605&hash=item56897d60ff:m:m80o6RFCduRcdd4bKWypQgA
p29
aVhttp://www.ebay.com/itm/Fernox-TF1-Total-Magnetic-Scale-Filter-28mm-Sludge-Remover-/171145228277?epid=1305095609&hash=item27d90ceff5:g:QcEAAOSw9mFWG6xd
p30
aVhttp://www.ebay.com/itm/Bike-Cycle-Bicycle-Weldtite-Dr-Sludge-Punture-Protection-Sealant-/322262453395?epid=1904316657&hash=item4b0856cc93:g:YbAAAOSwYIxX2jq8
p31
aVhttp://www.ebay.com/itm/FLY-LONDON-BLIN-SLUDGE-DARK-BROWN-WEDGE-KNEE-HIGH-BOOTS-SIZE-8-EU-41-RRP-155-/331420326200?hash=item4d2a30d938:g:wAYAAOSwo4pYNeGS
p32
aVhttp://www.ebay.com/itm/FLY-LONDON-BLIN-SLUDGE-DARK-BROWN-WEDGE-KNEE-HIGH-BOOTS-SIZE-8-EU-41-RRP-155-/331420326200?hash=item4d2a30d938:g:wAYAAOSwo4pYNeGS
p33
aVhttp://www.ebay.com/itm/FERNOX-TF1-TOTAL-MAGNETIC-FILTER-22MM-CENTRAL-HEATING-SLUDGE-REMOVER-/192190565673?epid=1757961713&hash=item2cbf734d29:g:PxQAAOSws65TqpRx
p34
aVhttp://www.ebay.com/itm/Hozelock-Pond-Vac-Vacuum-Collection-Basket-Silt-Sludge-Hoover-Water-Cleaner-/400418793332?epid=1904322187&hash=item5d3ad1e774:g:o18AAOSwpHlZbIgK
p35
aVhttp://www.ebay.com/itm/Hozelock-Pond-Vac-Vacuum-Pond-Sludge-Cleaner-Hoover-/181192532266?epid=1904322187&hash=item2a2feaa12a:g:uFAAAOxy63FSnLrB
p36
aVhttp://www.ebay.com/itm/GENIUNE-OASE-REPLACEMENT-SLUDGE-BAG-SMALL-PONDOVAC-CLASSIC-VACUUM-28053-44009-/161880370563?epid=1649033834&hash=item25b0d26d83:g:u3oAAOSw~bFWPKpr
p37
aVhttp://www.ebay.com/itm/Fernox-TF1-Compact-22mm-Central-Heating-Magnetic-Filter-Sludge-Remover-/191625508309?epid=1909968262&hash=item2c9dc535d5:g:nC4AAOSwgQ9VnRdl
p38
aVhttp://www.ebay.com/itm/DURAMAXX-LAKESIDE-GREEN-POWERPLUS-POND-VACUUM-HOOVER-ALGAE-SILT-SLUDGE-REMOVER-/232410473743?epid=21004021276&hash=item361cbe650f:g:QHAAAOSwgZZZafiW
p39
aVhttp://www.ebay.com/itm/EHEIM-QUICK-VAC-3531-BATTERY-SLUDGE-VACUUM-GRAVEL-CLEANER-FISH-TANK-AQUARIUM-/220527755712?epid=1705209520&hash=item33587a81c0:g:9GEAAOSwjRpZVP-l
p40
aVhttp://www.ebay.com/itm/DIRTMAG-IQ-22MM-BOILER-MAGNETIC-SLUDGE-FILTER-inc-ISOLATION-VALVES-/391511791126?hash=item5b27ebd616:g:UA4AAOSwzaJYBiMm
p41
aVhttp://www.ebay.com/itm/Altecnic-Dirtmag-IQ-Prime-22mm-Boiler-Magnetic-Sludge-Filter-Air-Dirt-Separator-/322340069915?epid=1651674146&hash=item4b0cf7221b:g:VV4AAOSwwbdWJ~zE
p42
aVhttp://www.ebay.com/itm/EHEIM-7313078-REPLACEMENT-IMPELLER-FOR-353100-VACUUM-SLUDGE-EXTRACTOR-/191295445345?epid=1017365338&hash=item2c8a18d961:m:m35OWvgTUFbCMNklEkt6cZQ
p43
aVhttp://www.ebay.com/itm/Carlube-Cooling-System-Radiator-Flush-Clear-Rust-Sludge-Blockage-300ml-RAF301-/162220800903?epid=1110944562&hash=item25c51cfb87:g:5cwAAOSwLnBX7Ceh
p44
aVhttp://www.ebay.com/itm/Central-Heating-Pack-Inhibitor-Cleanser-Sludge-Remover-Leak-Sealer-Powerflush-/231977872640?hash=item3602f56d00:g:5UYAAOSw44BYLGVy
p45
aVhttp://www.ebay.com/itm/POWERFUL-POND-SLIM-LEAVES-FLOOR-VACUUM-SLUDGE-EXTRACTOR-FREE-P-P-UK-OFFER-/281958708562?hash=item41a60c7552:g:SM8AAOSw5dNWjiR1
p46
aVhttp://www.ebay.com/itm/AquaMag-22mm-Strong-Magnetic-Central-Heating-Filter-Sludge-Contaminants-Remover-/231725705807?epid=709887831&hash=item35f3edaa4f:g:G7MAAOSwo6lWJRoJ
p47
aVhttp://www.ebay.com/itm/CORROSION-OF-CONFORMITY-PATCH-Iron-On-Down-Nola-Sludge-Stoner-Doom-Metal-NEW-/322358928672?hash=item4b0e16e520:g:pWoAAOSwImRYUHWT
p48
aVhttp://www.ebay.com/itm/Dr-Sludge-Self-Sealing-700x28c-35c-Presta-Inner-Tube-/142125327532?epid=1481135621&hash=item21175464ac:g:~kEAAOSw5dNWk-dM
p49
aVhttp://www.ebay.com/itm/Dr-Sludge-Self-Sealing-700x28c-35c-Presta-Inner-Tube-/142125327532?epid=1481135621&hash=item21175464ac:g:~kEAAOSw5dNWk-dM
p50
aVhttp://www.ebay.com/itm/Fernox-TF1-22mm-Central-Heating-Magnetic-Filter-Boiler-and-System-Sludge-Remover-/191625508308?epid=1505456021&hash=item2c9dc535d4:g:niYAAOSwT6pVnR5g
p51
aVhttp://www.ebay.com/itm/Fernox-TF1-Compact-22mm-Total-Magnetic-scale-Filter-Sludge-Remover-/171145222267?epid=1909968262&hash=item27d90cd87b:g:7JQAAOSwr7ZW59Cs
p52
aVhttp://www.ebay.com/itm/EHEIM-Quick-Vacpro-BATTERY-SLUDGE-VACUUM-GRAVEL-CLEANER-3531000-/221966329937?hash=item33ae396851:g:PjsAAOSwfZ1Wa02O
p53
aVhttp://www.ebay.com/itm/API-Pond-Sludge-Destroyer-algae-remover-473ml-Posted-Today-If-Paid-Before-1PM-/111919573300?epid=1004172834&hash=item1a0eed2934:g:cCwAAOSwKtVW0waW
p54
aVhttp://www.ebay.com/itm/Ducati-Spare-Parts-Oil-Pre-Filter-Sludge-888-748-916-ST2-Monster-SS-066049800-/182236752974?epid=1925253423&hash=item2a6e282c4e:g:3vQAAOSw1-RUaiFJ&vxp=mtr
p55
aVhttp://www.ebay.com/itm/DR-SLUDGE-ROAD-MTB-HYBRID-700-26-28-29er-BIKES-ANTI-FLAT-PUNCTURE-TAPE-Pair-/351287830158?var=&hash=item51ca62e68e:m:m9aFLO-gEh15TykEc3iWsnQ
p56
aVhttp://www.ebay.com/itm/Fly-London-Yip-Womens-Suede-Leather-Wedge-Heel-Ladies-Ankle-Side-Zip-Boots-/371496610518?var=&epid=1445138367&hash=item567eec6ad6:m:mAwZjjtOhInwK4zwLx4iMFw
p57
aVhttp://www.ebay.com/itm/EHEIM-7313078-REPLACEMENT-IMPELLER-FOR-353100-VACUUM-SLUDGE-EXTRACTOR-/191295445345?epid=1017365338&hash=item2c8a18d961:m:m35OWvgTUFbCMNklEkt6cZQ
p58
aVhttp://www.ebay.com/itm/QUEENS-OF-THE-STONE-AGE-ERA-VULGARIS-STONER-SLUDGE-ROCK-KYUSS-NEW-BLACK-T-SHIRT-/282042050292?var=&hash=item41ab0426f4:m:mOP3H_I9shxyRtax6NB_-tQ
p59
aVhttp://www.ebay.com/itm/NT-Labs-Sludgeclear-Pond-Sludge-Remover-250ml-500ml-1000ml-Koi-Pond-Fish-/192159271292?var=&epid=1259749585&hash=item2cbd95c97c:m:mP1ff7QgY0YYPVNK2aODyDA
p60
aVhttp://www.ebay.com/itm/Boiler-Sludge-Remover-Inhibitor-HYDRA-HEATING-OIL-ADDITIVE-1L-treats-up-to-5000L-/272590778244?epid=676895132&hash=item3f77ad2f84:g:HFwAAOSwWxNYwnQl
p61
aVhttp://www.ebay.com/itm/Banned-Sludge-Top-Load-Stem-Black-RRP-64-99-/371748493559?hash=item568defd8f7:g:x9IAAOSwLnBX66WL
p62
aVhttp://www.ebay.com/itm/Monolithian-The-Waning-Monn-LP-doom-stoner-sludge-hardcore-eyehategod-cthulu-/253009029464?hash=item3ae8836958:g:09wAAOSw-K9ZIrLI
p63
aVhttp://www.ebay.com/itm/EVENT-Gengar-6IV-Pentagon-OCT2014-Sludge-Wave-Pokemon-ORAS-XY-/142042825168?hash=item21126981d0:g:ZV8AAOSwkl5XdwHB
p64
aVhttp://www.ebay.com/itm/CORROSION-OF-CONFORMITY-PATCH-Iron-On-Down-Nola-Sludge-Stoner-Doom-Metal-NEW-/322358928672?hash=item4b0e16e520:g:pWoAAOSwImRYUHWT
p65
aVhttp://www.ebay.com/itm/Interpet-Sludge-Buster-50ml-Bacteria-Filter-Cleaner-Remover-Fish-Tank-Aquarium-/263056395913?epid=2010015173&hash=item3d3f620e89:g:dY0AAOSwPK1ZUACP
p66
aVhttp://www.ebay.com/itm/AquaMag-22mm-Strong-Magnetic-Central-Heating-Filter-Sludge-Contaminants-Remover-/231725705807?epid=709887831&hash=item35f3edaa4f:g:G7MAAOSwo6lWJRoJ
p67
aVhttp://www.ebay.com/itm/2-Dr-Sludge-Self-Sealing-Mountain-Bike-Inner-Tube-26-puncture-repair-Presta-/131290316403?epid=1504301363&hash=item1e91833e73:g:thkAAOSwHjNV-91M
p68
aVhttp://www.ebay.com/itm/Smart-Mag-22mm-Magnetic-Central-Heating-Boiler-Filter-Sludge-Remover-Easy-Access-/322196222209?hash=item4b04643101:g:zBcAAOSwjKFZS~em
p69
aVhttp://www.ebay.com/itm/NT-Labs-Sludgeclear-Pond-Sludge-Remover-250ml-500ml-1000ml-Koi-Pond-Fish-/192159271292?var=&epid=1259749585&hash=item2cbd95c97c:m:mP1ff7QgY0YYPVNK2aODyDA
p70
aVhttp://www.ebay.com/itm/2-Dr-Sludge-Self-Sealing-Mountain-Bike-Inner-Tube-29-puncture-repair-Schrader-/141878091604?epid=1140175206&hash=item210897df54:g:vvMAAOSwGJlZKDbQ
p71
aVhttp://www.ebay.com/itm/TETRA-POND-SEDIMENT-MINUS-250ML-WATER-SLUDGE-TREATMENT-REMOVE-MUD-CLEAN-CLEAR-/172134830973?epid=1261483842&hash=item281409137d:g:SUQAAOSwAuNW5~DM
p72
aVhttp://www.ebay.com/itm/HOZELOCK-POND-SLUDGE-REMOVER-BIOLOGICAL-WATER-TREATMENT-TREATS-9000-LITRES-/172167571298?epid=1605280921&hash=item2815fca762:g:~WgAAOSwv~xXD7Sg
p73
aVhttp://www.ebay.com/itm/PENTAGRAM-PATCH-Relentless-Embroidered-Iron-On-Sludge-Stoner-Doom-Band-Badge-NEW-/222557529660?hash=item33d176663c:g:MTAAAOSw3v5Yr1VX
p74
aVhttp://www.ebay.com/itm/Salus-MD22A-Magnetic-Filter-22mm-Mag-Defender-CENTRAL-HEATING-SLUDGE-REMOVER-INC-/291319118796?epid=860965657&hash=item43d3f8fbcc:g:97UAAOSw7NNUIYi7
p75
aVhttp://www.ebay.com/itm/TOXIC-WASTE-SUPER-SOUR-GIFT-BOX-ULTRA-SOUR-NUCLEAR-SLUDGE-BARS-TOXIC-DRUM-SET-/292014431263?hash=item43fd6a9c1f:g:520AAOSw-0xYj2ND
p76
aVhttp://www.ebay.com/itm/MELVINS-HOUDINI-SLUDGE-METAL-STONER-ROCK-FANTOMAS-RETRO-HIPSTER-UNISEX-T-SHIRT-4-/291801348822?var=&hash=item43f0b73ad6:m:m0_pApFeq1wXlRKC0gv8B8Q
p77
aVhttp://www.ebay.com/itm/Calmag-22mm-Central-Heating-Magnetic-Filter-Boiler-and-System-Sludge-Remover-/201384840108?hash=item2ee378cbac:g:HQcAAOSw~gRVnR9Y
p78
aVhttp://www.ebay.com/itm/ADEY-MAGNACLEAN-PRO2-MAGNETIC-FILTER-CLEANER-22MM-sludge-remover-bnib-/281357983475?hash=item41823e1ef3:g:u7YAAOSwstxVADuQ
p79
aVhttp://www.ebay.com/itm/Microbe-Lift-Sludge-Away-4-Ltrs-Koi-Fish-Ponds-/322214594590?hash=item4b057c881e:g:J7YAAOSwNSxVPrAW
p80
aVhttp://www.ebay.com/itm/SWEETS-12-TOXIC-WASTE-ULTRA-SOUR-RASPBERRY-NUCLEAR-SLUDGE-BARS-ULTRA-SOUR-/272018872872?hash=item3f55969a28:g:y3oAAOSw~bFWIg4p
p81
aVhttp://www.ebay.com/itm/Adey-Magnaclean-Micro-Pro-22mm-Central-Heating-Magnetic-Filter-Sludge-Remover-/201384840106?epid=1808175834&hash=item2ee378cbaa:g:JVQAAOSwyQtVnSCe
p82
aVhttp://www.ebay.com/itm/2-x-700c-Dr-Sludge-Bike-Inner-Tubes-700x28-35-SV-Free-Tracked-Courier-/362001625106?epid=1191203546&hash=item5448fa7012:g:3QcAAOSwTA9X9SoL
p83
aVhttp://www.ebay.com/itm/2-x-700c-Dr-Sludge-Bike-Inner-Tubes-700x28-35-SV-Free-Tracked-Courier-/362001625106?epid=1191203546&hash=item5448fa7012:g:3QcAAOSwTA9X9SoL
p84
aVhttp://www.ebay.com/itm/RAILWAY-SIGN-VINYL-BRITISH-RAIL-TRAIN-SIGN-STICKER-NP-NORTH-POLE-SLUDGE-/112463662869?hash=item1a2f5b4f15:g:3-wAAOSwcgNZLyci
p85
aVhttp://www.ebay.com/itm/5-Litre-Bottle-of-Dr-Sludge-Puncture-Protection-Sealant-/142125333132?epid=526323186&hash=item2117547a8c:g:3egAAOSwGotWk-e1
p86
aVhttp://www.ebay.com/itm/9000-litre-INTERPET-SLUDGE-BUSTER-POND-WATER-DIGESTER-TREATMENT-BLAGDON-KOI-FISH-/382083624472?epid=2068851676&hash=item58f5f56e18:g:N6wAAOSwstJZOoei
p87
aVhttp://www.ebay.com/itm/2-Dr-Sludge-Self-Sealing-Mountain-Bike-Inner-Tube-26-puncture-repair-Schrader-/131582307111?epid=1245110142&hash=item1ea2eaab27:g:~VEAAOSwX61ZKfU8
p88
aVhttp://www.ebay.com/itm/ALTECNIC-DIRTMAG-IQ-PRIME-22MM-BOILER-MAGNETIC-SLUDGE-FILTER-AIR-DIRT-SEPARATOR-/391249542717?epid=1651674146&hash=item5b184a3e3d:g:BScAAOSwu4BV6ciV
p89
aVhttp://www.ebay.com/itm/Hozelock-Pond-Vac-Collection-Basket-Silt-Sludge-Vacuum-Water-Cleaner-Bag-/400418765625?epid=1005415763&hash=item5d3ad17b39:g:-QAAAOSwEBxZbIf7
p90
aVhttp://www.ebay.com/itm/Schwalbe-Marathon-Plus-MTB-29-27-5-26-x-2-25-2-10-Smartguard-Tyre-Anti-Puncture-/172451932943?var=&hash=item2826efab0f:m:mgpqQmcJQ0wy7K3aNPMwAUw
p91
aVhttp://www.ebay.com/itm/SWEETS-12-TOXIC-WASTE-ULTRA-SOUR-CHERRY-NUCLEAR-SLUDGE-BARS-ULTRA-SOUR-/281830862877?hash=item419e6db01d:g:KL0AAOSwo0JWIg3M
p92
aVhttp://www.ebay.com/itm/Fish-Pond-Sludge-Remover-HYDRA-SILT-LESS-ALL-IN-ONE-Pond-Water-Organic-Silt-/281278100331?var=&hash=item417d7b336b:m:m2STmPmtUrlkAOBQ-zCLSTw
p93
aVhttp://www.ebay.com/itm/DIRTMAG-IQ-PRIME-22MM-BOILER-MAGNETIC-SLUDGE-FILTER-AIR-DIRT-SEPARATOR-PACK-/400990035617?hash=item5d5cde5ea1:g:AwwAAOSwT6pV6cbG
p94
aVhttp://www.ebay.com/itm/QUEENS-OF-THE-STONE-AGE-ERA-VULGARIS-STONER-SLUDGE-ROCK-KYUSS-NEW-WHITE-T-SHIRT-/282042049219?var=&hash=item41ab0422c3:m:m0sY3-jddfIeLvb_V8hnmhQ
p95
aVhttp://www.ebay.com/itm/Carlube-Cooling-System-Radiator-Flush-Clear-Rust-Sludge-Blockage-300ml-RAF301-/121408986271?epid=1110944562&hash=item1c448a1c9f:g:cEYAAOSwIUNXFik-
p96
aVhttp://www.ebay.com/itm/Weldtite-Dr-Sludge-Tubeless-Sealant-250ml-/182283243408?epid=2111863208&hash=item2a70ed8f90:g:GJgAAOSwmfhX26jP
p97
aVhttp://www.ebay.com/itm/Schwalbe-Road-Cruiser-26-x-1-75-47-559-K-Guard-AntiPuncture-MTB-Bike-Cycle-Tyre-/172460373512?var=&hash=item2827707608:m:mVjvXp-HuEI0mU0R56t0moQ
p98
aVhttp://www.ebay.com/itm/2-x-700c-Dr-Sludge-Bike-Inner-Tubes-700x28-35-Presta-Free-Tracked-Courier-/232104206781?epid=1191203546&hash=item360a7d21bd:g:rtYAAOSwOyJX9Sr1
p99
aVhttp://www.ebay.com/itm/Pond-Sludge-Remover-Treatment-Blocks-Sludge-Shifter-Nuggets-Reduces-Sludge-/182464047938?epid=1027693989&hash=item2a7bb46b42:g:WmgAAOSw3ydVk~HC
p100
aVhttp://www.ebay.com/itm/2-x-29-Dr-Sludge-Bike-Inner-Tubes-29-x-2-10-2-35-Presta-Free-Tracked-Courier-/232104194101?hash=item360a7cf035:g:SqYAAOSwPCVX9Sbe
p101
aVhttp://www.ebay.com/itm/QUEENS-OF-THE-STONE-AGE-ERA-VULGARIS-STONER-SLUDGE-ROCK-KYUSS-NEW-WHITE-TSHIRT-6-/222157909921?var=&hash=item33b9a4afa1:m:mKFQFstoTd9867agSXfzjBw
p102
aVhttp://www.ebay.com/itm/Schwalbe-Marathon-Plus-Mountain-Bike-26-x-1-75-Tyre-InnerTubes-Tough-Smartguard-/182380906878?var=&hash=item2a76bfc97e:m:mgpqQmcJQ0wy7K3aNPMwAUw
p103
aVhttp://www.ebay.com/itm/Interpet-FISH-TANK-TREATMENT-Health-Disease-Parasite-MEDICINE-Water-AQUARIUM-/122268425368?var=&epid=1104165021&hash=item1c77c41c98:m:mFmojIsCdTe2pE_9JVEX03A
p104
aVhttp://www.ebay.com/itm/TWO-DR-SLUDGE-Self-Sealing-Bicycle-Bike-Inner-Tube-Prevents-Flat-Tyres-/301745915162?var=&hash=item464175451a:m:mdFMScXlmEJ18Dpt6pcRgEg
p105
aVhttp://www.ebay.com/itm/Triumph-350-500cc-Sludge-Trap-Tube-Bung-70-3711-70-3999-/162575835133?hash=item25da465ffd:g:hXMAAOSw32lYtFy1&vxp=mtr
p106
aVhttp://www.ebay.com/itm/Dr-Sludge-Self-Sealing-Inner-Tube-Sealant-puncture-protection-250ml-/141570186614?epid=1904316657&hash=item20f63d9d76:g:w-UAAOSwi7RZKfUc
p107
aVhttp://www.ebay.com/itm/Interpet-Aquarium-CLEAN-Water-Murky-Dirty-Fish-Tank-Treatment-Ornament-Cleaning-/122541899652?var=&epid=523907019&hash=item1c8810ff84:m:m7PY4TAysmwWJ5E-ZfBDaHg
p108
aVhttp://www.ebay.com/itm/Inhibitor-Sludge-Remover-Cleaner-Leak-Sealer-Power-Flush-Radiator-Cleanser-NEW-/311330656116?var=&epid=1256555439&hash=item487cc0cf74:m:mF0-UzYPGplTiu1XrA45J0A
p109
aVhttp://www.ebay.com/itm/Pondh2o-Sludge-Shifter-6000-Gallons-Helps-Reduce-Pond-Muck-And-Sludge-Naturally-/132039424140?hash=item1ebe29b88c:g:d6cAAOSw-0xYWAxo
p110
aVhttp://www.ebay.com/itm/API-Goldfish-Care-Pack-Start-Cleaner-Protect-Dechlorinator-Sludge-Remover-Set-/252739147246?hash=item3ad86d55ee:g:cskAAOSwo4pYh9vg
p111
aVhttp://www.ebay.com/itm/500ML-CLOVERLEAF-SLUDGE-ANSWER-POND-WATER-TREATMENT-CLEAR-DIRT-MUCK-FILTERS-/171699706431?epid=1927434894&hash=item27fa199a3f:g:-IoAAOSweW5VMN3G
p112
aVhttp://www.ebay.com/itm/EHEIM-7313078-REPLACEMENT-IMPELLER-FOR-353100-VACUUM-SLUDGE-EXTRACTOR-/191578328529?hash=item2c9af54dd1:m:m35OWvgTUFbCMNklEkt6cZQ
p113
aVhttp://www.ebay.com/itm/10-X-TOXIC-WASTE-NUCLEAR-SLUDGE-SOUR-CHERRY-CHEW-BARS-/201020575986?hash=item2ecdc290f2:g:mkEAAOxyVaBS1r0i
p114
aVhttp://www.ebay.com/itm/NEW-FISH-TANK-GRAVEL-AQUARIUM-WATER-CLEANER-AIR-PUMP-REMOVER-SLUDGE-DIRT-/182294032303?var=&hash=item2a71922faf:m:m2fqSk47NXJ3QxwnaWC62eA
p115
a.