(lp1
Vhttp://www.ebay.com/itm/Villeroy-Boch-SIENA-dinner-plate-26-5cm-EXCELLENT-/121806762100?hash=item1c5c3fb074:g:1CQAAOxycSdR2Ijo
p2
aVhttp://www.ebay.com/itm/Villeroy-and-Boch-SIENA-salad-dessert-plate-21cm-Excellent-/130731291948?epid=851334849&hash=item1e7031352c:g:UCUAAOSwo0JWJ-XA
p3
aVhttp://www.ebay.com/itm/Villeroy-and-Boch-SIENA-side-bread-plate-/131372167521?hash=item1e96643161:m:mutxirb3eNk2HHoKJ88LNAA
p4
aVhttp://www.ebay.com/itm/Villeroy-and-Boch-SIENA-large-breakfast-cup-/121369468217?hash=item1c422f1d39:g:tgcAAOSw~CRTpt1L
p5
aVhttp://www.ebay.com/itm/Villeroy-and-Boch-SIENA-UNUSED-buffet-plate-charger-30cm-/120960665853?hash=item1c29d148fd:g:7RkAAOSwT5tWJ-iM
p6
aVhttp://www.ebay.com/itm/Villeroy-and-Boch-SIENA-coffee-pot-with-lid-/121262287473?hash=item1c3bcbaa71:m:m7Lza4Znlw_pnpHqG_xOfag
p7
aVhttp://www.ebay.com/itm/Villeroy-and-Boch-SIENA-platter-36cm-long-/122222615310?hash=item1c75091b0e:m:mCh7DMfFZCG3kJgO_QEVF5g
p8
aVhttp://www.ebay.com/itm/Villeroy-and-Boch-SIENA-mug-/121805944422?hash=item1c5c333666:g:K2sAAOxy1JBSQzZi
p9
aVhttp://www.ebay.com/itm/Lente-Designs-Apple-iPad-Pro-9-7-folio-cover-case-in-our-Siena-Stripes-fabric-/112039159503?hash=item1a160de6cf:g:GSoAAOSwNuxXb8ku
p10
aVhttp://www.ebay.com/itm/Villeroy-Boch-SIENA-tea-cup-and-saucer-/131964081944?hash=item1eb9ac1718:m:mNmPSsZ5MwM1EwgWApODFaA
p11
aVhttp://www.ebay.com/itm/Villeroy-and-Boch-SIENA-individual-bowl-15cm-/131695853182?hash=item1ea9af3e7e:g:1c0AAOSwe-FU~GQC
p12
aVhttp://www.ebay.com/itm/MASSIVES-MESSING-SIENA-WOHNZIMMER-POLIERTES-MESSING-TUR-KLINGELKNOPF-/282494029738?hash=item41c5f4cfaa:g:4H8AAOSwBLlVWMSd
p13
aVhttp://www.ebay.com/itm/Villeroy-and-Boch-SIENA-individual-bowl-15cm-/131450007749?hash=item1e9b07f0c5:g:1c0AAOSwe-FU~GQC
p14
aVhttp://www.ebay.com/itm/Villeroy-and-Boch-SIENA-rimmed-salad-dish-dessert-bowl-20cm-/122222614499?hash=item1c750917e3:g:-JIAAOSwc0FUm~Sr
p15
aVhttp://www.ebay.com/itm/Villeroy-and-Boch-SIENA-milk-custard-jug-size-2-11cm-/121808592711?hash=item1c5c5b9f47:g:ja0AAOSwD0lUhG5e
p16
aVhttp://www.ebay.com/itm/Persol-Cellor-Series-Clubmaster-Glasses-Frame-Terra-Di-Siena-Torte-PO-3105VM-96-/282433388298?epid=757297300&hash=item41c2577f0a:g:SzYAAOSw3utY8OhA
p17
aVhttp://www.ebay.com/itm/Villeroy-and-Boch-SIENA-individual-dessert-salad-bowl-12cm-/121805964200?hash=item1c5c3383a8:g:I6wAAOxy5jxScXEp
p18
aVhttp://www.ebay.com/itm/Villeroy-and-Boch-SIENA-vegetable-tureen-with-lid-/131964081862?hash=item1eb9ac16c6:g:oVMAAOSwI-BWJ-eR
p19
aVhttp://www.ebay.com/itm/SOUVENIR-FRIDGE-MAGNET-of-SIENA-ITALY-/321970407348?epid=930733059&hash=item4af6ee87b4:g:SAQAAOSw5dNWj-2S
p20
aVhttp://www.ebay.com/itm/Villeroy-and-Boch-SIENA-rimmed-salad-dish-dessert-bowl-20cm-/122172800010?hash=item1c7210fc0a:g:-JIAAOSwc0FUm~Sr
p21
aVhttp://www.ebay.com/itm/Villeroy-Boch-SIENA-coffee-cup-can-and-saucer-/122195519723?epid=1731988078&hash=item1c736ba8eb:g:v2kAAOSw~bFWJ-Sz
p22
aVhttp://www.ebay.com/itm/SOLID-BRASS-SIENA-SUITE-POLISHED-BRASS-DOOR-BELL-PUSH-VICTORIAN-STYLE-D286-01-/261891199865?hash=item3cf9ee9379:g:4H8AAOSwBLlVWMSd
p23
aVhttp://www.ebay.com/itm/Premium-Quality-Printed-Viscose-Rayon-Cotton-Stretch-Lycra-Fabric-Material-/281756580799?var=&hash=item419a003bbf:m:m3xDojxAB73kXon6nkrJhZQ
p24
aVhttp://www.ebay.com/itm/Mapei-coloured-silicone-sealant-44-colours-available-310ml-Cartridge-/190390240803?var=&epid=1928631940&hash=item2c54248623:m:mpVCQAv51Jm6pFFLkwujh_Q
p25
aVhttp://www.ebay.com/itm/Villeroy-and-Boch-SIENA-salad-dessert-plate-21cm-VG-/131652281796?epid=851334849&hash=item1ea71665c4:m:mF4u60s_ED1-8-0EfBaEXPA
p26
aVhttp://www.ebay.com/itm/Premium-Quality-Printed-Viscose-Rayon-Cotton-Stretch-Lycra-Fabric-Material-/281756580799?var=&hash=item419a003bbf:m:m3xDojxAB73kXon6nkrJhZQ
p27
aVhttp://www.ebay.com/itm/Honda-Touch-Up-Brush-Paint-Siena-Red-R320-/131530711493?hash=item1e9fd761c5:g:m-EAAOSwBahVbweh&vxp=mtr
p28
aVhttp://www.ebay.com/itm/PAINTING-TUSCANY-SIENA-ITALY-ARCHITECTURE-ART-POSTER-PRINT-LV2947-/121759679710?epid=1991277756&hash=item1c597144de:g:Rg8AAOSwEetV9rSh
p29
aVhttp://www.ebay.com/itm/A-C-Siena-Lapel-Pin-Badge-/121886246282?hash=item1c60fc858a:g:ZJkAAOSwoydWtJbO
p30
aVhttp://www.ebay.com/itm/SIENA-White-High-Gloss-Large-Computer-PC-Home-Executive-Study-Office-Corner-Desk-/182649979953?epid=1479599329&hash=item2a86c98431:g:YPcAAOSwcj5ZW1~o
p31
aVhttp://www.ebay.com/itm/TR5-Vintage-Italian-Tuscany-Siena-Italy-Travel-Poster-Re-Print-A4-/390431124650?var=&hash=item5ae7822caa:m:m2fH3okRn84TEPr3ib2RYpw
p32
aVhttp://www.ebay.com/itm/Sirdar-Toscana-DK-Siena-110-toscana-/162439732051?hash=item25d2299b53:g:YvgAAOSwol5Y0VEX
p33
aVhttp://www.ebay.com/itm/Mywalit-10cm-Leather-Zippered-Magic-Credit-Card-Coin-Wallet-Gift-Boxed-/222324497755?var=&epid=2023163677&hash=item33c3929d5b:m:mmhhKNS5KbF6ohaueicphgg
p34
aVhttp://www.ebay.com/itm/Siena-Plastic-Planter-14cm-Black-Home-Garden-Office-Plant-Pot-/161101077322?hash=item25825f5b4a:g:zsQAAOxy2HFSYRjA
p35
aVhttp://www.ebay.com/itm/Aqua-Sphere-Siena-Womens-Swimsuit-Navy-Turquoise-/332248987301?var=&epid=1873630633&hash=item4d5b9536a5:m:mN19TD2zgFl3tkk17ZBoP-Q
p36
aVhttp://www.ebay.com/itm/Beautiful-woodland-fairy-Ivory-SIENA-floral-crown-with-rustic-rope-detail-/162108095428?hash=item25be653bc4:g:65cAAOSwGIRXZFN1
p37
aVhttp://www.ebay.com/itm/Art-Photo-Reprint-St-Michael-Archangel-Giovanni-Di-Paolo-Ca-1399-Siena-1482-/181086255965?var=&hash=item2a2994fb5d:m:mLfBRhASzvTZeM2fD8e-tqg
p38
aVhttp://www.ebay.com/itm/FIAT-Punto-Scudo-Siena-Stilo-Strada-4-Wire-Oxygen-Lambda-Sensor-O2-Sensor-/331281214305?fits=Model%3ASiena&hash=item4d21e62b61:g:SGYAAOSwlndZFIyj
p39
aVhttp://www.ebay.com/itm/LAITON-MASSIF-SIENA-SUITE-POLI-PORTE-BOUTON-DE-SONNETTE-STYLE-VICTORIEN-D286-01-/252958077019?hash=item3ae579f05b:g:4H8AAOSwBLlVWMSd
p40
aVhttp://www.ebay.com/itm/Fiat-Panda-Seicento-Siena-10mm-Formula-Power-RACE-PERFORMANCE-lead-set-FP689-/181354828013?fits=Model%3ASiena&hash=item2a399710ed:g:eDcAAOSwWxNYoV5e&vxp=mtr
p41
aVhttp://www.ebay.com/itm/Hirsch-SIENA-Natural-Italian-Tuscan-Leather-Watch-Strap-and-Buckle-in-GOLD-BROWN-/281698615982?var=&hash=item41968bc2ae:m:mD9CR3o_d4uatXDwVkiwc7Q
p42
aVhttp://www.ebay.com/itm/SERENGETI-Drivers-Polarized-Photochromic-Sunglasses-Case-7324-Siena-/162107505712?hash=item25be5c3c30:g:WrEAAOSwBahVN~hQ
p43
aVhttp://www.ebay.com/itm/Hirsch-SIENA-Natural-Italian-Tuscan-Leather-Watch-Strap-and-Buckle-in-BROWN-/281698611823?var=&hash=item41968bb26f:m:mpXEWalTlHjUNg7t__G6t9Q
p44
aVhttp://www.ebay.com/itm/3-STAGE-HONDA-TOUCH-UP-PAINT-KIT-CBF1000-F-CB600F-CBF600N-S-PEARL-SIENA-RED-/350588898007?hash=item51a0ba0ad7:m:mTvoBiFhIlIox8NRg45OXDQ&vxp=mtr
p45
aVhttp://www.ebay.com/itm/Villeroy-et-Boch-SIENA-salade-assiette-a-dessert-21cm-Excellent-/131633244714?hash=item1ea5f3ea2a:g:UCUAAOSwo0JWJ-XA
p46
aVhttp://www.ebay.com/itm/PAINTING-TUSCANY-SIENA-ITALY-ARCHITECTURE-ART-POSTER-PRINT-LV2947-/121759679710?epid=1991277756&hash=item1c597144de:g:Rg8AAOSwEetV9rSh
p47
aVhttp://www.ebay.com/itm/Fiat-Bravo-Brava-Grande-Punto-Stilo-Siena-Panda-1-2-1-4-tensioner-wrench-Tool-/221980336718?epid=1162975602&hash=item33af0f224e:g:cxwAAOxydlFS8C08
p48
aVhttp://www.ebay.com/itm/Givenchy-Le-Prisme-Gold-Bronze-Eyeshadow-Palette-76-Siena-Silhouette-Damaged-Box-/352007522345?epid=1004199905&hash=item51f5488829:g:gWIAAOSw2gxYy9F8
p49
aVhttp://www.ebay.com/itm/NEXT-Siena-2-Light-Wall-Light-BNIB-/302353504403?hash=item4665ac5893:g:-~gAAOSw53NY9zx4
p50
aVhttp://www.ebay.com/itm/Lente-Designs-Apple-iPad-2-3-4-cover-case-in-our-Siena-Stripes-orange-lining-/112039170376?hash=item1a160e1148:g:MxIAAOSw3YNXb8pq
p51
aVhttp://www.ebay.com/itm/NEXT-Siena-Black-6-Light-Flush-Ceiling-Lighting-Solid-Glass-Chandelier-NEW-/272756903704?hash=item3f81940f18:g:crsAAOSw4CFYxGE-
p52
aVhttp://www.ebay.com/itm/NEXT-Siena-Black-6-Light-Flush-Ceiling-Lighting-Solid-Glass-Chandelier-NEW-/272756903704?hash=item3f81940f18:g:crsAAOSw4CFYxGE-
p53
aVhttp://www.ebay.com/itm/Rowan-Siena-4-ply-Shade-651-White-/302374042544?hash=item4666e5bbb0:g:JaUAAOSw8d5ZXMtQ
p54
aVhttp://www.ebay.com/itm/Villeroy-and-Boch-SIENA-12-Charger-Platter-/262298220699?hash=item3d1231389b:g:o8UAAOSwWTRWx0A~
p55
aVhttp://www.ebay.com/itm/Radiator-Expansion-Water-Tank-Cap-For-Fiat-Punto-Seicento-Siena-Strada-Uno-/351895338633?epid=2001871740&hash=item51ee98be89:g:iMgAAOSw-0xYb7Rz
p56
a.