(lp0
Vhttps://www.amazon.co.uk/d/Books/Brindisa-True-Spain-Monika-Linton/0007307187/ref=sr_1_1/262-0634598-9622451?ie=UTF8&qid=1500120999&sr=8-1&keywords=Brindisi
p1
aVhttps://www.amazon.co.uk/Proud-Brindisi-Car-Sticker-Sign/dp/B019JBS28M/ref=sr_1_2/262-0634598-9622451?ie=UTF8&qid=1500120999&sr=8-2&keywords=Brindisi
p2
aVhttps://www.amazon.co.uk/Traviata-Acte-%C2%AB-Brindisi-%C2%BB/dp/B007KKGX1S/ref=sr_1_3/262-0634598-9622451?ie=UTF8&qid=1500120999&sr=8-3&keywords=Brindisi
p3
aVhttps://www.amazon.co.uk/Colin-Matthews-Divertimento-Divertimenti-Ensemble-x/dp/B001B42DWM/ref=sr_1_4/262-0634598-9622451?ie=UTF8&qid=1500120999&sr=8-4&keywords=Brindisi
p4
aVhttps://www.amazon.co.uk/Sampietrana-Brindisi-Riserva-1952/dp/B00TLQ0GLM/ref=sr_1_5_a_it/262-0634598-9622451?ie=UTF8&qid=1500120999&sr=8-5&keywords=Brindisi
p5
aVhttps://www.amazon.co.uk/Puglia-Bari-Brindisi-Taranto-T10/dp/3707914917/ref=sr_1_6/262-0634598-9622451?ie=UTF8&qid=1500120999&sr=8-6&keywords=Brindisi
p6
aVhttps://www.amazon.co.uk/Zaur-Brindisi_59/dp/B01L6UFIPY/ref=sr_1_7/262-0634598-9622451?ie=UTF8&qid=1500120999&sr=8-7&keywords=Brindisi
p7
aVhttps://www.amazon.co.uk/Brindisi-Traviata-String-Orchestra-Violin/dp/B01FFQPZRG/ref=sr_1_8/262-0634598-9622451?ie=UTF8&qid=1500120999&sr=8-8&keywords=Brindisi
p8
aVhttps://www.amazon.co.uk/Mozart-Clarinet-Quintet-Flute-Quartet/dp/B000005GV4/ref=sr_1_9/262-0634598-9622451?ie=UTF8&qid=1500120999&sr=8-9&keywords=Brindisi
p9
aVhttps://www.amazon.co.uk/Brindisi-Glossy-Chandelier-Beaded-Birdcage/dp/B0130DLOBC/ref=sr_1_10/262-0634598-9622451?ie=UTF8&qid=1500120999&sr=8-10&keywords=Brindisi
p10
aVhttps://www.amazon.co.uk/Modern-LED-Light-Ceiling-Brindisi/dp/B06Y183SRG/ref=sr_1_11/262-0634598-9622451?ie=UTF8&qid=1500120999&sr=8-11&keywords=Brindisi
p11
aVhttps://www.amazon.co.uk/Angel-B-01-49-10-Hoe-Brindisi-Manicata/dp/B01DF5QSD4/ref=sr_1_12/262-0634598-9622451?ie=UTF8&qid=1500120999&sr=8-12&keywords=Brindisi
p12
aVhttps://www.amazon.co.uk/Masai-Clothing-Striped-Sweater-Brindisi/dp/B01LLR29CC/ref=sr_1_13/262-0634598-9622451?ie=UTF8&qid=1500120999&sr=8-13&keywords=Brindisi
p13
aVhttps://www.amazon.co.uk/d/cka/Brindisi-traviata-Vocal-Oxford-Choral-Classics-Octavos/0193418126/ref=sr_1_14/262-0634598-9622451?ie=UTF8&qid=1500120999&sr=8-14&keywords=Brindisi
p14
aVhttps://www.amazon.co.uk/Gino-Ferrari-Womens-Brindisi-GF482/dp/B007XCZF0I/ref=sr_1_15/262-0634598-9622451?ie=UTF8&qid=1500120999&sr=8-15&keywords=Brindisi
p15
aVhttps://www.amazon.co.uk/traviata-Libiam-ne-lieti-calici-Brindisi-Instrumental-Version/dp/B01ECY9U8M/ref=sr_1_16/262-0634598-9622451?ie=UTF8&qid=1500120999&sr=8-16&keywords=Brindisi
p16
aVhttps://www.amazon.co.uk/d/Portable-Computer-Bags-Cases/Gino-Ferrari-Lavaro-Collection-Brindisi-Laptop-Business/B012DS9TY4/ref=sr_1_17/262-0634598-9622451?ie=UTF8&qid=1500121001&sr=8-17&keywords=Brindisi
p17
aVhttps://www.amazon.co.uk/Cilio-0000613315-Brindisi-Glass-Stainless-Silver/dp/B00VRQSBDE/ref=sr_1_18/262-0634598-9622451?ie=UTF8&qid=1500121001&sr=8-18&keywords=Brindisi
p18
aVhttps://www.amazon.co.uk/Physa-Brindisi-Treatment-Stainless-Adjustable/dp/B008J1W5YQ/ref=sr_1_19/262-0634598-9622451?ie=UTF8&qid=1500121001&sr=8-19&keywords=Brindisi
p19
aVhttps://www.amazon.co.uk/Cuccio-Colour-Italian-Collection-Brindisi/dp/B01BVX0RNY/ref=sr_1_20_a_it/262-0634598-9622451?ie=UTF8&qid=1500121001&sr=8-20&keywords=Brindisi
p20
aVhttps://www.amazon.co.uk/dp/B06VW2Q713/ref=sr_1_21/262-0634598-9622451?ie=UTF8&qid=1500121001&sr=8-21&keywords=Brindisi
p21
aVhttps://www.amazon.co.uk/Reimo-Brindisi-Quick-Campervan-Awning/dp/B00VS0OKES/ref=sr_1_22/262-0634598-9622451?ie=UTF8&qid=1500121001&sr=8-22&keywords=Brindisi
p22
aVhttps://www.amazon.co.uk/d/ifq/TOKYObay-Tokyobay-Brindisi-watch-black/B00TJ9VVCO/ref=sr_1_23/262-0634598-9622451?ie=UTF8&qid=1500121001&sr=8-23&keywords=Brindisi
p23
aVhttps://www.amazon.co.uk/Brindisi-Bedfellows-Jamie-Craig-ebook/dp/B002E19MN4/ref=sr_1_24/262-0634598-9622451?ie=UTF8&qid=1500121001&sr=8-24&keywords=Brindisi
p24
aVhttps://www.amazon.co.uk/dp/B01MRJ1UJV/ref=sr_1_25/262-0634598-9622451?ie=UTF8&qid=1500121001&sr=8-25&keywords=Brindisi
p25
aVhttps://www.amazon.co.uk/Theodore-Stratelates-Medal-Patron-Brindisi-x/dp/B01725P69K/ref=sr_1_26/262-0634598-9622451?ie=UTF8&qid=1500121001&sr=8-26&keywords=Brindisi
p26
aVhttps://www.amazon.co.uk/Everyday-Souvenir-Breakfast-Memorable-Estampador/dp/B00B2SDIXU/ref=sr_1_27/262-0634598-9622451?ie=UTF8&qid=1500121001&sr=8-27&keywords=Brindisi
p27
aVhttps://www.amazon.co.uk/Angelo-Rocca-Brindisi-Rosso-Riserva/dp/B01DACB3VE/ref=sr_1_28_a_it/262-0634598-9622451?ie=UTF8&qid=1500121001&sr=8-28&keywords=Brindisi
p28
aVhttps://www.amazon.co.uk/d/DVD-Blu-ray/Pirates-of-the-seven-seas-1/2917799498/ref=sr_1_29/262-0634598-9622451?ie=UTF8&qid=1500121001&sr=8-29&keywords=Brindisi
p29
aVhttps://www.amazon.co.uk/Maurice-Emmanuel-Sonatines-Peter-Jacobs/dp/B001FQ4JQ4/ref=sr_1_30/262-0634598-9622451?ie=UTF8&qid=1500121001&sr=8-30&keywords=Brindisi
p30
aVhttps://www.amazon.co.uk/d/Books/Giuseppe-Verdi-Brindisi-Libiam-nelieti-Calici-Choral/B00HMRM368/ref=sr_1_31/262-0634598-9622451?ie=UTF8&qid=1500121001&sr=8-31&keywords=Brindisi
p31
aVhttps://www.amazon.co.uk/Vintage-Badoglio-Mason-Macfarlane-Military-Brindisi/dp/B01LWQP8VL/ref=sr_1_32/262-0634598-9622451?ie=UTF8&qid=1500121001&sr=8-32&keywords=Brindisi
p32
a.