(lp0
Vhttp://www.ebay.com/itm/3-Cutting-Grinding-Discs-for-Air-Cut-off-Tool-Grinder-Cutoff-10-PACK-75mm-AT844-/222343937726?hash=item33c4bb3ebe:g:ABYAAOSwJ7RYTsoE
p1
aVhttp://www.ebay.com/itm/300mm-Diamond-Blade-Cutting-Disc-20mm-Bore-stihl-saw-Concrete-Masonry-AT611-/222343937764?epid=1252411168&hash=item33c4bb3ee4:g:yAoAAOSw6DtYTsoG
p2
aVhttp://www.ebay.com/itm/4-1-2-115mm-angle-grinder-diamond-disc-disk-cutting-brick-stone-TE619-/222343937855?hash=item33c4bb3f3f:g:9NUAAOSw-0xYTsoO
p3
aVhttp://www.ebay.com/itm/Cutting-Discs-125mm-Stainless-Steel-Angle-Grinder-Air-Cut-Off-1-0mm-10pk-AT519-/222343937836?epid=2102805920&hash=item33c4bb3f2c:g:F6UAAOSwo4pYTsoQ
p4
aVhttp://www.ebay.com/itm/3-Cutting-Grinding-Discs-for-Air-Cut-off-Tool-Grinder-Cutoff-25-PACK-75mm-AT823-/222343937738?hash=item33c4bb3eca:g:XO8AAOSwcUBYTsoF
p5
aVhttp://www.ebay.com/itm/4-1-2-Stainless-Steel-Cutting-Discs-Ultrathin-Aluminium-Oxide-50-Pack-TE606-/222343937510?hash=item33c4bb3de6:g:FCgAAOSwo4pYTsn2
p6
aVhttp://www.ebay.com/itm/5pc-Metal-Grinding-Angle-Grinder-Disc-115mm-4-1-2-Depressed-Centre-TE786-/222343937388?hash=item33c4bb3d6c:g:YzsAAOSwImRYTsnr
p7
aVhttp://www.ebay.com/itm/Stainless-Steel-Metal-Cutting-Thin-Discs-4-5-115-x-1-x-22mm-50-Pack-AT608-50Pk-/222343937803?hash=item33c4bb3f0b:g:FucAAOSwo4pYTsoL
p8
aVhttp://www.ebay.com/itm/Garryson-Garryflex-60-Grit-Abrasive-Cleaner-Block-M0292-/292054297791?epid=1357542598&hash=item43ffcaecbf:g:7RUAAOSwFNZWuKvt
p9
aVhttp://www.ebay.com/itm/Stainless-Steel-Metal-Cutting-Thin-Discs-4-5-115-x-1-x-22mm-10-Pack-AT608-10Pk-/222343937822?hash=item33c4bb3f1e:g:k94AAOSw2xRYTsoM
p10
aVhttp://www.ebay.com/itm/Wet-and-Dry-Paper-Sandpaper-60-7000-grit-Abrasive-Waterproof-Sheets-STARCKE-/161334194814?var=&epid=1861897730&hash=item259044727e:m:m9sgQfP_O41WDgmC0XkJIuQ
p11
aVhttp://www.ebay.com/itm/4-1-2-Depressed-Dished-Centre-Metal-Grinding-Disc-Stainless-Steel-AT850-10Pk-/222343937724?epid=1352366447&hash=item33c4bb3ebc:g:u3cAAOSwa~BYTsoC
p12
aVhttp://www.ebay.com/itm/Bosch-76mm-Expert-Inox-Abrasive-Disc-5pk-2608601520-/201960787422?epid=1554777082&hash=item2f05cd0dde:g:RFwAAOSw3YJZSi1H
p13
aVhttp://www.ebay.com/itm/Stainless-Steel-Metal-Cutting-Thin-Discs-4-5-115-x-1-x-22mm-20-Pack-AT608-20Pk-/222343937804?hash=item33c4bb3f0c:g:Zy4AAOSwImRYTsoM
p14
aVhttp://www.ebay.com/itm/Silverline-Silicon-Carbide-20-Grit-Rubbing-Block-261034-/401209602860?epid=1639594511&hash=item5d69f4b32c:g:7-oAAOSwPCVYBvUv
p15
aVhttp://www.ebay.com/itm/Silverline-Mop-Wheel-60-x-30mm-80-Grit-262141-Sanding-/132210809240?epid=1239428547&hash=item1ec860d998:g:9EgAAOSwKytZLoT2
p16
aVhttp://www.ebay.com/itm/10x-Miniature-Rotary-Mandrel-Abrasive-2-35mm-Wheel-Holder-Skank-Tool-Dremel-3-32-/172402668227?epid=2075867561&hash=item2823fff2c3:g:Ds0AAOSwal5YIhu8
p17
aVhttp://www.ebay.com/itm/Crimson-Guitars-Fret-Rubber-Fret-Polishing-Abrasive-/161779971122?var=&hash=item25aad67432:m:mMDnX-3uddRZvHezMW5fRRA
p18
aVhttp://www.ebay.com/itm/Rottenstone-Fine-Abrasive-Powder-For-Shellac-French-Polishing-250g-/170942397218?hash=item27ccf5fb22:g:kagAAOSw9r1WBSps
p19
aVhttp://www.ebay.com/itm/Flap-Wheel-Disc-Sanding-Abrasive-for-Drill-6mm-Shank-40-or-80-Grit-25mm-80mm-/291458095710?var=&hash=item43dc419a5e:m:muDCz4IADRUTiNx1fOJ5wPg
p20
aVhttp://www.ebay.com/itm/Mirlon-Scotch-Brite-Abrasive-Finishing-Pads-Green-Red-Grey-Cleaning-Scouring-/381173741636?var=&epid=1263739819&hash=item58bfb9b844:m:m8K8d7ONkYikwO9mLOBbCMA
p21
aVhttp://www.ebay.com/itm/Mirka-Basecut-HookNLoop-150mm-6-Sanding-Discs-25-50-100-Abrasive-Grit-40-to-800-/201887814633?var=&hash=item2f017393e9:m:mtwawQO-LmyAx1jSym4ZHag
p22
aVhttp://www.ebay.com/itm/Cream-Tripoli-Powder-AKA-diamond-abrasive-for-polishing-wood-metal-FINE-250g-/130803262596?epid=1188298662&hash=item1e747b6484:g:s6EAAOSwMvtZVTgt
p23
aVhttp://www.ebay.com/itm/Garryson-Garryflex-Block-240-Grit-Abrasive-Cleaner-Track-Clean-M0290-/292098685923?epid=1556981527&hash=item4402703be3:g:ll8AAOSwvUlWs0z1
p24
aVhttp://www.ebay.com/itm/4-1-2-Stainless-Steel-Cutting-Discs-Ultrathin-Aluminium-Oxide-10-Pack-TE606-/222343937596?hash=item33c4bb3e3c:g:gcgAAOSw4GVYTsn7
p25
aVhttp://www.ebay.com/itm/Silverline-10m-Aluminium-Oxide-Sanding-Roll-40-240-Grit-Sand-Paper-Abrasive-Wood-/222352803920?var=&epid=1005287749&hash=item33c5428850:m:mn3ZE3cM8pD_2FBS7RG_IoQ
p26
aVhttp://www.ebay.com/itm/3M-Hookit-Abrasive-Discs-6-Hole-338u-x-100-150mm-Surface-Preparation-DADV-/391476878922?epid=1890955419&hash=item5b25d71e4a:g:Z14AAOSwYIhWi5HJ
p27
aVhttp://www.ebay.com/itm/Draper-Grinding-Wheel-Dresser-30479-/131975362708?epid=1802862019&hash=item1eba583894:g:-YwAAOSwpLNYBtop
p28
aVhttp://www.ebay.com/itm/Garryson-Garryflex-Block-120-Grit-Abrasive-Track-Cleaner-M0291-/292068353788?epid=1869281140&hash=item4400a166fc:g:zsEAAOSwt7pXNYKU
p29
aVhttp://www.ebay.com/itm/Mirka-Abranet-Abrasive-Roll-Sandpaper-115mm-x-10mtr-All-Grits-Available-/191534116589?var=&epid=1951002344&hash=item2c9852aeed:m:mISJ_xzh_Wmkg0fin7CdgLg
p30
aVhttp://www.ebay.com/itm/20-X-4-5-FLAP-GRINDERS-DISCS-SANDERS-40-60-80-120-POLISHING-FINISHING-ABRASIVE-/122585967861?hash=item1c8ab16cf5:g:1SwAAOSwlXhZX0iG
p31
aVhttp://www.ebay.com/itm/Set-x-4-Garryflex-Garryson-Blocks-36-60-120-240-Grit-Abrasive-Cleaners-M0294-/112349058221?epid=1757020441&hash=item1a288694ad:g:QnEAAOSwoydWsynE
p32
aVhttp://www.ebay.com/itm/Rose-Tripoli-Powder-AKA-diamond-abrasive-for-metal-polishing-MEDIUM-CUT-250g-/141901136187?epid=1388993191&hash=item2109f7813b:g:evEAAOSwyWZZVSkz
p33
aVhttp://www.ebay.com/itm/6-x-1-MEDIUM-GRADE-SCOTCH-BRITE-ABRASIVE-BUFFING-WHEEL-RUST-REMOVAL-FIBRAL-/172680101320?hash=item2834893dc8:g:CAMAAOSwJH1ZHJx1
p34
aVhttp://www.ebay.com/itm/6-x-1-FINE-GRADE-SCOTCH-BRITE-FIBRAL-BUFFING-ABRASIVE-WHEEL-SATINISING-/142202949289?hash=item211bf4cea9:g:6D8AAOSw9N1VuLSp
p35
aVhttp://www.ebay.com/itm/Albion-Alloys-4000-Grit-Micro-Finishing-Cloth-Abrasive-Pads-2003-/371910949662?epid=727027715&hash=item56979ebb1e:g:RI4AAOSw4CFY42fH
p36
aVhttp://www.ebay.com/itm/Abrasive-belts25x762mmfor-Rexon-etc-60-600grit-10-off-/401157133039?hash=item5d66d412ef:m:mbzrTGkpxGWNSdINsorNJZA
p37
aVhttp://www.ebay.com/itm/Mirka-Basecut-HookNLoop-150mm-Sanding-Discs-25-50-100-6-Abrasive-Grit-40-to-600-/131924544420?var=&epid=1461652689&hash=item1eb750cba4:m:mgZOoMoZpbTXgafAdG2oRfg
p38
aVhttp://www.ebay.com/itm/Farecla-G3-1-Lire-Premium-Abrasive-Compound-Free-Farecla-GMC601-compound-head-/201591273981?epid=2087948892&hash=item2eefc6b9fd:g:cO4AAOSwbtVZXJGR
p39
aVhttp://www.ebay.com/itm/Bead-Pearl-Reamer-Replacements-Diamond-Abrasive-x-3-/172632027290?hash=item2831abb09a:g:GrIAAOSwRUhY9qu4
p40
aVhttp://www.ebay.com/itm/MICRO-MESH-Regular-Abrasive-Polishing-Cloth-Kit-9-Sheets-of-6-x4-/332044937385?epid=1144432960&hash=item4d4f6ba8a9:g:ivgAAOSwDNdVwRap
p41
aVhttp://www.ebay.com/itm/BOSCH-85MM-GROUT-AND-ABRASIVE-SAW-BLADE-FOR-PMF-MULTI-TOOLS-2609256952-/282562932361?epid=1009496445&hash=item41ca102e89:g:MXAAAOSwlndZA8Tb
p42
aVhttp://www.ebay.com/itm/Mirka-Abranet-Abrasive-Roll-Sandpaper-115mm-x-10mtr-P120-/201539511303?epid=1260321115&hash=item2eecb0e407:g:hsMAAOSwmmxW2W3A
p43
aVhttp://www.ebay.com/itm/Micro-Mesh-MX-Abrasive-Polishing-Cloth-Kits-5-Kits-6-Sizes-to-choose-from-/332050216275?var=&hash=item4d4fbc3553:m:m_jGlkfMTgPH4NbWt-7XguQ
p44
aVhttp://www.ebay.com/itm/GP-PRO-Abrasive-Disc-Sanding-Disc-with-hook-and-loop-fastener-GP50-fine-/141477412010?var=&epid=1656220830&hash=item20f0b5fcaa:m:mzFsQ5P7zRMJfn133vu76nw
p45
aVhttp://www.ebay.com/itm/MIRKA-MIRLON-GREY-FINISHING-PADS-ABRASIVE-SCOTCH-BRITE-ULTRA-FINE-UF-20-PACK-BOX-/172340610508?epid=683095353&hash=item28204d05cc:g:zIAAAOSwcUBYNCZ5
p46
aVhttp://www.ebay.com/itm/Micro-Mesh-Abrasive-Polishing-Cloth-Kits-3-Packs-5-Sizes-to-choose-from-/232146719584?var=&epid=1144752970&hash=item360d05d360:m:mjynqdAv4ML-BaUgSfksuOA
p47
aVhttp://www.ebay.com/itm/Quality-Abrasive-Stearated-Aluminium-Oxide-Roll-115mm-x-5m-Sandpaper-400-Grit-/261557771047?epid=1960146055&hash=item3ce60edb27:g:RRgAAOSwfRdZKvsC
p48
aVhttp://www.ebay.com/itm/MICRO-MESH-Abrasive-Polishing-Cloth-Kit-4-Sheets-of-6-x4-/232107075705?epid=1244482123&hash=item360aa8e879:g:BCsAAOSwpLNX-CuS
p49
aVhttp://www.ebay.com/itm/GP-PRO-Abrasive-Disc-Sanding-Disc-with-hook-and-loop-fastener-GP100-Medium-/142051402996?var=&epid=1856044008&hash=item2112ec64f4:m:mwyLnTJBWWPe61uD9xpBY6g
p50
aVhttp://www.ebay.com/itm/Cutting-Discs-100mm-Stainless-Steel-Angle-Grinder-Air-Cut-Off-1-2mm-10pk-AT827-/222343937731?epid=2102806812&hash=item33c4bb3ec3:g:OIwAAOSwRMRYTsoE
p51
aVhttp://www.ebay.com/itm/3M-Hookit-Abrasive-Discs-15-hole-255P-LD861A-150mm-Pack-100-SANDING-DA-PAPER-/162172280738?var=&hash=item25c2389fa2:m:mKMfhpZwFusfaYJzVwHz5Mw
p52
aVhttp://www.ebay.com/itm/5pc-Nylon-Abrasive-Filament-Brush-Drill-Spindle-6mm-Shank-De-Burring-Rust-TE876-/222344673915?epid=2103792192&hash=item33c4c67a7b:g:mNwAAOSwcUBYT9VA
p53
aVhttp://www.ebay.com/itm/Sand-Paper-Roll-80-Grit-Abrasive-5m-Long-115mm-Wide-Aluminium-Oxide-SIL155-/222324042476?epid=2079013535&hash=item33c38baaec:g:CIgAAOSwo4pYNcVX
p54
aVhttp://www.ebay.com/itm/M14-115mm-Angle-Grinder-Plastic-Backing-Pad-for-Abrasive-Sanding-Fibre-Grit-Disc-/291233768650?epid=1088550572&hash=item43cee2a4ca:g:QWgAAOSwd4tUGGC4
p55
aVhttp://www.ebay.com/itm/Stanley-STHTO-05931-Abrasive-Mesh-Grade-120-100-pcs-/111946488343?epid=1117263257&hash=item1a1087da17:g:ehYAAOSwsXFZFbdP
p56
aVhttp://www.ebay.com/itm/Wet-Dry-SANDPAPER-180-to-2000-GRIT-Smart-Repair-ABRASIVE-Sanding-Paper-/271470388722?var=&epid=1273436633&hash=item3f34e565f2:m:mgTLcv8mkEhchbkcvqE30hA
p57
aVhttp://www.ebay.com/itm/Silverline-5m-Aluminium-Oxide-Sanding-Roll-40-180-Grit-Sand-Paper-Abrasive-Wood-/311769558130?var=&epid=1154138251&hash=item4896e9ec72:m:m6bUXncz08wHZf-hLMTJfIw
p58
aVhttp://www.ebay.com/itm/CINTRIDE-TUNGSTEN-CARBIDE-ABRASIVE-SANDING-DISC-SET-SAND-PAPER-RUST-STONE-WOOD-/222511511324?hash=item33ceb8371c:g:26AAAOSww9xZGMl9
p59
aVhttp://www.ebay.com/itm/Garryson-garryflex-abrasive-blocks-36g-60g-120g-240g-or-set-of-4-deal-/251868695499?var=&hash=item3aa48b4bcb:m:mR5E8F2igx0iib1X7Gn8gDg
p60
aVhttp://www.ebay.com/itm/100-Pack-Hook-Loop-DA-Sanding-Grinding-Abrasive-Pad-120-Grit-Discs-2-50mm-/131771568946?hash=item1eae329332:g:eHYAAOSwrhBZAcr5
p61
aVhttp://www.ebay.com/itm/U-POL-VELCRO-P80-GRIT-DISCS-UPOL-ABRASIVE-DA-DISCS-box-of-100-/322395882032?hash=item4b104ac230:g:Jn0AAOSw4DJYgOHS
p62
aVhttp://www.ebay.com/itm/Gardner-Point-Doctor-2-Hook-Sharpener-Extra-Abrasive-Fishing-Hooks-All-Types-/111670022597?epid=1841230176&hash=item1a000d51c5:g:RUUAAOSwhwdVU1rQ
p63
aVhttp://www.ebay.com/itm/10-FIBRE-ABRASIVE-SANDING-DISCS-Various-grits-100-115-125-180mm-alu-oxide-disc-/221163148557?var=&epid=1105404991&hash=item337e59d50d:m:mj2v-OUWgydMPa3JzV9LSrQ
p64
aVhttp://www.ebay.com/itm/16PC-Flap-Wheel-Disc-Sanding-Abrasive-for-Drill-6mm-Shank-mixed-grit-/152586814157?hash=item2386e202cd:g:hx8AAOSwVctY5hyY
p65
aVhttp://www.ebay.com/itm/3M-Hookit-Trizact-P1500-Clear-Coat-Sanding-Discs-75mm-Smart-Repair-Abrasive-/112172442527?epid=1093976573&hash=item1a1dffa39f:g:ELkAAOSwXYtY3qEE
p66
aVhttp://www.ebay.com/itm/Yorkshire-Grit-Woodturners-Abrasive-Paste-/172761888331?hash=item283969364b:g:bUEAAOSwLcNZW0yb
p67
aVhttp://www.ebay.com/itm/MICRO-GLOSS-Liquid-Abrasive-1oz-2oz-8oz-Bottles-available-/332035989571?var=&hash=item4d4ee32043:m:mEVrNAJ3_ajKA4s9SuRSNew
p68
aVhttp://www.ebay.com/itm/1-x-ABR-AID-Abrasive-Cleaner-Bar-Belt-Disc-Sander-Sanding-Paper-1-x-1-x-6-1-2-/132226876659?hash=item1ec95604f3:g:yC8AAOSwT5xZQVDP
p69
aVhttp://www.ebay.com/itm/POLY-ABRASIVE-DISC-115mm-125mm-Sanding-Rust-Paint-Polycarbide-Graffiti-Remover-/182445612105?var=&hash=item2a7a9b1c49:m:mZZI-BwPwUhwyzxBhOPJxKw
p70
aVhttp://www.ebay.com/itm/DREMEL-511S-ROTARY-MULTI-TOOL-SPEEDCLIC-ABRASIVE-BUFFS-COARSE-MEDIUM-512S-FINE-/191750526966?epid=1005315961&hash=item2ca538d7f6:g:D7MAAOSwNphWXbyO
p71
aVhttp://www.ebay.com/itm/3M-Surface-Preparation-Hookit-Coated-Abrasive-Discs-76mm-Pack-of-50-50081-88-/262491436467?epid=1043855500&hash=item3d1db575b3:g:EUQAAOSwYIhWi5hY
p72
aVhttp://www.ebay.com/itm/MIRKA-BASECUT-SANDING-PAPER-DA-DISCS-6inch-150mm-HOOK-LOOP-GRIP-ABRASIVE-25-PACK-/172246455507?var=&hash=item281ab054d3:m:mL1Qfi3JKHAvePy3lHw2Rog
p73
aVhttp://www.ebay.com/itm/Abrasive-belts-25mmx762mm-1-x30-BRILLIANT-JOINTS-60-600grit-pack-of-10-/112032227373?hash=item1a15a4202d:m:mMKnwNlAOfQnpHFz-OhvNTw
p74
aVhttp://www.ebay.com/itm/Silverline-100-115-Or-125mm-Polycarbide-Abrasive-Disc-Angle-Grinder-Paint-Rust-/332070792947?var=&epid=1983333959&hash=item4d50f62ef3:m:me_9rKDI3o7MbJo2Nopjn3g
p75
aVhttp://www.ebay.com/itm/Air-Eraser-Abrasive-Sand-Blaster-220-Grit-1-Kilo-Bulk-Pack-Great-Deal-/251223623207?hash=item3a7e184627:g:W0sAAOxy5jxScSrx
p76
aVhttp://www.ebay.com/itm/INDASA-RHYNOWET-PLUSLINE-ABRASIVE-SHEETS-P800-x25-WET-DRY-WATER-PROOF-SAND-PAPER-/162355564571?epid=1341792011&hash=item25cd25501b:g:iPoAAOSwHMJYIFO8
p77
aVhttp://www.ebay.com/itm/Mirka-Abranet-Abrasive-Roll-Sandpaper-115mm-x-10mtr-P80-/201534937919?epid=1260321115&hash=item2eec6b1b3f:g:hsMAAOSwmmxW2W3A
p78
aVhttp://www.ebay.com/itm/Silverline-5m-Stearated-Aluminium-Oxide-Sanding-Roll-120-400-Grit-Abrasive-/222340591328?var=&epid=1405250100&hash=item33c4882ee0:m:mW0J4PQI244DruSDBe3iQBw
p79
aVhttp://www.ebay.com/itm/6-x-1-MEDIUM-FINE-GRADE-SCOTCH-BRITE-LAP-MOP-BUFFING-WHEEL-ABRASIVE-CARBIDE-/172744027361?hash=item283858ace1:g:GNwAAOSwvjdZTCnq
p80
aVhttp://www.ebay.com/itm/MIRKA-BASECUT-SANDING-PAPER-DA-BOX-100-DISCS-6inch-150mm-HOOK-LOOP-GRIP-ABRASIVE-/172246452114?var=&hash=item281ab04792:m:mL1Qfi3JKHAvePy3lHw2Rog
p81
aVhttp://www.ebay.com/itm/Meguiars-Deep-Crystal-Paint-473ml-Cleaner-Non-Abrasive-Paint-Preparation-Step-1-/141167819999?epid=1126267060&hash=item20de41fcdf:g:0a4AAOSw7ThUeSRS
p82
aVhttp://www.ebay.com/itm/Sanding-Abrasive-Flap-Wheel-Mop-KLINGSPOR-KM613-sandpaper-metal-INOX-wood-/262773953209?var=&hash=item3d2e8c52b9:m:mpwnPgrLLlRrtNL-UkbmX2A
p83
aVhttp://www.ebay.com/itm/CONICAL-SPIRAL-MOUNTED-SANDING-CONE-FOR-DRILL-ABRASIVE-TOOL-6MM-SHANK-/162417059480?var=&hash=item25d0cfa698:m:mKDuaclfevPVerAZHmE0f2Q
p84
aVhttp://www.ebay.com/itm/RDGTOOLS-5-X-4-RED-SCOTCH-BRITE-METAL-FLAP-DISC-POLISHING-FINISHING-ABRASIVE-/291972033037?epid=2106036155&hash=item43fae3aa0d:g:RKkAAOSwo4pYUV58
p85
aVhttp://www.ebay.com/itm/STEEL-POLISHING-KIT-5-ABRASIVE-AND-POLISHING-WHEELS-ON-3MM-SPINDLE-/110334201683?epid=1488191134&hash=item19b06e4f53:g:ddUAAOSwIwhWTxEa
p86
aVhttp://www.ebay.com/itm/CRUSHED-GLASS-ABRASIVE-GRIT-BLASTING-MEDIA-25KG-FINE-GRADE-FOR-GUNS-CABINETS-/282501884614?epid=9003772344&hash=item41c66caac6:g:Kv8AAOSwr~lYpClM
p87
aVhttp://www.ebay.com/itm/10pc-Blue-Abrasive-Mounted-Stone-Rotary-Tool-Grinding-Wheel-1-8-Shank-For-Dremel-/282317211825?epid=1095433906&hash=item41bb6ac8b1:g:kEkAAOSwMtxXqi1-
p88
a.