(lp1
Vhttp://www.ebay.com/itm/Wastewater-Engineering-Treatment-and-Resource-Recovery-Paperbac-9781259010798-/361922358391?epid=199327627&hash=item544440ec77:g:DFQAAOSwEeFVKB0Z
p2
aVhttp://www.ebay.com/itm/Wastewater-Engineering-Treatment-and-Resource-Recovery-Paperbac-9781259010798-/361922358391?epid=199327627&hash=item544440ec77:g:DFQAAOSwEeFVKB0Z
p3
aVhttp://www.ebay.com/itm/Sanitary-Water-Treatment-Wastewater-Training-Course-CD-/200963043247?epid=563303979&hash=item2eca54afaf:m:mI4RaKuzBbp1H5t-RiOl4ng
p4
aVhttp://www.ebay.com/itm/Grundfos-Sololift2-WC-3-Wastewater-Macerator-for-Appliances-Sinks-Toilets-/181036393990?epid=1509309781&hash=item2a269c2606:g:CCAAAOSwZQxW6UkI
p5
aVhttp://www.ebay.com/itm/Sanitary-Water-Treatment-Wastewater-Training-Course-CD-/190914773643?epid=522528041&hash=item2c7368428b:g:9DoAAOxyXp5SRVOQ
p6
aVhttp://www.ebay.com/itm/72-Sanitary-Wastewater-Treatment-Training-Manual-Book-CD-Engineering-Domestic-/382119004047?epid=547447500&hash=item58f811478f:g:yLcAAOSwBt5ZOAPJ
p7
aVhttp://www.ebay.com/itm/SANITARY-AND-WASTEWATER-WATER-SUPPLY-TREATMENT-TRAINING-STUDY-COURSE-MANUAL-CD-/190914784645?hash=item2c73686d85:g:GYoAAOxy0QBSRVop
p8
aVhttp://www.ebay.com/itm/2-1kw-Submersible-Grinder-pump-GMP-Kaiman-sewage-wastewater-cess-pit-macerator-/191998749130?var=&epid=1595032668&hash=item2cb40469ca:m:m9TZzZ946YEhOJBqwV41oyw
p9
aVhttp://www.ebay.com/itm/3-Heavy-duty-Submersible-sewage-sump-pump-slurry-wastewater-cesspit-JS750SV-/201791838506?var=&hash=item2efbbb192a:m:mn1fbtIRY6vX2O7USjHQ-Zw
p10
a.