(lp1
Vhttp://www.ebay.com/itm/ANTI-SOCIAL-SOCIAL-CLUB-Hoodie-Super-Rare-Sold-Out-EveryWhere-Mens-Sweat-Jumper-/272532145638?var=&hash=item3f742e85e6:m:mHhNr9jkhhFHSJm6IjTo3Yw
p2
aVhttp://www.ebay.com/itm/New-Mens-Nike-Fleece-Slim-Joggers-Tracksuit-Bottoms-Sweat-Jogging-Pants-S-M-L-XL-/122566815085?var=&epid=1863010100&hash=item1c898d2d6d:m:mwExj0cyQzuQ0yTTMLHv07A
p3
aVhttp://www.ebay.com/itm/Warm-Thermo-Yoga-Vest-Sweat-Neoprene-Body-Shaper-Slimming-Waist-Trainer-Cincher-/332195879108?var=&hash=item4d586ad8c4:m:mPMEz3vdmiWcDo7z5LWAYGw
p4
aVhttp://www.ebay.com/itm/New-Mens-Gym-Slim-Fit-Trousers-Tracksuit-Bottoms-Skinny-Joggers-Sweat-Pants-Hot-/182449363520?var=&hash=item2a7ad45a40:m:mevE7Yo0s6J02CbTGP1V8bA
p5
aVhttp://www.ebay.com/itm/HOT-Thermo-Sweat-Body-Shaper-Corset-Slimming-Waist-Trainer-Cincher-Clincher-Vest-/222450707646?var=&hash=item33cb186cbe:m:mQG77p0F7xIllx5WODVlawg
p6
aVhttp://www.ebay.com/itm/Adidas-Mens-Sweat-Pants-Jogging-Bottoms-Dark-Grey-3-Stripe-X20788-/222426809643?var=&epid=1118785548&hash=item33c9abc52b:m:mv1Mufch8tjc7lAptd4hHdA
p7
aVhttp://www.ebay.com/itm/HOT-Thermo-Sweat-Body-Shaper-Corset-Slimming-Waist-Trainer-Cincher-Clincher-Vest-/162552096756?var=&hash=item25d8dc27f4:m:mYvm7G4vbxX4cSp77NV8aKQ
p8
aVhttp://www.ebay.com/itm/New-Mens-PUMA-Cotton-Sweat-Shorts-Pants-Sports-Gym-Summer-Knee-Length-Black-/292075704762?var=&epid=726068610&hash=item44011191ba:m:mvvQrWjix_p_m9UBo9TXHtA
p9
aVhttp://www.ebay.com/itm/Women-Hot-Thermo-Sweat-Neoprene-Body-Shaper-Pants-Yoga-Slimming-Waist-Trousers-/112398294965?var=&hash=item1a2b75dfb5:m:mFTIECZAgJBhza3vZIKRWnw
p10
aVhttp://www.ebay.com/itm/Mens-Marl-Melange-Full-Zip-Tracksuit-Sweat-Top-Slim-Fit-Jog-Pants-Set-S-XL-/292045107690?var=&epid=599737205&hash=item43ff3eb1ea:m:mau6gGJSOfugNlvMfAMFXeQ
p11
aVhttp://www.ebay.com/itm/New-Mens-Nike-Full-Tracksuit-Jogging-Bottoms-Sweat-Pants-Hoodie-Jumper-Hoody-/272175926447?var=&epid=1561736876&hash=item3f5ef30caf:m:mztVOmc7Kniaxa-evgDmIXQ
p12
aVhttp://www.ebay.com/itm/Mens-PUMA-Sweat-Pants-Tracksuit-Bottoms-Jogging-Joggers-Grey-Navy-Black-New-/292084249566?var=&hash=item440193f3de:m:mhJshazcBnNJwdH-HBJeq-A
p13
aVhttp://www.ebay.com/itm/New-Mens-Nike-Full-Tracksuit-Jogging-Bottoms-Sweat-Pants-Hoodie-Jumper-Navy-/272153960259?var=&hash=item3f5da3df43:m:mnEcIQ5XwxGAP2bu-YQnXCw
p14
aVhttp://www.ebay.com/itm/New-Mens-Champion-Logo-Sweat-Pants-Joggers-Tracksuit-Jogging-Bottoms-Trousers-/282502959831?var=&epid=929590706&hash=item41c67d12d7:m:mDge8kPYPwHYSYxro0xW2iQ
p15
aVhttp://www.ebay.com/itm/2016-Womens-2Pcs-Casual-Sport-Tops-Sweatshirt-Track-Pants-Sweat-Suits-Tracksuit-/391738803766?var=&hash=item5b3573c636:m:mN2_FeIBP2e7FSHXADhQzNg
p16
aVhttp://www.ebay.com/itm/Mens-Hot-Tuna-Whitewater-1-4-Zip-sweat-Top-licensed-S-M-L-XL-XXL-jumper-/122571684480?var=&epid=1582558436&hash=item1c89d77a80:m:mZgHvEhJ6MDy5cSQyHoEf_w
p17
aVhttp://www.ebay.com/itm/New-Mens-PUMA-Sweat-Pants-Tracksuit-Bottoms-Jogging-Trackies-Joggers-Black-/292036808184?var=&epid=1087290552&hash=item43fec00df8:m:mzYakCEGiqoKofntFxuoLxw
p18
aVhttp://www.ebay.com/itm/adidas-Mens-Gents-Football-Olympique-de-Marseille-Training-Sweat-Pants-Trousers-/331947513228?var=&epid=1581752763&hash=item4d499d158c:m:mMMwRXLeGWCAECYJvJw6SRw
p19
aVhttp://www.ebay.com/itm/New-Mens-Champion-Logo-Sweat-Pants-Joggers-Tracksuit-Jogging-Bottoms-Trousers-/282496465167?var=&epid=880845003&hash=item41c619f90f:m:mjjOclmx8HlPMiPNPR5n1vg
p20
aVhttp://www.ebay.com/itm/NEW-Mens-Contrast-Piping-Tracksuit-Sweat-Top-Slim-Fit-Jog-Track-Pants-S-XL-/272542416173?var=&epid=536712523&hash=item3f74cb3d2d:m:md_4tyKr0RE92q64iIjVmBw
p21
aVhttp://www.ebay.com/itm/New-Mens-Champion-Logo-Sweat-Pants-Joggers-Tracksuit-Jogging-Bottoms-Trousers-/282496465167?var=&epid=880845003&hash=item41c619f90f:m:mjjOclmx8HlPMiPNPR5n1vg
p22
aVhttp://www.ebay.com/itm/NEW-Mens-Contrast-Piping-Tracksuit-Sweat-Top-Slim-Fit-Jog-Track-Pants-S-XL-/272542416173?var=&epid=536712523&hash=item3f74cb3d2d:m:md_4tyKr0RE92q64iIjVmBw
p23
aVhttp://www.ebay.com/itm/NEW-MENS-SWEAT-SHORTS-FLEECE-SUMMER-JOGGING-GYM-RUNNING-ZIP-POCKETS-PLAIN-/322462980685?var=&hash=item4b144a9a4d:m:m8eqpCExp64rNZPjj5rwNAg
p24
aVhttp://www.ebay.com/itm/New-Mens-PUMA-Sweat-Pants-Tracksuit-Bottoms-Jogging-Trackies-Joggers-Black-/292036808184?var=&epid=1087290552&hash=item43fec00df8:m:mzYakCEGiqoKofntFxuoLxw
p25
aVhttp://www.ebay.com/itm/Fruit-Of-The-Loom-Mens-Lightweight-Full-Zipped-Hooded-Raglan-Sweat-Jacket-/382101432106?var=&hash=item58f705272a:m:mknF6SIdoPbP3Qkur0oQ4cA
p26
aVhttp://www.ebay.com/itm/Nike-Mens-Cuffed-Fleece-Joggers-Track-Sweat-Jogging-Pants-Tracksuit-Jog-Bottoms-/121829136527?var=&hash=item1c5d95188f:m:mBBLQtlsfonq2SpGn98tSDg
p27
aVhttp://www.ebay.com/itm/Mens-Plain-Slim-Fit-Fleece-Tracksuit-Jogging-Bottom-Zip-Hoodie-Sweat-Top-Suit-/222528668203?var=&hash=item33cfbe022b:m:mnCchYTbsvnC5qMB_j-pAOw
p28
aVhttp://www.ebay.com/itm/adidas-Mens-3S-Logo-Joggers-Sweat-Pants-Training-Running-Elastic-Trousers-/351965629991?var=&hash=item51f2c94e27:m:m9NYN7iZUrihTHaaP3-nrLg
p29
aVhttp://www.ebay.com/itm/Mens-Fashion-Puma-Evo-L-V-Sweat-Track-Pants-Black-Drawstring-SIZE-UK-M-Medium-/132086224730?epid=543231868&hash=item1ec0f3d75a:g:lJ8AAOSwUKxYljz~
p30
aVhttp://www.ebay.com/itm/New-Mens-PUMA-Sweat-Pants-Tracksuit-Bottoms-Jogging-Joggers-Grey-Navy-Black-/292065404466?var=&hash=item4400746632:m:my9KMVSL5g6ga6hyvFWWJPQ
p31
aVhttp://www.ebay.com/itm/New-Mens-PUMA-Cotton-Sweat-Shorts-Pants-Sports-Gym-Summer-Knee-Length-Grey-Black-/272598223956?var=&hash=item3f781ecc54:m:mVrPGh3oJfCgiN9WKPx-8xQ
p32
aVhttp://www.ebay.com/itm/Mens-Camouflage-camo-cargo-fleece-jog-sweat-pant-blue-brown-green-/140948279518?var=&hash=item20d12c10de:m:mkZPKkuAErFQGbdRib03tbQ
p33
aVhttp://www.ebay.com/itm/Neoprene-Fat-Cellulite-Burner-Sauna-Slimming-Waist-Belt-for-Sweat-Exercise-Gym-/281958490859?hash=item41a60922eb:g:x9AAAOSwAuNW3tDW
p34
aVhttp://www.ebay.com/itm/NEW-OFFICIAL-The-Legend-Of-Zelda-Ladies-Classic-Triforce-Hoodie-Hooded-Top-Sweat-/111998508926?var=&hash=item1a13a19f7e:m:mO04Zo_E0ExS1nxUsZ0mvJQ
p35
aVhttp://www.ebay.com/itm/New-Mens-Champion-Logo-Sweat-Pants-Joggers-Tracksuit-Jogging-Bottoms-Trousers-/272695879106?var=&epid=929553035&hash=item3f7df0e5c2:m:mDge8kPYPwHYSYxro0xW2iQ
p36
aVhttp://www.ebay.com/itm/Hot-Thermo-Sweat-Neoprene-Body-Shaper-Slimming-Sporting-Fitness-Yoga-Pants-/222440154069?var=&epid=711579413&hash=item33ca7763d5:m:mca6f9dN8ls_VfN3_hDMdDg
p37
aVhttp://www.ebay.com/itm/UNISEX-SWEAT-JACKET-CONTRAST-SLEEVE-FLEECE-MENS-LADIES-HOODIE-JUMPER-SIZES-S-XXL-/191295634364?var=&epid=1261017386&hash=item2c8a1bbbbc:m:mZ35EGm4JSSXoAsty62oiNg
p38
aVhttp://www.ebay.com/itm/New-Mens-Slim-Fit-Tracksuit-Bottoms-Skinny-Jogging-Joggers-Sweat-Pants-Trousers-/182141496222?var=&hash=item2a687aab9e:m:mfyPfm0HE6QpC15bZZhsMcg
p39
aVhttp://www.ebay.com/itm/HOT-Thermo-Sweat-Body-Shaper-Corset-Slimming-Waist-Trainer-Cincher-Clincher-Vest-/371912678293?var=&hash=item5697b91b95:m:mEzt_-N8BpVnrZQOD7xLycw
p40
aVhttp://www.ebay.com/itm/adidas-Originals-x-Nigo-Mens-Cuffed-Bear-Sweat-Pants-Trefoil-Joggers-M69165-/262886124609?var=&epid=606231416&hash=item3d353bec41:m:mh_JRL2zuBDdOT1U1wzdSvQ
p41
aVhttp://www.ebay.com/itm/Women-Slimming-Vest-Body-Shaper-Shirt-for-Weight-Loss-Neoprene-Sweat-Fat-Burner-/192179465614?var=&hash=item2cbec9ed8e:m:mf39PG1kwjxwgi3HEJvKbiw
p42
aVhttp://www.ebay.com/itm/MUSCLE-PHARM-MENS-SWEAT-PANTS-NEW-GYM-FITNESS-EXCERISE-TRAINING-JOGGER-/132110789509?var=&hash=item1ec26aab85:m:mYR5mSJ_DmpWegfaUbtxbrA
p43
aVhttp://www.ebay.com/itm/American-Apparel-Fine-Jersey-zip-hoodie-RSA2402-Men-Women-Hoody-Top-Sweat-/322433977018?var=&hash=item4b12900aba:m:mZx5TEfUilUiJyIQydy6Izg
p44
aVhttp://www.ebay.com/itm/Mens-New-adidas-Originals-Joggers-Tracksuit-Jogging-Bottoms-Track-Sweat-Pants-/121899749013?var=&epid=1143904066&hash=item1c61ca8e95:m:mOjmAxU3VgEkrXv0NropO-w
p45
aVhttp://www.ebay.com/itm/Mens-Boys-Cargo-Combat-Jogging-Tracksuit-Bottoms-Trousers-Fleece-Sweat-Pants-/121450449567?var=&hash=item1c4702ca9f:m:mCKp0TT1VQJ1ZjqhJ-0rpvw
p46
aVhttp://www.ebay.com/itm/New-Mens-Superdry-Tri-State-Sweat-Pant-Joggers-Eclipse-Navy-/292024692146?var=&hash=item43fe072db2:m:mYwkHLe7CYj-bZGr4vWcVcg
p47
aVhttp://www.ebay.com/itm/Mens-Joggers-Smith-and-Jones-Slim-Fit-Bottoms-Track-Sweat-Pants-Sport-Pants-/262924505905?var=&hash=item3d37859331:m:mLft-2Vy68EMfT0H3TI5f1g
p48
aVhttp://www.ebay.com/itm/UK-Women-Men-Sweat-Corset-Waist-Training-Cincher-Girdle-Tummy-Belly-Shaper-FBUK-/322392175891?var=&hash=item4b10123513:m:mlhsZlHOSfujaPl08zq6EtQ
p49
aVhttp://www.ebay.com/itm/Mens-Sleeveless-Hoodie-Gym-Top-Sweat-Shirt-Fleece-Hood-Fitness-Exercise-S-2XL-/111876646421?var=&hash=item1a0c5e2615:m:m9CxJ8TnRmAIVcXl9grG8Yg
p50
aVhttp://www.ebay.com/itm/Mens-Womens-Full-Zip-Hooded-Sweatshirt-Hoodie-Jumper-Sweat-Top-Cotton-Lot-/201923322445?var=&epid=1755603085&hash=item2f0391624d:m:mSBk5wiAxMxmmyzCR_2A0Dg
p51
aVhttp://www.ebay.com/itm/New-Mens-Nike-Cotton-Sweat-Shorts-Sports-Gym-Training-Knee-Length-Grey-/292148032872?var=&hash=item4405613568:m:m97RoxChQyP9WEG7sOWRyGA
p52
aVhttp://www.ebay.com/itm/2pcs-Women-Tracksuit-Hoodies-Sweats-Sweatshirt-Pants-Sets-Sport-Wear-Casual-Suit-/192014039801?var=&hash=item2cb4edbaf9:m:m4fhC9pxJoyy6jTjZZJ3zeQ
p53
aVhttp://www.ebay.com/itm/Sweatshirt-Sweat-Shirt-Jumper-3xl-4xl-5xl-6xl-7xl-plus-size-Sweater-Fleece-/161480627215?var=&hash=item2598fed40f:m:m60yHbTMgluWa_5B06sNAbw
p54
aVhttp://www.ebay.com/itm/Mens-Casual-Sports-Active-Wear-Sweat-Pants-Cuffed-Joggers-Bottoms-Sizes-S-XXL-/282339427414?var=&hash=item41bcbdc456:m:mex8K9IvBIIUnyTFbWIKnTA
p55
aVhttp://www.ebay.com/itm/NEW-Mens-Hooded-Sweat-Top-with-Zipped-Pocket-Slim-Fit-Jog-Track-Pants-S-M-L-XL-/272590252871?var=&hash=item3f77a52b47:m:mn7k4tG6MdHGg8FwAx0mFzg
p56
aVhttp://www.ebay.com/itm/MENS-SKINNY-JOGGING-BOTTOMS-SLIM-FIT-JOGGERS-TRACKSUIT-FLEECE-PANTS-GYM-SWEATS-/201672733466?var=&hash=item2ef4a1b31a:m:mrwgRrXqL686tspFp7y5Adg
p57
aVhttp://www.ebay.com/itm/New-Mens-Nike-Fleece-Joggers-Tracksuit-Bottoms-Track-Sweat-Jogging-Pants-/291429967233?var=&epid=1903603870&hash=item43da946581:m:mJK17VfHBPjW6T6CDWw_Z0Q
p58
aVhttp://www.ebay.com/itm/Thermo-Sweat-Hot-Neoprene-Body-Shaper-Slimming-Waist-Trainer-Cincher-Yoga-Belt-/262841192768?var=&hash=item3d328e5140:m:mfprixds0NQgsvojrJozPiQ
p59
aVhttp://www.ebay.com/itm/Mens-Training-Joggers-Sweat-Pants-Fleece-Tracks-Full-Suit-Bottoms-Trousers-/251629338872?var=&hash=item3a964700f8:m:mKNSn2ZXT8vMWGkVDiKMtPw
p60
aVhttp://www.ebay.com/itm/Mens-New-Adidas-Joggers-Tracksuit-Jogging-Bottoms-Track-Sweat-Pants-Blue-/282146081587?var=&hash=item41b1378b33:m:mqAFfQ5VbhCljxhJdJkBe3g
p61
aVhttp://www.ebay.com/itm/New-Mens-PUMA-Cotton-Sweat-Shorts-Pants-Sports-Gym-Summer-Knee-Length-Grey-Black-/292062264200?var=&hash=item4400447b88:m:mVrPGh3oJfCgiN9WKPx-8xQ
p62
aVhttp://www.ebay.com/itm/Mens-Casual-Ecko-Joggers-Bottoms-Jogging-sweat-pants-S-M-L-XL-XXL-/162520864294?var=&hash=item25d6ff9626:m:mdnLMt_ox1KJqSraZl5bSow
p63
aVhttp://www.ebay.com/itm/Mens-Ribbed-Sweatshirt-Sweatpants-Stripe-Contrast-Joggers-Trousers-Tracksuit-Set-/391702906002?var=&hash=item5b33500492:m:mHahVRp6W8TrolbFyURoorA
p64
aVhttp://www.ebay.com/itm/adidas-Essentials-Mens-Joggers-Jogging-Bottoms-Fleece-Sweat-Pants-Small-NEW-/231990065363?var=&hash=item3603af78d3:m:mVA1Iq0nB2_ZVANwwcJxgGA
p65
aVhttp://www.ebay.com/itm/Mens-Casual-Street-Wear-Jogging-Bottoms-Contrast-Stripe-Sweat-Pants-/361854489073?var=&epid=2107709218&hash=item54403551f1:m:mFLGCDoWUVT67sLJedmTzpw
p66
aVhttp://www.ebay.com/itm/Mens-Knee-Pad-Pockets-Elasticated-Fleece-Work-Jogging-Bottoms-Joggers-Trousers-/381823245592?var=&hash=item58e6705d18:m:myGRr4cm2_1N29M4rntG9zw
p67
aVhttp://www.ebay.com/itm/Mens-Gym-Contrast-Jogging-Full-Tracksuit-Top-Bottoms-Hoodie-Set-Fleece-Joggers-/391703558821?var=&hash=item5b3359faa5:m:mPkSScMQ-_CoTxSwjhYiTRQ
p68
aVhttp://www.ebay.com/itm/New-Mens-Nike-Full-Tracksuit-Jogging-Bottoms-Sweat-Pants-Hoodie-Jumper-Grey-/282272824940?var=&hash=item41b8c57e6c:m:mOH63709R-aVOreDKmbJcvA
p69
aVhttp://www.ebay.com/itm/Ellesse-New-Mens-Overhead-Hooded-Sweatshirt-Top-or-Jogging-Bottoms-Sweat-Pants-/291729148593?var=&epid=1751762703&hash=item43ec698ab1:m:mcMs2kPbg59Ql1HPTceHFOA
p70
aVhttp://www.ebay.com/itm/20-60X-Disposable-Sweat-Pad-Antiperspirant-Underarm-Armpit-Guard-Sheet-Shield-/182642066508?var=&hash=item2a8650c44c:m:m-hbAYlvjOBF96ByNAqIAiQ
p71
aVhttp://www.ebay.com/itm/Puma-Mens-Gents-No1-Logo-Joggers-Tracksuit-Bottoms-Sweat-Pants-/390772948547?var=&epid=1940746494&hash=item5afbe1fe43:m:mQ4ywUxKzi7gUNoolSH9ZKw
p72
aVhttp://www.ebay.com/itm/Keith-Scott-Hooded-Sweat-One-Tree-Hill-Body-Shop-Hoodie-Grey-/322397005813?var=&hash=item4b105be7f5:m:mNdmkk_e5TdkmoAtpd75_cA
p73
aVhttp://www.ebay.com/itm/Brand-New-Mens-Crosshatch-Crusher-Hoodie-Hooded-Top-Sweat-S-XXL-/291948536702?var=&epid=2074312224&hash=item43f97d237e:m:mWEAgBlANRFpEn_PLas-KaQ
p74
aVhttp://www.ebay.com/itm/Ladies-Girls-Unisex-Soft-Warm-Kitty-Hoodies-Hooded-Sweat-Shirt-Hoody-XS-S-M-L-XL-/170997815106?var=&hash=item27d0439742:m:m9D0p2Lfma-f5WAFYDF9gnQ
p75
aVhttp://www.ebay.com/itm/Men-Boy-Unisex-Dope-Sweater-Hoodie-New-Jumper-Diamond-Sweat-Shirt-All-Sizes-L-S-/281370367873?var=&hash=item4182fb1781:m:m14cM2IWvqxw84oXgP4chqw
p76
aVhttp://www.ebay.com/itm/Mens-Plus-Size-Lounge-Jogger-Sweat-Shorts-Casual-Bottoms-Big-Tall-Gym-Sports-/122482622176?var=&hash=item1c84887ee0:m:m3FMpQw9rBcyAN6ZUrLkVCg
p77
aVhttp://www.ebay.com/itm/New-Mens-PUMA-Cotton-Sweat-Shorts-Pants-Sports-Gym-Summer-Knee-Length-Black-/272616943842?var=&epid=726104562&hash=item3f793c70e2:m:m2p3ms4C5kzAe917Cxd-N-g
p78
aVhttp://www.ebay.com/itm/Slazenger-Mens-Plus-Size-Cuffed-Jogger-Casual-Sweat-Pants-Sizes-2XL-5XL-/282290488433?var=&epid=2104152970&hash=item41b9d30471:m:mW8E_kS24nyhNc1MdXQhQZg
p79
aVhttp://www.ebay.com/itm/Mens-Adidas-Originals-Slim-Joggers-Tracksuit-Jogging-Bottoms-Track-Sweat-Pants-/282471558848?var=&hash=item41c49deec0:m:mUGKSz2lGHIssF_hx3r5rgw
p80
aVhttp://www.ebay.com/itm/New-Mens-Penn-Cotton-Sweat-Shorts-Sports-Gym-Training-Knee-Length-Holiday-/291761647417?var=&epid=1340992073&hash=item43ee596f39:m:mRwTIx-1NOAqRPTUotOPgEA
p81
aVhttp://www.ebay.com/itm/Mens-Casual-Tracksuit-Gym-Training-Jogging-Joggers-Sweat-Pants-Bottoms-Trousers-/172446147615?var=&hash=item282697641f:m:m-9Nb_2tQX2boLV341lTlQQ
p82
aVhttp://www.ebay.com/itm/French-Connection-Crew-Neck-FCUK-FEAR-Print-Sweatshirt-New-Men-s-Black-Sweat-Top-/111764928253?var=&epid=1555161262&hash=item1a05b576fd:m:mh8Kir9chM2aLI95t82qBCA
p83
aVhttp://www.ebay.com/itm/Mens-Nike-Air-Black-Blue-Bottoms-Cuffed-Fleece-Joggers-Sweat-Jogging-Pants-S-XL-/112478046976?var=&hash=item1a3036cb00:m:mWYChw4BlQ9UXsGuvcim26g
p84
aVhttp://www.ebay.com/itm/New-Mens-PUMA-Cotton-Sweat-Shorts-Sports-Gym-Training-Summer-Black-/282082413409?var=&epid=1475265837&hash=item41ad6c0b61:m:mIeDmFWXgUsrxompKTIG-7w
p85
aVhttp://www.ebay.com/itm/Nike-Mens-Club-Swoosh-Fleece-Tracksuit-Jogging-Bottoms-Sweat-Pants-Joggers-/222020532151?var=&epid=1741972407&hash=item33b17477b7:m:mOMFS9VCnn-ghYlRnV168-w
p86
aVhttp://www.ebay.com/itm/Skechers-Mens-Sweat-Jogging-Shorts-Elasticated-Waistband-Bottoms-Sizes-2XL-5XL-/201904896738?var=&epid=788693842&hash=item2f02783ae2:m:mPrcp7tA_eGypXZrVEDSaTA
p87
aVhttp://www.ebay.com/itm/Mens-Casual-Ecko-Shorts-Sweat-Pants-Casual-Fleece-Sweat-Shorts-S-M-L-XL-XXL-/162514910497?var=&hash=item25d6a4bd21:m:mrjHvRCVJdeb5BdNSmIHy_w
p88
aVhttp://www.ebay.com/itm/Men-Women-Corset-Tummy-Waist-Cincher-Sweat-Trainer-Hot-Body-Shaper-Slim-Belt-ACC-/371901108505?var=&hash=item5697089119:m:m8oDT7ZC5Jg6dQOFuzsOlKQ
p89
aVhttp://www.ebay.com/itm/NEW-KANGOL-DESIGNER-DORSET-MENS-CUFFED-TROUSERS-SWEAT-JOGGERS-PANTS-SIZES-S-XL-/282044070448?var=&epid=1571496332&hash=item41ab22fa30:m:mzxA4eYeCFMLFim0_e2_JxQ
p90
aVhttp://www.ebay.com/itm/Thermo-Sweat-Neoprene-Body-Shaper-Slimming-Waist-Trainer-Cincher-Yoga-Vest-New-/252815344986?var=&hash=item3adcf8055a:m:mDT03jmJ7r4OZ4-WEKZNQ0Q
p91
aVhttp://www.ebay.com/itm/Women-Hot-Thermo-Sweat-Neoprene-Body-Shaper-Running-Leggings-Exercise-Yoga-Pants-/182536616742?var=&epid=2120653350&hash=item2a8007bb26:m:mfSM2YcUCEZzJALKh82Gz7Q
p92
aVhttp://www.ebay.com/itm/MENS-TRACKSUITS-FLEECE-HOODIE-TOP-BOTTOMS-GYM-SWEAT-JOGGING-SUITS-S-M-L-XL-/252669194922?var=&hash=item3ad441f2aa:m:mV7fEiA_fGe6GVHRmni1RKg
p93
aVhttp://www.ebay.com/itm/Mens-Training-Joggers-Sweat-Pants-Gym-Sports-Track-Bottoms-New-Trousers-Gray-/321312047119?var=&hash=item4acfb0c00f:m:mxXm5Pwk8sr1zs7VhUAreSw
p94
aVhttp://www.ebay.com/itm/Mens-latest-Camo-Camouflage-Skinny-slim-Fit-Joggers-Gym-Track-Sweat-Pants-/252880021149?var=&hash=item3ae0d2e69d:m:mlGg9bPzvn8m6QK2JtXOiQA
p95
aVhttp://www.ebay.com/itm/Soul-Star-Long-Length-Overhead-Hoodie-Men-s-Fleece-Sweat-Hooded-Top-Black-Grey-/112101249091?var=&hash=item1a19c15043:m:mUfWIXLZzdCgBc1TinZnFWQ
p96
aVhttp://www.ebay.com/itm/Mens-New-Adidas-3-4-Zip-Sweatshirt-Jumper-Top-Sweater-Sweat-Jacket-Black-Blue-/272287469801?var=&epid=1266196794&hash=item3f659910e9:m:mp1XEt7vyU81pwYH1UIllZg
p97
aVhttp://www.ebay.com/itm/PIMD-Essential-Joggers-Khaki-Fitted-Sweat-Pants-Sweatpants-Fitness-Gym-NEW-/122420432183?var=&hash=item1c80d38d37:m:mdrGPd9z4cFttFt2_WYqx4Q
p98
aVhttp://www.ebay.com/itm/NEW-Lonsdale-Mens-2Stripe-Fleece-Sweat-Pants-Size-S-or-M-Jogging-Bottoms-/232232567274?var=&hash=item361223c1ea:m:mdS9wqr0zuSFx9qRHOsRu4w
p99
aVhttp://www.ebay.com/itm/Women-Hot-Neoprene-Body-Shaper-Slimming-Waist-Pants-Yoga-Vest-Sweat-Sauna-Suit-A-/222366482608?var=&hash=item33c61340b0:m:m-fnSOZuzCUjV6fFCZEi7eQ
p100
aVhttp://www.ebay.com/itm/Marks-Spencer-Womens-Hooded-Waterfall-Cardigan-New-Grey-M-S-Hoodie-Sweat-Top-/172052846883?var=&hash=item280f261923:m:mrC5NGX_h5hJTSZef4O0lDA
p101
aVhttp://www.ebay.com/itm/20-60-x-Disposable-Anti-Sweat-Pad-Underarm-Armpit-Guard-Sheet-Shield-Absorbing-/172709278182?var=&hash=item28364671e6:m:mrg2NCGY4SvIxOOpJ08FVWA
p102
aVhttp://www.ebay.com/itm/Mens-Camouflage-Tracksuit-Jogging-Bottom-Sweat-Suits-Hoodies-UK-S-M-L-XL-/201425723255?var=&hash=item2ee5e89f77:m:m-C24GbMD7sIzLCXb204xzA
p103
aVhttp://www.ebay.com/itm/Mens-Training-Joggers-Sweat-Pants-Fleece-Tracks-Full-Suit-Bottoms-Trousers-/251629338872?var=&hash=item3a964700f8:m:mKNSn2ZXT8vMWGkVDiKMtPw
p104
aVhttp://www.ebay.com/itm/MAJESTIC-ATHLETIC-NEW-YORK-YANKEES-MLB-BOSWELL-SHORTS-CASUAL-MENS-SWEAT-SHORT-/172046706424?var=&hash=item280ec866f8:m:myeZzQf_I8PU6Fy_TCbFVSQ
p105
aVhttp://www.ebay.com/itm/Mens-Nike-Air-Tracksuit-Bottoms-Cuffed-Fleece-Joggers-Sweat-Jogging-Pants-S-XL-/112478043839?var=&hash=item1a3036bebf:m:mfJjdrwzVMuoSlWTTUakN-w
p106
aVhttp://www.ebay.com/itm/Mens-New-Adidas-Originals-Tracksuit-Jogging-Bottoms-Joggers-Track-Sweat-Pants-/271769147978?var=&hash=item3f46b41a4a:m:mbgRLcDHIXmoPawnuWiFoAw
p107
aVhttp://www.ebay.com/itm/Sweating-for-the-Wedding-Workout-Gym-Womens-Girls-Training-Hoodie-S-to-2XL-/172133935193?var=&hash=item2813fb6859:m:mc3TFHFDvIEMHBlVdElWBTw
p108
aVhttp://www.ebay.com/itm/Nike-Heritage-Polar-Mens-Tracksuit-Trousers-Grey-Jogging-Sports-Sweat-Pants-/391801900760?var=&epid=500337575&hash=item5b39368ed8:m:mnvZROnM3NPVb3WLEwULa9A
p109
aVhttp://www.ebay.com/itm/New-Ladies-Work-Out-Sweat-Hooded-Crop-Tops-Womens-Jogging-Bottoms-Tracksuit-Set-/171485126901?var=&hash=item27ed4f60f5:m:mRS9ryn8IowiUDjJZwwL6OQ
p110
aVhttp://www.ebay.com/itm/Skechers-Mens-Sweat-Jogger-Fleece-Branded-Shorts-Running-Bottoms-Sizes-S-XL-/192124053503?var=&epid=606125335&hash=item2cbb7c67ff:m:mnXod2TwGCpGq4YBT1xGW_w
p111
aVhttp://www.ebay.com/itm/Mens-Womens-Olympic-Hooded-Sweatshirt-Hoodie-Jumper-Sweat-Cotton-Hood-Warm-Lot-/132188450285?var=&epid=1856899097&hash=item1ec70baded:m:mUl2HGXdzkVz5yjN_TJXzVQ
p112
aVhttp://www.ebay.com/itm/adidas-Mens-Core-15-Fleece-Tracksuit-Jogging-Bottoms-Sweat-Pants-Training-Track-/222320739692?var=&epid=1762905766&hash=item33c359456c:m:moQGlQUlRJ-qarBYvgd7REw
p113
aVhttp://www.ebay.com/itm/New-Mens-or-Womens-Quality-Casual-or-Work-SWEATSHIRT-Sweater-Jumper-Sweat-Shirt-/401085452254?var=&hash=item5d628e4fde:m:mQmuEQjqHxANp5TeobVkswQ
p114
aVhttp://www.ebay.com/itm/New-Mens-Casual-Gym-Tracksuit-Bottoms-Plain-Jogging-Trousers-Joggers-Sweat-Pants-/191849195419?var=&hash=item2cab1a679b:m:m9287KdAzj3fQO38z8re8Ng
p115
aVhttp://www.ebay.com/itm/New-Mens-Gio-Goi-Sweat-Pants-Joggers-Tracksuit-Jogging-Bottoms-Trousers-/282267817231?var=&hash=item41b879150f:m:mUjHV-mQDWhTU0b18zZ_nRw
p116
aVhttp://www.ebay.com/itm/BNWT-RALPH-LAUREN-PERFORMANCE-MEN-BLACK-SWEAT-PANTS-RIBBED-JOGGERS-SIZE-M-RRP-95-/282075149407?hash=item41acfd345f:g:Y1MAAOSwrfVZUN2J
p117
aVhttp://www.ebay.com/itm/New-Mens-PUMA-Sweat-Pants-Tracksuit-Bottoms-Jogging-Trackies-Joggers-Navy-Blue-/282371922651?var=&epid=1087290459&hash=item41bead9adb:m:mKCkJaOrBg6WYMuvPm3A4Tw
p118
aVhttp://www.ebay.com/itm/Mens-Drawstring-Waist-Sweat-Fleece-Jersey-Jogging-Shorts-Bottoms-Size-S-XXL-/391458846400?var=&epid=1169951302&hash=item5b24c3f6c0:m:mqItjBrcJ6d6YQjnNbBSO2w
p119
aVhttp://www.ebay.com/itm/Slazenger-Mens-Plus-Size-Cuffed-Jogger-Casual-Sweat-Pants-Sizes-2XL-5XL-/311759464406?var=&epid=2104574724&hash=item48964fe7d6:m:mW8E_kS24nyhNc1MdXQhQZg
p120
aVhttp://www.ebay.com/itm/NEW-KANGOL-DESIGNER-WARLORD-MENS-CUFFED-TROUSERS-SWEAT-JOGGERS-PANTS-SIZES-S-XL-/272249120432?var=&epid=1370642115&hash=item3f634fe6b0:m:mGfOtAw5FA9uC4aERD7z5rg
p121
aVhttp://www.ebay.com/itm/Ladies-Sweat-Jacket-jacket-hood-Hoodie-size-S-M-L-Casual-style-sport-pink-/262598574526?var=&hash=item3d241841be:m:mnngUFuimHnlSmjxt1mFr5w
p122
aVhttp://www.ebay.com/itm/MENS-SANTA-MONICA-POLO-CLUB-CUFFED-TROUSERS-SWEAT-JOGGERS-PANTS-SIZES-S-XL-/272249218653?var=&epid=1170646737&hash=item3f6351665d:m:moslJSVtHQgDWPhVAC685jQ
p123
aVhttp://www.ebay.com/itm/50-Pcs-Disposable-Sweat-Pad-Antiperspirant-Underarm-Armpit-Pads-Sheet-Fresh-UK-/111783440861?epid=1888799702&hash=item1a06cff1dd:g:dKEAAOSwjVVVrc~1
p124
aVhttp://www.ebay.com/itm/neoprene-slimming-Belt-hot-sweating-shaper-weight-loss-yoga-workout-/141913115460?var=&hash=item210aae4b44:m:mvd9RnoaS8IcwhXO1vUOVKg
p125
aVhttp://www.ebay.com/itm/BNWT-RALPH-LAUREN-PERFORMANCE-MEN-BLACK-SWEAT-PANTS-RIBBED-JOGGERS-SIZE-L-RRP-95-/282206825647?hash=item41b4d66caf:g:k2wAAOSw3h1ZUNF7
p126
aVhttp://www.ebay.com/itm/Men-Women-Shapewear-Hot-Sweat-Belt-Waist-Cincher-Trainer-Body-Shaper-Corset-UKHG-/142225087427?var=&hash=item211d469bc3:m:mHnVQUyYqTSfDFKZDN3SLnw
p127
aVhttp://www.ebay.com/itm/Hot-Thermo-Sweat-Neoprene-Body-Shaper-Slimming-Waist-Trainer-Cincher-Yoga-Vest-/332126014835?var=&hash=item4d5440cd73:m:mdI1DISJ6YpbP5fnP-aryrQ
p128
aVhttp://www.ebay.com/itm/New-Girls-Ladies-Cotton-Short-Sleeve-Zip-Trough-Hoodie-Top-Sweat-Shirt-Size-4-14-/181943531130?var=&hash=item2a5cadf67a:m:mOouqRXQlyahTwSLaGkR80w
p129
aVhttp://www.ebay.com/itm/LADIES-HOODED-TOP-FRUIT-OF-THE-LOOM-HOODIE-CLASSIC-LADY-FIT-HOODED-SWEAT-NEW-/351999087107?var=&hash=item51f4c7d203:m:mNB_gKD8Naq1rkxv2t78NeA
p130
aVhttp://www.ebay.com/itm/Men-Women-Corset-Tummy-Waist-Cincher-Sweat-Trainer-Hot-Body-Shaper-Slim-Belt-AS-/371837142950?var=&hash=item56933887a6:m:m6cCe13jK7bne17Xyg5yh3A
p131
aVhttp://www.ebay.com/itm/Neoprene-Sauna-Waist-Trainer-Vest-Hot-Shaper-Shaperwear-Slimming-Sweat-Belt-New-/201823625533?var=&hash=item2efda0213d:m:m1UhD4zSXxSj4wCfBrnvISw
p132
aVhttp://www.ebay.com/itm/Red-Tag-Mens-Kingsize-Big-Tall-Tracksuit-Sweat-Pants-Jogging-Bottoms-Elasticated-/252932347001?var=&epid=859708020&hash=item3ae3f15479:m:mwXMqPKMzvdd90iFddC1KRA
p133
aVhttp://www.ebay.com/itm/Mens-Plus-Size-Jogger-Contrasting-Stripe-Casual-Sweat-Pant-by-L-F-Size-2XL-5XL-/272478558113?var=&hash=item3f70fcd7a1:m:mviJWIPzRd_Zteddyp8sqsw
p134
aVhttp://www.ebay.com/itm/New-Mens-Ellesse-Logo-Sweat-Pants-Joggers-Tracksuit-Jogging-Bottoms-Trousers-/291656512097?var=&hash=item43e8153261:m:mZcBSF6Ce6KMT2kNXTQCugQ
p135
aVhttp://www.ebay.com/itm/New-Girls-Ladies-Cotton-Short-Sleeve-Zip-Trough-Hoodie-Top-Sweat-Shirt-Size-4-14-/181943531130?var=&hash=item2a5cadf67a:m:mOouqRXQlyahTwSLaGkR80w
p136
aVhttp://www.ebay.com/itm/Mens-Sports-Gym-Sweat-Skinny-Trousers-Basketball-Football-Train-Athletic-Pants-/371846438002?var=&hash=item5693c65c72:m:mVJBUJQvHT-oiiFdJYljZOQ
p137
aVhttp://www.ebay.com/itm/MENS-CAMOUFLAGE-TRACKSUIT-FLEECE-HOODED-TOP-BOTTOMS-SWEAT-JOGGING-SUITS-S-M-L-XL-/252792268320?var=&hash=item3adb97e620:m:m5NbNmhhVwsh4ldlk4N3t_A
p138
aVhttp://www.ebay.com/itm/Fruit-of-the-Loom-Mens-Light-Hoodie-Hoody-Hooded-Sweatshirt-Top-Sweat-Jumper-/401339153725?var=&hash=item5d71ad7d3d:m:mEZY5_Q2HaqJDjEpaoc9I-g
p139
aVhttp://www.ebay.com/itm/Mens-DLX-Hooded-Tracksuit-Set-Fleece-Hoodie-Top-Bottoms-Sports-Joggers-Gym-Size-/282275038076?var=&hash=item41b8e7437c:m:mcQL2MiBUeni-Opyv0T62zg
p140
aVhttp://www.ebay.com/itm/New-Mens-Gio-Goi-Sweat-Pants-Joggers-Tracksuit-Jogging-Bottoms-Trousers-/291953002515?var=&epid=2073309701&hash=item43f9c14813:m:mi2vP3k00994U6I7vbOQVpA
p141
aVhttp://www.ebay.com/itm/New-Mens-PENN-Sports-Joggers-Jogging-Tracksuit-Bottoms-Sweat-Pants-Trousers-/291961745195?var=&hash=item43fa46af2b:m:mjI7-3tPrxZFh2jSCTEKaAg
p142
aVhttp://www.ebay.com/itm/PIMD-Camouflage-Fitted-Sweat-Pants-Sweatpants-Fitness-Joggers-Gym-Camo-Shark-/122119781598?var=&hash=item1c6ee7fcde:m:mtADesn9OwJXutSGBLf9kpw
p143
aVhttp://www.ebay.com/itm/Women-Sweat-Sauna-Vest-Body-Shaper-Shirt-Weight-Loss-Neoprene-Fat-Burner-Zip-/201930777502?var=&hash=item2f0403239e:m:m6rGoHymEsa1nAHXDcTwRkA
p144
aVhttp://www.ebay.com/itm/MENS-ZOO-YORK-TRACKSUIT-SPORT-JOGGERS-JOG-PANT-SWEATS-HOODIE-CREW-SWEATSHIRT-/191384994842?var=&epid=1655471660&hash=item2c8f6f441a:m:mr3Wn6FD6MhhtWwZWPHZ9pA
p145
aVhttp://www.ebay.com/itm/Sweating-for-the-Wedding-Workout-Gym-Womens-Girls-Training-Hoodie-S-to-2XL-/172133935193?var=&hash=item2813fb6859:m:mc3TFHFDvIEMHBlVdElWBTw
p146
aVhttp://www.ebay.com/itm/Neoprene-Slimming-Thermo-Sauna-Belt-Body-Shaper-Vest-Sweat-Hot-Waist-Cincher-New-/292151714482?var=&hash=item44059962b2:m:mYMjIke-OTuhgAm6TP5dBEw
p147
aVhttp://www.ebay.com/itm/Mens-HLY-Slim-Fit-Tracksuit-Bottoms-Skinny-Jogging-Joggers-Sweat-Pants-Trousers-/322417686674?var=&hash=item4b11977892:m:mVtWODQdKqwNPnDZLvXbgiw
p148
aVhttp://www.ebay.com/itm/NEW-Funny-Womens-Joke-NAP-QUEEN-SWEATSHIRT-Tumblr-Hipster-SWEAT-SHIRT-Fun-Jumper-/381763772174?var=&hash=item58e2e4df0e:m:mHoS2iyTCR3CHTzd2Rt9RQA
p149
aVhttp://www.ebay.com/itm/Mens-Tracksuit-Bottoms-Jogging-Running-Gym-Trousers-Sports-Sweat-Pants-Fleece-/122181744283?var=&epid=4002836131&hash=item1c7299769b:m:mfyzxE5AKjbScJR8WEZNsbw
p150
aVhttp://www.ebay.com/itm/New-Mens-Nike-Full-Tracksuit-Jogging-Bottoms-Sweat-Pants-Hoodie-Jumper-Navy-/281952040076?var=&hash=item41a5a6b48c:m:mnEcIQ5XwxGAP2bu-YQnXCw
p151
aVhttp://www.ebay.com/itm/Champion-Mens-Fleece-Joggers-Tracksuit-Jogging-Bottoms-Sweat-Track-Pants-New-/352101382358?var=&hash=item51fae0b8d6:m:m94ki30-zfK9LUkdRRPNkkw
p152
aVhttp://www.ebay.com/itm/MENS-ECKO-UNLTD-FULL-TRACKSUIT-HOODIE-SWEAT-TRACKSUIT-JOGGER-KING-SIZE-DOCKLANDS-/182214968740?var=&hash=item2a6cdbc5a4:m:mRSMLmfL-AE3ickLpeJid4Q
p153
aVhttp://www.ebay.com/itm/Mens-Fruit-of-the-Loom-Light-Weight-Cotton-Rich-Jog-Jogging-Sweat-Pants-Bottoms-/191559478981?var=&epid=1347868298&hash=item2c99d5aec5:m:mbm-dtfg_FBVJDKhpQwSgsQ
p154
aVhttp://www.ebay.com/itm/Mens-Womens-Full-Zip-Hooded-Sweatshirt-Hoodie-Jumper-Sweat-Top-Cotton-Lot-/132188449279?var=&epid=1355519715&hash=item1ec70ba9ff:m:mSBk5wiAxMxmmyzCR_2A0Dg
p155
a.