(lp0
Vhttp://www.ebay.com/itm/The-Battleship-Vittorio-Veneto-by-Carlo-Cestra-Paperback-2017-/302310446460?epid=236819335&hash=item46631b557c:g:RJMAAOSww5hZEatO
p1
aVhttp://www.ebay.com/itm/Lonely-Planet-Venice-the-Veneto-by-Lonely-Planet-9781743216811-/352073888597?epid=226101380&hash=item51f93d3355:g:-8EAAOSwJH1ZLlWd
p2
aVhttp://www.ebay.com/itm/ELLESSE-BUCKET-HAT-VENETO-WHITE-NAVY-ONE-SIZE-RRP-20-SALE-BNWT-/162588423578?hash=item25db06759a:g:XdQAAOSwUFtZZhvW
p3
aVhttp://www.ebay.com/itm/Adini-Veneto-Tunic-Dress-size-14-16-20-Part-Button-Longline-Top-Shiraz-Print-New-/222376463120?var=&hash=item33c6ab8b10:m:mpclIE5pOWZcdHz4QTAb6CQ
p4
aVhttp://www.ebay.com/itm/The-Rough-Guide-to-Venice-the-Veneto-Rough-Guides-New-Book-/112330872101?epid=221330984&hash=item1a27711525:g:hfcAAOSwKtVWzmsm
p5
aVhttp://www.ebay.com/itm/Ellesse-Veneto-Bucket-Hat-in-White-80s-casual-classic-retro-festival-hat-/401279226043?epid=629344397&hash=item5d6e1b10bb:g:hWgAAOSw~AVYquNc
p6
aVhttp://www.ebay.com/itm/Ellesse-Veneto-Lightweight-Bomber-Jacket-in-Navy-Blue-Rimini-coat-baseball-SALE-/371555565178?var=&epid=2105663476&hash=item56826ffe7a:m:mX34hQNoWEDnAK9Ukr0wOwg
p7
aVhttp://www.ebay.com/itm/Ellesse-Veneto-Lightweight-Bomber-Jacket-in-Navy-Blue-Rimini-coat-baseball-SALE-/371555565178?var=&epid=2105663476&hash=item56826ffe7a:m:mX34hQNoWEDnAK9Ukr0wOwg
p8
aVhttp://www.ebay.com/itm/Mocks-Unisex-Mocklite-Driver-II-Slip-On-Loafer-Shoes-Summer-Moccasins-Colours-/122571231207?var=&hash=item1c89d08fe7:m:mxr7rrKdIhHZeL6sImJuobw
p9
aVhttp://www.ebay.com/itm/WOMENS-LADIES-MOCKS-MOCCASINS-SHOES-FLATS-RUBBER-VENETO-NAVY-RED-BLUE-Sz-5-/232395825330?var=&hash=item361bdee0b2:m:m7oMAcMahJtbhE72oStwxcQ
p10
aVhttp://www.ebay.com/itm/THICK-Runner-Rugs-VIA-VENETO-grey-modern-NON-slip-Width-67-100cm-extra-long-/162177213859?var=&hash=item25c283e5a3:m:mLvo50TrEFZK76pPveEM8vw
p11
aVhttp://www.ebay.com/itm/Veneto-Recipes-from-an-Italian-Country-Kitchen-by-Valeria-Necchio-Hardback-/302372823558?epid=237168508&hash=item4666d32206:g:ttMAAOSw8d5ZXK2n
p12
aVhttp://www.ebay.com/itm/VENETO-OUTDOOR-UTILITY-OUTHOUSE-STORAGE-TOILET-TENT-camping-caravan-motorhome-/162567254689?hash=item25d9c372a1:g:YJEAAOSwCkZZUQuo
p13
aVhttp://www.ebay.com/itm/Trumpeter-1-700-Model-Kit-05779-RN-Vittorio-Veneto-1940-Italian-Navy-Battleship-/391521110368?hash=item5b287a0960:g:4vUAAOSwtnpXnpY4
p14
aVhttp://www.ebay.com/itm/Map-0355-Veneto-2007-9782067126633-Sheet-map-2007-/352010572950?epid=87903861&hash=item51f5771496:g:GAcAAOSwuxFY0INV
p15
aVhttp://www.ebay.com/itm/DK-Eyewitness-Travel-Guide-Venice-the-Veneto-Eyewitness-Travel-Guides-Coll-/152467661130?epid=221743319&hash=item237fc7e14a:g:6vUAAOSwo4pYlv0Z
p16
aVhttp://www.ebay.com/itm/Just-Togs-Veneto-Socks-3-Pack-SALE-/352076368002?epid=933885556&hash=item51f9630882:g:~CAAAOSw5cRZMSXC
p17
aVhttp://www.ebay.com/itm/TW90-Vintage-1947-Italy-Vicenza-Veneto-Italian-Travel-Poster-Re-Print-A4-/390469148899?var=&hash=item5ae9c660e3:m:mWsibzwX20WZZI0tG79uQ_Q
p18
aVhttp://www.ebay.com/itm/Veneto-Flag-Lapel-Pin-Badge-Tie-Pin-/320763173210?hash=item4aaef9995a:m:mAkXGoQCUYtaRgWn_DD0h8A
p19
aVhttp://www.ebay.com/itm/Veneto-Flag-Cufflinks-Box-/321225103359?var=&hash=item4aca8217ff:m:m9p3EVZPmwK7Rh5YMTjFsFg
p20
aVhttp://www.ebay.com/itm/THICK-Runner-Rugs-VIA-VENETO-brown-modern-NON-slip-Width-67-100cm-extra-long-/162177201080?var=&hash=item25c283b3b8:m:mz_LEgSWBHT70OAvxHFd-fA
p21
aVhttp://www.ebay.com/itm/DK-Eyewitness-Travel-Guide-Venice-the-Veneto-by-DK-Publishing-9780241199558-/351973401200?epid=221743319&hash=item51f33fe270:g:3fUAAOSwjDZYlMmm
p22
aVhttp://www.ebay.com/itm/SMD-Veneto-Orange-Fresco-Piazza-Designer-Curtain-Upholstery-Fabric-Roll-/380724377927?var=&hash=item58a4f0f947:m:m6-I1xMJp1ksbencs5Ncp8Q
p23
aVhttp://www.ebay.com/itm/Travel-Guide-Lonely-Planet-Venice-and-the-Veneto-Cristian-Bonetto-Paula-Hardy-/381739732756?epid=226101380&hash=item58e1760f14:g:7sAAAOSw0UdXtKr5
p24
aVhttp://www.ebay.com/itm/Michelin-Green-Guide-Venice-and-the-Veneto-7e-Green-Guide-Michelin-Michelin-/361916693710?epid=234010692&hash=item5443ea7cce:g:g6MAAOSwWxNYrTCe
p25
aVhttp://www.ebay.com/itm/Venice-and-the-Veneto-Green-Guide-Michelin-Green-Guides-Michelin-Excellent-Boo-/161848712280?epid=139814358&hash=item25aeef5c58:m:mzd6WwjqevCry-zpbrE4QsA
p26
aVhttp://www.ebay.com/itm/Super-Titanium-non-stick-Fry-Pan-Veneto-Lotus-with-Lid-28-cm-/282354288057?hash=item41bda085b9:g:~5QAAOSwopRYmwmx
p27
aVhttp://www.ebay.com/itm/Sloane-Ebury-1-Piece-Small-Medium-Iron-Veneto-5-Bottle-Wine-Rack-Black-NEW-/371837728562?hash=item5693417732:g:-mMAAOSw44BYd6MQ
p28
aVhttp://www.ebay.com/itm/Veneto-Cream-Soft-Gold-97701-City-Of-Venice-Wallpaper-/272213751512?hash=item3f613436d8:g:Rn0AAOSwpDdVad9B
p29
aVhttp://www.ebay.com/itm/Just-Togs-Ladies-Veneto-Socks-3-Pack-226-BNWT-/291393635124?hash=item43d86a0334:g:ylMAAOSwbsBXijYg
p30
aVhttp://www.ebay.com/itm/Just-Togs-Ladies-Veneto-Socks-3-Pack-226-BNWT-/291393635124?hash=item43d86a0334:g:ylMAAOSwbsBXijYg
p31
aVhttp://www.ebay.com/itm/Veneto-Beige-Hallway-Carpet-Runner-Rug-Mat-Long-Hall-Anti-Non-Slip-Gel-Back-/282098626118?var=&hash=item41ae636e46:m:mAHWJuZ7XBG2ZjFqKUE3Ijw
p32
aVhttp://www.ebay.com/itm/Sloane-Ebury-Veneto-5-Bottle-Wine-Rack-Silver-Finish-Metal-Freestanding-Worktop-/400818536579?epid=1828774983&hash=item5d52a58083:g:cqQAAOSw~bFWF-P3
p33
aVhttp://www.ebay.com/itm/SILKY-KEY-TASSELS-ASSORTED-COLS-X4-CUSHIONS-BLINDS-CURTAINS-ART-11827-9-/132235863953?var=&hash=item1ec9df2791:m:mFvXmIpHzPQCx92Pi-zxy2g
p34
aVhttp://www.ebay.com/itm/Eight-Months-in-the-Veneto-A-Story-of-the-Endurance-and-Courage-9781507746103-/252245018008?epid=226614458&hash=item3abaf98598:g:7r0AAOSwwPhWklXX
p35
aVhttp://www.ebay.com/itm/Casserole-with-Lid-Super-Titanium-non-stick-Pan-Veneto-Lotus-20cm-24cm-and-28cm-/282354275130?var=&hash=item41bda0533a:m:mHv-PXGk219z10t6_bE-pKw
p36
aVhttp://www.ebay.com/itm/Photo-Print-Portrait-of-a-Woman-Bartolomeo-Veneto-in-various-sizes-jwg-7038-/200888786569?var=&hash=item2ec5e79e89:m:m_ciKWYuCrFJV6RwcPBOiwQ
p37
aVhttp://www.ebay.com/itm/Veneto-Dark-Brown-Hallway-Carpet-Runner-Rug-Long-Hall-Anti-Non-Slip-Gel-Back-/361806807884?var=&hash=item543d5dc34c:m:mG3ZDVjHT9UYYABzSuuIxgg
p38
a.