(lp1
Vhttp://www.ebay.com/itm/Payday-Loans-Affiliate-Site-Up-To-220-Per-Lead-Huge-Market-/152624189256?hash=item23891c4f48:g:ixAAAOSwuq9ZaRjW
p2
aVhttp://www.ebay.com/itm/Dating-Social-Network-Site-/172635346059?hash=item2831de548b:g:VFEAAOxykUZTe5cO
p3
aVhttp://www.ebay.com/itm/Make-Money-Selling-Travel-Hotel-Flight-more-Start-Your-Own-Travel-Search-Site-/221600255630?hash=item3398678e8e:g:EFIAAOSwyTZUX3ov
p4
aVhttp://www.ebay.com/itm/Advanced-Site-Submitter-Software-Website-Software-With-Master-Resell-Rights-/282558595962?hash=item41c9ce037a:g:qwMAAOSw-K9ZNXq4
p5
aVhttp://www.ebay.com/itm/Custom-web-design-business-website-PHP-cms-wordpress-store-classified-SEO-sites-/301675468386?hash=item463d425662:g:nhAAAOxyVX1RuqJU
p6
aVhttp://www.ebay.com/itm/Managed-USA-VPS-server-web-hosting-host-unlimited-website-social-blog-forum-site-/301079576145?hash=item4619bdbe51:g:Y9IAAOxy4dNS40zk
p7
aVhttp://www.ebay.com/itm/MEMBERSHIP-SITES-TIPS-BLOG-WEBSITE-WITH-NEW-DOMAIN-AFFILIATES-HOSTING-/401125694072?hash=item5d64f45a78:g:MMsAAOSwQaJXQ~rX
p8
aVhttp://www.ebay.com/itm/Playmobil-6888-Summer-Fun-Camp-Site-with-LED-Fire-/322554829462?epid=6003304008&hash=item4b19c41a96:g:UfEAAOSwXY5ZQZPi
p9
aVhttp://www.ebay.com/itm/IET-Wiring-Regulations-BS7671-2008-A3-2015-On-site-Guide-9781849198875-regs-/282420886629?epid=209472333&hash=item41c198bc65:g:ci4AAOSwpkFY44mU
p10
aVhttp://www.ebay.com/itm/LIFE-TIME-14-95-Alpha-cPanel-Web-Hosting-1000-Extras-Unlimited-Web-Sites-/122520289836?hash=item1c86c7422c:g:B-MAAOSwPc9Wysaw
p11
aVhttp://www.ebay.com/itm/Help-to-Jump-your-site-1st-page-of-google-with-Link-Pyramid-3-Tiers-of-backlinks-/222253752823?hash=item33bf5b21f7:g:KdAAAOSwG-1WuNzs
p12
aVhttp://www.ebay.com/itm/Online-Design-Mug-printing-Site-Custom-Built-populated-with-mugs-/230576817328?hash=item35af7304b0:m:m9h75alovM1J5n3cMHQFhVA
p13
aVhttp://www.ebay.com/itm/Move-PHP-website-to-new-host-transfer-hosting-backup-site-install-VPS-server-/190925146858?hash=item2c74068aea:g:GM8AAOxyVX1Rwotc
p14
aVhttp://www.ebay.com/itm/On-Site-Guide-BS-7671-2008-Wiring-Regulations-Incorporating-Amendment-No-3-2015-/272525853400?epid=209525068&hash=item3f73ce82d8:g:18oAAOSwYIxX7ZO3
p15
aVhttp://www.ebay.com/itm/20-High-Quality-Powerful-Backlinks-High-Authority-Sites-Manual-Work-/322316429979?hash=item4b0b8e6a9b:g:5nkAAOSwM4xXZVOA
p16
aVhttp://www.ebay.com/itm/IET-On-Site-Guide-Incorporating-Amendment-3-9781849198875-BS-7671-2008-A3-2015-/282283986275?epid=209525068&hash=item41b96fcd63:g:8gsAAOSwMgdX0wMO
p17
aVhttp://www.ebay.com/itm/Starrett-505-A7-Pro-Site-Protractor-175mm-/300767922353?epid=1905192001&hash=item46072a48b1:g:MuEAAOSwB09YGakt
p18
aVhttp://www.ebay.com/itm/On-site-Guide-bs-7671-2008-a3-2015-The-Iet-9781849198875-spiral-bound-/282279862330?epid=209525068&hash=item41b930e03a:g:PiMAAOSwZJBX-WEm
p19
aVhttp://www.ebay.com/itm/Starrett-505-A7-Pro-Site-Protractor-175mm-7in-STR505A7-/131632850959?epid=1905192001&hash=item1ea5ede80f:g:oR0AAOSwo6lWJgMj
p20
aVhttp://www.ebay.com/itm/Cades-Camping-Touring-Motor-Caravan-Site-Guide-2017-9781905963195-/252954500324?epid=232745133&hash=item3ae5435ce4:g:XmkAAOSwFntZbzMe
p21
aVhttp://www.ebay.com/itm/DISNEY-DISNEYLAND-PARIS-EURO-DISNEY-2017-18-4-DAYS-3-NIGHTS-ON-SITE-HOTELS-/122455122265?hash=item1c82e4e159:g:yAMAAOSwEzxYegH4
p22
aVhttp://www.ebay.com/itm/Dunlop-Mens-Gents-On-Site-Combat-Cargo-Work-Trousers-/390773069137?var=&epid=1741908816&hash=item5afbe3d551:m:mqlWSfSIiqGazcvwzn4mafA
p23
aVhttp://www.ebay.com/itm/Kibri-Six-Containers-Site-Offices-Kit-HO-Gauge-38627-/401234626088?epid=1359386913&hash=item5d6b728628:g:1rwAAOSwj85YParG
p24
aVhttp://www.ebay.com/itm/Dewalt-DW745-GB-240v-portable-site-saw-table-saw-/331578898977?epid=650756135&hash=item4d33a47a21:g:uEYAAOSwKtVW0GFh
p25
aVhttp://www.ebay.com/itm/NERF-Longstrike-CS6-Sniper-Rifle-site-included-belt-and-ammo-Rare-gun-/142404461798?hash=item2127f7a4e6:g:z7EAAOSwz71ZTnXW
p26
aVhttp://www.ebay.com/itm/Lego-Juniors-Demolition-Site-10734-NEW-/371854835504?epid=628431044&hash=item5694467f30:g:YdEAAOSwA3dYkfwO
p27
aVhttp://www.ebay.com/itm/Joel-Sternfeld-On-This-Site-by-Joel-Sternfeld-Hardback-2012-/331741368669?epid=111892154&hash=item4d3d53915d:g:6F0AAOSwf05XOi1O
p28
aVhttp://www.ebay.com/itm/Hitlers-Berchtesgaden-A-Guide-to-Third-Reich-Sites-in-the-Berchtesgaden-and-O-/361964018010?epid=169997312&hash=item5446bc995a:g:VZcAAOSwaA5Wj4PU
p29
aVhttp://www.ebay.com/itm/BGA-Site-Solder-Remover-Squeegee-/330965559632?hash=item4d0f15a950:g:AHoAAOxygj5Smite
p30
aVhttp://www.ebay.com/itm/Dunlop-On-Site-Short-Safety-Shorts-Bottoms-Mens-Gents-/201478689624?var=&epid=1541541636&hash=item2ee910d358:m:mrdfgtdZhBtD0pC02yzDkCw
p31
aVhttp://www.ebay.com/itm/BACHMANN-SCENECRAFT-OO-SCALE-36-048-BUILDING-SITE-DETAILS-TOOLS-/352081184417?epid=1337939129&hash=item51f9ac86a1:g:gMQAAOSwZKBZOAvL
p32
aVhttp://www.ebay.com/itm/The-City-Guilds-Textbook-Level-2-Diploma-in-Site-Carpentry-and-Bench-Joinery-/351971558095?epid=176477481&hash=item51f323c2cf:g:v3oAAOSwu4BV4uZZ
p33
aVhttp://www.ebay.com/itm/TTCombat-DCS056-Site-Fencing-great-for-Batman-/351915536209?epid=507179561&hash=item51efccef51:g:REkAAOSw-0xYODts
p34
aVhttp://www.ebay.com/itm/Brazzers-Adult-Movie-Site-Gentelmens-Club-Erotic-Men-Women-Unisex-T-shirt-198-/172729242879?var=&hash=item28377714ff:m:muNvlp5_BwNKJw6X4FYkgKA
p35
aVhttp://www.ebay.com/itm/Van-Vault-TIPPER-Tool-Security-Box-Secure-Site-Storage-S10320-/262957235208?hash=item3d3978fc08:g:6NAAAOSwhvFZAxND
p36
aVhttp://www.ebay.com/itm/Makita-DMR200-10-8-18v-LXT-Job-Site-Speaker-with-Bluetooth-Body-Only-/182411317921?epid=8003307006&hash=item2a788fd2a1:g:UAkAAOSw2xRYbgvw
p37
aVhttp://www.ebay.com/itm/Dunlop-On-Site-Combat-Cargo-Work-Trousers-Casual-Mens-Gents-/201478689616?var=&epid=1741908816&hash=item2ee910d350:m:mqlWSfSIiqGazcvwzn4mafA
p38
aVhttp://www.ebay.com/itm/SCRUFFS-EXECUTIVE-JACKET-Warm-Site-Fully-Wind-Waterproof-Mens-Work-Coat-/290984126009?var=&epid=1352553676&hash=item43c0016639:m:md4c3_YOmE9yRBEIjqTrCCA
p39
aVhttp://www.ebay.com/itm/Enfants-Garcons-Telecommande-Sans-Fil-RC-Tour-Grue-Construction-Site-/391759815728?hash=item5b36b46430:g:VW4AAOSwZVlXvVj6
p40
aVhttp://www.ebay.com/itm/DEFENDER-E712650-4Ft-Work-Site-Uplight-Light-Stick-110V-36W-and-Splitter-Base-/301791225112?epid=1744848358&hash=item464428a518:g:-7gAAOSwB09YQCv0
p41
aVhttp://www.ebay.com/itm/Playmobil-Summer-Fun-Camp-Site-with-LED-Fire-6888-NEW-/362006093459?epid=6003304008&hash=item54493e9e93:g:auAAAOSwstJZPn7e
p42
aVhttp://www.ebay.com/itm/Star-Realms-Card-Game-Promo-Breeding-Site-/382034217161?hash=item58f30388c9:g:AtIAAOSwuLZY54Lk
p43
aVhttp://www.ebay.com/itm/Dunlop-Mens-Gents-On-Site-Bottoms-Pants-Trousers-Brand-New-/390816442852?var=&epid=1141827404&hash=item5afe79a9e4:m:meZ-9fPugz09rc0Q8Z804bA
p44
aVhttp://www.ebay.com/itm/Construction-Site-Diggers-Trucks-Polycotton-Fabric-/400681154495?var=&hash=item5d4a7537bf:m:mNVUBeKOSlkjOyzQr7M18JA
p45
aVhttp://www.ebay.com/itm/Construction-Building-Site-Safety-Sign-Complete-Pack-/321935416186?hash=item4af4d89b7a:g:FFcAAOSwgyxWXFnd
p46
aVhttp://www.ebay.com/itm/IET-Wiring-Regulations-BS7671-9781849197694-On-site-Guide-9781849198875-2015-/122432321988?epid=209525068&hash=item1c8188f9c4:g:wigAAOSwDmBY5Krj
p47
aVhttp://www.ebay.com/itm/Dunlop-Mens-On-Site-Short-Safety-Trousers-Pants-Shorts-Bottoms-Pockets-/391022627391?var=&epid=1541540008&hash=item5b0ac3ca3f:m:mrdfgtdZhBtD0pC02yzDkCw
p48
aVhttp://www.ebay.com/itm/X-STREAM-propagator-complete-kit-WITH-T5-LIGHTS-40-site-HYDRO-/282344821745?epid=863364566&hash=item41bd1013f1:g:wtwAAOSw44BYkIqz
p49
aVhttp://www.ebay.com/itm/LASER-CUT-TIMBER-YARD-BUILDING-SITE-ACCESSORIES-HO-SCALE-MODEL-RAILWAY-LX049-HO-/301763842153?epid=1788952757&hash=item464286d069:g:h40AAOSwN81WDSQY
p50
aVhttp://www.ebay.com/itm/Helmet-visor-sticker-decal-sponsor-nickname-web-site-race-number-custom-/272626315289?epid=742052313&hash=item3f79cb7019:g:GckAAOSwCypWo9GE&vxp=mtr
p51
aVhttp://www.ebay.com/itm/Schneider-Thorsman-50W-LED-Site-Work-Light-with-PTP-Power-Take-Off-110V-IMT33112-/262147972597?epid=1846397371&hash=item3d093c9df5:g:5EgAAOSwT4lWSvEO
p52
aVhttp://www.ebay.com/itm/MAINS-HOOK-UP-LEAD-ADAPT-IT-CONVERSION-ADAPTOR-CAMPING-CARAVAN-SITE-ELECTRIC-/370601226602?epid=1919966392&hash=item56498df16a:g:gS0AAOSwQItUJSvV
p53
aVhttp://www.ebay.com/itm/Mens-Work-Belts-By-SITE-KING-Size-28-to-56-100-Black-Leather-Work-Casual-Belt-/391039020135?var=&epid=1856139151&hash=item5b0bbdec67:m:mYOpoLdFzqLwdqOYu953e5Q
p54
aVhttp://www.ebay.com/itm/Oligocene-Fissure-fill-fossil-Brooksville-2-site-Florida-Mammal-toe-and-claw-/351700490869?hash=item51e2fb9a75:g:nnsAAOSwiylXBN4t
p55
aVhttp://www.ebay.com/itm/Site-Research-Metal-Detecting-Book-FREE-P-P-/182490222792?hash=item2a7d43d0c8:g:kJAAAOSwCU1YyROE
p56
aVhttp://www.ebay.com/itm/DRAPER-EXPERT-1000L-MIN-7HP-FOUR-STROKE-PETROL-BUILDING-SITE-WATER-PUMP-80MM-/172578005474?epid=1505633693&hash=item282e7361e2:g:~2wAAOSwzgBYymD3
p57
aVhttp://www.ebay.com/itm/Egg-cups-hand-painted-Egg-site-your-Breakfast-Great-Fun-Gift-Boiled-Eggs-/282313370951?hash=item41bb302d47:g:D7UAAOSwAYtWOeaZ
p58
aVhttp://www.ebay.com/itm/Helmet-visor-sticker-decal-sponsor-nickname-web-site-race-number-custom-/272626315289?epid=742052313&hash=item3f79cb7019:g:GckAAOSwCypWo9GE&vxp=mtr
p59
aVhttp://www.ebay.com/itm/HARDCORE-BY-SCRUFFS-WORK-COMBAT-CARGO-SITE-TROUSERS-PANTS-BLACK-/291083896800?var=&epid=1555890435&hash=item43c5f3c7e0:m:mHLQXhwKAfisorQpIBpxStg
p60
aVhttp://www.ebay.com/itm/Playmobil-Summer-Fun-Camp-Site-with-LED-Fire-6888-NEW-/362006093459?epid=6003304008&hash=item54493e9e93:g:auAAAOSwstJZPn7e
p61
aVhttp://www.ebay.com/itm/Wordpress-Seo-2017-Optimize-Your-Wordpress-Site-for-Better-Rank-9781544023380-/332170706370?epid=236853568&hash=item4d56eabdc2:g:C74AAOSwCU1Y3u1f
p62
aVhttp://www.ebay.com/itm/Goodnight-Goodnight-Construction-Site-and-Steam-Train-Dream-Train-Boxed-Set-/391794615960?epid=214598392&hash=item5b38c76698:g:aL8AAOSw3ydV7GeD
p63
aVhttp://www.ebay.com/itm/1-50-SCALE-DIORAMA-CONSTRUCTION-SITE-DECALS-WARNING-STICKERS-FOR-JCB-Siku-Etc-/141784744260?epid=1648863300&hash=item2103078144:m:mBBptK763mI0xRm6QJH2-rg
p64
aVhttp://www.ebay.com/itm/TTCombat-City-Scenics-DCS020-Building-Site-Set-/351483598707?hash=item51d60e1773:g:EMEAAOSwQupXVuUk
p65
aVhttp://www.ebay.com/itm/IET-Wiring-Regulations-BS7671-9781849197694-On-site-Guide-9781849198875-2015-/112483734532?epid=209472333&hash=item1a308d9404:g:W58AAOSwWdZZY1ri
p66
aVhttp://www.ebay.com/itm/180-LED-Rechargeable-Cordless-Mobile-Portable-Work-Site-Flood-Light-Camping-Lamp-/292043153800?epid=590093291&hash=item43ff20e188:g:Up0AAOSw~AVYuDq1
p67
aVhttp://www.ebay.com/itm/Dunlop-Mens-On-Site-Trousers-Reinforced-Winter-Hardwearing-Bottoms-/351877933462?var=&epid=1194344193&hash=item51ed8f2996:m:m3jT8trl0PpI9vkUFVD9I2g
p68
aVhttp://www.ebay.com/itm/LASER-CUT-TIMBER-YARD-BUILDING-SITE-ACCESSORIES-HO-SCALE-MODEL-RAILWAY-LX049-HO-/301763842153?epid=1788952757&hash=item464286d069:g:h40AAOSwN81WDSQY
p69
aVhttp://www.ebay.com/itm/Dunlop-Mens-On-Site-Trousers-Reinforced-Winter-Hardwearing-Bottoms-/351877933462?var=&epid=1194344193&hash=item51ed8f2996:m:m3jT8trl0PpI9vkUFVD9I2g
p70
aVhttp://www.ebay.com/itm/Dewalt-DWST1-75663-18v-XR-Toughsystem-DAB-Digital-Site-Radio-Bluetooth-Charger-/311546304692?epid=1442214686&hash=item48899b58b4:g:3OYAAOSw-3FZN~Vl
p71
aVhttp://www.ebay.com/itm/LASER-CUT-TIMBER-YARD-BUILDING-SITE-ACCESSORIES-OO-SCALE-MODEL-RAILWAY-LX049-OO-/291578662763?epid=1588888873&hash=item43e3714f6b:g:h40AAOSwN81WDSQY
p72
aVhttp://www.ebay.com/itm/Web-Site-Design-Suite-Web-Builder-CSS-HTML-Editor-Bonus-Desktop-Publisher-PCCD-/320700455732?hash=item4aab3c9b34:g:ZKoAAMXQyY1TSZmT
p73
aVhttp://www.ebay.com/itm/Caravane-Site-energie-Montage-En-Surface-PRISE-240V-16A-Bleu-IP44-006427-/262808368043?hash=item3d309973ab:g:hBQAAOSwbiFZOllE
p74
aVhttp://www.ebay.com/itm/NEW-Ladybird-lift-the-flap-book-Busy-Building-Site-Board-book-140930857X-/152427895469?epid=97787891&hash=item237d691aad:g:hIMAAOSwUKxYmdoa
p75
aVhttp://www.ebay.com/itm/Silverline-LED-Rechargeable-Site-Light-with-USB-258999-/132021833602?epid=1437641315&hash=item1ebd1d4f82:g:3xUAAOSwnHZYQbVK
p76
a.