(lp1
Vhttp://www.ebay.com/itm/Calypso-Sun-Protection-Cooling-Effect-After-Sun-Gel-250ml-Cools-Soothes-Sunburn-/112434539631?epid=1862721901&hash=item1a2d9eec6f:g:IyEAAOSwPh5ZOBKZ
p2
aVhttp://www.ebay.com/itm/SKYLANDERS-SPYROS-ADVENTURE-FIGURES-GIANTS-TRAP-TEAM-SWAP-FORCE-SUPERCHARGE-/261811590103?var=&hash=item3cf52fd3d7:m:m4l5seDuAzF10crf4PQ9zyg
p3
aVhttp://www.ebay.com/itm/Fenistil-Gel-30g-Sunburn-Skin-Burn-Insects-Bites-Rash-Oparzenia-Fenistil-Zel-/272551307371?epid=1834455496&hash=item3f7552e86b:g:tWQAAOSwcUBYRKRO
p4
aVhttp://www.ebay.com/itm/GARNIER-AMBRE-SOLAIRE-AFTER-SOS-SUNBURN-BALM-300ML-/122541071770?var=&hash=item1c88045d9a:m:mh9jqgRpBhzuH8uW22hH1iw
p5
aVhttp://www.ebay.com/itm/Fenistil-Gel-30g-Sunburn-Skin-Burn-Insects-Bites-Rash-Oparzenia-Fenistil-Gel-/332291535434?epid=1834455496&hash=item4d5e1e724a:g:plUAAOSwIaFZMcVV
p6
aVhttp://www.ebay.com/itm/Aloe-Vera-Gel-500ml-Sunburn-Skin-Moisturiser-Natural-and-Pure-/112273012804?epid=568143236&hash=item1a23fe3844:g:b6sAAOSwaNBUbK3N
p7
aVhttp://www.ebay.com/itm/Aloe-Up-Ice-Sunburn-Relief-After-Sun-Jelly-120ml-/120782063992?epid=1612068404&hash=item1c1f2c0978:g:~XUAAOSwT5tWK1Hf
p8
aVhttp://www.ebay.com/itm/Skylanders-Spyros-Adventure-SUNBURN-Giants-Swap-Force-Trap-Team-Superchargers-/261820822652?hash=item3cf5bcb47c:g:4B4AAOSwdGFY3mE6
p9
aVhttp://www.ebay.com/itm/AFTER-SUN-TAN-EXTENDER-TANNING-LOTION-SUN-BURN-RELIEF-LOTION-ALOE-VERA-VITAMIN-E-/332299323608?hash=item4d5e9548d8:g:xiIAAOSwT5xZO80F
p10
aVhttp://www.ebay.com/itm/Skylanders-Spyros-Adventure-SUNBURN-CARD-Swap-Force-Trap-Team-Superchargers-/261721930625?hash=item3cefd7bb81:g:Uv8AAOSwzgBY3lu7
p11
aVhttp://www.ebay.com/itm/FARRAH-FAWCETT-AS-ELLIE-FROM-SUNBURN-8X10-PHOTO-/130445024960?epid=1888134169&hash=item1e5f211ec0:g:S1kAAOxynRRSRYoq
p12
aVhttp://www.ebay.com/itm/CALYPSO-SUN-BURN-RELIEF-ANTI-IRRITANT-SPRAY-100ml-NEW-COOLING-BITES-STINGS-/191632929625?epid=1640218241&hash=item2c9e367359:g:ttsAAOSwn9lXLIu5
p13
aVhttp://www.ebay.com/itm/Burncare-Hydrogel-Burn-Relief-Gel-Cooling-Relieve-Scalds-Sunburn-Multibuy-/282289021895?var=&hash=item41b9bca3c7:m:mLlIlU1F5YZHwkq2kGAwuZw
p14
aVhttp://www.ebay.com/itm/Soleve-Sunburn-Relief-Selling-3x-100ml-Tubes-These-come-as-a-cream-only-/122573381119?hash=item1c89f15dff:g:jRYAAOSwXY5ZVg4Q
p15
aVhttp://www.ebay.com/itm/GIRLS-PINK-MY-LITTLE-PONY-UNICORN-ANTI-SUNBURN-UV-SAFE-SWIMMING-COSTUME-OUTFIT-/352049009284?var=&epid=842620299&hash=item51f7c19284:m:mWmCc_RVg3ATtTsBYq5zkcA
p16
aVhttp://www.ebay.com/itm/Aloe-Vera-Cream-Moisturiser-Dry-Sunburn-Skin-Aromatherapy-Multiple-Sizes-/351202883099?var=&hash=item51c552b61b:m:mBuh9KrSH4yKLjpJ2c9EqYg
p17
aVhttp://www.ebay.com/itm/BurnSoothe-Pain-Relieving-Gel-3-5g-for-Burns-BurnScolds-or-Sunburn-Quantity-x-10-/330702384256?epid=853988277&hash=item4cff65ec80:g:3C8AAOSwuMFUgD3g
p18
aVhttp://www.ebay.com/itm/New-Skylanders-Spyros-Adventure-Dragons-Peak-Adventure-Pack-Sunburn-Official-/302133819617?hash=item46589438e1:g:01kAAOSwImRYI1Iu
p19
aVhttp://www.ebay.com/itm/Magicool-Plus-Sunburn-Cooling-Spray-150ml-/111085660523?epid=1305573903&hash=item19dd38a96b:g:WVsAAOSwPhdVAtgu
p20
aVhttp://www.ebay.com/itm/Dermoscent-SunFree-Sun-Cream-Lotion-for-cats-dogs-sunburn-white-ears-skin-cancer-/262509716189?var=&hash=item3d1ecc62dd:m:mMoEE9TFgG0C8np5GMCN1-g
p21
aVhttp://www.ebay.com/itm/Forever-Living-FLP-Aloe-Vera-Gelly-Calming-Soothing-Gel-Sunburn-Moisturising-/152600662017?var=&hash=item2387b55001:m:m80QCZym9VFLaSKdrUzsH6Q
p22
aVhttp://www.ebay.com/itm/Soleve-Sunburn-Relief-Selling-6x-100ml-Tubes-/122581856850?hash=item1c8a72b252:g:CVIAAOSwnK9ZW9vK
p23
aVhttp://www.ebay.com/itm/2x-Acriflex-Antiseptic-Cream-30g-For-Burns-Bites-Scalds-Blisters-Sunburn-/181294174285?hash=item2a35f9904d:g:rRwAAOSwTuJYuJzx
p24
aVhttp://www.ebay.com/itm/Special-Burns-First-Aid-Kit-in-Box-Burn-Care-Scalds-Sunburn-OFFER-/181758939007?epid=1338097480&hash=item2a51ad4f7f:g:3eMAAOSwpdpVZvHn
p25
aVhttp://www.ebay.com/itm/panthenol-spray-5-130g-sunburn-healing-skin-injuryn-of-all-types-/253051932804?hash=item3aeb121084:g:gC0AAOSw8d5ZURpB
p26
aVhttp://www.ebay.com/itm/2-x-Bottles-Burnshield-Hydrogel-Cooling-Burn-Gel-125ml-Sunburn-Scalds-Burns-/331721258968?epid=2025803211&hash=item4d3c20b7d8:g:f~kAAOSwwpdW3wTC
p27
aVhttp://www.ebay.com/itm/Reliburn-Burn-Gel-Sachet-treatment-for-Scalds-Sunburn-Catering-Garages-/263059460946?var=&epid=1840685549&hash=item3d3f90d352:m:mDq_i55Sh_-iK0v4b48TBog
p28
aVhttp://www.ebay.com/itm/Skylanders-Spyros-Adventure-SUNBURN-CARD-STICKER-Trap-Team-Superchargers-/261828073215?hash=item3cf62b56ff:g:scsAAOSwTM5Y3lz6
p29
aVhttp://www.ebay.com/itm/Lavender-Gel-Soothe-Sunburn-Skin-Headaches-Aromatherapy-Multiple-Sizes-/351202892760?var=&hash=item51c552dbd8:m:mqxZF2le_W2dlAhxSA6PuaA
p30
aVhttp://www.ebay.com/itm/Burnshield-Hydrogel-Burncare-Burn-Scalds-Sunburn-Protection-Relief-50ml-/231504480470?hash=item35e6be08d6:g:2~MAAOSwBahVAvml
p31
aVhttp://www.ebay.com/itm/Triangle-Sail-Sun-Shade-Garden-Patio-Party-Sunscreen-Awning-Canopy-Cords-Sunburn-/361585032289?var=&hash=item543025bc61:m:mrMOJ_Jyn9StiFyO830mDNg
p32
aVhttp://www.ebay.com/itm/2-X-Garnier-Ambre-Solaire-After-Sun-Pot-SOS-Sunburn-Balm-Lotion-300-ml-each-/252976141475?hash=item3ae68d94a3:g:JXsAAOSwgk1XF3EC
p33
aVhttp://www.ebay.com/itm/IKAROV-MACADAMIA-OIL-Anti-Age-Hypoallergenic-Aromatherapy-Sunburn-30-ml-/282512409662?epid=1423161101&hash=item41c70d443e:g:BcEAAOSwWxNYrvGE
p34
aVhttp://www.ebay.com/itm/Sunburn-Skylanders-Series-1-SA-Trap-Team-Swap-Force-Imaginators-All-Consoles-/291691826175?hash=item43ea300bff:g:U3MAAOSwzgRWzEak
p35
aVhttp://www.ebay.com/itm/Z-Gel-All-purpose-Soothing-Gel-Soothe-Cuts-Stress-Muscle-Irritated-Bites-Sunburn-/161783790330?epid=1805166474&hash=item25ab10bafa:g:G5UAAOxy3cJTfw4y
p36
aVhttp://www.ebay.com/itm/After-Sun-Gel-Jelly-Aloe-Ice-Sunburn-Relief-Gel-Restores-Moisture-Large-118ml-/251903327766?epid=1612068404&hash=item3aa69bbe16:g:TasAAOSw7aBVHj7g
p37
aVhttp://www.ebay.com/itm/Biafine-Act-Emulsion-French-8-Hr-Cream-Soothe-Sunburn-Skin-Irritation-139-5g-/112404970412?hash=item1a2bdbbbac:g:l9wAAOSwK6RZFbxL
p38
aVhttp://www.ebay.com/itm/E45-Cream-Treatment-For-Dry-Itching-Dry-Flaky-Skin-Eczema-Itchy-Skin-Sunburn-/291909614941?var=&hash=item43f72b3d5d:m:mtL1P3ZLr_BdkO9A90-D5BA
p39
aVhttp://www.ebay.com/itm/Magicool-Plus-Sunburn-Spray-150ml-/292136806462?epid=1305573903&hash=item4404b5e83e:g:tV4AAOSw0hlZMAPR
p40
aVhttp://www.ebay.com/itm/Brand-One-Moistureiser-For-Eczema-Dry-Skin-Psoriasis-Burns-Itching-Sunburn-/142436420227?hash=item2129df4a83:g:bqEAAOSwvjdZXPnO
p41
aVhttp://www.ebay.com/itm/New-Skylanders-Spyros-Adventure-Dragons-Peak-Adventure-Pack-Sunburn-Official-/302133819624?hash=item46589438e8:g:KZcAAOSw44BYI1Iw
p42
aVhttp://www.ebay.com/itm/BurnaidGel-for-Burns-Scolds-or-Sunburn-Quantity-x-10-/330719516044?hash=item4d006b558c:g:NvIAAOxy2CZTX4-D
p43
aVhttp://www.ebay.com/itm/Burn-Relief-Gel-Individual-Sachets-50ml-125ml-Bottle-Scalds-Sunburn-Minor-Burns-/170894094595?var=&epid=1617653545&hash=item27ca14f103:m:mPGpbAFEujkI9dgB1Gdomwg
p44
aVhttp://www.ebay.com/itm/Aloe-Vera-Gel-By-Naissance-Soothes-Sunburn-Irritated-Skin-Moisturizes-200g-/291991283452?epid=2125887307&hash=item43fc0966fc:g:SvAAAOSwZQRYbRVu
p45
aVhttp://www.ebay.com/itm/Pack-of-2-Burnshield-Hydrogel-Cooling-Burn-Gel-125ml-Sunburn-Scalds-etc-/151478458715?epid=1675442852&hash=item2344d1d95b:g:Y70AAOSw2XFUaIPf
p46
aVhttp://www.ebay.com/itm/Pure-Aloe-Vera-Skin-Gel-Stretch-Sunburn-Acne-Eczema-Psoriasis-Scar-Repair-/141754164397?epid=1341348077&hash=item210134e4ad:g:fTMAAOSw~gRV2MXz
p47
aVhttp://www.ebay.com/itm/Calypso-Sun-Burn-Relief-Anti-Irritant-Spray-/121346181063?epid=1107779209&hash=item1c40cbc7c7:g:3PAAAOSwm8VUrT6u
p48
aVhttp://www.ebay.com/itm/FUEL-Sunburn-Enhanced-CD-1998-USA-Import-EXC-Alt-Art-/272547537140?hash=item3f751960f4:g:w~cAAOSw241YmDqN
p49
aVhttp://www.ebay.com/itm/Fruit-Of-The-Earth-Aloe-Vera-100-Percent-Gel-For-Sunburn-12-Oz-/192059861573?epid=690239475&hash=item2cb7a8ea45:g:cAsAAOSwImRYXCIL
p50
aVhttp://www.ebay.com/itm/Sunburn-Relief-Healing-Antioxidant-Moisturising-Stretch-Marks-Aloe-Vera-Gel-/152482957143?hash=item2380b14757:g:dKQAAOSwax5Y088~
p51
aVhttp://www.ebay.com/itm/Burnshield-Dressing-Face-Mask-20cm-x-45cm-For-Burns-Sunburn-/370768734555?epid=1412675467&hash=item565389e95b:g:eioAAOSwRUhY-eVX
p52
aVhttp://www.ebay.com/itm/Rona-Ross-D-Panthanol-Skin-Sunburn-Repair-Spray-160ml-FREE-Express-P-P-/252372038999?epid=1153780785&hash=item3ac28bb557:g:swcAAOSwtO5XI0M2
p53
aVhttp://www.ebay.com/itm/B15-Prickly-Heat-Sunburn-Treatment-Spray-x-125ml-100-Pure-and-Natural-/390898193872?hash=item5b035915d0:g:-XkAAOSw~e5ZP8zO
p54
aVhttp://www.ebay.com/itm/Magicool-Plus-Sunburn-Spray-150ml-/152140999030?epid=1305573903&hash=item236c4f6976:g:le8AAOSwTM5YuG1s
p55
aVhttp://www.ebay.com/itm/Rona-Ross-Aloe-Vera-Daily-Moisturising-Sunburn-Gel-160ml-FREE-Express-P-P-/262488940030?epid=1258561068&hash=item3d1d8f5dfe:g:za0AAOSwvg9XZSad
p56
aVhttp://www.ebay.com/itm/Aloe-Up-Ice-After-Sun-Gel-Sunburn-Relief-Jelly-Large-118ml-Tube-twin-Pack-/251903334788?epid=1612068404&hash=item3aa69bd984:g:EJcAAOSwrklVHkEp
p57
aVhttp://www.ebay.com/itm/New-Skylanders-Spyros-Adventure-Dragons-Peak-Adventure-Pack-Sunburn-Official-/112199082990?epid=1200206018&hash=item1a1f9623ee:g:ekMAAOSwMVdYI1Iu
p58
aVhttp://www.ebay.com/itm/BurnSoothe-Hydrogel-Burncare-Burn-Scalds-Sunburn-Protection-Relief-125ml-/331125356944?hash=item4d189bf990:g:lq8AAOxyVLNS9mya
p59
aVhttp://www.ebay.com/itm/Sun-Wanna-Make-Love-Sun-Power-Sunburn-NEW-2CD-/391415060842?epid=1960326116&hash=item5b2227d96a:g:ojsAAOSwZ8ZW9QZu
p60
aVhttp://www.ebay.com/itm/MagicoolPlus-Sunburn-150ML-PLUS-1-FREE-75ML-handbag-size-MagicoolPlus-spray-/252838426278?var=&hash=item3ade5836a6:m:mNyUSxcXfvjS5xO3IT9p-Hw
p61
aVhttp://www.ebay.com/itm/FUEL-Sunburn-Enhanced-CD-1998-USA-Import-EXC-Alt-Art-/272547537140?hash=item3f751960f4:g:w~cAAOSw241YmDqN
p62
aVhttp://www.ebay.com/itm/Sunburn-Sun-Cream-Kit-Holiday-Travel-Plaster-First-Aid-/220714027066?hash=item336394c83a:m:mkuwPryQJxupbLxPC1kfNCA
p63
aVhttp://www.ebay.com/itm/FENISTIL-Gel-30g-Painful-Sunburn-Skin-Itch-Insects-Stings-Pruritic-Rash-/253051929246?epid=1834455496&hash=item3aeb12029e:g:f6oAAOSw7U5Y9pnr
p64
aVhttp://www.ebay.com/itm/Natural-Sulphur-Skin-Cream-Soap-for-Eczema-Acne-Rosacea-Psoriasis-Sunburn-/122389882031?var=&hash=item1c7f0164af:m:mTZcIkS-vMyo9havhicBJxA
p65
aVhttp://www.ebay.com/itm/Cream-Teas-Traffic-Jams-and-Sunburn-The-Great-British-Holiday-by-Brian-Viner-/360771943076?epid=113933052&hash=item53ffaefaa4:g:EdwAAOSwn9lXK-1R
p66
aVhttp://www.ebay.com/itm/BurnSoothe-Hydrogel-Burncare-Burn-Scalds-Sunburn-Protection-Relief-125ml-/331125356944?hash=item4d189bf990:g:lq8AAOxyVLNS9mya
p67
aVhttp://www.ebay.com/itm/Natural-Sulphur-Skin-Cream-50ml-for-Eczema-Acne-Rosacea-Psoriasis-Sunburn-/122389777129?epid=1561243956&hash=item1c7effcae9:g:dzsAAOSwCU1YwcU1
p68
aVhttp://www.ebay.com/itm/Care-Calamine-Lotion-Soothes-Sunburn-Other-Minor-Skin-Conditions-200ml-/222222200733?epid=1505259411&hash=item33bd79af9d:g:c5AAAOSwqWNZAJ1I
p69
aVhttp://www.ebay.com/itm/CALAMINE-LOTION-x-3-BOTTLES-FOR-SUNBURN-MINOR-SKIN-CONDITIONS-WITH-ZINC-OXIDE-/263069280056?hash=item3d4026a738:g:dO4AAOSw-YVXmil-
p70
aVhttp://www.ebay.com/itm/AV14-Vintage-1950s-Unburn-Sunburn-Cream-Advertisment-Poster-Print-A3-17-x12-/390367466175?var=&hash=item5ae3b6d2bf:m:mKH641sxsnIsROVCU2-Efzg
p71
aVhttp://www.ebay.com/itm/Sun-Sense-SunSense-Ultra-125ml-UVA-UVB-SPF-50-For-Sunburn-Sunscreen-Sunblock-/371706847188?epid=650833058&hash=item568b745fd4:g:sjcAAOxyQyJRlPwj
p72
aVhttp://www.ebay.com/itm/Green-Illite-Clay-Face-Mask-for-Dry-Oily-Skin-Restoring-Ph-balance-sunburn100g-/201394964841?epid=564440772&hash=item2ee4134969:g:4~EAAOSwd0BVtLv1
p73
aVhttp://www.ebay.com/itm/CALYPSO-SUN-BURN-RELIEF-100ML-INSTANT-COOLING-ANTI-IRRITANT-SPRAY-INSTANT-RELIFE-/401283055245?var=&epid=1640218241&hash=item5d6e557e8d:m:m3CwIgbfVP25bR2eycq_fFQ
p74
aVhttp://www.ebay.com/itm/2-x-500g-ZEROCREAM-EMOLLIENT-FOR-ECZEMA-DERMATITIS-SUNBURN-DRY-SKIN-MOISTURISER-/222491635935?epid=1212672410&hash=item33cd88f0df:g:-2sAAOSwhvFZA2-Y
p75
aVhttp://www.ebay.com/itm/HIGHLANDER-GREEN-COTTON-LEGIONNAIRES-SUN-HAT-WITH-NECK-FLAP-SUN-BURN-PROTECTION-/142342759961?var=&hash=item21244a2619:m:mFalUES85g2alAWznG7CBWQ
p76
aVhttp://www.ebay.com/itm/6-x-Calypso-Health-Care-Sun-Burn-Bite-Sting-Relief-Anti-Irritant-Spray-100ml-/263021213459?epid=1640218241&hash=item3d3d493713:g:OvEAAOSw9OFZNXZN
p77
aVhttp://www.ebay.com/itm/BEST-Burnshield-Hyrdogel-Cooling-Pain-Spray-For-Burns-Scalds-Sunburn-125ml-/122483102279?epid=2025803211&hash=item1c848fd247:g:uf0AAOSw4CFY5wJG
p78
aVhttp://www.ebay.com/itm/Burnshield-Hyrdogel-Burn-Spray-125ml-Pain-Relief-Instant-Cooling-Sunburn-UK-/222499271178?epid=841409182&hash=item33cdfd720a:g:kykAAOSw42dZC0pC
p79
aVhttp://www.ebay.com/itm/ALANTAN-PLUS-KREM-CREAM-SUN-BURN-NAPPY-RASH-Adults-Baby-Kids-UK-/332275610691?hash=item4d5d2b7443:g:zuEAAOSwuhhXXcGS
p80
aVhttp://www.ebay.com/itm/2x-Sun-Sense-Sunsense-Ultra-125ml-SPF-50-For-Sunburn-Sunscreen-Sunblock-/331858980140?epid=650833058&hash=item4d44562d2c:g:H9QAAOSwIzNXPIHp
p81
aVhttp://www.ebay.com/itm/JOAN-COLLINS-UNSIGNED-PHOTO-3739-BENIDORM-EMPIRE-OF-THE-ANTS-SUNBURN-/111991163195?hash=item1a1331893b:g:5HUAAOSwPv9XL8Ll
p82
aVhttp://www.ebay.com/itm/3-X-Bells-Calamine-Lotion-BP-Sunburn-Relief-Other-Skin-Conditions-300-ml-each-/252975573730?epid=1905284168&hash=item3ae684eae2:g:ejYAAOSw~bFWN5JZ
p83
aVhttp://www.ebay.com/itm/Barrier-Sunburn-Soother-250ml-Horse-Care-First-Aid-/162324265394?epid=1206259415&hash=item25cb47b9b2:g:fUMAAOSw241YVSYZ
p84
aVhttp://www.ebay.com/itm/Aloe-Vera-Plant-Stem-Skin-Medicinal-Cuts-Burns-Stings-Sunburn-Moisturiser-Care-/252941472893?epid=22004608023&hash=item3ae47c947d:g:Mx0AAOSwcLxYJ0F3
p85
aVhttp://www.ebay.com/itm/COMPACT-REUSABLE-HOT-COLD-PACK-SPRAINS-SWELLING-TOOTHACHE-SUNBURN-/152560022843?hash=item238549353b:g:v0QAAOSw9mFWMPCS
p86
aVhttp://www.ebay.com/itm/CLARINS-SOS-Sunburn-Soother-with-Mango-Butter-and-Shea-Butter-40mL-BNIB-/322551055655?epid=1804162613&hash=item4b198a8527:g:UGwAAOSw1WJZFbam
p87
aVhttp://www.ebay.com/itm/EcoGreen-SafeCare-Barrier-Cream-1kg-sweet-itch-rain-rash-mud-fever-sun-burn-/322570971689?hash=item4b1aba6a29:g:3W0AAOSwezVWzZZE
p88
aVhttp://www.ebay.com/itm/Aloe-Vera-Plant-Stem-Skin-Cuts-Burns-Stings-Sunburn-Moisturiser-Nutri-Juice-/252839962144?epid=21004342603&hash=item3ade6fa620:g:Mx0AAOSwcLxYJ0F3
p89
aVhttp://www.ebay.com/itm/Aloe-Pura-Gel-Body-Soothes-Natural-Organic-Dry-Sensitive-Skin-Sunburn-200ml-/161093061320?epid=1837516400&hash=item2581e50ac8:g:mbQAAOxyOalTYR-y
p90
aVhttp://www.ebay.com/itm/BURNS-HOMEOPATHY-CREAM-for-MINOR-BURNS-SCALDS-SUNBURN-BLISTERS-BITES-STINGS-/221869058143?var=&hash=item33a86d285f:m:mYKUj7UK5jAwULQCDRTHj_g
p91
aVhttp://www.ebay.com/itm/Spare-BODY-pieces-parts-for-Operation-game-2013-version-CHOOSE-/261870678721?var=&hash=item3cf8b572c1:m:mNptQyfW_oZxeyeUOj-YBIA
p92
aVhttp://www.ebay.com/itm/Burn-Gel-Products-First-Aid-Kit-Refill-Ideal-for-minor-burns-sunburn-scalds-/170781698911?hash=item27c361eb5f:g:XiQAAOxy7nNTVoJ~
p93
aVhttp://www.ebay.com/itm/Burnfree-3-5g-Sachet-59ml-or-118ml-Bottle-Reliefs-Burns-Scalds-Sunburn-/262281483160?var=&epid=1048490531&hash=item3d1131d398:m:mXQW9JRfy1BINFtcycgMwJQ
p94
aVhttp://www.ebay.com/itm/Aloe-Pura-Aloe-Vera-Lotion-with-Shea-Butter-Vitamin-E-200ml-DRY-SKIN-SUNBURN-/272457450475?epid=2116373880&hash=item3f6fbac3eb:g:MgsAAOSwu4BVwiu5
p95
aVhttp://www.ebay.com/itm/MagicoolPlus-Prickly-Heat-150ML-PLUS-1-FREE-75ML-handbag-size-MagicoolPlus-spray-/252838447678?var=&hash=item3ade588a3e:m:mtX0epn36fpFh5lL48TDnzg
p96
aVhttp://www.ebay.com/itm/BEST-Burnshield-Hyrdogel-Cooling-Pain-Relief-For-Burns-Scalds-Sunburn-50ml-/122483102270?epid=1905172518&hash=item1c848fd23e:g:nzUAAOSw4CFY5wGb
p97
aVhttp://www.ebay.com/itm/Aloe-Vera-house-Plant-baby-plant-medicinal-cuts-burns-stings-sunburn-6-to-10-cm-/111422394658?epid=1288629707&hash=item19f14ad122:g:9hkAAOSwFnFV~Hg1
p98
aVhttp://www.ebay.com/itm/Aloe-Vera-house-Plant-medicinal-cuts-burns-stings-sunburn-gift-idea-5-to-8-cm-/111596029938?epid=1488658115&hash=item19fba447f2:g:6vAAAOSwcu5US~g7
p99
aVhttp://www.ebay.com/itm/Burns-First-Aid-Kit-in-Soft-Red-Bag-Burn-Care-Scalds-Sunburn-OFFER-/181123578988?epid=1012715859&hash=item2a2bce7c6c:g:BWMAAOxyg7xSZ8O4
p100
aVhttp://www.ebay.com/itm/ergodyne-6717-safety-helmet-neck-sun-protector-CHILL-ITS-no-more-sun-burn-/262759776358?epid=1269622510&hash=item3d2db40066:g:K4QAAOSwSclXMIfk
p101
aVhttp://www.ebay.com/itm/6-10CM-Aloe-Vera-House-Plant-Skin-Cuts-Burns-Stings-Sunburn-Cooling-Medicinal-/252941473377?hash=item3ae47c9661:g:1r8AAOSw44BYJzMT
p102
aVhttp://www.ebay.com/itm/UVM-30A-Ultraviolet-Sensor-Module-Arduino-Raspberry-Pi-Sun-Burn-Flux-Workshop-/111961126773?hash=item1a11673775:g:RKAAAOSw-RRXBmPG
p103
aVhttp://www.ebay.com/itm/CALYPSO-ONCE-A-DAY-SUN-PROTECTION-SPF-20-SUN-BURN-RELIEF-100ml-MADE-IN-U-K-/262441765304?var=&hash=item3d1abf89b8:m:m8gm-vSZWsAXzmNmFOnSSbw
p104
aVhttp://www.ebay.com/itm/Keyes-Ultraviolet-Sensor-Module-KS-204-GUVA-S12SD-Sun-Burn-Arduino-Flux-Workshop-/122290949211?hash=item1c791bcc5b:g:ERIAAOSwEzxYZoRo
p105
aVhttp://www.ebay.com/itm/Sunburn-1511568801-/361551212465?epid=213393829&hash=item542e21afb1:g:nYQAAOSwiYFXLK~q
p106
aVhttp://www.ebay.com/itm/StableLine-Sunburn-Relief-Cream-x-100-Gm-Horse-Pony-First-Aid-Care-/151094899296?hash=item232df53260:g:MpIAAOSwEzxYa8wk
p107
aVhttp://www.ebay.com/itm/Brand-New-Horse-Pony-Barrier-Sunburn-Soother-250ml-/121769891070?epid=1206259415&hash=item1c5a0d14fe:g:BV4AAOSwuTxWBSkR
p108
aVhttp://www.ebay.com/itm/CALYPSO-SUN-PROTECTION-VARIETY-SKIN-HEALTH-CARE-SUN-LOTION-OIL-BRONZING-U-K-MADE-/262441724532?var=&hash=item3d1abeea74:m:mi7-SlhXvwb-vWFwf8k6qmg
p109
aVhttp://www.ebay.com/itm/Burnshield-Hyrdogel-Burn-Spray-Firs-Aid-Pain-Relief-Cooling-Skin-Sunburn-Scalds-/262481038695?epid=2025803211&hash=item3d1d16cd67:g:9wYAAOSwvg9XcThR
p110
aVhttp://www.ebay.com/itm/Aloe-Vera-Gel-for-Dry-Itchy-Skin-Sunburn-Eczema-Acne-Dandruff-8-oz-/322336894142?epid=2077118866&hash=item4b0cc6acbe:g:u64AAOSwiDFYNJip
p111
aVhttp://www.ebay.com/itm/MB-Games-Operation-Spare-Playing-Pieces-Body-Parts-Cards-3-Standard-Versions-/201523391921?var=&hash=item2eebbaedb1:m:mKwDUiV88eP1S2kFKVLBy1w
p112
aVhttp://www.ebay.com/itm/STABLELINE-SUNBURN-RELIEF-CREAM-EQUINE-HORSE-HORSE-CARE-FIRST-AID-/201365232849?var=&epid=1538312629&hash=item2ee24d9cd1:m:m_Q_Fpw9IxNT1-RbjWDrxzQ
p113
aVhttp://www.ebay.com/itm/Aloe-Vera-house-Plants-healthy-medicinal-cuts-burns-stings-sunburn-gift-idea-/121467305154?hash=item1c4803fcc2:g:FjcAAOSwnDZT6-NQ
p114
aVhttp://www.ebay.com/itm/BARRIER-SUNBURN-SOOTHER-EQUINE-HORSE-HORSE-CARE-FIRST-AID-/201485741826?var=&epid=1206259415&hash=item2ee97c6f02:m:mJ86k8VftS5jLJYsHM9cGnQ
p115
aVhttp://www.ebay.com/itm/3x-Sun-Sense-SunSense-Sensitive-Sunburn-Sunscreen-Protection-Lotion-SPF50-100g-/321370848477?epid=509897627&hash=item4ad331fcdd:g:~gcAAMXQ74JTPuNC
p116
aVhttp://www.ebay.com/itm/Burns-First-Aid-Kit-in-Eclipse-Box-Burn-Care-Scalds-Sunburn-OFFER-/171806182995?epid=1338097480&hash=item2800724e53:g:hSgAAOSwrklVZu7B
p117
aVhttp://www.ebay.com/itm/6-10CM-Aloe-Vera-House-Plants-Skin-Medicinal-Cuts-Burns-Stings-Sunburn-Care-/252941473921?hash=item3ae47c9881:g:1r8AAOSw44BYJzMT
p118
aVhttp://www.ebay.com/itm/CeraVe-Itch-Relief-Moisturizing-Cream-RELIEF-DRY-SKIN-INSECT-BITE-SUNBURN-/112075024380?epid=1679650889&hash=item1a183127fc:g:BP0AAOSwENxXmlN2
p119
aVhttp://www.ebay.com/itm/Burns-Relief-Gel-Dressing-10cm-x10cm-First-Aid-Cooling-Great-for-Sunburn-OFFER-/170720033821?epid=1808158392&hash=item27bfb4fc1d:g:knEAAMXQPatTGcDc
p120
aVhttp://www.ebay.com/itm/Aloe-Up-Spf-50-Pro-Sports-Sunscreen-Water-Resistant-With-After-Sun-Burn-Relief-/251873203644?epid=1072527717&hash=item3aa4d015bc:g:-AwAAOSwEeFU~iSe
p121
aVhttp://www.ebay.com/itm/ergodyne-6717-safety-helmet-neck-sun-protector-CHILL-ITS-no-more-sun-burn-/262759776358?epid=1269622510&hash=item3d2db40066:g:K4QAAOSwSclXMIfk
p122
aVhttp://www.ebay.com/itm/EcoGreen-SafeCare-Barrier-Cream-5kg-sweet-itch-rain-rash-mud-fever-sun-burn-/322573761231?hash=item4b1ae4facf:g:3W0AAOSwezVWzZZE
p123
aVhttp://www.ebay.com/itm/2-x-Savlon-Antiseptic-Cream-anti-Infection-First-Aid-Nappy-Rash-Sunburn-Cut-30g-/132261276022?epid=1805471595&hash=item1ecb62e976:g:kyIAAOSwvg9XbEI2
p124
aVhttp://www.ebay.com/itm/Burn-Gel-Burns-Scalds-or-Sunburn-10-Sachets-3-5g-/141513780620?epid=1288688085&hash=item20f2e0ed8c:g:-FsAAOSwF1dURQzd
p125
aVhttp://www.ebay.com/itm/1-x-Savlon-Antiseptic-Cream-anti-Infection-First-Aid-Nappy-Rash-Sunburn-Cut-30g-/132246399367?hash=item1eca7fe987:g:kyIAAOSwvg9XbEI2
p126
aVhttp://www.ebay.com/itm/EcoGreen-SafeCare-Barrier-Cream-2-5kg-sweet-itch-rain-rash-mud-fever-sun-burn-/322573759339?hash=item4b1ae4f36b:g:3W0AAOSwezVWzZZE
p127
aVhttp://www.ebay.com/itm/SKYLANDERS-GIANTS-ORIGINAL-SERIES-2012-DOG-TAG-YOU-CHOOSE-TAGS-1-44-FROM-MENU-/161630576338?var=&hash=item25a1eeded2:m:mANKjpwVDSJcf1Z-hG08spw
p128
a.