(lp1
Vhttp://www.ebay.com/itm/Loc8tor-Lite-Tracking-Device-Key-Finder-Find-your-lost-possessions-/322597078551?epid=1410513675&hash=item4b1c48c617:g:ZGgAAOSwe7BWxGys
p2
aVhttp://www.ebay.com/itm/Marantec-D302-D304-433Mhz-Garagentor-Tor-Fernbedienung-Duplikator-/262803003850?hash=item3d304799ca:g:WfEAAOSwHoFXp48F
p3
aVhttp://www.ebay.com/itm/Tor-Miller-American-English-NEW-CD-/311713911206?epid=1284180047&hash=item489398d1a6:g:T30AAOSwLnBX91SV
p4
aVhttp://www.ebay.com/itm/Loc8tor-Homing-Tag-Cases-pack-of-2-/152574095685?var=&hash=item23861ff145:m:mt-FtgXr_b0N_Zt5uKFep_A
p5
aVhttp://www.ebay.com/itm/FREELANDER-viscosa-Giunto-tor000010-vcu-NUOVO-ORIGINALE-GKN-OEM-/401315075343?hash=item5d703e150f:g:TcgAAOxyRhBSqZKo
p6
aVhttp://www.ebay.com/itm/Garagentor-Bolzen-Schlosser-fur-Extra-Sicherheit-Ein-Paar-Betrieben-Auf-Gleichen-/321594159492?hash=item4ae0817184:g:65AAAOSwnDxUb1qj
p7
aVhttp://www.ebay.com/itm/Garten-Ring-Tor-Tur-Riegel-Griff-Schwarz-Haus-Hof-Gates-Sicher-/263002990229?hash=item3d3c332695:g:k10AAOSw~XpZXPT9
p8
aVhttp://www.ebay.com/itm/BioTech-USA-CreaTor-120-Capsules-Pyruvate-Creatine-Crea-Tor-/152009055746?var=&epid=1239176919&hash=item2364721e02:m:mTbQcizE9lbaI5DgckBKjuQ
p9
aVhttp://www.ebay.com/itm/FREELANDER-1-VISCOUS-COUPLING-TOR000010-NEW-COMPLETE-WITH-SUPPORT-BEARINGS-/282510779989?epid=667877279&hash=item41c6f46655:g:aMkAAOSwIaFZNXjX&vxp=mtr
p10
aVhttp://www.ebay.com/itm/FREELANDER-VISCOKUPPLUNG-TOR000010-VCU-NEUE-ORIGINAL-GKN-OEM-/201906409365?epid=1778798546&hash=item2f028f4f95:g:TcgAAOxyRhBSqZKo
p11
aVhttp://www.ebay.com/itm/Marantec-D313-868Mhz-Garagentor-Tor-Fernbedienung-Ersatz-Duplikator-/262803008750?hash=item3d3047acee:g:elUAAOSwuhhXXZoF
p12
aVhttp://www.ebay.com/itm/Germany-2-Euro-Coin-2007-Commemorative-Letter-F-TOR-Rome-Treaty-New-BUNC-f-Roll-/172648510772?hash=item2832a73534:g:gqwAAOSwnHZYinHY
p13
aVhttp://www.ebay.com/itm/TOR-FUsBALL-TAPETE-GRUN-9723-BELGRAVIA-DEKOR-KINDER-JUNGEN-SCHLAFZIMMER-/192111535431?hash=item2cbabd6547:g:PEsAAOSw4CFY5zQL
p14
aVhttp://www.ebay.com/itm/GSM-Toroffner-Drahtloser-Turzugang-Gratis-Anruf-Fernbedienung-per-Telefon-Von-50-/322461953508?hash=item4b143aede4:g:QZgAAOSw2gxY1PeO
p15
aVhttp://www.ebay.com/itm/TOR-Embroidered-Patch-of-Popular-P2P-Network-/111235912100?epid=704127287&hash=item19e62d51a4:g:-xwAAOxyTjNSpyU4
p16
aVhttp://www.ebay.com/itm/BILTWELL-TORKER-GRIPS-FOR-7-8-INCH-HANDLEBARS-WHITE-GR-TOR-78-WT-/322520809531?epid=649769252&hash=item4b17bd003b:g:5mgAAOSwT-FZAgS8&vxp=mtr
p17
aVhttp://www.ebay.com/itm/FREELANDER-viscosa-Giunto-tor000010-vcu-NUOVO-ORIGINALE-GKN-OEM-/401315075343?hash=item5d703e150f:g:TcgAAOxyRhBSqZKo
p18
aVhttp://www.ebay.com/itm/Glastonbury-Tor-Metallic-Gold-Vinyl-Sticker-/302382392467?var=&hash=item4667652493:m:mTC2DhLYfROLXx6hH1z-h1g
p19
aVhttp://www.ebay.com/itm/Garagentor-Chamberlain-Liftmaster-Betreiber-Liftmaster-Innen-Wagen-/122120457980?hash=item1c6ef24efc:g:os4AAOxyZwpSUpQ8
p20
aVhttp://www.ebay.com/itm/The-RS-tor-a-riding-safety-aid-that-allows-the-rider-to-stay-safe-rstor-/162570934593?var=&hash=item25d9fb9941:m:mjj_hWEvMiNH5lLn84kvGYg
p21
aVhttp://www.ebay.com/itm/SEASALT-CORNWALL-Granite-Tor-Galley-Stone-Needle-cord-Skirt-Size-20-BNWT-/272546730391?hash=item3f750d1197:g:rrsAAOSw8w1X2wgw
p22
aVhttp://www.ebay.com/itm/Puppenhaus-Miniatur-Gartenmobel-Weiss-Holzernes-Laube-mit-Tor-Zaune-/381973829819?hash=item58ef6a18bb:g:f3YAAOSwbopZXyed
p23
aVhttp://www.ebay.com/itm/Belgium-2-Euro-Coin-2007-Commemorative-Rome-TOR-BUNC-new-From-Roll-/172642401541?hash=item283249fd05:g:xiIAAOSwt5hYhkEK
p24
aVhttp://www.ebay.com/itm/HIGHLANDER-SHINE-3W-CREE-WHITE-RED-LED-HEADLAMP-BRIGHT-TACTICAL-CAMPING-TORCH-/281500430968?epid=1342723394&hash=item418abbb278:g:gycAAOSwv1RUaeuA
p25
aVhttp://www.ebay.com/itm/TOR-Embroidered-Patch-of-Popular-P2P-Network-/111235912100?epid=704127287&hash=item19e62d51a4:g:-xwAAOxyTjNSpyU4
p26
aVhttp://www.ebay.com/itm/ENLARGER-EXTRA-PLEASURE-SAFE-CONDOMS-WITH-V-TOR-UK-FAST-SHIPPING-/222117423480?hash=item33b73ae978:g:CRYAAOSwvgdW51T4
p27
aVhttp://www.ebay.com/itm/Berner-BHS140-868Mhz-Garagentor-Tor-Fernbedienung-Ersatz-Duplikator-/252753182034?hash=item3ad9437d52:g:BekAAOSwZVlXqiad
p28
aVhttp://www.ebay.com/itm/Tor-The-Story-of-German-Football-Hesse-Uli-Paperback-Book-9780956101136-/131886974943?epid=176485661&hash=item1eb51387df:g:9VcAAOSwbsBXk9O1
p29
aVhttp://www.ebay.com/itm/BFT-TEO1-TEO2-TEO3-TEO4-Garagentor-Tor-Fernbedienung-Ersatz-Duplikator-/252719631662?hash=item3ad7438d2e:g:xUEAAOSwxp9W1q9o
p30
aVhttp://www.ebay.com/itm/Glastonbury-Tor-illustrated-on-2011-Stamp-Unmounted-Mint-/311581274405?hash=item488bb0f125:g:VyEAAOSwCU1Y1PkQ
p31
aVhttp://www.ebay.com/itm/DEVON-DARTMOOR-BRENT-TOR-VINTAGE-MOUNTED-PRINT-10-X-8-/160487975048?hash=item255dd42888:m:mNBi_5Wn_1bIfxZiezzgIzw
p32
aVhttp://www.ebay.com/itm/Replacement-by-Tor-Ulven-9781564787477-Paperback-2012-/252621572988?epid=112374047&hash=item3ad16b4b7c:g:Gk4AAOSwcUBYHYRv
p33
aVhttp://www.ebay.com/itm/Italy-2-Euro-Coin-2007-Commemorative-TOR-ROME-new-BUNC-from-Roll-/172619661719?hash=item2830ef0197:g:h7oAAOSwmgJY65MY
p34
aVhttp://www.ebay.com/itm/5x-Tor-Jet-Lighter-Windproof-Torch-Flame-Refillable-Electronic-Safety-Torjet-/252666798491?var=&hash=item3ad41d619b:m:mN-hxM5RZABnL3vE_ZM_67w
p35
aVhttp://www.ebay.com/itm/New-DITA-GRANDMASTER-FIVE-DRX-2077-A-GLD-TOR-64-Sunglasses-/222517095922?hash=item33cf0d6df2:g:Rf8AAOSwuMZZDL7a
p36
aVhttp://www.ebay.com/itm/FREELANDER-VISCOUS-COUPLING-TOR000010-VCU-NEW-ORIGINAL-GKN-OEM-/201701765184?epid=667877279&hash=item2ef65cb040:g:TcgAAOxyRhBSqZKo
p37
aVhttp://www.ebay.com/itm/Marantec-D302-D304-868Mhz-Garagentor-Tor-Fernbedienung-Ersatz-Duplikator-/252943835741?hash=item3ae4a0a25d:g:tZIAAOSwbYZXXXRP
p38
aVhttp://www.ebay.com/itm/GLASTONBURY-TOR-Horse-brass-N670-/262701790590?hash=item3d2a3f357e:g:rscAAOSwo4pYGbhZ
p39
aVhttp://www.ebay.com/itm/Neil-Young-Re-ac-tor-Remastered-CD-NEW-/302173848938?epid=181230554&hash=item465af7056a:g:k8cAAOSwImRYW~Z4
p40
aVhttp://www.ebay.com/itm/Greece-2-2-Euro-Coin-Commemorative-2007-TOR-BUNC-from-Roll-New-/172628051278?hash=item28316f054e:g:-MEAAOSwFe5X0egF
p41
aVhttp://www.ebay.com/itm/BENINCA-LOT2WMS-Garagentor-Tor-Fernbedienung-Ersatz-Duplikator-/252719631748?hash=item3ad7438d84:g:CA0AAOSwO~hXINv8
p42
aVhttp://www.ebay.com/itm/TAILS-Privacy-for-anyone-anywhere-16GB-USB-with-TOR-browser-Live-OS-on-USB-/322580995569?hash=item4b1b535df1:g:2Z8AAOSwCEdYT-r9
p43
aVhttp://www.ebay.com/itm/Tor-GP-Heat-Resistant-Resistant-Aluminium-Silver-RAL9006-Paint-1-Litre-1L-/262927803438?hash=item3d37b7e42e:g:8scAAOSwPWRZQ7VR
p44
aVhttp://www.ebay.com/itm/2-St-Edelstahl-100mm-Schlossriegel-Schubriegel-Bolzenriegel-Turriegel-Torriegel-/252973880565?hash=item3ae66b14f5:g:wCAAAOSw~oFXFgBN
p45
aVhttp://www.ebay.com/itm/Marantec-D302-D304-868Mhz-Garagentor-Tor-Fernbedienung-Ersatz-Duplikator-/252943835741?hash=item3ae4a0a25d:g:tZIAAOSwbYZXXXRP
p46
aVhttp://www.ebay.com/itm/2-in-1-KABELLOS-BEWEGUNGSMELDER-DETEKTOR-TUR-TOR-EINTRITT-BELL-KLINGEL-WARNTON-/302342720202?hash=item466507caca:g:pfgAAOSw8w1X2TXw
p47
aVhttp://www.ebay.com/itm/Squire-220-Alt-Englisch-Stahl-Allwetter-Vorhangeschloss-Tor-Garagen-Schuppen-/201255617957?epid=1418554949&hash=item2edbc505a5:g:aHUAAOxywh1TA48j
p48
aVhttp://www.ebay.com/itm/Ireland-2-Euro-Coin-2007-New-BUNC-TOR-Rome-Treaty-From-Roll-Commemorative-/172626797353?hash=item28315be329:g:8WEAAOSw~CFY8jJr
p49
aVhttp://www.ebay.com/itm/Glastonbury-Abbey-Tor-St-Joseph-Kapelle-Stadt-Alte-Fotos-/191564924346?hash=item2c9a28c5ba:g:8Q0AAOxy3HJTG1Oq
p50
a.