(lp1
Vhttp://www.ebay.com/itm/Final-Fantasy-Opus-2-TCG-Trading-Card-Game-Ice-Singles-/122411799371?var=&hash=item1c804fd34b:m:mbg6pCHqWuOroHbG0PiaDlw
p2
aVhttp://www.ebay.com/itm/Skyclad-CD-Album-A-Semblance-Of-Normality-Dreamcatcher-Demolition-DEMCD-New-/331674329657?epid=30890108&hash=item4d3954a239:g:eNwAAOSwv9hW2y-i
p3
aVhttp://www.ebay.com/itm/Final-Fantasy-Opus-2-TCG-Trading-Card-Game-Ice-Singles-/122411799371?var=&hash=item1c804fd34b:m:mbg6pCHqWuOroHbG0PiaDlw
p4
aVhttp://www.ebay.com/itm/Skyclad-CD-Album-A-Semblance-Of-Normality-Dreamcatcher-Demolition-DEMCD-New-/331674329657?epid=30890108&hash=item4d3954a239:g:eNwAAOSwv9hW2y-i
p5
aVhttp://www.ebay.com/itm/Skyclad-CD-Album-A-Semblance-Of-Normality-Dreamcatcher-Demolition-DEMCD-New-/311437842680?epid=30595596&hash=item48832458f8:g:0SYAAOSwaB5XvDoT
p6
aVhttp://www.ebay.com/itm/Final-Fantasy-Opus-2-TCG-Trading-Card-Game-Ice-Singles-/122411799371?var=&hash=item1c804fd34b:m:mbg6pCHqWuOroHbG0PiaDlw
p7
aVhttp://www.ebay.com/itm/Skyclad-CD-Album-A-Semblance-Of-Normality-Dreamcatcher-Demolition-DEMCD-New-/331674329657?epid=30890108&hash=item4d3954a239:g:eNwAAOSwv9hW2y-i
p8
aVhttp://www.ebay.com/itm/Skyclad-CD-Album-A-Semblance-Of-Normality-Dreamcatcher-Demolition-DEMCD-New-/311437842680?epid=30595596&hash=item48832458f8:g:0SYAAOSwaB5XvDoT
p9
a.