(lp0
Vhttps://www.amazon.co.uk/Martian-Matt-Damon/dp/B015YXHWEE/ref=sr_1_1/262-8624124-3172101?ie=UTF8&qid=1500121851&sr=8-1&keywords=Martian
p1
aVhttps://www.amazon.co.uk/Martian-DVD-Matt-Damon/dp/B015Q04ET6/ref=sr_1_2/262-8624124-3172101?ie=UTF8&qid=1500121851&sr=8-2&keywords=Martian
p2
aVhttps://www.amazon.co.uk/Martian-Andy-Weir/dp/1785031139/ref=sr_1_3/262-8624124-3172101?ie=UTF8&qid=1500121851&sr=8-3&keywords=Martian
p3
aVhttps://www.amazon.co.uk/Martian-Extended-Matt-Damon/dp/B01N3YJHF9/ref=sr_1_4/262-8624124-3172101?ie=UTF8&qid=1500121851&sr=8-4&keywords=Martian
p4
aVhttps://www.amazon.co.uk/Martian-Chronicles-DVD-Rock-Hudson/dp/B003MVXH6I/ref=sr_1_5/262-8624124-3172101?ie=UTF8&qid=1500121851&sr=8-5&keywords=Martian
p5
aVhttps://www.amazon.co.uk/Interstellar-Matthew-Mcconaughey/dp/B00UI9XSRA/ref=sr_1_6/262-8624124-3172101?ie=UTF8&qid=1500121851&sr=8-6&keywords=Martian
p6
aVhttps://www.amazon.co.uk/d/Amazon-Video/Martian-Nils-Skap%C4%81ns/B01L9TJWVS/ref=sr_1_7/262-8624124-3172101?ie=UTF8&qid=1500121851&sr=8-7&keywords=Martian
p7
aVhttps://www.amazon.co.uk/Martian-Odyssey-Stanley-Weinbaum-Illustrated/dp/1520628994/ref=sr_1_8/262-8624124-3172101?ie=UTF8&qid=1500121851&sr=8-8&keywords=Martian
p8
aVhttps://www.amazon.co.uk/Martian-MN200BBB-Notifer-Fashion-Smartwatch/dp/B00IGJ67R2/ref=sr_1_9/262-8624124-3172101?ie=UTF8&qid=1500121851&sr=8-9&keywords=Martian
p9
aVhttps://www.amazon.co.uk/Revenant-Blu-ray-Digital-Copy-UV/dp/B01A5OF28U/ref=sr_1_10/262-8624124-3172101?ie=UTF8&qid=1500121851&sr=8-10&keywords=Martian
p10
aVhttps://www.amazon.co.uk/MARTIAN-EXTENDED-EDITION/dp/B01ELI9EEE/ref=sr_1_11/262-8624124-3172101?ie=UTF8&qid=1500121851&sr=8-11&keywords=Martian
p11
aVhttps://www.amazon.co.uk/d/Amazon-Video/Imitation-Game-Benedict-Cumberbatch/B00U9SAYKO/ref=sr_1_12/262-8624124-3172101?ie=UTF8&qid=1500121851&sr=8-12&keywords=Martian
p12
aVhttps://www.amazon.co.uk/Martian-Deluxe-Soundtrack-Various-Artists/dp/B01604Z00O/ref=sr_1_13/262-8624124-3172101?ie=UTF8&qid=1500121851&sr=8-13&keywords=Martian
p13
aVhttps://www.amazon.co.uk/d/Books/Martian-Thorndike-Press-Large-Print-Thriller-Hardcover/B011T6W1CS/ref=sr_1_14/262-8624124-3172101?ie=UTF8&qid=1500121851&sr=8-14&keywords=Martian
p14
aVhttps://www.amazon.co.uk/Interstellar-DVD-Matthew-McConaughey/dp/B00EXPOCBG/ref=sr_1_15/262-8624124-3172101?ie=UTF8&qid=1500121851&sr=8-15&keywords=Martian
p15
aVhttps://www.amazon.co.uk/Martians-Kim-Stanley-Robinson/dp/0006497020/ref=sr_1_16/262-8624124-3172101?ie=UTF8&qid=1500121851&sr=8-16&keywords=Martian
p16
aVhttps://www.amazon.co.uk/Martian-Notifier-Protector-BoxWave-ClearTouch/dp/B016R5CE64/ref=sr_1_17/262-8624124-3172101?ie=UTF8&qid=1500121855&sr=8-17&keywords=Martian
p17
aVhttps://www.amazon.co.uk/Oblivion-Tom-Cruise/dp/B00IK92RJU/ref=sr_1_18/262-8624124-3172101?ie=UTF8&qid=1500121855&sr=8-18&keywords=Martian
p18
aVhttps://www.amazon.co.uk/Martian-Time-Slip-S-F-MASTERWORKS-Philip/dp/185798837X/ref=sr_1_19/262-8624124-3172101?ie=UTF8&qid=1500121855&sr=8-19&keywords=Martian
p19
aVhttps://www.amazon.co.uk/d/Digital-Music/Martian-Original-Motion-Picture-Score-Harry-Gregson-Williams/B015ZMX7IY/ref=sr_1_20/262-8624124-3172101?ie=UTF8&qid=1500121855&sr=8-20&keywords=Martian
p20
aVhttps://www.amazon.co.uk/d/DVD-Blu-ray/Bridge-Spies-DVD-Tom-Hanks/B01879BXBK/ref=sr_1_21/262-8624124-3172101?ie=UTF8&qid=1500121855&sr=8-21&keywords=Martian
p21
aVhttps://www.amazon.co.uk/Martian-Child-DVD-John-Cusack/dp/B0010VXMUI/ref=sr_1_22/262-8624124-3172101?ie=UTF8&qid=1500121855&sr=8-22&keywords=Martian
p22
aVhttps://www.amazon.co.uk/Martian-Young-Readers-Andy-Weir/dp/1785034677/ref=sr_1_23/262-8624124-3172101?ie=UTF8&qid=1500121855&sr=8-23&keywords=Martian
p23
aVhttps://www.amazon.co.uk/Legend-Tom-Hardy/dp/B016IQHPI4/ref=sr_1_24/262-8624124-3172101?ie=UTF8&qid=1500121855&sr=8-24&keywords=Martian
p24
aVhttps://www.amazon.co.uk/DC-Comics-NOV160374-Supergirl-Manhunter/dp/B01IFM5BO4/ref=sr_1_25/262-8624124-3172101?ie=UTF8&qid=1500121855&sr=8-25&keywords=Martian
p25
aVhttps://www.amazon.co.uk/Pop-Art-Products-24131-CUFFLINKS/dp/B00AOKWTPU/ref=sr_1_26/262-8624124-3172101?ie=UTF8&qid=1500121855&sr=8-26&keywords=Martian
p26
aVhttps://www.amazon.co.uk/Martian-Manhunter-TP-Vol-2/dp/1401265324/ref=sr_1_27/262-8624124-3172101?ie=UTF8&qid=1500121855&sr=8-27&keywords=Martian
p27
aVhttps://www.amazon.co.uk/Gravity-DVD-Sandra-Bullock/dp/B00DY649UO/ref=sr_1_28/262-8624124-3172101?ie=UTF8&qid=1500121855&sr=8-28&keywords=Martian
p28
aVhttps://www.amazon.co.uk/d/Amazon-Video/Gravity-Sandra-Bullock/B00IHRZOC2/ref=sr_1_29/262-8624124-3172101?ie=UTF8&qid=1500121855&sr=8-29&keywords=Martian
p29
aVhttps://www.amazon.co.uk/Martian-War-DVD-Scott-Wheeler/dp/B011IH7QV4/ref=sr_1_30/262-8624124-3172101?ie=UTF8&qid=1500121855&sr=8-30&keywords=Martian
p30
aVhttps://www.amazon.co.uk/Looney-Tunes-Jim-Shore-Conqueror/dp/B01HAYCWJK/ref=sr_1_31/262-8624124-3172101?ie=UTF8&qid=1500121855&sr=8-31&keywords=Martian
p31
aVhttps://www.amazon.co.uk/Favorite-Martian-DVD-Christopher-Lloyd/dp/B00004D0CC/ref=sr_1_32/262-8624124-3172101?ie=UTF8&qid=1500121855&sr=8-32&keywords=Martian
p32
a.