(lp0
Vhttp://www.ebay.com/itm/Vorverlegte-Rastenanlage-Fusrastenanlage-fur-Kawasaki-VN800-Vulcan-800-95-06-/132068478331?hash=item1ebfe50d7b:g:3LAAAOSw2xRYfxOR&vxp=mtr
p1
aVhttp://www.ebay.com/itm/S-KAWASAKI-VULCAN-VN-750-LEATHER-TANK-Cover-Pad-Strap-Chap-Panel-Bra-Bib-/181468605096?fits=Model%3AVulcan+750&hash=item2a405f2aa8:g:sT0AAOSwv0tVGQfs&vxp=mtr
p2
aVhttp://www.ebay.com/itm/Kawasaki-Vulcan-S-2015-2017-R-G-racing-black-cotton-reels-paddock-stand-bobbins-/311477309753?epid=1123006534&hash=item48857e9139:g:wTgAAOSw7aBVJp1e&vxp=mtr
p3
aVhttp://www.ebay.com/itm/Kawasaki-Vulcan-S650-15-Stick-Fit-Extenda-Fenda-SF-053446-/191757173207?hash=item2ca59e41d7:g:m6oAAOSwfZ1WaaUf&vxp=mtr
p4
aVhttp://www.ebay.com/itm/KAWASAKI-VN-800-Vulcan-classic-drifter-95-YSS-Top-Line-Monoshock-/400723845797?hash=item5d4d00a2a5:g:Fu4AAMXQyFFTldRs&vxp=mtr
p5
aVhttp://www.ebay.com/itm/KAWASAKI-VN-800-VULCAN-CLASSIC-Chrome-Slash-Cut-Exhaust-System-Pipes-654-800C-/131976078796?epid=1995708925&hash=item1eba6325cc:g:ta0AAOSwzaJYB66K&vxp=mtr
p6
aVhttp://www.ebay.com/itm/Full-2-1-Exhaust-System-Round-200mm-Stainless-Silencer-Vulcan-S-EN650A-2015-2017-/271890858195?hash=item3f4df540d3:g:o2UAAOSwgmJXxyoM&vxp=mtr
p7
aVhttp://www.ebay.com/itm/Kawasaki-Vulcan-VN-750-800-900-1700-1600-Mean-Streak-2000-Nomad-Eagle-Badge-Pin-/201018492720?epid=708207243&hash=item2ecda2c730:g:GrEAAOSwd4tTuHgk&vxp=mtr
p8
aVhttp://www.ebay.com/itm/Noir-Forward-Controls-Commandes-Avancees-Pr-Kawasaki-VN-800-Vulcan-1995-2006-/262863131977?hash=item3d33dd1549:g:E5oAAOSwuYVWnIY~&vxp=mtr
p9
aVhttp://www.ebay.com/itm/VN800-B2-Vulcan-Classic-1997-Brake-Caliper-Front-R-H-Seals-/301207418341?hash=item46215c75e5:g:MHUAAOxy~g5RvyM5&vxp=mtr
p10
aVhttp://www.ebay.com/itm/KAWASAKI-VN-800-VULCAN-HIGHWAY-CRASH-BAR-ENGINE-GUARD-PROTECTOR-BUILT-IN-PEGS-/132255522822?hash=item1ecb0b2006:g:~i0AAOSwAYtWQWkH&vxp=mtr
p11
aVhttp://www.ebay.com/itm/KAWASAKI-VN900-VULCAN-VN-900-STAINLESS-ENGINE-BAR-GUARD-CRASH-BARS-WITH-PEGS-/191135417488?hash=item2c808f0490:g:0nkAAOSwxN5WXWar&vxp=mtr
p12
aVhttp://www.ebay.com/itm/KAWASAKI-VULCAN-VN-800-EN-500-LEATHER-TANK-Cover-Pad-Strap-Panel-Bra-Bib-Chap-/200969754797?epid=1425229119&hash=item2ecabb18ad:g:iKkAAOSwmtJXXDc0&vxp=mtr
p13
aVhttp://www.ebay.com/itm/Pair-Chrome-Rear-Axle-Frame-Covers-Kawasaki-VN900-Vulcan-Classic-Custom-/251983737652?epid=1605401833&hash=item3aab66b334:g:-tsAAOSwZd1VcKHZ&vxp=mtr
p14
aVhttp://www.ebay.com/itm/Forward-Controls-Commandes-Avancees-Pr-Kawasaki-VN-800-Vulcan-1995-2006-/252527846472?hash=item3acbd52448:g:yiQAAOSwX~dWnIao&vxp=mtr
p15
aVhttp://www.ebay.com/itm/Pair-Chrome-Rear-Axle-Frame-Covers-Kawasaki-VN900-Vulcan-Classic-Custom-/251983737652?epid=1605401833&hash=item3aab66b334:g:-tsAAOSwZd1VcKHZ&vxp=mtr
p16
aVhttp://www.ebay.com/itm/Kawasaki-VN800-A-Vulcan-95-99-Fork-seals-Dust-seals-/232278008129?hash=item3614d92141:g:EfwAAOSwOgdY0I8M&vxp=mtr
p17
aVhttp://www.ebay.com/itm/VN1500-KAWASAKI-VULCAN-CLASSIC-NOMAD-SKULL-STAINLESS-RADIATOR-GRILL-GUARD-COVER-/182058019108?hash=item2a6380e924:g:t2IAAOSwE99W6xhr&vxp=mtr
p18
aVhttp://www.ebay.com/itm/KAWASAKI-VN900-VULCAN-SKULL-BLACK-MATT-RADIATOR-GRILL-GUARD-COVER-/182601417085?hash=item2a83e4817d:g:ABYAAOSw-3FZL-i2&vxp=mtr
p19
aVhttp://www.ebay.com/itm/Kawasaki-Vulcan-650-S-JMP-5-Stage-Open-End-22mm-Heated-Grips-/331993174994?epid=1107746981&hash=item4d4c55d3d2:g:-3cAAOSwxu5ZMUZt&vxp=mtr
p20
aVhttp://www.ebay.com/itm/KAWASAKI-VN-1500-VULCAN-LEATHER-TANK-Cover-Pad-Strap-Chap-Panel-Bra-Bib-/191414235110?epid=1928573913&hash=item2c912d6fe6:g:bBwAAOxyyq5TMBg7&vxp=mtr
p21
aVhttp://www.ebay.com/itm/KAWASAKI-VN1500-VULCAN-CLASSIC-NOMAD-TOTENKOPF-EDELSTAHL-KUHLERGRILL-ABDECKUNG-/182310929093?hash=item2a729402c5:g:DsMAAOSwCGVX~X0k&vxp=mtr
p22
aVhttp://www.ebay.com/itm/Kawasaki-Vulcan-S-2015-2017-R-G-racing-tail-tidy-licence-plate-holder-bracket-/311549480493?epid=1649242556&hash=item4889cbce2d:g:eN0AAOSwbiFZQ9ps&vxp=mtr
p23
aVhttp://www.ebay.com/itm/377-KAWASAKI-VULCAN-CLASSIC-BIKER-EMBROIDERED-IRON-ON-SEW-ON-PATCH-/281961297625?hash=item41a633f6d9:g:Y4cAAOSwMNxXZrRE
p24
aVhttp://www.ebay.com/itm/KN-AIR-FILTER-KA-9006-FOR-KAWASAKI-VN900-VULCAN-CLASSIC-LT-CUSTOM-2006-2014-/390895280684?epid=1210313838&hash=item5b032ca22c:g:IxYAAOSwGzlTtXG2&vxp=mtr
p25
aVhttp://www.ebay.com/itm/The-Vulcan-Spirit-Of-Woodford-DVD-2007-New-Item-/301943215792?epid=59505554&hash=item464d37d6b0:m:mK408fDVEd13hak4w2xjKow
p26
aVhttp://www.ebay.com/itm/R-G-Kawasaki-Vulcan-S-Tail-Tidy-Motorcycle-Number-Plate-Holder-/182121323812?epid=1649242556&hash=item2a6746dd24:g:hnoAAOSwkRhZWlPX&vxp=mtr
p27
aVhttp://www.ebay.com/itm/Kawasaki-Vulcan-S-2015-2016-R-G-racing-white-cotton-reels-bobbins-/271225735423?epid=1648614675&hash=item3f265048ff:g:FScAAOSwv0tVJ9gP&vxp=mtr
p28
aVhttp://www.ebay.com/itm/KAWASAKI-VN-1600-VULCAN-CLASSIC-2002-07-MIRROR-STAINLESS-STEEL-TOP-YOKE-COVER-/152596498929?hash=item238775c9f1:g:PbsAAMXQ9MVRgBF2&vxp=mtr
p29
aVhttp://www.ebay.com/itm/KAWASAKI-VN-2000-VN2000-VULCAN-CLASSIC-CHROME-RADIATOR-COVER-GRILL-GUARD-EAGLE-/262980683166?epid=866069910&hash=item3d3adec59e:g:a4IAAOSwfRdZFQTy&vxp=mtr
p30
aVhttp://www.ebay.com/itm/KAWASAKI-VULCAN-VN900-Sturzbugel-Hinten-Satteltasche-Schutz-Protektoren-/201697806421?hash=item2ef6204855:g:gR0AAOSwgHZYDCAk&vxp=mtr
p31
aVhttp://www.ebay.com/itm/Kawasaki-EN650-Vulcan-S-2015-to-2016-EBC-Sinter-Bremsbelage-Vorne-FA281HH-/272612401096?epid=2117468086&hash=item3f78f71fc8:g:mZoAAOSwDmBY3Qrx&vxp=mtr
p32
aVhttp://www.ebay.com/itm/K-N-Air-Filter-Motorcycle-Air-Filter-Kawasaki-VN750-Vulcan-1986-2006-KA-7586-/171668462083?epid=0&hash=item27f83cda03:g:YV8AAOSwk1JWhCje&vxp=mtr
p33
aVhttp://www.ebay.com/itm/Kawasaki-VN750-A-Vulcan-86-02-Fork-seals-Dust-seals-/232278007867?hash=item3614d9203b:g:LvUAAOSw4A5Y0I8E&vxp=mtr
p34
aVhttp://www.ebay.com/itm/SP-VN2000-KAWASAKI-VULCAN-VN-2000-STAINLESS-ENGINE-GUARD-CRASH-BAR-WITH-PEGS-/201064709049?hash=item2ed063fbb9:g:s7oAAOSw9mFWIRNA&vxp=mtr
p35
aVhttp://www.ebay.com/itm/Kawasaki-650-S-Vulcan-15-AFAM-Quiet-Chain-Sprocket-Kit-/132230520356?hash=item1ec98d9e24:g:Bn8AAOSwgv5ZRW6M&vxp=mtr
p36
aVhttp://www.ebay.com/itm/KAWASAKI-VN800-VULCAN-HIGHWAY-ENGINE-GUARD-CRASH-BARS-WITH-PEGS-STAINLESS-/191135430252?hash=item2c808f366c:g:1jYAAOSwjDZYkmGP&vxp=mtr
p37
aVhttp://www.ebay.com/itm/KAWASAKI-VN800-VULCAN-HIGHWAY-ENGINE-GUARD-CRASH-BARS-WITH-PEGS-STAINLESS-/191135430252?hash=item2c808f366c:g:1jYAAOSwjDZYkmGP&vxp=mtr
p38
aVhttp://www.ebay.com/itm/Kawasaki-Vulcan-VN-900-Custom-Classic-Black-Engine-Guard-Highway-Crash-Bars-/191749228332?hash=item2ca525072c:g:r-sAAOSw8-tWW2Mr&vxp=mtr
p39
aVhttp://www.ebay.com/itm/The-Vulcan-Story-by-Peter-R-March-BRAND-NEW-BOOK-Hardback-2006-/252941020019?epid=88089263&hash=item3ae475ab73:g:efwAAOSwuLZY5fX~
p40
aVhttp://www.ebay.com/itm/CORGI-SHOWCASE-CS90617-AVRO-VULCAN-DIECAST-MODEL-AIRCRAFT-/311811978683?epid=1373185412&hash=item48997135bb:g:WYMAAOSw2gxYrazI
p41
aVhttp://www.ebay.com/itm/Plugs-Air-filter-Oil-filter-for-KAWASAKI-VN-VN800-Vulcan-Drifter-1995-to-02-/301786607731?epid=679057555&hash=item4643e23073:g:gwcAAOxydlFTAj7-&vxp=mtr
p42
aVhttp://www.ebay.com/itm/KAWASAKI-VN-1500-VULCAN-NOMAD-99-04-STAINLESS-STEEL-RADIATOR-GRILL-GUARD-COVER-/201179155963?epid=1376795712&hash=item2ed7364dfb:g:SDAAAOSwDN1UQRZv&vxp=mtr
p43
aVhttp://www.ebay.com/itm/Chrome-Neck-Covers-2-for-Kawasaki-VN900-Vulcan-Classic-Show-Chrome-71-325-/252691490596?epid=1764636877&hash=item3ad5962724:g:MXYAAOSw241YWsVn&vxp=mtr
p44
aVhttp://www.ebay.com/itm/Fork-Oil-Seals-Dust-Seals-Kawasaki-VN750-A-Vulcan-86-02-/172378714297?hash=item28229270b9:g:JkIAAOSw8w1YBXfW&vxp=mtr
p45
aVhttp://www.ebay.com/itm/KAWASAKI-VULCAN-VN1600-vn-1600-LEATHER-TANK-Cover-Pad-Strap-Chap-Panel-Bra-Bib-/200958566726?epid=1662387005&hash=item2eca106146:g:TfEAAOSwPhdVO2Bt&vxp=mtr
p46
aVhttp://www.ebay.com/itm/STAR-TREK-T-SHIRT-Trekkie-spoke-bones-sheldon-vulcan-Quality-T-Shirt-NEW-/281018980256?var=&hash=item416e0957a0:m:mMQzhT_ZFToGsx7ijnzAPDA
p47
aVhttp://www.ebay.com/itm/ROYAL-AIR-FORCE-44-SQUADRON-VULCAN-PATCH-/222556606125?hash=item33d1684ead:g:zTYAAOSwUKxYe31a
p48
aVhttp://www.ebay.com/itm/KAWASAKI-VN900-VULCAN-TOTENKOPF-SCHADEL-EDELSTAHL-KUHLERGRILL-ABDECKUNG-WACHE-/182310876969?hash=item2a72933729:g:sFgAAOSw6DtYRU-2&vxp=mtr
p49
aVhttp://www.ebay.com/itm/KAWASAKI-VN900-VULCAN-TOTENKOPF-SCHADEL-EDELSTAHL-KUHLERGRILL-ABDECKUNG-WACHE-/182310876969?hash=item2a72933729:g:sFgAAOSw6DtYRU-2&vxp=mtr
p50
aVhttp://www.ebay.com/itm/KAWASAKI-VN800-VULCAN-DRIFTER-95-06-TOTENKOPF-EDELSTAHL-KUHLERGRILL-ABDECKUNG-/182310908654?epid=1832465915&hash=item2a7293b2ee:g:kLkAAOSwpLNX~XkO&vxp=mtr
p51
aVhttp://www.ebay.com/itm/R-G-Racing-Motorcycle-Radiator-Guard-Black-Kawasaki-2015-EN650-Vulcan-S-/311868029108?hash=item489cc878b4:g:aNYAAOSw8HBZEqzw&vxp=mtr
p52
aVhttp://www.ebay.com/itm/VN800-KAWASAKI-VN-800-VULCAN-DRIFTER-95-06-STAINLESS-RADIATOR-GRILL-GUARD-COVER-/201241426274?hash=item2edaec7962:g:lBIAAOSwQiRUl~x5&vxp=mtr
p53
aVhttp://www.ebay.com/itm/Black-Lextek-Paddock-Stand-Bobbins-M10-x-1-25mm-for-Kawasaki-VN650-Vulcan-S-2016-/381849960283?epid=1877092307&hash=item58e807ff5b:g:nN4AAOSwo4pYKxum&vxp=mtr
p54
aVhttp://www.ebay.com/itm/Avro-Vulcan-Manual-Book-by-Blackman-Tony-Hardback-/272557184716?epid=221185190&hash=item3f75ac96cc:g:NPwAAOSwCU1Y1t8X
p55
aVhttp://www.ebay.com/itm/Petrol-Fuel-tank-valve-switch-tap-Petcock-Assembly-KAWASAKI-VN-750-VULCAN-/322539393492?epid=788877745&hash=item4b18d891d4:g:0cMAAOSwcdRY9PYf&vxp=mtr
p56
aVhttp://www.ebay.com/itm/Motorcycle-Battery-Kawasaki-EN-500-A-Vulcan-90-96-/390517569325?hash=item5aeca9372d:m:mgiv-j5AYwlPVlQpudU7JpA&vxp=mtr
p57
aVhttp://www.ebay.com/itm/377-KAWASAKI-VULCAN-CLASSIQUE-MOTARD-BRODE-A-REPASSER-PATCH-A-COUDRE-/282461701764?hash=item41c4078684:g:Y4cAAOSwMNxXZrRE
p58
aVhttp://www.ebay.com/itm/KAWASAKI-VN900-VULCAN-BLACK-MATT-RADIATOR-GRILL-GUARD-COVER-/182601380447?hash=item2a83e3f25f:g:aDsAAOSwq1JZL9zT&vxp=mtr
p59
aVhttp://www.ebay.com/itm/Atlas-Editions-Jet-Age-Military-Aircraft-Avro-Vulcan-Bomber-Model-NEW-Sealed-/332231287127?hash=item4d5a872157:g:9nEAAOSwXYtYwpu5
p60
aVhttp://www.ebay.com/itm/K-N-AIR-FILTER-FOR-KAWASAKI-EN500-VULCAN-LTD-1996-2009-KA-5096-/141639526739?epid=1519731659&hash=item20fa5fa953:g:tt0AAOSwWxNYod1l&vxp=mtr
p61
aVhttp://www.ebay.com/itm/Kawasaki-Vulcan-VN750-Deluxe-Rain-Cover-/301566975524?epid=1805848939&hash=item4636cade24:g:TJcAAOSw~otWcs1y&vxp=mtr
p62
aVhttp://www.ebay.com/itm/PETROL-FUEL-TANK-VALVE-PETCOCK-SWITCH-TAP-VACUUM-PUMP-KAWASAKI-VN-750-VULCAN-/132087433909?hash=item1ec1064ab5:g:RUgAAOSwj85YOfST&vxp=mtr
p63
a.