(lp0
Vhttp://www.ebay.com/itm/Dr-Bronner-Sal-Suds-Liquid-Clean-472ml-16oz-Multi-purpose-Natural-soaps-Organic-/162564695657?epid=1840556865&hash=item25d99c6669:g:FEoAAOSw-jhUIYcK
p1
aVhttp://www.ebay.com/itm/Dr-Bronners-Sal-Suds-944ml-32oz-All-Purpose-Liquid-Cleaner-soaps-Organic-/162561099592?epid=1005191889&hash=item25d9658748:g:7~UAAOSwIjJZSixW
p2
aVhttp://www.ebay.com/itm/Autobrite-Snow-Foam-Lance-Magifoam-500ml-Luxury-Suds-250ml-KARCHER-CONNECTOR-/263078269982?epid=2123794498&hash=item3d40afd41e:g:jWQAAOSwsXVZYO6X
p3
aVhttp://www.ebay.com/itm/NEW-Sherlock-Holmes-tobacco-Smokers-PIPE-can-also-be-used-to-BLOW-BUBBLE-SUDS-/161612366218?epid=1888586745&hash=item25a0d9018a:g:-98AAMXQlgtS6Ne0
p4
aVhttp://www.ebay.com/itm/Purple-Rain-2x500ml-Autobrite-Direct-Wheel-Cleaner-Fallout-LuxurySUDS-250ml-GLO-/262910424011?epid=707166840&hash=item3d36aeb3cb:g:uLYAAOSwFJBZRT8Z
p5
aVhttp://www.ebay.com/itm/Chemical-Guys-Hybrid-V7-High-Suds-Car-Shampoo-16oz-/162473309203?epid=1272323292&hash=item25d429f413:g:VQwAAOSwmgJY782c
p6
aVhttp://www.ebay.com/itm/Chemical-Guys-Maxi-Suds-II-Super-Suds-Car-Wash-Shampoo-16-oz-/112377301203?hash=item1a2a3588d3:g:6-MAAOSw3ZRY-Hwm
p7
aVhttp://www.ebay.com/itm/Chemical-Guys-Stripper-Suds-Car-Wash-Shampoo-16oz-/262803748426?hash=item3d3052f64a:g:1OsAAOSwImRYdqa7
p8
aVhttp://www.ebay.com/itm/Chemical-Guys-Stripper-Suds-Premium-Stripper-Scent-Car-Wash-Shampoo-Soap-4oz-/302332301162?hash=item466468cf6a:g:wXgAAOSwcB5ZLEgH
p9
aVhttp://www.ebay.com/itm/Luxury-Suds-Autobrite-Direct-Wash-N-Wax-Shampoo-500ml-1-300-Dilution-Ratio-/262764486725?epid=2108873885&hash=item3d2dfbe045:g:4xAAAOSwB-1YoYze
p10
aVhttp://www.ebay.com/itm/Castrol-Cooledge-Bl-Premium-Soluble-Cutting-Oil-Suds-/321412723885?var=&hash=item4ad5b0f4ad:m:mI7HR0gR4bec63N2R8ZOHWA
p11
aVhttp://www.ebay.com/itm/Chemical-Guys-Mr-Pink-16oz-Super-Suds-Shampoo-Superior-Surface-Cleaner-/122455130408?epid=2107878494&hash=item1c82e50128:g:pXUAAOSw5UZY-JYu
p12
aVhttp://www.ebay.com/itm/Autobrite-Direct-Purple-Velvet-Car-Shampoo-Luxury-Suds-Gloss-Shine-500ml-/201661917202?epid=1183240366&hash=item2ef3fca812:g:nosAAOSwFdtXzV-2
p13
aVhttp://www.ebay.com/itm/Poorboys-World-Super-Slick-Suds-Concentrated-Car-Wash-946ml-Removes-Dirt-Grime-/262179840854?epid=1529761769&hash=item3d0b22e356:g:0bUAAOSwwE5WZWUH
p14
aVhttp://www.ebay.com/itm/Chemical-Guys-Hybrid-V7-High-Suds-Car-Shampoo-16oz-/252784037079?epid=1272323292&hash=item3adb1a4cd7:g:LKMAAOSw~AVYrvwc
p15
aVhttp://www.ebay.com/itm/Castrol-Alusol-A-Hysol-Excel-Semi-Synthetic-Soluble-Cutting-Oil-Coolant-Suds-/221815720537?var=&hash=item33a53f4a59:m:mwb4mtK7yW-6GmiNzJSxH5g
p16
aVhttp://www.ebay.com/itm/Castrol-Hysol-XF-Semi-Synthetic-Chlorine-Free-Soluble-Cutting-Oil-Coolant-Suds-/222213910648?var=&hash=item33bcfb3078:m:m9nekuBFsf_rSUwwDBoiBOQ
p17
aVhttp://www.ebay.com/itm/Luxury-Suds-500ml-Autobrite-Direct-Wash-Wax-Shampoo-Purple-Velvet-500ml-/263018186767?hash=item3d3d1b080f:g:-WkAAOSw3gJZMrST
p18
aVhttp://www.ebay.com/itm/Monza-Pre-Wash-Snow-Foam-Suds-Sprayer-use-with-meguiars-dodo-juice-valet-pro-/150861096375?epid=1888218494&hash=item232005a5b7:g:WtAAAOSwZjJU34B6
p19
aVhttp://www.ebay.com/itm/New-Surf-Sand-Suds-The-Tiki-Hut-Metal-Tin-Sign-/141806898729?var=&hash=item2104598e29:m:m-M3aCZ9YXBmFt963a6a3Kw
p20
aVhttp://www.ebay.com/itm/Autobrite-Direct-Luxury-Suds-Wash-N-Wax-Shampoo-250ML-1-300-Dilution-/262945997204?hash=item3d38cd8194:g:6uEAAOSwSypY-T-a
p21
aVhttp://www.ebay.com/itm/NEW-TAGS-Novelty-Vintage-50s-Retro-Peg-Bag-Holder-SUDS-N-SOAP-/152600974033?hash=item2387ba12d1:g:oPsAAOSwol5Y3nL7
p22
aVhttp://www.ebay.com/itm/Chemical-Guys-Mr-Pink-16oz-Super-Suds-Shampoo-Superior-Surface-Cleaner-/262816674649?epid=2107878494&hash=item3d31183359:g:7jIAAOSw-0xYgp0E
p23
aVhttp://www.ebay.com/itm/Autobrite-Direct-Purple-Velvet-Car-Shampoo-Luxurious-High-Suds-2x500ml-GIFT-/262814741407?hash=item3d30fab39f:g:AjoAAOSwt5hYgOFA
p24
aVhttp://www.ebay.com/itm/9ct-Yellow-Gold-Small-Pierced-Cross-Drop-Stud-Earrings-Suds-/171196821668?epid=1261402144&hash=item27dc2030a4:g:-vYAAOSwONBZAieA
p25
aVhttp://www.ebay.com/itm/Poorboys-SUPER-SLICK-SUDS-Shampoo-Extreme-Concentrated-Suds-Car-Wash-473ml-/182643417180?epid=1529761769&hash=item2a8665605c:g:xL0AAOSwbsBXkLE3
p26
aVhttp://www.ebay.com/itm/Glue-Brush-Hoof-Oil-No-16-Sudds-Suds-Parts-Cleaning-Dust-Brush-BritishPack-of-2-/261829573202?hash=item3cf6423a52:g:kTEAAOSwPhdVGBUa
p27
aVhttp://www.ebay.com/itm/POOR-BOYS-Super-Slick-Suds-Concetrated-car-wash-32oz-946ml-/331882519164?hash=item4d45bd5a7c:g:dWIAAOSwl8NVV3FH
p28
aVhttp://www.ebay.com/itm/NEW-Chemical-Guys-Hybrid-V7-Optical-Select-High-Foaming-Suds-Car-Wash-Shampoo-/131928699116?epid=1190687912&hash=item1eb79030ec:g:RbYAAOSwvzRXzAYC
p29
aVhttp://www.ebay.com/itm/Suds-Film-On-DVD-Mary-Pickford-Albert-Austin-Comedy-Drama-1920-/232345625494?hash=item3618e0e396:g:yj4AAOSwblZZI1It
p30
aVhttp://www.ebay.com/itm/Autobrite-Luxury-Suds-Car-Wash-Shampoo-and-Wax-500ml-With-Qty-2-Buffing-Cloths-/252512850418?epid=702396147&hash=item3acaf051f2:g:8AAAAOSwxYxUvBgR
p31
aVhttp://www.ebay.com/itm/Poorboys-Super-Slick-Suds-Concentrated-Car-Shampoo-USE-WITH-SNOW-FOAM-LANCE-/180979152965?epid=1289578455&hash=item2a2332b845:g:SrgAAOSw37tWCjoF
p32
aVhttp://www.ebay.com/itm/New-Poorboys-Worlds-Super-Slick-Suds-32Oz-128Oz-/351160782141?var=&hash=item51c2d04d3d:m:mWvIjK_dnnBnYCz3DQ2Fzeg
p33
aVhttp://www.ebay.com/itm/ENGINEERS-SUDS-SWARF-CLEANING-BRUSH-SIZE-20-5-20-X-200MM-ENGINEERING-/222559611372?var=&hash=item33d19629ec:m:mZHl5Zp4AySiMyk_mbVpVlg
p34
aVhttp://www.ebay.com/itm/Official-Disney-Mickey-Mouse-Clubhouse-Soap-Suds-Car-Wash-by-Fisher-Price-NEW-/132076524280?epid=784814093&hash=item1ec05fd2f8:g:ncoAAOSw-0xYig~Y
p35
aVhttp://www.ebay.com/itm/Autobright-Car-Wax-Sealant-Safe-Car-Cleaning-Shampoo-Super-Suds-500ml-/230655296875?epid=667212741&hash=item35b420856b:g:l8UAAOxy1RZSUr-Z
p36
aVhttp://www.ebay.com/itm/1L-Houghton-Dromus-B-Shell-Water-Soluble-Cutting-Fluid-Coolant-Makes-20L-Suds-/162588417766?hash=item25db065ee6:g:xQ4AAOSwcx5ZZhmU
p37
aVhttp://www.ebay.com/itm/Mickey-Mouse-Car-Wash-Clubhouse-Soap-Suds-by-Fisher-Price-Disney-Cartoon-NEW-/112446761005?epid=784814093&hash=item1a2e59682d:g:xmkAAOSwyWZZRY86
p38
aVhttp://www.ebay.com/itm/Chemical-Guys-Mr-Pink-Super-Suds-Shampoo-Superior-Surface-Cleaning-Soap-16oz-/302264015979?epid=1962613923&hash=item466056dc6b:g:820AAOSw2gxY15S8
p39
aVhttp://www.ebay.com/itm/Autobrite-Luxury-Suds-Concentrate-Autobrite-Direct-Autobright-Car-Shampoo-500ml-/131976806094?hash=item1eba6e3ece:g:pT4AAOSwHMJYCKdb
p40
aVhttp://www.ebay.com/itm/Mickey-Mouse-Car-Wash-Clubhouse-Soap-Suds-by-Fisher-Price-Disney-Cartoon-NEW-/112446761005?epid=784814093&hash=item1a2e59682d:g:xmkAAOSwyWZZRY86
p41
aVhttp://www.ebay.com/itm/Autobrite-Direct-Luxury-Suds-Wash-N-Wax-Shampoo-2-x-250ML-1-300-Dilution-/262945998285?epid=863718107&hash=item3d38cd85cd:g:3PoAAOSwE0JY-UCw
p42
aVhttp://www.ebay.com/itm/Coolant-Pump-For-Suds-1-phase-240v-by-Sacemi-STEM-180mm-/162320418322?hash=item25cb0d0612:m:mnRqGOpcy_E9dSjObCTqnBw
p43
aVhttp://www.ebay.com/itm/Sealey-Floor-Stand-Suds-Tray-Drain-For-SM27-Metal-Turning-Lathe-SM27ST-/301667220930?epid=1722864191&hash=item463cc47dc2:g:UUMAAOSw-vlVhR9w
p44
aVhttp://www.ebay.com/itm/Octonauts-Spin-and-Suds-Squid-Fisher-Price-GREAT-GIFT-/222169873200?hash=item33ba5b3b30:g:3GIAAOSwm8VU0yPK
p45
aVhttp://www.ebay.com/itm/Kirby-Shampoo-suds-generator-filter-sponge-G5-Generation-5-New-/262250884073?epid=1088949994&hash=item3d0f5eebe9:g:8vQAAOSwqYBWn8u2
p46
aVhttp://www.ebay.com/itm/Coolant-Pump-For-Suds-3-phase-440v-by-Sacemi-STEM-80mm-/361625008051?hash=item543287b7b3:m:mnRqGOpcy_E9dSjObCTqnBw
p47
aVhttp://www.ebay.com/itm/Exfoliating-Glove-Silk-Face-Suds-Mitt-C-D-F-Turkish-Bath-FREE-INSTRUCTIONS-/191368381593?hash=item2c8e71c499:g:Y00AAOSwcu5UN7qL
p48
aVhttp://www.ebay.com/itm/Sufix-Zippy-Supple-Shockleader-100m-Clearance-/171363469997?var=&epid=1964835777&hash=item27e60f0aad:m:mNDIGR4hedzHvO0ShMMwABQ
p49
aVhttp://www.ebay.com/itm/Nose-Suds-Stunning-925-Sterling-Silver-2-5mm-Square-Crystal-Gem-20G-Length-12mm-/181008003855?var=&hash=item2a24eaf30f:m:mB1rkIFIgvg1OMBW5BkJZ6Q
p50
aVhttp://www.ebay.com/itm/1L-Detailing-Wheel-Soap-Shampoo-For-Extra-Suds-for-Wheel-Cleaning-Brushes-/172364741432?hash=item2821bd3b38:g:RwUAAOSw4shX9Om4
p51
aVhttp://www.ebay.com/itm/SUDS-ONLINE-2-x-Reusable-Teflon-Oven-Cooking-Liner-Mat-Non-stick-No-mess-PTFE-Co-/292070123673?epid=1260315497&hash=item4400bc6899:g:V8cAAOSwZLhY20v8
p52
aVhttp://www.ebay.com/itm/SOAP-SUDS-SOAP-OPERA-PUB-QUIZ-TRIVIA-QUIZZES-/300364476579?hash=item45ef1e30a3:m:mb9UATq1rtdYp-vkCLGi3vQ
p53
aVhttp://www.ebay.com/itm/POORBOYS-SUPER-SLICK-SUDS-CAR-WASH-946ML-PH-NEUTRAL-WASH-WAX-SAFE-/302005544141?epid=1529761769&hash=item4650eee4cd:g:zsoAAOSwhOVXe79I
p54
aVhttp://www.ebay.com/itm/Juicy-Details-Apple-Sourz-Suds-500ml-Shampoo-Soap-Valeting-Detailing-/302285773160?hash=item4661a2d968:g:~ZQAAOSwuspY8-dr
p55
aVhttp://www.ebay.com/itm/Kirby-Shampoo-suds-generator-filter-sponge-G6-Generation-6-New-/262252514158?epid=1689002173&hash=item3d0f77cb6e:g:024AAOSw5dNWoS7o
p56
aVhttp://www.ebay.com/itm/New-Surf-Sand-Suds-The-Tiki-Hut-Metal-Tin-Sign-/131634318786?var=&hash=item1ea6044dc2:m:m-M3aCZ9YXBmFt963a6a3Kw
p57
aVhttp://www.ebay.com/itm/Luxury-Suds-1L-Autobrite-Direct-Wash-Wax-Shampoo-2x500ml-1-300-Dilution-Ratio-/262850838354?epid=2108873885&hash=item3d33217f52:g:tx0AAOSwx6pYoZBp
p58
aVhttp://www.ebay.com/itm/1L-Detailing-Alloy-Soap-Shampoo-Extra-Suds-for-Wheel-Alloy-Cleaning-Brushes-/162229619546?hash=item25c5a38b5a:g:RwUAAOSw4shX9Om4
p59
aVhttp://www.ebay.com/itm/2-x-500ML-AUTOBRITE-DIRECT-PURPLE-VELVET-LUXURY-CAR-SHAMPOO-HIGH-SUDS-GLOSS-GIFT-/112464215096?epid=626645917&hash=item1a2f63bc38:g:1TcAAOSwdGFYxT0q
p60
aVhttp://www.ebay.com/itm/EcoGrid-E40-33cm-x-33cm-x-4cm-20-Year-Guarantee-1-Square-Metre-SuDS-Grid-/361288225203?hash=item541e74d1b3:g:fzIAAOSwBahVSIgQ
p61
aVhttp://www.ebay.com/itm/SUDS-ONLINE-Washing-Machine-Dishwasher-DRAIN-Waste-HOSE-EXTENSION-KIT-STRECH-50-/302266741127?epid=577597477&hash=item4660807187:g:KH0AAOSwWxNY20WS
p62
aVhttp://www.ebay.com/itm/EcoGrid-E40-33cm-x-33cm-x-4cm-20-Year-Guarantee-1-Square-Metre-SuDS-Grid-/361288225203?hash=item541e74d1b3:g:fzIAAOSwBahVSIgQ
p63
aVhttp://www.ebay.com/itm/Disney-Mickey-Mouse-Clubhouse-Soap-and-Suds-Car-Wash-Playset-With-Mickey-Figure-/282230688949?epid=1828277936&hash=item41b6428cb5:g:WrQAAOSwB09YDYHN
p64
aVhttp://www.ebay.com/itm/Poor-Boys-Slick-Suds-32oz-946ml-High-Concentrate-Shampoo-Conditioner-Car-/150750392213?epid=1529761769&hash=item23196c6f95:m:msAk9h1wQ-p6vsPZ8UCpUrQ
p65
aVhttp://www.ebay.com/itm/Budweiser-Beer-Mats-4-Pack-Grab-Some-Buds-Crisp-Cold-Draught-Coasters-Suds-Drips-/281081162078?epid=713077068&hash=item4171be295e:g:~7kAAMXQ9qpRSOxk
p66
aVhttp://www.ebay.com/itm/Shopkins-Season-1-Suds-1-119-Common-Combined-postage-/322447247623?hash=item4b135a8907:g:~xkAAOSwmLlX3TKh
p67
aVhttp://www.ebay.com/itm/Coolant-Pump-For-Suds-3-phase-by-Sacemi-STEM-180mm-/162097623150?hash=item25bdc5706e:i:162097623150
p68
aVhttp://www.ebay.com/itm/SUDS-ONLINE-Pack-of-600-Brown-Coffee-Filter-Papers-Size-Four-suitable-for-coffee-/152061491127?hash=item23679237b7:g:F48AAOSw1DtXF3CQ
p69
aVhttp://www.ebay.com/itm/Mr-Pink-By-Chemical-Guys-Super-Suds-Car-Shampoo-Snow-Foam-pH-Neutral-473ml-/232263142104?epid=2107878494&hash=item3613f64ad8:g:gQEAAOSwCU1YvqsC
p70
aVhttp://www.ebay.com/itm/Chemical-Guys-Maxi-Suds-2-Grape-Rush-16oz-/172540884282?epid=573729714&hash=item282c3cf53a:g:oocAAOSwWxNYqvbF
p71
aVhttp://www.ebay.com/itm/925-Sterling-Silver-Horseshoe-Pierced-Heart-LOVE-U-Suds-Earrings-Bday-Gift-BOX-/371477580432?hash=item567dca0a90:g:F7UAAOSwl9BWNiHe
p72
aVhttp://www.ebay.com/itm/Poorboys-World-Super-Slick-Suds-CAR-WASH-32oz-946ml-/231461298763?epid=1529761769&hash=item35e42b224b:g:lCkAAOSwa39Uwn9c
p73
aVhttp://www.ebay.com/itm/SUDS-ONLINE-Plastic-Rear-Rail-End-Caps-for-Beko-Dishwashers-Pack-of-2-/182437632211?epid=2084164450&hash=item2a7a2158d3:g:g28AAOSwLEtYjaQn
p74
aVhttp://www.ebay.com/itm/Disney-Mickey-Mouse-Clubhouse-Soap-n-Suds-Car-Wash-With-Mickey-Playset-Figure-/112168655364?epid=1828277936&hash=item1a1dc5da04:g:9-UAAOSw4shYA5O3
p75
aVhttp://www.ebay.com/itm/Poorboys-Super-Slick-Wax-Shampoo-473ml-Concentrated-Extreme-Suds-Car-Wash-/231239360968?hash=item35d6f0a1c8:g:mQkAAOSwtfhYpxmh
p76
aVhttp://www.ebay.com/itm/Poorboys-Super-Slick-Suds-Concentrated-Car-Shampoo-USE-WITH-SNOW-FOAM-LANCE-/401225499915?epid=1249195563&hash=item5d6ae7450b:g:vAoAAOSwcLxYKaHv
p77
aVhttp://www.ebay.com/itm/Laundry-Powder-70-Loads-41-8-oz-11-8-kgs-Mollys-Suds-/282426096305?hash=item41c1e83ab1:g:mmwAAOSwc49Y6PWs
p78
aVhttp://www.ebay.com/itm/Poorboys-Super-Slick-Wax-Shampoo-946ml-Concentrated-Extreme-Suds-Car-Wash-32oz-/142179181046?epid=1549179088&hash=item211a8a21f6:g:RRIAAOSwo4pYKaHl
p79
aVhttp://www.ebay.com/itm/Poorboys-PB-SS32-Car-Cleaning-Valeting-Polishing-Wax-Super-Slick-Suds-946ml-/371962960961?epid=1529761769&hash=item569ab85c41:g:phkAAOSwn-tZKGBQ
p80
a.