(lp1
Vhttp://www.ebay.com/itm/Brothers-A-Tale-of-Two-Sons-PS4-Brand-New-and-Sealed-/272675249297?epid=1340438294&hash=item3f7cb61c91:g:EpoAAOSwmgJY472m
p2
aVhttp://www.ebay.com/itm/wii-BOY-And-HIS-BLOB-A-Tale-Of-Friendship-Adventure-Nintendo-PAL-UK-Version-/172429995586?epid=129343707&hash=item2825a0ee42:g:XwUAAOSwImRYMw5O
p3
aVhttp://www.ebay.com/itm/Xbox-360-TALES-OF-VESPERIA-Adventure-RPG-TALES-SERIES-English-Language-PAL-/371241385149?hash=item566fb5fcbd:g:NBAAAOSw-W5UwNs7
p4
aVhttp://www.ebay.com/itm/psp-TALES-Of-ETERNIA-Game-2-50-NON-GLITCH-VERSION-Pal-English-Uk-REGION-FREE-/161762459954?hash=item25a9cb4132:g:ZKIAAMXQeW5TYOLK
p5
aVhttp://www.ebay.com/itm/gamecube-TALES-OF-SYMPHONIA-An-Epic-RPG-Adventure-MINT-DISCS-Nintendo-PAL-/371625558891?epid=1440323044&hash=item56869c036b:g:VEIAAOSw1KxXNGWP
p6
aVhttp://www.ebay.com/itm/Wii-BOY-And-HIS-BLOB-A-Tale-Of-Friendship-Adventure-MINT-DISC-Nintendo-PAL-/371575597646?epid=93803490&hash=item5683a1aa4e:g:77MAAOxy4t1SiehR
p7
aVhttp://www.ebay.com/itm/TALES-OF-MONKEY-ISLAND-Pc-DVD-Rom-MAC-inc-Seasons-1-to-5-FAST-DISPATCH-/182622541604?hash=item2a8526d724:g:lTkAAOSwDwtUpptE
p8
aVhttp://www.ebay.com/itm/wii-BOY-And-HIS-BLOB-NI-A-Tale-Of-Friendship-And-Adventure-Nintendo-PAL-UK-/141997097743?epid=93803490&hash=item210fafc30f:g:77MAAOxy4t1SiehR
p9
aVhttp://www.ebay.com/itm/wii-BOY-And-HIS-BLOB-A-Tale-Of-Friendship-Adventure-Nintendo-PAL-UK-Version-/172416517915?epid=129343707&hash=item2824d3471b:g:XwUAAOSwImRYMw5O
p10
aVhttp://www.ebay.com/itm/THE-BROTHERS-GRIMM-GRIMMS-COMPLETE-FAIRY-TALES-LEATHER-BOUND-BOOK-EDITION-/122535907852?epid=1388577703&hash=item1c87b5920c:g:3RkAAOxyBjBTSXWM
p11
aVhttp://www.ebay.com/itm/Renegade-The-Lives-and-Tales-of-Mark-E-Smith-Smith-Mark-E-Excellent-/361910739929?epid=87268231&hash=item54438fa3d9:g:ph0AAOSw~AVYrQZ2
p12
aVhttp://www.ebay.com/itm/41-VINTAGE-ARTHUR-RACKHAM-ILLUSTRATED-CHILDRENS-BOOKS-DVD-FAIRY-TALES-FANTASY-/122595973643?hash=item1c8b4a1a0b:g:M3QAAOSw3xJVdKLX
p13
aVhttp://www.ebay.com/itm/Nellie-Snellen-Fairy-Tale-2-Clear-Stamp-FTCS002-/172648047284?epid=741942866&hash=item2832a022b4:g:gBkAAOSwrhBZAi67
p14
aVhttp://www.ebay.com/itm/Countryman-Tales-from-Field-Marsh-and-Woodland-by-Jim-Emerton-9781861517623-/252857065223?epid=233194577&hash=item3adf749f07:g:dcYAAOSww3tY7Hh6
p15
aVhttp://www.ebay.com/itm/THE-BROTHERS-GRIMM-GRIMMS-COMPLETE-FAIRY-TALES-LEATHER-BOUND-BOOK-EDITION-/122432442036?epid=1388577703&hash=item1c818aceb4:g:5dIAAOSwyQtVs5pu
p16
aVhttp://www.ebay.com/itm/TALES-OF-MONKEY-ISLAND-Pc-DVD-Rom-MAC-inc-Seasons-1-to-5-FAST-DISPATCH-/182622541604?hash=item2a8526d724:g:lTkAAOSwDwtUpptE
p17
aVhttp://www.ebay.com/itm/Girl-Baby-Toddler-Disney-Princess-Fairy-Tale-Dress-Up-Fancy-Dress-Costume-Outfit-/201662869558?var=&epid=709904778&hash=item2ef40b3036:m:m-NhgWHpJMG3OGcxaPRTtkQ
p18
aVhttp://www.ebay.com/itm/TALES-OF-MONKEY-ISLAND-inc-Seasons-1-5-Pc-DVD-Rom-MAC-Complete-FAST-POST-/172515788007?hash=item282abe04e7:g:GiAAAOSwxvxW6zWg
p19
aVhttp://www.ebay.com/itm/100-ANTIQUE-WALTER-CRANE-ILLUSTRATED-BOOKS-ON-DVD-CHILDRENS-FAIRY-TALES-RHYMES-/122567408496?hash=item1c89963b70:g:M3QAAOSw3xJVdKLX
p20
aVhttp://www.ebay.com/itm/Arcania-The-Complete-Tale-PS4-Brand-New-Sealed-RPG-/331495467177?hash=item4d2eab68a9:g:9aIAAOSwjVVVilQi
p21
aVhttp://www.ebay.com/itm/psp-TALES-Of-ETERNIA-Game-2-50-NON-GLITCH-VERSION-Pal-English-Uk-REGION-FREE-/322472363174?hash=item4b14d9c4a6:g:s9oAAOSwzgBY4ibE
p22
aVhttp://www.ebay.com/itm/gamecube-TALES-OF-SYMPHONIA-NI-An-Epic-RPG-Adventure-Nintendo-PAL-UK-Version-/142004390618?epid=1440323044&hash=item21101f0ada:g:B9YAAOSwXeJXdljv
p23
aVhttp://www.ebay.com/itm/Postman-Pat-Wintery-Tales-DVD-/291636645933?epid=1534424500&hash=item43e6e6102d:g:-YEAAOSwNphWauIP
p24
aVhttp://www.ebay.com/itm/Whats-My-Wife-Doing-with-That-Guy-Cuckold-Tales-of-High-Ribaldry-9781518815638-/252283191058?epid=224789618&hash=item3abd3fff12:g:ZhcAAOSwezVWu4iP
p25
aVhttp://www.ebay.com/itm/ps3-TALES-OF-SYMPHONIA-CHRONICLES-Collectors-Edition-Playstation-PAL-/222464001111?epid=175293220&hash=item33cbe34457:g:1Z4AAOSww3tY5LBt
p26
aVhttp://www.ebay.com/itm/TALES-OF-XILLIA-2-OFFICIAL-WORLD-GUIDANCE-GAME-ARTBOOK-NEW-/391450155837?hash=item5b243f5b3d:g:URUAAOSwSclXLHo-
p27
aVhttp://www.ebay.com/itm/ps3-TALES-OF-GRACES-F-Day-One-Edition-Making-Of-Soundtrack-PAL-REGION-FREE-/222482068633?hash=item33ccf6f499:g:bPIAAOSw5UZY-K38
p28
a.