(lp1
Vhttp://www.ebay.com/itm/SUBARU-WRX-STI-Number-Plate-Surrounds-Pair-/232195637428?epid=518368627&hash=item360ff040b4:g:sOEAAOSwjDZYbPEo
p2
aVhttp://www.ebay.com/itm/Perrin-Front-License-Plate-Relocate-Kit-Subaru-2002-07-WRX-STI-UK-/322403940793?hash=item4b10c5b9b9:g:aGEAAOSwDuJWwyp-&vxp=mtr
p3
aVhttp://www.ebay.com/itm/Perrin-License-Plate-Delete-Subaru-2006-17-WRX-STI-Black-UK-/322403947839?hash=item4b10c5d53f:g:vx0AAOSwal5YJaI~&vxp=mtr
p4
aVhttp://www.ebay.com/itm/Subaru-Impreza-STI-Front-Caliper-Pad-Guide-Plate-Stainless-Steel-Shims-Screws-/121961317715?hash=item1c65760553:g:Zy0AAOSwKtlWnfPU
p5
aVhttp://www.ebay.com/itm/SHIMANO-TIAGRA-4603-GEAR-LEVER-STI-COVER-LH-triple-name-plate-10sp-speed-/390914930396?epid=1823852549&hash=item5b045876dc:g:RIUAAOxyx-BSak-R
p6
aVhttp://www.ebay.com/itm/SUBARU-IMPREZA-STI-NUMBER-PLATE-OR-LICENSE-PLATE-PRESSED-ALLOY-WHITE-ON-PINK-/161460555566?hash=item2597cc8f2e:g:bkgAAOSwB09YKdK~
p7
aVhttp://www.ebay.com/itm/1-x-GENUINE-SHIMANO-ULTEGRA-6800-RIGHT-STI-NAME-PLATE-with-screw-11sp-GEAR-/352049549709?epid=1156197507&hash=item51f7c9d18d:g:ZK4AAOSwal5YCes9
p8
aVhttp://www.ebay.com/itm/1-x-SHIMANO-ULTEGRA-6600-GEAR-LEVER-STI-Silver-name-plate-cover-flightdeck-/352052727354?epid=1405228290&hash=item51f7fa4e3a:g:~VUAAOxyTjNSelKF
p9
aVhttp://www.ebay.com/itm/1-x-SHIMANO-ULTEGRA-6600-SL-GEAR-LEVER-STI-Black-name-plate-cover-/391134409490?epid=1710827466&hash=item5b116d7312:g:8RUAAOSwl9BWK7bn
p10
aVhttp://www.ebay.com/itm/2x-Black-ABS-Number-Plate-Surrounds-Holder-Frame-For-Subaru-WRX-STI-XV-/141809509909?epid=1545581297&hash=item2104816615:g:C1UAAOSwo0JWKiss
p11
aVhttp://www.ebay.com/itm/1-x-SHIMANO-105-5600-GEAR-LEVER-STI-Black-name-plate-cover-flightdeck-/391832802233?hash=item5b3b0e13b9:g:LDAAAOxyNDhSZ71T
p12
aVhttp://www.ebay.com/itm/Perrin-License-Plate-Delete-Subaru-2002-05-WRX-STI-Black-UK-/322253418369?hash=item4b07ccef81:g:Q1kAAOSwzgRWwzlu&vxp=mtr
p13
aVhttp://www.ebay.com/itm/Subaru-Impreza-2001-2007-LED-Number-Plate-Reg-Bulbs-Pair-WRX-STI-FREE-P-P-/271665562412?epid=1288674215&hash=item3f4087832c:g:iOAAAOSwzgRWyKAK
p14
aVhttp://www.ebay.com/itm/Shimano-Ultegra-6603-Left-Side-STI-Lever-Name-Plate-Fixing-Screw-/112489808948?hash=item1a30ea4434:g:zesAAOSw5cNYRycB
p15
aVhttp://www.ebay.com/itm/1-x-GENUINE-SHIMANO-DURA-ACE-7900-LEFT-STI-NAME-PLATE-A-with-screw-10sp-GEAR-/351062059283?epid=1308027546&hash=item51bcede913:g:lF8AAOxyCepSamf6
p16
aVhttp://www.ebay.com/itm/X2-CANBUS-5-LED-NUMBER-PLATE-BULBS-XENON-WHITE-SUBARU-IMPREZA-WRX-STI-501-T10-/162102846308?hash=item25be152364:g:OJoAAOSw9eVXUwUk
p17
aVhttp://www.ebay.com/itm/WRX-STI-TMIC-BOV-Adapter-Plate-To-Fit-HKS-SQV-SSQV-with-seals-bolts-/151846387372?hash=item235abffeac:g:iHYAAOSwjL5ZOX~U
p18
aVhttp://www.ebay.com/itm/1-x-SHIMANO-105-5700-GEAR-LEVER-STI-SILVER-LEFT-HAND-name-plate-cover-front-/391784249559?epid=1449586757&hash=item5b382938d7:g:3CUAAOSwiDFYMxSn
p19
aVhttp://www.ebay.com/itm/Impreza-WRX-STI-TMIC-BOV-Fitting-Adapter-Plate-For-GReddy-S-RS-RZ-Dump-Blow-Off-/331198004732?hash=item4d1cf07dfc:g:6-QAAOSwQItUGVol&vxp=mtr
p20
aVhttp://www.ebay.com/itm/Impreza-WRX-STI-TMIC-BOV-Fitting-Adapter-Plate-For-HKS-Sqv-Ssqv-/331679713628?hash=item4d39a6c95c:g:TIgAAOSwpONZOWbn
p21
aVhttp://www.ebay.com/itm/WRX-STI-TMIC-BOV-Adapter-Plate-To-Fit-Greddy-Blow-Off-Dump-Valve-/151297908650?hash=item233a0edfaa:g:LmcAAOSwd4tUGVoo&vxp=mtr
p22
aVhttp://www.ebay.com/itm/Subaru-Impreza-STI-Rear-Caliper-Pad-Guide-Plate-Stainless-Steel-Shims-Screws-/122170354834?hash=item1c71ebac92:g:Zy0AAOSwKtlWnfPU
p23
aVhttp://www.ebay.com/itm/SUBARU-IMPREZA-WRX-STI-6-LED-WHITE-NUMBER-PLATE-BULBS-/330326169256?epid=1288240078&hash=item4ce8f956a8:m:m3tTA9i8bu7scQG4KGlKWrg
p24
aVhttp://www.ebay.com/itm/1-x-GENUINE-SHIMANO-DURA-ACE-7900-RIGHT-STI-NAME-PLATE-A-with-screw-10sp-GEAR-/391491821975?epid=1805849826&hash=item5b26bb2197:g:ALcAAOxyCepSamAA
p25
aVhttp://www.ebay.com/itm/1-x-GENUINE-SHIMANO-DURA-ACE-9001-LEFT-STI-NAME-PLATE-A-with-screw-11sp-GEAR-/352052726554?epid=1385186066&hash=item51f7fa4b1a:g:j9kAAOSwx2dYCeqv
p26
aVhttp://www.ebay.com/itm/Coilover-Kit-for-Subaru-Impreza-WRX-GDA-GDB-Adj-Height-Camber-Plates-MAK-/282280817685?hash=item41b93f7415:g:S60AAOSw6YtZQerI
p27
aVhttp://www.ebay.com/itm/SUBARU-IMPREZA-STI-NUMBER-PLATE-OR-LICENSE-PLATE-PRESSED-ALLOY-BLACK-ON-WHITE-/351905254783?hash=item51ef300d7f:g:ryAAAOSw5cNYKdNe
p28
aVhttp://www.ebay.com/itm/Full-Coilover-Kit-for-Subaru-Impreza-WRX-GDA-GDB-Adj-Height-Camber-Plates-SPT-/272435529383?hash=item3f6e6c46a7:g:qNAAAOSw3h1ZQeZf
p29
aVhttp://www.ebay.com/itm/501-T10-Canbus-Error-free-5-LED-Number-Plate-Bulbs-SUBARU-IMPREZA-WRX-STI-/162046899965?hash=item25babf76fd:g:5cYAAOSwzhVWsBia
p30
aVhttp://www.ebay.com/itm/X2-501-Xenon-White-8-LED-Canbus-NUMBER-PLATE-BULBS-SUBARU-IMPREZA-WRX-STI-/162046901333?hash=item25babf7c55:g:kXQAAOSwGotWpSVD
p31
aVhttp://www.ebay.com/itm/Subaru-Impreza-WRX-STI-EJ20-Engine-Oil-Baffle-Plate-Cover-/302059096043?hash=item46542007eb:g:UxIAAOSwMgdXyFaI
p32
aVhttp://www.ebay.com/itm/SUBARU-IMPREZA-WRX-STI-CAR-LED-NUMBER-PLATE-BULBS-/330351895213?hash=item4cea81e2ad:m:m3tTA9i8bu7scQG4KGlKWrg
p33
aVhttp://www.ebay.com/itm/Fun-Number-Plate-Novelty-Stickers-GB-JDM-Euro-Sti-VW-16v-VXR-Land-Rover-/300697081957?epid=1488284478&hash=item4602f15865:m:mftLR5JYJDhDFTYfCcX-v6Q
p34
aVhttp://www.ebay.com/itm/1-x-GENUINE-SHIMANO-DURA-ACE-9000-RIGHT-STI-NAME-PLATE-A-with-screw-11sp-GEAR-/391709754130?epid=1223860203&hash=item5b33b88312:g:OCUAAOSwr~lYqvPh
p35
aVhttp://www.ebay.com/itm/Fun-Number-Plate-Novelty-Stickers-Boosted-GB-JDM-Euro-Sti-WRX-VW-16v-VXR-LSN3-/300697399132?epid=1888201076&hash=item4602f62f5c:m:mZIlBRsISgS78DO93Sg3F2A
p36
aVhttp://www.ebay.com/itm/Fun-Number-Plate-Novelty-Stickers-RAPID-GB-JDM-Euro-Sti-WRX-VW-16v-VXR-LSN2-/300697312483?hash=item4602f4dce3:m:m0ZXCHD2ICO_IV-k43YvzwA
p37
aVhttp://www.ebay.com/itm/2x-Silver-ABS-Number-Plate-Surrounds-Holder-Frame-For-Subaru-WRX-STI-XV-/191724276211?epid=1845373896&hash=item2ca3a849f3:g:~LUAAOSwT5tWLkiK
p38
aVhttp://www.ebay.com/itm/8-LED-SMD-NUMBER-PLATE-BULBS-HIGH-POWER-LED-SUBARU-IMPREZA-WRX-STI-/290732338878?hash=item43b0ff6ebe:m:mghks8q5Q66EMMi2BHRSD1w
p39
aVhttp://www.ebay.com/itm/Subaru-impreza-wrx-sti-turbo-sport-gc8-gf8-93-00-front-number-plate-holder-/221578770251?hash=item33971fb74b:g:lloAAOSw8cNUQXid
p40
aVhttp://www.ebay.com/itm/2x-Number-Plate-Surrounds-Holder-Carbon-for-Subaru-WRX-STI-XV-/281419194925?epid=1777602038&hash=item4185e4222d:g:0iIAAOSwDk5T9hB8
p41
aVhttp://www.ebay.com/itm/For-Subaru-Impreza-WRX-GC8-Front-Rear-Coilover-Spring-Struts-with-Camber-Plate-/222008376265?epid=1056051325&hash=item33b0bafbc9:g:eDcAAOSwMgdXySRf
p42
aVhttp://www.ebay.com/itm/Complete-Coilovers-Set-For-93-01-SUBARU-Impreza-WRX-GC8-GF6-GF8-24-Ways-Damper-/222008371958?hash=item33b0baeaf6:g:lEoAAOSwBt5ZJ8cS
p43
aVhttp://www.ebay.com/itm/ECU-SHEILD-PLATE-KICK-PLATE-SUBARU-IMPREZA-CLASSIC-WRX-STI-93-00-/181422023486?hash=item2a3d98633e:g:y94AAOxy3yNTg1tr
p44
aVhttp://www.ebay.com/itm/ECU-MOUNT-MOUNTING-PLATE-SHEILD-SUBARU-IMPREZA-BUGEYE-BLOBEYE-WRX-STI-NEWAGE-/181419482025?hash=item2a3d719ba9:g:0n8AAOxyhS9Tf02e
p45
aVhttp://www.ebay.com/itm/Shimano-Ultegra-ST-6600-STI-Brake-Lever-Name-Plate-Cover-Black-Fixing-Screw-/132122870048?hash=item1ec3230120:g:0D0AAOSw4A5Yw~ZQ
p46
aVhttp://www.ebay.com/itm/Perrin-Performance-Front-Reg-Plate-Relocate-Kit-fits-Impreza-2001-2007-WRX-STI-/272573722640?epid=623990072&hash=item3f76a8f010:g:2nMAAOSw~AVYtvIJ&vxp=mtr
p47
aVhttp://www.ebay.com/itm/SH-JDM-Subaru-Impreza-Oil-Sump-Pan-Baffle-Plate-EJ20-EJ22-EJ25-STI-GC8-GDB-WRX-/142262781552?epid=532192027&hash=item211f85c670:g:Py8AAOSw5cNYj6IX
p48
aVhttp://www.ebay.com/itm/Exedy-Racing-Hyper-Twin-Plate-6-Speed-Clutch-Kit-Fits-Subaru-Impreza-GDB-STI-/142227012167?epid=1147900929&hash=item211d63fa47:g:-OAAAOSw5cNYZDZY
p49
aVhttp://www.ebay.com/itm/Exedy-Racing-Hyper-Twin-Plate-6-Speed-Clutch-Kit-Fits-Subaru-Impreza-GDB-STI-/142146645425?hash=item211899adb1:g:NXMAAOSwEzxYZC4~
p50
a.