(lp1
Vhttp://www.ebay.com/itm/Mr-Twiddle-in-Trouble-Again-Happy-Days-Enid-Blyton-New-Book-/272738259462?epid=93238768&hash=item3f80779206:g:tKsAAMXQatBSbM4G
p2
aVhttp://www.ebay.com/itm/Twiddle-Muff-Twiddlemuff-Occupational-Therapy-Fiddle-Muff-Friendly-Lion-/162526170074?hash=item25d7508bda:g:PEgAAOSwtfhYoeuB
p3
aVhttp://www.ebay.com/itm/Twiddle-Cube-Spielzeug-Stress-Relief-ADHD-6-Side-Fidget-Cube-Grau-Schwarz-/252946730064?hash=item3ae4cccc50:g:YAwAAOSwuMZZHskx
p4
aVhttp://www.ebay.com/itm/Twiddle-Cube-Ninos-Toy-Stress-Relief-ADHD-6-Side-Fidget-Cube-Gris-Negro-/232341458764?hash=item3618a14f4c:g:aAsAAOSwtGlZHsik
p5
aVhttp://www.ebay.com/itm/Fidget-Cube-Children-Desk-Kids-Toy-Adults-Stress-Relief-ADHD-6-Side-Twiddle-Cube-/252921390434?var=&hash=item3ae34a2562:m:mLGCKTmHNC37XVrGe7iSe3A
p6
aVhttp://www.ebay.com/itm/Mr-Twiddle-Fetches-Polly-and-Other-Stories-Enid-Blyton-Hardback-Book-The-Cheap-/302279925603?epid=88851531&hash=item4661499f63:g:BQ4AAOSwCkZZQ8ic
p7
aVhttp://www.ebay.com/itm/Fidget-Cube-Children-Desk-Kids-Toy-Adults-Stress-Relief-ADHD-6-Side-Twiddle-Cube-/182520692458?var=&hash=item2a7f14beea:m:mnbllU7Cof43qjt6euURDZA
p8
aVhttp://www.ebay.com/itm/Ex-Library-Well-Really-Mr-Twiddle-Enid-Blyton-/262906981524?epid=88065260&hash=item3d367a2c94:g:Tk0AAOSwTM5Y06nW
p9
aVhttp://www.ebay.com/itm/FIDGET-TWIDDLE-CUBE-6-Sided-Stress-Anxiety-Relief-Toy-Fun-11-Colours-UK-Stock-/332162828874?var=&hash=item4d56728a4a:m:mBssfUVrWAQKuqpA9FIn7lg
p10
aVhttp://www.ebay.com/itm/ex-library-Well-Really-Mr-Twiddle-Enid-Blyton-/112344725624?epid=88065260&hash=item1a28447878:g:HfsAAOSwsW9Y03EF
p11
aVhttp://www.ebay.com/itm/Twiddle-Mini-Glow-In-The-Dark-Stress-Relief-Green-Toy-Shape-Maker-Fun-Kids-Gift-/352007742194?hash=item51f54be2f2:g:zdEAAOSwB-1YzA8g
p12
aVhttp://www.ebay.com/itm/Fidget-Finger-Spinner-EDC-Ceramic-Hybrid-Steel-Bearing-Focus-Toy-ADHD-Stress-/401292686539?var=&hash=item5d6ee874cb:m:mKMnKZFM_Bbfg3PmRpsKEEg
p13
aVhttp://www.ebay.com/itm/Fidget-Finger-Spinner-EDC-Ceramic-Hybrid-Steel-Bearing-Focus-Toy-ADHD-Stress-/201855515064?var=&hash=item2eff86b9b8:m:mKMnKZFM_Bbfg3PmRpsKEEg
p14
aVhttp://www.ebay.com/itm/2-X-METAL-FIDGET-RINGS-Sensory-toy-Twiddle-Fiddle-toy-Concentration-aid-NEW-/262860453879?hash=item3d33b437f7:g:ckkAAOSw4DJYgXfD
p15
aVhttp://www.ebay.com/itm/TWIDDLE-FIDGET-CRUNCH-SHAPE-SENSORY-TOY-AUSTISM-AUTISTIC-STEM-TOY-THREE-SIZE-/232244457336?var=&epid=1777509705&hash=item3612d92f78:m:mqUN_X7vwszxX7fTd53PR-g
p16
aVhttp://www.ebay.com/itm/METAL-FIDGET-RINGS-X-2-Sensory-toy-Twiddle-Fiddle-toy-Concentration-aid-NEW-/262819808839?hash=item3d31480647:g:ApIAAOSwJ7RYUYyV
p17
aVhttp://www.ebay.com/itm/METAL-FIDGET-RINGS-Sensory-toy-Twiddle-Fiddle-toy-Concentration-aid-NEW-/262814443427?hash=item3d30f627a3:g:rI8AAOSw5cNYgXcw
p18
aVhttp://www.ebay.com/itm/METAL-FIDGET-RINGS-Sensory-toy-Twiddle-Fiddle-toy-Concentration-aid-NEW-/262814441247?hash=item3d30f61f1f:g:FpEAAOSwt5hYgXa4
p19
aVhttp://www.ebay.com/itm/2-X-METAL-FIDGET-RINGS-Sensory-toy-Twiddle-Fiddle-toy-Concentration-aid-NEW-/262811852136?hash=item3d30ce9d68:g:Wv4AAOSwa~BYVh12
p20
aVhttp://www.ebay.com/itm/METAL-FIDGET-RINGS-Sensory-toy-Twiddle-Fiddle-toy-Concentration-aid-NEW-/262806430882?hash=item3d307be4a2:g:fDQAAOSw5cNYeQVP
p21
aVhttp://www.ebay.com/itm/METAL-FIDGET-RINGS-Sensory-toy-Twiddle-Fiddle-toy-Concentration-aid-NEW-/262806426812?hash=item3d307bd4bc:g:bAgAAOSwjDZYeQQ6
p22
aVhttp://www.ebay.com/itm/METAL-FIDGET-RINGS-Sensory-toy-Twiddle-Fiddle-toy-Concentration-aid-NEW-/262806286255?hash=item3d3079afaf:g:iwYAAOSw241YeOW~
p23
aVhttp://www.ebay.com/itm/METAL-FIDGET-RINGS-Sensory-toy-Twiddle-Fiddle-toy-Concentration-aid-NEW-/262806276435?hash=item3d30798953:g:FaUAAOSwImRYeOSB
p24
aVhttp://www.ebay.com/itm/METAL-FIDGET-RINGS-Sensory-toy-Twiddle-Fiddle-toy-Concentration-aid-NEW-/262804370949?hash=item3d305c7605:g:CSwAAOSwux5YT4NC
p25
aVhttp://www.ebay.com/itm/METAL-FIDGET-RINGS-Sensory-toy-Twiddle-Fiddle-toy-Concentration-aid-NEW-/262804369472?hash=item3d305c7040:g:9FUAAOSw5cNYT4ZI
p26
aVhttp://www.ebay.com/itm/Twiddle-Fiddle-mat-blanket-quilt-Alzheimhers-Dementia-Aspergers-Autism-/302188238546?hash=item465bd296d2:g:lz0AAOSw44BYihYw
p27
aVhttp://www.ebay.com/itm/METAL-FIDGET-RINGS-Sensory-toy-Twiddle-Fiddle-toy-Concentration-aid-NEW-/262727148180?hash=item3d2bc22294:g:gVIAAOSw-0xYUdqK
p28
aVhttp://www.ebay.com/itm/Hello-Mr-Twiddle-Blyton-Enid-Paperback-Book-Acceptable-/361675155066?hash=item543584e67a:g:tVwAAOSwdzVXozev
p29
aVhttp://www.ebay.com/itm/The-Mr-Twiddle-Stories-Enid-Blyton-3-in-1-Blyton-Enid-Paperback-Book-The-/391524061736?epid=86836271&hash=item5b28a71228:g:ls4AAOSw3QpZa02G
p30
aVhttp://www.ebay.com/itm/Well-Really-Mr-Twiddle-Blyton-Enid-Hardback-Book-The-Cheap-Fast-Free-Post-/302031974060?epid=88065260&hash=item4652822eac:g:-24AAOSw8d5ZR~~W
p31
aVhttp://www.ebay.com/itm/Twiddle-Mega-175-pieces-Bureau-Stress-Anti-Stress-SEN-Jouet-/142022207963?var=&hash=item21112ee9db:m:mIQm0r-o0uXqCQBVh-UJ8rA
p32
aVhttp://www.ebay.com/itm/Dont-be-Silly-Mr-Twiddle-Rewards-Blyton-Enid-Hardback-Book-The-Cheap-Fast-/391473260500?epid=90599591&hash=item5b259fe7d4:g:23YAAOSw1BlZQqX4
p33
aVhttp://www.ebay.com/itm/Twiddle-Medium-70-pieces-Desk-Stress-Fiddle-SEN-Toy-/141988327351?var=&epid=1261552807&hash=item210f29efb7:m:munvNTq0nZ25kBceBDuumuQ
p34
aVhttp://www.ebay.com/itm/Twiddle-Mega-175-pieces-Desk-Stress-Fiddle-SEN-Toy-/141988318412?var=&epid=1361497604&hash=item210f29cccc:m:mL1lYoD5wmfVvfhF0tycsbg
p35
aVhttp://www.ebay.com/itm/Twiddle-Fidget-Crunch-Shape-Stress-Relief-Unlimited-Fun-Toy-Assorted-Colours-/331816701742?var=&epid=1261552807&hash=item4d41d10f2e:m:m6YpOI7PQKMb3vREHZHUYSA
p36
aVhttp://www.ebay.com/itm/Hello-Mr-Twiddle-Enid-Blyton-/311549578559?epid=91668877&hash=item4889cd4d3f:g:NmsAAOSwPc9WxJqo
p37
aVhttp://www.ebay.com/itm/Dont-be-Silly-Mr-Twiddle-Rewards-By-Enid-Blyton-9780603032806-/311549569875?epid=90599591&hash=item4889cd2b53:g:rI8AAOSwKtVWxJPp
p38
aVhttp://www.ebay.com/itm/Dont-be-Silly-Mr-Twiddle-Rewards-Blyton-Enid-Hardback-Book-The-Cheap-Fast-/391364453439?epid=90599591&hash=item5b1f23a43f:g:vFcAAOSwDrNZQ8hg
p39
aVhttp://www.ebay.com/itm/Satila-Of-Sweden-One-Size-Twiddle-Mitts-5-12-Mth-Choose-From-Cream-Blue-Pink-/252156945172?var=&hash=item3ab5b9a314:m:mXWOrBQGZpG13602QkgXV8Q
p40
aVhttp://www.ebay.com/itm/Dont-be-Silly-Mr-Twiddle-Happy-Days-Enid-Blyton-/252150730632?epid=93240988&hash=item3ab55acf88:m:mmG_zPR5uK6y9YQfI-r5yRA
p41
aVhttp://www.ebay.com/itm/Sterling-Silver-Round-Connector-with-Twiddle-36x17mm-Jewellery-Findings-/321882394759?var=&hash=item4af1af9087:m:mRhdN1SGJd4wAV5PjV5RCGQ
p42
aVhttp://www.ebay.com/itm/Satila-Twiddle-unisex-baby-mittens-6-12m-in-White-Pink-Blue-Red-Navy-Offwhite-/141752457753?var=&hash=item21011ada19:m:myeLa1PAHLy0UObdFJRHCrQ
p43
aVhttp://www.ebay.com/itm/Enid-Blyton-Happy-Days-8-Books-Set-Paperback-Brand-New-Hello-Mr-Twiddle-/351307288141?hash=item51cb8bce4d:g:APcAAOSwYGFU1FYE
p44
aVhttp://www.ebay.com/itm/Sterling-Silver-Round-Connector-with-Twiddle-36x17mm-Jewellery-Findings-/321882394759?var=&hash=item4af1af9087:m:mRhdN1SGJd4wAV5PjV5RCGQ
p45
aVhttp://www.ebay.com/itm/Satila-Twiddle-unisex-baby-mittens-6-12m-in-White-Pink-Blue-Red-Navy-Offwhite-/141752457753?var=&hash=item21011ada19:m:myeLa1PAHLy0UObdFJRHCrQ
p46
aVhttp://www.ebay.com/itm/Enid-Blyton-Happy-Days-8-Books-Set-Paperback-Brand-New-Hello-Mr-Twiddle-/351307288141?hash=item51cb8bce4d:g:APcAAOSwYGFU1FYE
p47
aVhttp://www.ebay.com/itm/Twiddle-Mega-175-pieces-Bureau-Stress-Anti-Stress-SEN-Jouet-/142022207963?var=&hash=item21112ee9db:m:mIQm0r-o0uXqCQBVh-UJ8rA
p48
aVhttp://www.ebay.com/itm/Dont-be-Silly-Mr-Twiddle-Rewards-Blyton-Enid-Hardback-Book-The-Cheap-Fast-/391473260500?epid=90599591&hash=item5b259fe7d4:g:23YAAOSw1BlZQqX4
p49
aVhttp://www.ebay.com/itm/Twiddle-Medium-70-pieces-Desk-Stress-Fiddle-SEN-Toy-/141988327351?var=&epid=1261552807&hash=item210f29efb7:m:munvNTq0nZ25kBceBDuumuQ
p50
aVhttp://www.ebay.com/itm/Twiddle-Mega-175-pieces-Desk-Stress-Fiddle-SEN-Toy-/141988318412?var=&epid=1361497604&hash=item210f29cccc:m:mL1lYoD5wmfVvfhF0tycsbg
p51
aVhttp://www.ebay.com/itm/Twiddle-Fidget-Crunch-Shape-Stress-Relief-Unlimited-Fun-Toy-Assorted-Colours-/331816701742?var=&epid=1261552807&hash=item4d41d10f2e:m:m6YpOI7PQKMb3vREHZHUYSA
p52
aVhttp://www.ebay.com/itm/Hello-Mr-Twiddle-Enid-Blyton-/311549578559?epid=91668877&hash=item4889cd4d3f:g:NmsAAOSwPc9WxJqo
p53
aVhttp://www.ebay.com/itm/Dont-be-Silly-Mr-Twiddle-Rewards-By-Enid-Blyton-9780603032806-/311549569875?epid=90599591&hash=item4889cd2b53:g:rI8AAOSwKtVWxJPp
p54
aVhttp://www.ebay.com/itm/Dont-be-Silly-Mr-Twiddle-Rewards-Blyton-Enid-Hardback-Book-The-Cheap-Fast-/391364453439?epid=90599591&hash=item5b1f23a43f:g:vFcAAOSwDrNZQ8hg
p55
aVhttp://www.ebay.com/itm/Satila-Of-Sweden-One-Size-Twiddle-Mitts-5-12-Mth-Choose-From-Cream-Blue-Pink-/252156945172?var=&hash=item3ab5b9a314:m:mXWOrBQGZpG13602QkgXV8Q
p56
aVhttp://www.ebay.com/itm/Dont-be-Silly-Mr-Twiddle-Happy-Days-Enid-Blyton-/252150730632?epid=93240988&hash=item3ab55acf88:m:mmG_zPR5uK6y9YQfI-r5yRA
p57
aVhttp://www.ebay.com/itm/Sterling-Silver-Round-Connector-with-Twiddle-36x17mm-Jewellery-Findings-/321882394759?var=&hash=item4af1af9087:m:mRhdN1SGJd4wAV5PjV5RCGQ
p58
aVhttp://www.ebay.com/itm/Satila-Twiddle-unisex-baby-mittens-6-12m-in-White-Pink-Blue-Red-Navy-Offwhite-/141752457753?var=&hash=item21011ada19:m:myeLa1PAHLy0UObdFJRHCrQ
p59
aVhttp://www.ebay.com/itm/Enid-Blyton-Happy-Days-8-Books-Set-Paperback-Brand-New-Hello-Mr-Twiddle-/351307288141?hash=item51cb8bce4d:g:APcAAOSwYGFU1FYE
p60
a.