(lp1
Vhttp://www.ebay.com/itm/For-Hyundai-Tucson-2004-2010-Chrome-Interior-Styling-Trim-Set-/252562208133?fits=Model%3ATucson&hash=item3acde17585:g:Js0AAOSwzaJX7OoV&vxp=mtr
p2
aVhttp://www.ebay.com/itm/FITS-HYUNDAI-TUCSON-2-0-CRDi-DRIVE-SHAFT-OFF-SIDE-2004-2010-/172564043068?hash=item282d9e553c:g:wwMAAOSw32lYvTlW
p3
aVhttp://www.ebay.com/itm/For-Hyundai-Tucson-2015-Side-Steps-Running-Boards-Set-Type-2-/401287137135?fits=Model%3ATucson&epid=621833676&hash=item5d6e93c76f:g:QHMAAOSw~AVYvpgo
p4
aVhttp://www.ebay.com/itm/NEW-2-BUTTON-REMOTE-KEY-FOB-for-HYUNDAI-Santa-Fe-Tucson-etc-433Mhz-/262877986990?hash=item3d34bfc0ae:g:giAAAOSwB-1YuG9T
p5
aVhttp://www.ebay.com/itm/Hyundai-Santa-Fe-Terracan-Tucson-4x4-SUV-Fault-Code-Diagnostic-Reader-Scanner-UK-/321732391868?epid=879808595&hash=item4ae8beb3bc:g:dA0AAOSwPcVVwkj4
p6
aVhttp://www.ebay.com/itm/Hyundai-Santa-Trajet-Tucson-Elantra-2-0-2-2-CRDI-NEW-ALTERNATOR-AHI001-/221152946133?epid=1116114837&hash=item337dbe27d5:m:m0DHXVU3mUQrjIN9ZctU7bw
p7
aVhttp://www.ebay.com/itm/RB035-Side-steps-HYUNDAI-TUCSON-2015-up-OEM-style-Running-Boards-/121932498270?fits=Model%3ATucson&hash=item1c63be455e:g:CCEAAOSwurZZIuxj
p8
aVhttp://www.ebay.com/itm/TAILORED-RUBBER-BOOT-LINER-MAT-TRAY-Hyundai-Tucson-III-since-2015-upper-trunk-/302351852986?epid=2019783161&hash=item46659325ba:g:7UsAAOSw8GtZRAis
p9
aVhttp://www.ebay.com/itm/For-Hyundai-Tucson-2015-Chrome-Rear-Stying-Trim-Set-/282049824348?fits=Model%3ATucson&hash=item41ab7ac65c:g:eD4AAOSwOgdYyq9w
p10
aVhttp://www.ebay.com/itm/For-Hyundai-Tucson-2004-2010-Chrome-Rear-Bumper-Boot-Protector-Plate-/400412838727?fits=Model%3ATucson&hash=item5d3a770b47:g:zcMAAOSw4DJYmz2R
p11
aVhttp://www.ebay.com/itm/Towbar-detachable-Hyundai-TUCSON-TLE-2015-on-7-pin-el-kit-/172489874494?fits=Model%3ATucson&epid=5002559537&hash=item2829329c3e:g:Ys4AAOSwjDZYfdGI&vxp=mtr
p12
aVhttp://www.ebay.com/itm/PER-2015-HYUNDAI-TUCSON-ABS-Predellini-PEDANE-LATERALI-BARRE-Minigonne-/132244642421?hash=item1eca651a75:g:RLoAAOSw~rpZUSg7
p13
aVhttp://www.ebay.com/itm/HYUNDAI-TUCSON-II-since-2015-Rear-Bumper-Protector-Sill-Guard-Steel-/401273892426?epid=554812075&hash=item5d6dc9ae4a:g:pzYAAOSwTuJYnKlQ
p14
aVhttp://www.ebay.com/itm/SB315-Hyundai-Tucson-2004-2010-Luxury-Chrome-Side-Steps-Bars-Running-Boards-/122548111814?fits=Model%3ATucson&hash=item1c886fc9c6:g:oukAAOSwT-FZAYmt
p15
aVhttp://www.ebay.com/itm/FRONT-FRONTAL-IMPACT-CRASH-AIRBAG-SENSOR-FOR-HYUNDAI-TIBURON-TUCSON-KIA-SPORTAGE-/251388695136?hash=item3a87ef1260:g:JZkAAOSwo4pYjeTZ
p16
aVhttp://www.ebay.com/itm/HYUNDAI-TUCSON-BULL-BAR-CHROME-AXLE-NUDGE-A-BAR-60mm-2005-2009-LOGO-BAR-NEW-/272646649079?epid=1762187457&hash=item3f7b01b4f7:g:fdgAAOSwI~VTyc~3
p17
aVhttp://www.ebay.com/itm/GENUINE-Hyundai-Tucson-Ice-and-Sun-Screen-D7723ADE00-/272493171372?epid=2071691308&hash=item3f71dbd2ac:g:5IsAAOSw2gxY28Ht
p18
aVhttp://www.ebay.com/itm/HYUNDAI-TUCSON-2015-2016-chrome-windows-frame-trim-4-DOORS-6-PCS-S-STEEL-/282471519808?hash=item41c49d5640:g:JzAAAOSwYvFZE3Pu
p19
aVhttp://www.ebay.com/itm/GENUINE-Hyundai-Tucson-Boot-Mat-Reverisble-D7120ADE00-/272493171379?epid=2074170009&hash=item3f71dbd2b3:g:7gYAAOSwuxFY276X
p20
aVhttp://www.ebay.com/itm/For-Hyundai-Tucson-2015-Side-Steps-Running-Boards-Set-/281932247110?fits=Model%3ATucson&hash=item41a478b046:g:2M0AAOSwfVpYnZL~
p21
aVhttp://www.ebay.com/itm/For-Hyundai-Tucson-2004-2010-Chrome-Wing-Mirror-Cover-Trim-Set-/401098871584?fits=Model%3ATucson&epid=1026490592&hash=item5d635b1320:g:OUoAAOSw~CFY7PKA
p22
aVhttp://www.ebay.com/itm/2x-1157-BAY15D-P21-5W-380-SAMSUNG-LED-TWIN-FILAMENT-WHITE-STOP-TAIL-LIGHT-BULBS-/371926416983?fits=Model%3ATucson&epid=776121466&hash=item56988abe57:g:RJYAAOSwWiBY-c95
p23
aVhttp://www.ebay.com/itm/DHY17285-HYUNDAI-TUCSON-5DOOR-2015-up-wind-deflectors-4pc-TINTED-HEKO-/121977343681?fits=Model%3ATucson&epid=1568319225&hash=item1c666a8ec1:g:Z3UAAOSw32lY1TIO
p24
aVhttp://www.ebay.com/itm/For-Hyundai-Tucson-2004-2010-Chrome-Exterior-Door-Handle-Cover-Trim-Set-/251415557328?fits=Model%3ATucson&hash=item3a8988f4d0:g:DbwAAOSwOgdYnIr1
p25
aVhttp://www.ebay.com/itm/Universal-Full-Set-Car-Seat-Covers-fit-HYUNDAI-TUCSON-SCOUPE-BL-/262957838853?hash=item3d39823205:g:V~UAAOSwLEtYi8sk
p26
aVhttp://www.ebay.com/itm/Genuine-Hyundai-Tucson-Remote-Key-2015-95430-D3100-Cut-to-Your-Car-/132155051420?fits=Model%3ATucson&epid=1555684900&hash=item1ec50e0d9c:g:A7EAAOSw03lY63Pl
p27
aVhttp://www.ebay.com/itm/HYUNDAI-TUCSON-63mm-2004-09-BULL-BAR-NUDGE-BAR-LEGAL-/200798634153?fits=Model%3ATucson&hash=item2ec08800a9:m:mgMXluwJoSbWvLl9zBD7Krw
p28
aVhttp://www.ebay.com/itm/Hyundai-Tucson-In-Tank-Diesel-Fuel-pump-311112D410-New-2004-to-2010-German-Made-/231344407813?fits=Model%3ATucson&epid=1454741536&hash=item35dd338505:g:RnsAAMXQydtTPTPf&vxp=mtr
p29
aVhttp://www.ebay.com/itm/Hyundai-Tucson-2004-2010-Fixed-Swan-Neck-Towbar-with-Electric-Kit-7Pin-/221716954916?fits=Model%3ATucson&hash=item339f5c3f24:g:eLcAAOSwrklVBsHS&vxp=mtr
p30
aVhttp://www.ebay.com/itm/For-Hyundai-Tucson-2015-Chrome-Wind-Deflectors-5-door-6-pieces-/282047746655?fits=Model%3ATucson&epid=854626818&hash=item41ab5b125f:g:-CAAAOSwK6RZGb~s
p31
aVhttp://www.ebay.com/itm/GENUINE-HYUNDAI-TUCSON-VELOUR-CARPET-MATS-MAT-SET-2015-2017-BLACK-NEW-D7143ADE10-/252958756735?fits=Model%3ATucson&epid=669843336&hash=item3ae5844f7f:g:GvsAAOSwQupXWCKf
p32
aVhttp://www.ebay.com/itm/Genuine-Hyundai-Tucson-2016-Air-Filter-28113D3100-/262672067653?fits=Model%3ATucson&epid=2061237958&hash=item3d2879ac45:g:DEIAAOSwxKtX~1-Z
p33
aVhttp://www.ebay.com/itm/HYUNDAI-COUPE-TIBURON-SANTA-FE-TUCSON-5-Speed-Red-Gear-Shift-Knob-Silver-/282282198439?hash=item41b95485a7:g:56cAAOSw5cNYRyJt
p34
aVhttp://www.ebay.com/itm/For-Hyundai-Tucson-2015-Chrome-Side-Window-Top-Frame-Trim-Cover-Set-/401197999371?fits=Model%3ATucson&epid=1889010179&hash=item5d6943a50b:g:ll4AAOSw32lYnaqg
p35
aVhttp://www.ebay.com/itm/HYUNDAI-TUCSON-2015-2017-FRONT-BUMPER-LOWER-SKIRT-NEW-GENUINE-GREY-/222572596271?fits=Model%3ATucson&epid=2004910203&hash=item33d25c4c2f:g:OEMAAOSw44BYIcFz
p36
aVhttp://www.ebay.com/itm/Hyundai-iX35-Tucson-SatNAV-Maps-Software-Update-2017-New-Same-Day-Dispatch-/182666086781?epid=20004499584&hash=item2a87bf497d:g:BHwAAOSwFqNZUOkn
p37
aVhttp://www.ebay.com/itm/HYUNDAI-GETZ-ELANTRA-MATRIX-SANTA-FE-TUCSON-TRAJET-COUPE-IGNITION-STARTER-SWITCH-/112197953831?hash=item1a1f84e927:g:jfcAAOSwIjJZUQW6
p38
aVhttp://www.ebay.com/itm/HYUNDAI-TUCSON-2015-ON-Heavy-Duty-Black-Waterproof-Car-Seat-Covers-Front-Pair-/252754462528?hash=item3ad9570740:g:f3oAAOSwEzxYbcv7
p39
aVhttp://www.ebay.com/itm/Hyundai-Santa-Fe-Terracan-Tucson-4x4-SUV-Code-Erreur-Diagnostique-Lecteur-/221753182860?hash=item33a1850a8c:g:dA0AAOSwPcVVwkj4
p40
aVhttp://www.ebay.com/itm/KIA-CEED-SPORTAGE-HYUNDAI-TUCSON-2-0-CRDI-TURBOCHARGER-103KW-140HP-757886-/322494461253?epid=1928751770&hash=item4b162af545:g:gvUAAOSwWWxY~2cg
p41
aVhttp://www.ebay.com/itm/For-Hyundai-Tucson-2015-Side-Steps-Running-Boards-Set-Type-4-/401238029142?fits=Model%3ATucson&hash=item5d6ba67356:g:NNYAAOSwrhBZAfj1
p42
aVhttp://www.ebay.com/itm/2-BUTTON-REMOTE-KEY-FOB-CASE-Hyundai-Santa-Fe-TUCSON-NO-BATTERY-TERMINAL-CASE-/262789332486?hash=item3d2f76fe06:g:RoUAAOSwH09ZLqow
p43
aVhttp://www.ebay.com/itm/2-GREY-DOTS-PATTERN-FRONT-VEST-CAR-SEAT-COVERS-PROTECTORS-FOR-HYUNDAI-TUCSON-/252510872618?epid=697609184&hash=item3acad2242a:g:IVwAAOSw-itXvSu-
p44
aVhttp://www.ebay.com/itm/For-2005-2016-Hyundai-Santa-Tucson-2-0CRDi-140HP-D4EA-757886-Turbo-Cartridge-/162351693103?fits=Model%3ATucson&hash=item25ccea3d2f:g:TCUAAOSw5cNYcyP-
p45
aVhttp://www.ebay.com/itm/HYUNDAI-TUCSON-KIA-SEDONA-CARNIVAL-CARENS-BLOWER-MOTOR-FAN-HEATER-RESISTOR-A-C-/112191317315?fits=Model%3ATucson&hash=item1a1f1fa543:g:xmgAAOSwa~hZZ5cA&vxp=mtr
p46
aVhttp://www.ebay.com/itm/BRAND-NEW-THULE-4062-FITTING-KIT-FOR-HYUNDAI-TUCSON-5DR-SUV-2015-/381477763177?fits=Model%3ATucson&epid=1749447510&hash=item58d1d8b869:g:bzgAAOSwxN5WWBRI&vxp=mtr
p47
aVhttp://www.ebay.com/itm/BRAND-NEW-THULE-4062-FITTING-KIT-FOR-HYUNDAI-TUCSON-5DR-SUV-2015-/381477763177?fits=Model%3ATucson&epid=1749447510&hash=item58d1d8b869:g:bzgAAOSwxN5WWBRI&vxp=mtr
p48
aVhttp://www.ebay.com/itm/For-Hyundai-Tucson-2004-2010-Wind-Deflectors-Set-5-door-4-pieces-/251226049254?fits=Model%3ATucson&epid=1726681155&hash=item3a7e3d4ae6:g:ANEAAOSw1WJZGcmw
p49
aVhttp://www.ebay.com/itm/1Pair-Car-Seat-Belt-Cover-Pads-Logo-Hyundai-I10I20I30I40-IX-35-SantaFe-Tucson-/192229268179?hash=item2cc1c1dad3:g:qOoAAOSwHoFXrNsN
p50
aVhttp://www.ebay.com/itm/For-Hyundai-Tucson-2015-Chrome-Front-and-Rear-Bumper-Trim-Set-/252563644392?fits=Model%3ATucson&epid=1389107800&hash=item3acdf75fe8:g:OroAAOSw32lYnagO
p51
aVhttp://www.ebay.com/itm/Mass-Air-Flow-meter-sensor-0281002600-2816427900-for-HYUNDAI-TUCSON-JM-2-0CRDi-/292144162210?fits=Model%3ATucson&hash=item44052625a2:g:sNAAAOSwyQtVoaJI
p52
aVhttp://www.ebay.com/itm/Genuine-Hyundai-Tucson-Gear-Knob-437112C100-/252454231512?fits=Model%3ATucson&epid=2059648979&hash=item3ac771ddd8:g:ducAAOSw-KFXf8Oe
p53
aVhttp://www.ebay.com/itm/FRONT-SEAT-COVERS-universal-fit-Hyundai-Tucson-PATTERN-4-/152578362957?epid=679555799&hash=item2386610e4d:g:7wwAAOSwZVhWRJmf
p54
aVhttp://www.ebay.com/itm/FITS-HYUNDAI-TUCSON-2-0-CRDi-DRIVE-SHAFT-NEAR-SIDE-2004-2010-/132077514489?fits=Model%3ATucson&hash=item1ec06eeef9:g:lE4AAOSwUKxYi0q1
p55
aVhttp://www.ebay.com/itm/HYUNDAI-TUCSON-2015-2018-FOG-LIGHT-COVER-RH-DRIVER-SIDE-GENUINE-/112463528441?hash=item1a2f5941f9:g:yiEAAOSwvjdZVrgo
p56
aVhttp://www.ebay.com/itm/MWay-Aerodynamic-90kg-Lockable-Aluminium-Roof-Rack-Rail-Bars-for-Hyundai-Tucson-/351646260330?fits=Model%3ATucson&epid=1589000332&hash=item51dfc01c6a:g:WRYAAOSwXshWtg~5&vxp=mtr
p57
aVhttp://www.ebay.com/itm/Hyundai-Tucson-MK-III-2015-Fully-Tailored-4-Piece-Car-Mat-Set-with-3-Clips-/172072377973?fits=Model%3ATucson&epid=1355250300&hash=item2810501e75:g:YRgAAOSwFqJWohmZ
p58
aVhttp://www.ebay.com/itm/I-Love-My-Tucson-T-Shirt-great-gift-for-owners-S-3XL-hyundai-car-present-/262716341792?var=&hash=item3d2b1d3e20:m:mj3TTl7aJ8KLLZasF72Z5Xw
p59
aVhttp://www.ebay.com/itm/Fixed-Swan-Neck-Towbar-7p-Bypass-Relay-for-Hyundai-TUCSON-SUV-2-4WD-15-450-E1-/182634491856?epid=10003902284&hash=item2a85dd2fd0:g:eksAAOSwXXxZU6N-&vxp=mtr
p60
aVhttp://www.ebay.com/itm/For-Hyundai-Tucson-2015-Chrome-Side-Door-Trim-Set-/252401042275?fits=Model%3ATucson&epid=934873152&hash=item3ac4464363:g:OZ8AAOSwDiBZMYpo
p61
aVhttp://www.ebay.com/itm/2pcs-1157-BAY15D-380-P21-5W-SAMSUNG-Red-LED-Signal-Reverse-Turn-Lights-Bulbs-DRL-/371729564479?fits=Model%3ATucson&epid=2112339469&hash=item568ccf033f:g:I2cAAOSwnHZYkKZi
p62
aVhttp://www.ebay.com/itm/Front-Brake-Caliper-Pad-Fitting-Kit-for-Hyundai-Coupe-Sonata-Tucson-H1617-/282330323964?fits=Model%3ATucson&epid=12004457465&hash=item41bc32dbfc:g:hn0AAOSwopRYf5Dw
p63
aVhttp://www.ebay.com/itm/DHY17239-Hyundai-Tucson-2005-2010-wind-deflectors-4pc-set-TINTED-HEKO-/120957798613?fits=Model%3ATucson&epid=1748814011&hash=item1c29a588d5:g:Y68AAOSwhvFZDEy8
p64
aVhttp://www.ebay.com/itm/For-Hyundai-Tucson-2004-2010-Chrome-Wing-Mirror-Cover-Trim-Set-/251269017809?fits=Model%3ATucson&hash=item3a80ccf0d1:g:2ZMAAOSw44BYmKVF
p65
aVhttp://www.ebay.com/itm/Hyundai-Tucson-Aluminium-Roof-Bars-D7211ADE00AL-2015-onward-GENUINE-NEW-/182157647821?epid=1667315409&hash=item2a69711fcd:g:lgcAAOSwbYZXUUzc&vxp=mtr
p66
aVhttp://www.ebay.com/itm/For-Hyundai-Tucson-2004-2010-Chrome-C-Pillar-Cover-Trim-Set-/400636529686?fits=Model%3ATucson&epid=554496441&hash=item5d47cc4c16:g:aTMAAOSw4CFYnIjY
p67
aVhttp://www.ebay.com/itm/2x-Quality-Wheel-Chocks-For-Securing-Jeep-Van-Caravan-Boat-Trailer-/351926099814?fits=Model%3ATucson&epid=2095641768&hash=item51f06e1f66:g:Yd4AAOSw03lY5Oec
p68
aVhttp://www.ebay.com/itm/HYUNDAI-TUCSON-2004-2009-SUV-REAR-LIGHT-TAIL-BACK-LAMP-LH-LEFT-N-S-NEAR-SIDE-/112362295590?fits=Model%3ATucson&hash=item1a29509126:g:NCwAAOSww3tY55NR
p69
aVhttp://www.ebay.com/itm/TLHY100611M-D-TAILORED-ANTISLIP-BOOT-LINER-Mat-Tray-HYUNDAI-TUCSON-2004-2010-/360493310013?fits=Model%3ATucson&hash=item53ef13603d:g:X0cAAOSw~y9ZAdbr
p70
aVhttp://www.ebay.com/itm/BOOT-LINER-DOG-MAT-TRAY-TAILORED-RUBBER-HYUNDAI-TUCSON-3-since-2015-upper-trunk-/141894377379?fits=Model%3ATucson&epid=2019783161&hash=item2109905fa3:g:Yk0AAOSwIQdZHF3P
p71
aVhttp://www.ebay.com/itm/ALUMINIUM-SILVER-AERO-ROOF-BARS-FITS-HYUNDAI-TUCSON-2004-DATE-/192094630552?hash=item2cb9bb7298:g:UIAAAOSw5cNYk3EV&vxp=mtr
p72
aVhttp://www.ebay.com/itm/For-Hyundai-Tucson-2015-Chrome-Wind-Deflectors-5-door-6-pieces-/282047746655?fits=Model%3ATucson&epid=854626818&hash=item41ab5b125f:g:-CAAAOSwK6RZGb~s
p73
aVhttp://www.ebay.com/itm/HYUNDAI-TUCSON-II-since-2015-Car-Door-Sill-Protector-steel-4pcs-/122340627166?epid=541497254&hash=item1c7c11d2de:g:sfQAAOSwTglYlLcx
p74
aVhttp://www.ebay.com/itm/Genuine-Hyundai-Tucson-Door-Side-Moulding-Side-Sill-LH-87751D7000CA-/262626692301?fits=Model%3ATucson&epid=1294704886&hash=item3d25c54ccd:g:lhEAAOSwNRdX2o4U
p75
aVhttp://www.ebay.com/itm/Car-Suv-Van-Non-Slip-Mat-Gift-Sticker-Logo-HYUNDAI-I10-I20-I30-I40IX-Tucson-Getz-/192133355007?hash=item2cbc0a55ff:g:nCgAAOSwB-1Y4pJa
p76
aVhttp://www.ebay.com/itm/Hyundai-Tucson-Tow-Bar-wiring-extension-kit-55631ADE01-/182195620309?fits=Model%3ATucson&epid=1476194079&hash=item2a6bb489d5:g:4KQAAOSw-KFXe4dQ&vxp=mtr
p77
aVhttp://www.ebay.com/itm/Genuine-Hyundai-Tucson-Rear-Seatbelt-Buckle-898302E000U7-/262889413189?fits=Model%3ATucson&epid=1013732628&hash=item3d356e1a45:g:mT8AAOSwxKtX~1wl
p78
aVhttp://www.ebay.com/itm/HYUNDAI-TUCSON-KIA-SPORTAGE-BS-PUMP-58920-2E150-ECU-58900-2E150-/301842620062?epid=1333916221&hash=item464738de9e:g:3yEAAOSwB-1YvXIu
p79
aVhttp://www.ebay.com/itm/TAILORED-RUBBER-BOOT-LINER-Mat-Tray-Protector-Hyundai-Tucson-mk3-2015-up-/200899299021?fits=Model%3ATucson&epid=860242393&hash=item2ec68806cd:g:0qMAAOSwSypY-K13
p80
aVhttp://www.ebay.com/itm/HYUNDAI-TUCSON-2015-2018-FOG-LIGHT-COVER-RH-DRIVER-SIDE-GENUINE-/112463528441?hash=item1a2f5941f9:g:yiEAAOSwvjdZVrgo
p81
aVhttp://www.ebay.com/itm/HYUNDAI-TUCSON-2015-2017-chrome-REAR-CEILING-CORNER-TRIANGLE-2PCS-S-STEEL-/282471589914?hash=item41c49e681a:g:XDsAAOSwlMFZE37k
p82
aVhttp://www.ebay.com/itm/FOR-HYUNDAI-TUCSON-JM-ABS-WHEEL-SPEED-SENSOR-04-10-FRONT-RIGHT-/332275454655?fits=Model%3ATucson&epid=788173054&hash=item4d5d2912bf:g:pEgAAOSwE0JY-bgf
p83
aVhttp://www.ebay.com/itm/33-2201-K-N-AIR-FILTER-fits-Hyundai-TUCSON-2-0-Diesel-2004-2010-SUV-/292003891902?fits=Model%3ATucson&epid=1820851658&hash=item43fcc9cabe:g:5OQAAOSwLEtYf8zI
p84
aVhttp://www.ebay.com/itm/Genuine-Hyundai-Tucson-Rear-Seatbelt-Buckle-898302E000WK-/262810069600?fits=Model%3ATucson&epid=1813731677&hash=item3d30b36a60:g:mT8AAOSwxKtX~1wl
p85
aVhttp://www.ebay.com/itm/For-Hyundai-Tucson-2004-2010-Chrome-Rear-Window-Trim-Set-/400579319016?fits=Model%3ATucson&hash=item5d446354e8:g:u8IAAOSwA3dYmKbc
p86
aVhttp://www.ebay.com/itm/LUKHY010-TAILORED-Black-floor-Car-Mats-with-logo-Hyundai-Tucson-2015-up-4pcs-fix-/201600468898?fits=Model%3ATucson&epid=2142568443&hash=item2ef05307a2:g:-a0AAOSwzqFY902w
p87
aVhttp://www.ebay.com/itm/Air-Con-Compressor-fits-HYUNDAI-TUCSON-2-0D-04-to-10-AC-Conditioning-977012E300-/332253175707?fits=Model%3ATucson&epid=942950706&hash=item4d5bd51f9b:g:uWwAAOSwX61ZNnQS&vxp=mtr
p88
aVhttp://www.ebay.com/itm/HYUNDAI-HINTEN-Abzeichen-Kofferraum-Emblem-Santa-Fe-Mk1-01-06-Tucson-04-07-/302258722743?fits=Model%3ATucson&epid=1214450160&hash=item46600617b7:g:WAcAAOSwHjNV8A0V
p89
aVhttp://www.ebay.com/itm/Genuine-Hyundai-Tucson-Power-Steering-Hose-575122E000-/252458614265?fits=Model%3ATucson&epid=652221643&hash=item3ac7b4bdf9:g:zecAAOSwyKxXhNSy
p90
aVhttp://www.ebay.com/itm/Tailored-Car-Seat-Covers-Black-Leather-Very-Well-Fit-For-HYUNDAI-TUCSON-IX20-/252956077349?hash=item3ae55b6d25:g:PdoAAOSwfpVZJb-v
p91
aVhttp://www.ebay.com/itm/REAR-RIGHT-BRAKE-CALIPER-FOR-HYUNDAI-TUCSON-KIA-SPORTAGE-04-10-HZT-HY-501-/322421761473?fits=Model%3ATucson&hash=item4b11d5a5c1:g:YFgAAOSw~AVYuwKR
p92
aVhttp://www.ebay.com/itm/Detachable-Towbar-7-pin-wiring-Tow-Bar-for-Hyundai-Tucson-SUV-2015-on-45024-C-C1-/182634450983?fits=Model%3ATucson&epid=861205761&hash=item2a85dc9027:g:kkUAAOSwXXxZU5OA&vxp=mtr
p93
aVhttp://www.ebay.com/itm/Hyundai-Tucson-2015-Current-Pre-Cut-Window-Tint-Window-Film-Limo-/322121173965?epid=1834207518&hash=item4affeb0bcd:g:FyQAAOSwe7BWwf22
p94
aVhttp://www.ebay.com/itm/HYUNDAI-TUCSON-2004-2010-HEYNER-SUPER-FLAT-windscreen-WIPER-BLADES-24-16-/121823895354?fits=Model%3ATucson&epid=1845256132&hash=item1c5d451f3a:g:m9cAAOSwT4lWTvFp
p95
aVhttp://www.ebay.com/itm/For-Hyundai-Tucson-2004-2010-Chrome-Side-Window-Rubber-Frame-Cover-Trim-Set-/281693011343?fits=Model%3ATucson&epid=1853848542&hash=item4196363d8f:g:oH4AAOSwA3dYmc-D
p96
aVhttp://www.ebay.com/itm/HYUNDAI-TUCSON-2015-2017-FULL-SIZE-STEEL-SPARE-WHEEL-16-AND-TYRE-TOOL-KIT-/122481410908?fits=Model%3ATucson&hash=item1c8476035c:g:pXYAAOSw~y9ZDbU6
p97
aVhttp://www.ebay.com/itm/TAILORED-PVC-BOOT-LINER-MAT-TRAY-Hyundai-Tucson-III-since-2015-/122049165150?fits=Model%3ATucson&epid=2009200290&hash=item1c6ab2775e:g:U3EAAOSwPWRZXI3v
p98
aVhttp://www.ebay.com/itm/Genuine-Hyundai-Tucson-2004-Wiper-washer-Nozzle-RH-LH-Single-98630ZZ000-/252800367285?epid=1816054320&hash=item3adc137ab5:g:c34AAOSw32lYvT1d
p99
aVhttp://www.ebay.com/itm/Hyundai-ix35-Tucson-Mk2-2010-2015-Tailored-Fitted-Carpet-Car-Mats-BLACK-/180721074674?epid=1888163810&hash=item2a13d0c1f2:g:NlgAAOSwiDFYLwDV
p100
aVhttp://www.ebay.com/itm/2-x-HYUNDAI-TUCSON-2004-2010-FRONT-PAIR-STABILISER-ANTI-ROLL-BAR-DROP-LINK-/301744369227?fits=Model%3ATucson&epid=855401551&hash=item46415dae4b:g:22kAAOSw9r1V~Cs7&vxp=mtr
p101
aVhttp://www.ebay.com/itm/Genuine-Hyundai-Tucson-15-Mirror-Covers-Chrome-D7431ADE00ST-/252479056370?hash=item3ac8eca9f2:g:JNkAAOSwqfNXmiI3
p102
aVhttp://www.ebay.com/itm/For-Hyundai-Tucson-2015-Chrome-Side-Window-Rubber-Trim-Set-/282049840065?fits=Model%3ATucson&epid=861070165&hash=item41ab7b03c1:g:aFQAAOSwAC5ZbfCd
p103
aVhttp://www.ebay.com/itm/For-Hyundai-Tucson-2015-Bonnet-Guard-Protector-Set-/282493337154?fits=Model%3ATucson&hash=item41c5ea3e42:g:if4AAOSwrhBZJt7J
p104
aVhttp://www.ebay.com/itm/HYUNDAI-TUCSON-2015-TL-Detachable-Towbar-with-Electric-Kit-13Pin-/222178226422?fits=Model%3ATucson&hash=item33badab0f6:g:FqwAAOSwgY9XfkoO&vxp=mtr
p105
aVhttp://www.ebay.com/itm/REAR-SUSPENSION-TRACK-LATERAL-CONTROL-ROD-ARM-For-KIA-SPORTAGE-HYUNDAI-TUCSON-/253001673188?fits=Model%3ATucson&hash=item3ae81329e4:g:Vy4AAOSwjk9ZSP6u&vxp=mtr
p106
aVhttp://www.ebay.com/itm/HYUNDAI-i30-TUCSON-SANTA-FE-SONATA-CAPTEUR-POSITION-VILEBREQUIN-39180-27000-/232108203997?hash=item360aba1fdd:g:PTIAAOSw8w1X9j93
p107
aVhttp://www.ebay.com/itm/FUR-HYUNDAI-TUCSON-2-0-CRTD-DIESEL-2004-2006-NOCKENWELLE-WELLENSENSOR-/122428294080?hash=item1c814b83c0:g:TWIAAOSwFqJWjl1h
p108
aVhttp://www.ebay.com/itm/11Q6-Hyundai-Tucson-JM-04-10-SUV-Right-Side-Electric-Heated-Door-Mirror-Black-/222419461097?fits=Model%3ATucson&hash=item33c93ba3e9:g:3CsAAOSw3v5YrylS
p109
aVhttp://www.ebay.com/itm/G3-Dachtrager-Stahl-Hyundai-Tucson-ab-Bj-2015-mit-geschlossene-Dachreling-/191805001543?fits=Model%3ATucson&epid=1591397769&hash=item2ca8780f47:g:WRYAAOSwMgdX1zFx&vxp=mtr
p110
aVhttp://www.ebay.com/itm/Hyundai-Tucson-5dr-2015-ON-CAR-WINDOW-SUN-SHADE-BABY-SEAT-CHILD-BOOSTER-BLIND-UV-/311786076819?hash=item4897e5fa93:g:0KkAAOSwjDZYhea8
p111
aVhttp://www.ebay.com/itm/2x-CAR-FRONT-SEAT-COVERS-PROTECTOR-For-Hyundai-Tucson-/121897362197?hash=item1c61a62315:g:fjwAAOSwFNZWxEPG&vxp=mtr
p112
aVhttp://www.ebay.com/itm/For-Hyundai-Tucson-2015-Chrome-Bonnet-Protector-Guard-/252401014239?fits=Model%3ATucson&hash=item3ac445d5df:g:nFcAAOSw32lYneex
p113
aVhttp://www.ebay.com/itm/Hyundai-ACCENT-COUPE-ELANTRA-TRAJET-TUCSON-2-0-MASS-AIR-FLOW-METER-MAF-NEW-/272035566730?fits=Model%3ATucson&hash=item3f5695548a:g:nDwAAOSw5ZBWOMyA
p114
aVhttp://www.ebay.com/itm/HYUNDAI-TUCSON-2007-EXTERIOR-FRONT-REAR-DOOR-HANDLE-BLACK-1-ONLY-/400952189143?hash=item5d5a9ce0d7:g:ca4AAOSwezVWywGf&vxp=mtr
p115
aVhttp://www.ebay.com/itm/For-Hyundai-Tucson-2015-Chrome-Tail-Light-Trim-Set-/252402050811?fits=Model%3ATucson&epid=883399211&hash=item3ac455a6fb:g:7ZQAAOSwcB5ZGtaW
p116
aVhttp://www.ebay.com/itm/2x-Tailgate-Rear-Boot-Hatch-Gas-Struts-Springs-for-Hyundai-Tucson-JM-2004-2010-/182229366425?fits=Model%3ATucson&epid=800566064&hash=item2a6db77699:g:h7MAAOSw0kNXhv2f
p117
aVhttp://www.ebay.com/itm/FOR-HYUNDAI-SANTA-TUCSON-FRONT-STRUT-TOP-MOUNTING-SHOCK-ABSORBER-MOUNTING-/300618508321?fits=Model%3ATucson&hash=item45fe426821:m:mx-7Y4AdyCxDxvbJ44tJf3Q
p118
aVhttp://www.ebay.com/itm/Genuine-Hyundai-Tucson-Rear-Bumper-Protection-Foil-Chrome-D7274ADE00ST-/252532545967?epid=726970025&hash=item3acc1cd9af:g:kqcAAOSwAC5ZbidQ
p119
aVhttp://www.ebay.com/itm/Genuine-Hyundai-Santa-Fe-Tucson-Remote-Fob-95430-2E100-/142114314575?epid=1516056463&hash=item2116ac594f:g:RwIAAOSwFe5X1WmX
p120
aVhttp://www.ebay.com/itm/Nighteye-80W-12000LM-H11-H8-H9-LED-Headlight-Kit-Light-Bulbs-6000K-Cool-White-/391705267665?fits=Model%3ATucson&hash=item5b33740dd1:g:YFUAAOSw4GVYMnFj&vxp=mtr
p121
aVhttp://www.ebay.com/itm/Hyundai-Tucson-2015-ON-HEYNER-HYBRID-windscreen-aeroflat-WIPER-BLADES-26-16-SET-/142075292386?fits=Model%3ATucson&epid=1943729267&hash=item211458eae2:g:IrgAAOxyBnxR6~-z
p122
aVhttp://www.ebay.com/itm/For-Hyundai-Tucson-2015-Chrome-Head-Light-Trim-Set-/252402038875?fits=Model%3ATucson&epid=883219875&hash=item3ac455785b:g:bhgAAOSww9xZGsLh
p123
aVhttp://www.ebay.com/itm/Hyundai-Tucson-2-0-CRDi-4x4-Common-Rail-Diesel-Injector-Washers-Seals-x-4-/332291599498?hash=item4d5e1f6c8a:g:xJEAAOSwqu9VL7VR&vxp=mtr
p124
aVhttp://www.ebay.com/itm/CT23HY05-FITS-HYUNDAI-TUCSON-2005-to-2010-DOUBLE-DIN-FASCIA-FACIA-ADAPTER-KIT-/381531668999?epid=1010999377&hash=item58d50f4207:g:6MQAAOSwXshWqMdb
p125
aVhttp://www.ebay.com/itm/Genuine-Hyundai-ix35-Tucson-Smart-Remote-Key-2010-2013-95440-2S200-/142343868607?epid=1616076102&hash=item21245b10bf:g:2G8AAOSw03lY617r
p126
aVhttp://www.ebay.com/itm/For-Hyundai-Tucson-2004-2010-Chrome-Tail-Light-Trim-Cover-Set-/251486845973?fits=Model%3ATucson&epid=1253939741&hash=item3a8dc8bc15:g:JtkAAOSwfVpYnJF4
p127
aVhttp://www.ebay.com/itm/G3-Dachtrager-Aluminium-Fur-Hyundai-Tucson-ab-Bj-2015-Fur-Bundige-Schienen-/361489068178?hash=item542a6d7092:g:he0AAOSwux5YLg4o&vxp=mtr
p128
aVhttp://www.ebay.com/itm/01G175-ALTERNATOR-Regulator-Hyundai-Sonata-V-Elantra-Trajet-Tucson-i30-2-0-CRDi-/262421824779?hash=item3d198f450b:g:H1QAAOSw~oFXKyy2
p129
aVhttp://www.ebay.com/itm/FOR-HYUNDAI-TUCSON-2-0-2-7-4WD-04-10-PROP-SHAFT-PROPSHAFT-DRIVE-SHAFT-COUPLING-/401164960236?fits=Model%3ATucson&hash=item5d674b81ec:g:VJ8AAOSweW5U~zEO
p130
aVhttp://www.ebay.com/itm/HYUNDAI-TUCSON-MATS-MUDFLAPS-SET-NEW-GENUINE-/122571707083?epid=669843336&hash=item1c89d7d2cb:g:mdIAAOSw42dZDGO4
p131
aVhttp://www.ebay.com/itm/FRONT-BRAKE-PADS-SET-FIT-HYUNDAI-TUCSON-2004-2010-2-0-2-7-CRDI-AWD-/182209976855?fits=Model%3ATucson&epid=1126731842&hash=item2a6c8f9a17:g:p6gAAOSw0fhXjQmS
p132
aVhttp://www.ebay.com/itm/HEKO-17285-HYUNDAI-TUCSON-III-5doors-from-2015-4-wind-deflectors-front-rear-/332007535312?fits=Model%3ATucson&hash=item4d4d30f2d0:g:bf8AAOSwzaJX~deC
p133
aVhttp://www.ebay.com/itm/For-Hyundai-Tucson-2004-2010-Carbon-look-Interior-Styling-Trim-Set-/251960799357?fits=Model%3ATucson&epid=689892223&hash=item3aaa08b07d:g:ixwAAOSw4CFYx8Y4&vxp=mtr
p134
aVhttp://www.ebay.com/itm/NORTHERN-GARMS-X-SAM-REECE-TUCSON-TEE-GREY-SIK-AMOUR-SILK-GFN-28-DISTRESSED-/262673639369?var=&hash=item3d2891a7c9:m:m2Ag323Fj5Y-cGkTGYa--_Q
p135
aVhttp://www.ebay.com/itm/Genuine-Hyundai-Accent-Elantra-i10-i20-i30-ix35-Tucson-Fuel-Filter-319224H001-/251959867004?hash=item3aa9fa767c:g:lfIAAOSwgkRVVIRV
p136
aVhttp://www.ebay.com/itm/SILVER-S1-GEAR-SHIFT-KNOB-HYUNDAI-COUPE-TIBURON-SANTA-FE-TUCSON-IX35-MATRIX-/182410345021?fits=Model%3ATucson&hash=item2a7880fa3d:g:ULMAAOSw-0xYbPjR
p137
aVhttp://www.ebay.com/itm/HYUNDAI-COUPE-TUCSON-KIA-SPORTAGE-PETROL-Alternator-37300-23600-TIBURON-TUSCANI-/292136723769?fits=Model%3ATucson&epid=1829769697&hash=item4404b4a539:g:L2QAAOSwgZ1XvCgY
p138
aVhttp://www.ebay.com/itm/CT23HY05-Car-CD-Stereo-Double-Din-Fascia-Panel-Fitting-Kit-For-Hyundai-Tucson-/270832013520?epid=1010999377&hash=item3f0ed890d0:g:DAMAAOSwmLlX7mOr
p139
aVhttp://www.ebay.com/itm/BLACK-REAR-TAIL-LIGHTS-LTHU02-HYUNDAI-TUCSON-2004-2005-2006-2007-2008-2009-2010-/282276235978?hash=item41b8f98aca:g:gGsAAOSwj85YQE3b
p140
a.