(lp1
Vhttp://www.ebay.com/itm/Confessions-from-Quality-Control-Stories-of-Bodges-and-Balls-Up-9781532719790-/332133840742?epid=229478761&hash=item4d54b83766:g:tzAAAOSwB-1Yq-Tu
p2
aVhttp://www.ebay.com/itm/Yardlock-Gate-Lock-Keyless-Wooden-Gate-Combination-Lock-Kit-/322487213289?hash=item4b15bc5ce9:g:wdYAAOSwcdRY9jI9
p3
a.