(lp1
Vhttp://www.ebay.com/itm/Bridal-sign-Beware-of-the-bride-Stressful-moments-avoided-A-super-Fun-gift-/271629164879?hash=item3f3e5c214f:g:Iq8AAOSwU9xUM~Ul
p2
aVhttp://www.ebay.com/itm/Stress-Definition-Mug-Sarcastic-Humour-Rude-Funny-Stressful-Work-Coffee-Tea-Gift-/291517742660?epid=865474966&hash=item43dfcfbe44:g:VCMAAOSwol5YxySG
p3
aVhttp://www.ebay.com/itm/Thunderleash-no-pullretractable-dog-lead-make-walkies-less-stressful-LARGE-/172002891333?hash=item280c2bd645:g:9s8AAOSweuxWTHml
p4
aVhttp://www.ebay.com/itm/REIKI-ENERGY-CHARGED-LEPIDOLITE-CRYSTAL-HEALING-ANGEL-FOR-BUSY-STRESSFUL-LIFE-UK-/251725797819?epid=1445064522&hash=item3a9c06d9bb:g:hGUAAOSwj0NUbeLX
p5
aVhttp://www.ebay.com/itm/Handle-Every-Stressful-Situation-Like-a-Dog-border-Collie-by-Anne-Lever-/112277592700?epid=901673963&hash=item1a24441a7c:g:g3oAAOSw~CFY6GZ1
p6
aVhttp://www.ebay.com/itm/Pet-Calming-Tablets-Calmer-Dog-During-Stressful-Events-Noise-Anxiety-Nervous-/282379013504?hash=item41bf19cd80:g:JAEAAOSwhlZYtoEC
p7
aVhttp://www.ebay.com/itm/Higher-Nature-Worry-Not-13-5ml-Ideal-For-Stressful-Times-Anti-Anxiety-Nervous-/302282385690?hash=item46616f291a:g:1QcAAOSwpkFY757a
p8
aVhttp://www.ebay.com/itm/The-Happy-Kid-Handbook-How-to-Raise-Joyful-Children-in-a-Stressful-World-Katie-/371495283594?epid=223922169&hash=item567ed82b8a:g:OfkAAOSwt6ZWV02u
p9
aVhttp://www.ebay.com/itm/Handle-Every-Stressful-Situation-Like-a-Dog-basset-Hound-by-Anne-Lever-/162366141123?hash=item25cdc6b2c3:g:YXkAAOSwTM5Y6BH8
p10
aVhttp://www.ebay.com/itm/What-Works-Success-in-Stressful-Times-McRae-Hamish-New-Book-/291203885250?epid=99886934&hash=item43cd1aa8c2:g:CpQAAOSwXYtYwJSC
p11
aVhttp://www.ebay.com/itm/Handle-Every-Stressful-Situation-Like-a-Dog-bull-Terrier-by-Anne-Lever-/112277714870?hash=item1a2445f7b6:g:UK0AAOSwnF9Y6H6b
p12
aVhttp://www.ebay.com/itm/Handle-Every-Stressful-Situation-Like-a-Dog-chihuahua-by-Anne-Lever-/112276912282?epid=900184277&hash=item1a2439b89a:g:w3sAAOSwhQhY5-GT
p13
aVhttp://www.ebay.com/itm/Handle-Every-Stressful-Situation-Like-a-Dog-dalmation-by-Anne-Lever-/112277713196?epid=872356530&hash=item1a2445f12c:g:gYAAAOSwpkFY6Ihz
p14
aVhttp://www.ebay.com/itm/Handle-Every-Stressful-Situation-Like-a-Dog-poodle-by-Anne-Lever-/182429568935?epid=901483080&hash=item2a79a64fa7:g:ILoAAOSwuLZY6F3c
p15
aVhttp://www.ebay.com/itm/Handle-Every-Stressful-Situation-Like-a-Dog-collie-by-Anne-Lever-/112277489811?epid=863336663&hash=item1a24428893:g:oqgAAOSw~CFY6FXe
p16
aVhttp://www.ebay.com/itm/Handle-Every-Stressful-Situation-Like-a-Dog-papillon-by-Anne-Lever-/162366744921?hash=item25cdcfe959:g:1wIAAOSw4CFY6F1V
p17
aVhttp://www.ebay.com/itm/Thunderleash-no-pullretractable-dog-lead-make-walkies-less-stressful-MEDIUM-/172002890716?hash=item280c2bd3dc:g:9s8AAOSweuxWTHml
p18
aVhttp://www.ebay.com/itm/Relax-and-Renew-Restful-Yoga-for-Stressful-Times-Lasater-Judith-Paperback-The-/391828228108?epid=88543923&hash=item5b3ac8480c:g:idsAAOSwYVhZccRy
p19
aVhttp://www.ebay.com/itm/Thunderleash-no-pullretractable-dog-lead-make-walkies-less-stressful-SMALL-/172002889986?hash=item280c2bd102:g:9s8AAOSweuxWTHml
p20
aVhttp://www.ebay.com/itm/Mindful-Moments-for-Stressful-Days-Simple-Ways-to-F-Gover-Tzivia-Paperback-/301836197384?epid=87651524&hash=item4646d6de08:g:zjAAAOSw6YtZP6w-
p21
a.