(lp1
Vhttp://www.ebay.com/itm/30-x-Berlin-Ibiza-Club-Aufkleber-Stickers-Berghain-Watergate-Tresor-Time-Warp-/132165100719?hash=item1ec5a764af:g:VrYAAOSwA3dYVE38
p2
aVhttp://www.ebay.com/itm/FROST-V-NIXON-WATERGATE-Interview-With-Sir-David-Frost-DVD-/361306994831?hash=item541f93388f:g:8FsAAOSwpDdVZeUJ
p3
aVhttp://www.ebay.com/itm/Dick-Cavetts-Watergate-DVD-R-Region-2-UK-version-/221858790075?epid=1746462182&hash=item33a7d07abb:g:dYUAAOSw9N1V1djR
p4
aVhttp://www.ebay.com/itm/CHESTER-WATERGATE-STREET-THE-ROWS-VINTAGE-PRINT-10-X-8-/160349665248?hash=item255595b7e0:m:mAjcS2BrqSuXRVXjrnQzgDQ
p5
aVhttp://www.ebay.com/itm/Watergate-Bay-Cornwall-Tshirt-Surf-Board-Mens-Top-Famous-Surfing-T-Shirt-114-/262829623949?var=&hash=item3d31ddca8d:m:mM2sRN_tP_kKf-aYDn-uOrg
p6
aVhttp://www.ebay.com/itm/PRINT-FROM-AN-OLD-PAINTING-BY-LOUISE-RAYNER-CHESTER-WATERGATE-STREET-ROW-SOUTH-/400720064552?epid=1188544128&hash=item5d4cc6f028:g:kToAAOxy3yNTjJi2
p7
aVhttp://www.ebay.com/itm/PRINT-FROM-AN-OLD-PAINTING-BY-LOUISE-RAYNER-CHESTER-WATERGATE-STREET-2-/400720063961?epid=1688573580&hash=item5d4cc6edd9:g:U7kAAOxyhS9TjJhe
p8
aVhttp://www.ebay.com/itm/Torrington-Railway-Station-Photo-Bideford-to-Watergate-and-Petrockstow-12-/262822737573?hash=item3d3174b6a5:g:BkIAAOSwLEtYiIdm
p9
aVhttp://www.ebay.com/itm/Nalu-Bead-Watergate-Bay-/142046949799?hash=item2112a871a7:g:7KkAAOSwZ1BXfO5A
p10
aVhttp://www.ebay.com/itm/PRINT-FROM-AN-OLD-PAINTING-BY-LOUISE-RAYNER-CHESTER-WATERGATE-STREET-2-/400720063961?epid=1688573580&hash=item5d4cc6edd9:g:U7kAAOxyhS9TjJhe
p11
aVhttp://www.ebay.com/itm/Torrington-Railway-Station-Photo-Bideford-to-Watergate-and-Petrockstow-14-/262843106210?hash=item3d32ab83a2:g:MLYAAOSw44BYmzYV
p12
aVhttp://www.ebay.com/itm/PRINT-FROM-AN-OLD-PAINTING-BY-LOUISE-RAYNER-CHESTER-WATERGATE-STREET-ROW-SOUTH-/400720064552?epid=1188544128&hash=item5d4cc6f028:g:kToAAOxy3yNTjJi2
p13
aVhttp://www.ebay.com/itm/PRINT-FROM-AN-OLD-PAINTING-BY-LOUISE-RAYNOR-CHESTER-WATERGATE-STREET-PICTURE-/191199892055?epid=1588563028&hash=item2c8466d257:g:PboAAOxyBPZTjJSJ
p14
a.