(lp0
Vhttp://www.ebay.com/itm/Aborted-Re-Animator-T-Shirt-NEW-OFFICIAL-/112264503519?var=&hash=item1a237c60df:m:mjtkq-i698z8prsJtsXNEUQ
p1
aVhttp://www.ebay.com/itm/Aborted-Goremageddon-T-Shirt-NEW-OFFICIAL-/121773555424?var=&hash=item1c5a44fee0:m:mZE3YsdyB94RUSv4ZGHIf8A
p2
aVhttp://www.ebay.com/itm/Aborted-666-Death-Metal-Long-Sleeve-Baseball-Shirt-NEW-OFFICIAL-/111993909871?var=&hash=item1a135b726f:m:mfakmf4UlJmaC7E3Vw1dmCw
p3
aVhttp://www.ebay.com/itm/Aborted-Goremageddon-T-Shirt-NUOVO-E-ORIGINALE-/131650554459?var=&hash=item1ea6fc0a5b:m:mZE3YsdyB94RUSv4ZGHIf8A
p4
aVhttp://www.ebay.com/itm/Aborted-Goremageddon-Zip-Up-Hoodie-NEW-OFFICIAL-/112264502816?var=&hash=item1a237c5e20:m:mx7QBnVh6NqDuTrpLyHbXPw
p5
aVhttp://www.ebay.com/itm/Aborted-Global-Flatline-Ltd-Digipak-CD-NEU-/282308867080?epid=152674351&hash=item41baeb7408:g:ZxcAAOSw44BYZvQ0
p6
aVhttp://www.ebay.com/itm/Aborted-Goremageddon-the-Saw-and-the-Carnage-Done-CD-Digipak-NEW-/352063296493?epid=182245734&hash=item51f89b93ed:g:xmkAAOSw42dZHxep
p7
aVhttp://www.ebay.com/itm/Aborted-Global-Flatline-Ltd-Digipak-UK-IMPORT-CD-NEW-/132160703859?hash=item1ec5644d73:g:TxQAAOSwHHFY8whY
p8
aVhttp://www.ebay.com/itm/Aborted-Strychnine-213-CD-2008-/291688090826?epid=66912597&hash=item43e9f70cca:g:Y-wAAOSw9GhYkSqa
p9
aVhttp://www.ebay.com/itm/Gianna-Aborted-and-Lived-to-Tell-about-It-Living-Books-Jessica-Shaver-/331780654417?epid=91482027&hash=item4d3fab0551:g:ur8AAOSwQYZWxIIy
p10
a.