(lp1
Vhttp://www.ebay.com/itm/SKITTLES-FRUIT-SWEETS-1-6-Kilo-Massive-Bag-/111231337681?epid=1731858299&hash=item19e5e784d1:g:Og8AAOSwBt5ZMVpm
p2
aVhttp://www.ebay.com/itm/CLEARANCE-Skittles-Wild-Berry-61-5g-BEST-BEFORE-10-16-Free-UK-Delivery-/172472809919?epid=1105417102&hash=item28282e39bf:g:e-UAAOSwRLZT8bXp
p3
aVhttp://www.ebay.com/itm/SKITTLES-TROPICAL-SWEETS-WHOLESALE-DISCOUNT-FAVOURS-TREATS-PARTY-CANDY-/381796345225?var=&hash=item58e4d5e589:m:mh9fsMiJyzC5RyR_fNxEaaQ
p4
aVhttp://www.ebay.com/itm/SKITTLES-CRAZY-SOURS-SWEETS-WHOLESALE-DISCOUNT-FAVOURS-TREATS-PARTY-CANDY-/361893572753?var=&hash=item544289b091:m:mGKGO3teiEFkEjKKWxEvOjQ
p5
aVhttp://www.ebay.com/itm/Skittles-BrightsideNew-56-7g-from-American-Goodies-USA-Import-Free-UK-Delivery-/182472650729?epid=594189388&hash=item2a7c37afe9:g:wQ8AAOSw~AVYtuuF
p6
aVhttp://www.ebay.com/itm/SKITTLES-FRUITS-Full-Box-36-Packs-RETRO-SWEETS-CANDY-CHEWY-FRUITY-/152484667191?hash=item2380cb5f37:g:03kAAOSwhQhY1Zp4
p7
aVhttp://www.ebay.com/itm/Limited-Edition-White-Skittles-350g-pack-Rainbow-Gay-Pride-Month-large-bag-LGBT-/172787350808?epid=838681820&hash=item283aedbd18:g:d9UAAOSwcrxZcHo4
p8
aVhttp://www.ebay.com/itm/Skittles-American-Candy-Selection-Box-5-Packs-Of-Sweets-Inc-Brightside-More-/252781004426?hash=item3adaec068a:g:E-IAAOSwB-1YrEgh
p9
aVhttp://www.ebay.com/itm/Skittles-36-Bags-Flavoured-Fruit-Candy-Sweets-55g-Per-Pack-/142042496746?epid=919110756&hash=item2112647eea:g:gA4AAOSwZ1BXdqCW
p10
aVhttp://www.ebay.com/itm/Wild-Berry-Skittles-/261936505427?epid=1105417102&hash=item3cfca1e253:g:pU8AAOSwjVVVhDbs
p11
aVhttp://www.ebay.com/itm/Sour-Skittles-/251974939932?epid=1522811579&hash=item3aaae0751c:g:vzYAAOSweW5VZiFZ
p12
aVhttp://www.ebay.com/itm/SUPER-SOUR-CHALLENGE-SELECTION-BOX-WARHEADS-TOXIC-WASTE-MEGA-SOURS-SKITTLES-/291708903755?hash=item43eb34a14b:g:BGkAAOSwOgdYrYQW
p13
aVhttp://www.ebay.com/itm/Classic-Games-Desktop-Ten-Pin-Bowling-Wooden-Skittle-Alley-Toy-Game-19116-/351109973131?epid=1907766918&hash=item51bfc9048b:g:bb8AAOSw32lY1RMC
p14
aVhttp://www.ebay.com/itm/Case-Of-36-Skittles-Tropical-American-Sweets-from-Candy-Junction-/262013064012?epid=1558485291&hash=item3d0132134c:g:0xAAAOSwgQ9V1Zjz
p15
aVhttp://www.ebay.com/itm/CLEARANCE-1-x-Skittles-Orchards-Sharing-Size-113-4g-BEST-BEFORE-10-16-/172474213147?epid=1572647459&hash=item282843a31b:g:oFoAAOSwvg9XUE34
p16
a.