(lp1
Vhttp://www.ebay.com/itm/Icon-Of-The-Mother-Of-God-Surety-Of-Sinners-20-24cm-/172771263394?hash=item2839f843a2:g:P0YAAOSw1~JZOZsZ
p2
aVhttp://www.ebay.com/itm/Surety-1-75m-Stainless-Steel-Reinforced-Shower-Hose-Universal-Connectors-/182579041786?hash=item2a828f15fa:g:~eQAAOSwq1JZHC4f
p3
a.