(lp1
Vhttp://www.ebay.com/itm/250mm-Wide-Mahogany-Panel-500-x-250-x-3-0mm-Solid-Wood-Panel-/142371051391?hash=item2125f9d77f:g:L6EAAOSww9xZCcis
p2
aVhttp://www.ebay.com/itm/250mm-Wide-Mahogany-Panel-500-x-250-x-6-0mm-Solid-Wood-Panel-/172658066016?hash=item2833390260:g:CXsAAOSwCQZZCcn1
p3
aVhttp://www.ebay.com/itm/250mm-Wide-Basswood-Panel-500-x-250-x-6-0mm-Solid-Wood-Panel-/172658045553?hash=item283338b271:g:OIEAAOSwX61ZCcSX
p4
aVhttp://www.ebay.com/itm/250mm-Wide-Basswood-Panel-500-x-250-x-1-5mm-Solid-Wood-Panel-/142370995916?hash=item2125f8fecc:g:UTMAAOSwcgNZCbc-
p5
aVhttp://www.ebay.com/itm/250mm-Wide-Basswood-Panel-500-x-250-x-3-0mm-Solid-Wood-Panel-/172657994753?hash=item283337ec01:g:i0QAAOSw~y9ZCbk4
p6
aVhttp://www.ebay.com/itm/Wooden-Craft-Supplies-Blocks-Wood-Cubes-10mm-60mm-Hardwood-75mm-Pine-Minecraft-/201306637815?var=501478103076&hash=item2edecf85f7:m:mfmpFbI6CMQ1lOe4uAibyoA
p7
aVhttp://www.ebay.com/itm/Vintage-Wooden-Panel-Plaque-Carved-Wood-Art-Nouveau-Antique-Gilt-Leaf-Rococo-/192171526005?hash=item2cbe50c775:g:yp4AAOSwrhBZA0iM
p8
aVhttp://www.ebay.com/itm/24-Professional-Kabuki-Make-Up-Brush-Set-Foundation-Brushes-Wood-Makeup-Brushes-/201826191679?epid=1062829594&hash=item2efdc7493f:g:4I4AAOSw1JhZZIFY
p9
aVhttp://www.ebay.com/itm/New-Good-Quality-Strong-Raw-Wood-Rolling-Box-Beautiful-3-4-x-5-Inches-Gift-/122359218250?hash=item1c7d2d804a:g:3gkAAOSw~AVYpsv5
p10
aVhttp://www.ebay.com/itm/Natural-Wooden-Craft-Balls-Wood-Beads-Sphere-with-hole-10mm-to-50mm-Diameter-/201158164075?var=500321079428&epid=1362069109&hash=item2ed5f5fe6b:m:mymWkJ71zgN9jmDFuHCDXug
p11
aVhttp://www.ebay.com/itm/PINE-WOOD-WOODEN-BOX-WITH-LID-CLASP-STORAGE-FOR-ART-CRAFT-DECOUPAGE-/222415867185?hash=item33c904cd31:g:X3sAAOSw32lYr2Vp
p12
aVhttp://www.ebay.com/itm/Photo-Frame-Picture-Poster-Wood-Wall-Decor-Collage-Hanging-Frames-A1-A2-A3-A4-A5-/122342617765?var=422826294163&hash=item1c7c3032a5:m:mku5ExfD_IFUTH_VPUFg0yA
p13
aVhttp://www.ebay.com/itm/PLAIN-WOOD-WOODEN-BOX-29x25x6cm-for-DECOUPAGE-/161065268900?hash=item25803cf6a4:g:TP4AAMXQzr1R4KZ3
p14
aVhttp://www.ebay.com/itm/Raw-Wooden-Rolling-Box-High-Quality-Wood-Box-Buy-1-2-/272377512807?var=571302086454&hash=item3f6af70367:m:m6fTKCDC0_m0qPZqCl3UEQQ
p15
aVhttp://www.ebay.com/itm/50-plain-natural-unfinished-wood-wooden-domed-coin-disc-buttons-3x12mm-/291694726344?epid=20004085229&hash=item43ea5c4cc8:g:1NEAAOSwHaBWlQtI
p16
aVhttp://www.ebay.com/itm/M6-x-10-5-mm-Headed-Steel-Knurled-Shank-Knock-In-Insert-For-Wood-10-pcs-/302374487277?hash=item4666ec84ed:g:pI8AAOSwnDZT3APZ
p17
aVhttp://www.ebay.com/itm/New-Wooden-Coat-Hangers-Job-Lot-Walnut-Wood-/401328989895?var=670945296058&hash=item5d711266c7:m:mqkOobrBQcc2s-VdhTarLVA
p18
aVhttp://www.ebay.com/itm/WOODEN-SCRABBLE-TILES-BLACK-LETTERS-NUMBERS-FOR-CRAFTS-WOOD-ALPHABETS-/232253477628?var=531483211100&hash=item361362d2fc:g:SAYAAOSwfVpYssCv
p19
aVhttp://www.ebay.com/itm/Antique-French-1920s-Wood-2-Tone-Metal-Crucifix-1-5-X-75-Inch-/162548006041?hash=item25d89dbc99:g:k9YAAOSw-CpX~~fE
p20
aVhttp://www.ebay.com/itm/Bubinga-EXOTIC-WOOD-for-Scales-Vintage-Straight-Cut-Razor-Knife-Restoration-/262149994606?var=560914961503&hash=item3d095b786e:m:mQFX0bMEB0p0flNhbpapCpw
p21
aVhttp://www.ebay.com/itm/Natural-Wooden-Beads-100-of-Natural-Beech-Wood-PERFECT-QUALITY-/221003461910?var=520082443613&hash=item3374d53516:m:mpykH-8ly1A57PxcKE3BlFg
p22
aVhttp://www.ebay.com/itm/100-x-ROUND-WOOD-WOODEN-BEADS-8mm-MIX-COLOUR-/332063265176?hash=item4d50835198:g:B8EAAOSw-0xYUqd6
p23
aVhttp://www.ebay.com/itm/French-1960s-Coca-Wood-Crucifix-2inch-X-1-1-4-Inch-/162461197145?hash=item25d3712359:g:LyoAAOSwCGVX~~G8
p24
aVhttp://www.ebay.com/itm/Packet-500-Brown-Wood-4-x-6mm-Plain-Rondelle-Beads-HA23030-/282120843373?epid=1558977436&hash=item41afb6706d:g:yY4AAOSwXY5ZXQY4
p25
aVhttp://www.ebay.com/itm/200-ROUND-WOODEN-BEADS-Brown-8mm-Bulk-Pack-Natural-Wood-/391395834356?epid=1317621008&hash=item5b210279f4:g:rmQAAOSwOgdY0j~o
p26
aVhttp://www.ebay.com/itm/5-x-RECIPROCATING-SAW-BLADES-6-TPI-150MM-WOOD-CUTTING-/251636027935?hash=item3a96ad121f:g:XEEAAOSwxu5ZKAbK
p27
aVhttp://www.ebay.com/itm/Packet-500-Mixed-Wood-4-x-6mm-Plain-Rondelle-Beads-HA23200-/282094475796?hash=item41ae241a14:g:MYMAAOSwRXRZXQdI
p28
aVhttp://www.ebay.com/itm/Plain-Coasters-Set-Round-Wood-x-6-With-Coaster-Holder-Paint-Decorate-Craft-/322316105049?hash=item4b0b897559:g:snYAAOSwHMJYG0Dx
p29
aVhttp://www.ebay.com/itm/Hobbies-Wood-Sample-Pack-1-5-x-100-x-457mm-/401310194407?hash=item5d6ff39ae7:g:PE4AAOSwHHFY9dOD
p30
aVhttp://www.ebay.com/itm/20-plain-natural-unfinished-wood-wooden-domed-coin-disc-buttons-5x25mm-/292043377311?hash=item43ff244a9f:g:0e4AAOSwT6pVpQHX
p31
aVhttp://www.ebay.com/itm/WOODEN-CHRISTMAS-EVE-BOX-SHAPES-gift-craft-card-embellishment-tag-wood-scrapbook-/122096769194?var=421136574018&hash=item1c6d88d8aa:m:mLAz99p0wWc0kDnI2DkLddQ
p32
aVhttp://www.ebay.com/itm/500-x-WOODEN-ROUND-BEADS-WOOD-6x5mm-MIXED-COLOURS-/172456451364?epid=2120218958&hash=item2827349d24:g:uz8AAOSw44BYXRUo
p33
aVhttp://www.ebay.com/itm/Natural-Wooden-Craft-Wood-Balls-Sphere-10mm-to-75mm-Diameter-Craft-Supplies-/191283638857?var=490608945253&hash=item2c8964b249:m:m5qYylufuLiVr8LBuwBFmIg
p34
aVhttp://www.ebay.com/itm/Packet-700-Black-Wood-4-x-6mm-Plain-Rice-Beads-HA23250-/361491695444?epid=1858925604&hash=item542a958754:g:LDEAAOSwDrNZXQed
p35
aVhttp://www.ebay.com/itm/Set-Of-2-Nesting-Carved-Edge-Lime-Washed-Mango-Wood-Wooden-Side-Tables-/311729952403?epid=1084883495&hash=item48948d9693:g:khYAAOSwcB5ZEPGS
p36
aVhttp://www.ebay.com/itm/50-x-WOODEN-FLOWER-WOOD-BEADS-15MM-MIXED-COLOURS-/192060353083?hash=item2cb7b06a3b:g:nh4AAOSwImRYXP~q
p37
aVhttp://www.ebay.com/itm/Black-Walnut-EXOTIC-WOOD-for-Scales-Straight-Cut-Razor-Knife-Restoration-/262584051826?var=561460956155&hash=item3d233aa872:m:mmRRTNHJg1s6_KRY3IO7GgA
p38
aVhttp://www.ebay.com/itm/WWS-BALSA-WOOD-DOWEL-13mm-1-2-x-9-lengths-of-12-inches-A21-/182533745266?hash=item2a7fdbea72:g:XGoAAOSwVm5Y9KAk
p39
aVhttp://www.ebay.com/itm/SET-OF-x-6-WOOD-BRASS-BREAD-PUNCHES-1-2-PRICE-/391193791136?hash=item5b14f78aa0:g:ryEAAOSwu4BVm9CW
p40
aVhttp://www.ebay.com/itm/50-x-30mm-Butterflies-MDF-Wooden-Shape-Craft-Embellishments-Wood-Craft-Art-/222441736085?epid=1083350063&hash=item33ca8f8795:g:YBMAAOSwzgBYypO9
p41
aVhttp://www.ebay.com/itm/A4-MARINE-GRADE-STAINLESS-STEEL-COUNTERSUNK-SELF-TAPPING-WOOD-SCREWS-CHIPBOARD-/121837439360?var=420829908264&hash=item1c5e13c980:m:mH4x3-nldnMbcZbh2kEhu0w
p42
aVhttp://www.ebay.com/itm/Set-of-2-Vintage-Industrial-Style-Shelves-Wood-Metal-Rustic-Urban-/132205213019?hash=item1ec80b755b:g:rkwAAOSw8w1YB2Qm
p43
aVhttp://www.ebay.com/itm/10x-WOODEN-BALLOONS-SHAPES-gift-tag-craft-card-make-scrapbook-embellishment-wood-/122064955283?var=421099874440&hash=item1c6ba36793:m:mLEpF2lKhzefnt7IsBWQErA
p44
aVhttp://www.ebay.com/itm/IRWIN-1922007-6X-Blue-Groove-Stubby-Wood-Bit-Set-of-5-/201896144453?epid=1654807429&hash=item2f01f2ae45:g:0e8AAOSwE0JY9gYa
p45
aVhttp://www.ebay.com/itm/No-2-3-4-6-8-10-12-SOLID-BRASS-SLOTTED-COUNTERSUNK-WOOD-SCREWS-ALL-GAUGES-SIZES-/161260393647?var=460299714216&hash=item258bde54af:m:mFUyCFjdHlEWr8tRpmjUUBg
p46
aVhttp://www.ebay.com/itm/Pair-of-Oak-Wood-Scales-Knife-Handle-Making-Blanks-Bush-Crafts-14x4-cm-/222066868860?epid=1481800792&hash=item33b437827c:g:b28AAOSw9uFW-FPW
p47
aVhttp://www.ebay.com/itm/Hardwood-Wooden-Dowels-Wood-Craft-Sticks-4-to-20mm-Thick-10-to-30cm-Long-Pins-/201274491778?var=500472965399&hash=item2edce50382:m:mVcS4d9k--kq0niCc6NVU_w
p48
aVhttp://www.ebay.com/itm/Thurmer-Tools-6-3-20-5-HSS-COUNTERSINK-SET-HSS-FOR-METAL-AND-WOOD-6-PCS-/282328591319?hash=item41bc186bd7:g:-rsAAOSwopRYfZEf
p49
aVhttp://www.ebay.com/itm/IRWIN-6X-Blue-Groove-Stubby-Wood-Bit-Set-5Pc-/181902665294?epid=1838599048&hash=item2a5a3e664e:g:YowAAOSwmgJY54pz
p50
aVhttp://www.ebay.com/itm/10-Large-Natural-Wood-Made-with-love-Buttons-30mm-Sewing-Craft-BU1169-/282377764527?epid=15003431020&hash=item41bf06beaf:g:wKYAAOSwU8hY5fcE
p51
aVhttp://www.ebay.com/itm/No-2-3-4-6-8-10-12-SOLID-BRASS-SLOTTED-ROUND-DOME-HEAD-WOOD-SCREWS-ALL-GAUGES-/360898900900?var=630259717644&hash=item54074033a4:m:mfv3YVJ0xJHnbbYE761t_gA
p52
aVhttp://www.ebay.com/itm/SLOTTED-RAISED-COUNTERSUNK-WOOD-SCREWS-A2-STAINLESS-STEEL-3mm-3-5mm-4mm-5mm-/361881710401?var=631151262186&hash=item5441d4af41:m:ma0Zb3swQiu4nrrEAWtfQOg
p53
aVhttp://www.ebay.com/itm/LOT-x-12-CUBES-2-5-65-mm-WOODEN-BLOCKS-BUNDLE-SET-PINE-WOOD-NATURAL-ECO-BRICKS-/161699271924?epid=1864429676&hash=item25a60714f4:g:KI0AAOSwBLlVevua
p54
aVhttp://www.ebay.com/itm/VINTAGE-STYLE-DITSY-FLORAL-WOODEN-PHOTO-PICTURE-FRAME-4-X-6INCH-RUSTIC-DARK-WOOD-/112282962526?epid=875188687&hash=item1a24960a5e:g:lScAAOSww3tY4Ttf
p55
aVhttp://www.ebay.com/itm/No-4-3mm-A2-Stainless-Steel-Pozi-Countersunk-Wood-Screws-DIN-7997-/231329809378?var=530588817244&hash=item35dc54c3e2:m:mAm9K9SrWpZWV5ZXATBk9gA
p56
aVhttp://www.ebay.com/itm/100pcs-Wood-Wooden-Animals-Buttons-Sewing-And-Scrapbooking-DIY-Craft-Gift-/221759311149?hash=item33a1e28d2d:g:5roAAOSw7GRZAg0e
p57
aVhttp://www.ebay.com/itm/50x-Round-Wood-Beads-25mm-1-Wooden-Balls-Unfinished-Wooden-Beads-DIY-/322199486545?hash=item4b04960051:g:O2oAAOxyyUtSb8Fr
p58
aVhttp://www.ebay.com/itm/Wood-And-Sons-Jacks-Farm-8-Salad-Plate-X-4-/262278540451?hash=item3d1104eca3:g:5vcAAOSwHQ9WUEtU
p59
aVhttp://www.ebay.com/itm/Narex-4-5-6-8-10-12-14-16mm-Mortice-Wooden-Wood-Handle-Handled-Chisel-Chisels-/172105607624?var=470943711081&hash=item28124b29c8:m:mdWAPjixb1NCrLBhgzWJiAA
p60
aVhttp://www.ebay.com/itm/Wood-And-Sons-Jacks-Farm-6-1-2-Cereal-Dessert-Bowl-X-2-/262504960524?hash=item3d1e83d20c:g:v2QAAOSwgyxWUE0Y
p61
aVhttp://www.ebay.com/itm/1-Solid-Cherry-wood-Sheets-3mm-4mm-or-6mm-/112412923036?var=412810961245&hash=item1a2c55149c:m:m43BHCt5N31UiKvMn5F8bSQ
p62
aVhttp://www.ebay.com/itm/Small-wood-screws-2-5-x-12-mm-Bag-of-50-/332293226631?hash=item4d5e384087:g:7tgAAOSwLF1X-9d5
p63
aVhttp://www.ebay.com/itm/FAITHFULL-90mm-3-1-2-CARVERS-CARVING-ROUND-ROUNDED-BEECH-WOOD-WOODEN-MALLET-/401098603593?epid=1975345977&hash=item5d6356fc49:g:19cAAOSweWVXc~dr
p64
aVhttp://www.ebay.com/itm/4x-Paper-Napkins-for-Decoupage-Decopatch-Craft-Natural-Wood-Gray-/201870207307?epid=16002611538&hash=item2f0066e94b:g:xKoAAOSwCU1Y2kuQ
p65
aVhttp://www.ebay.com/itm/1-Solid-Ash-wood-Sheets-3mm-4mm-or-6mm-/112412928509?var=412810966689&hash=item1a2c5529fd:m:mYufYiNPTEyOueQiLDW0iwA
p66
aVhttp://www.ebay.com/itm/100M-X3MM-ACOUSTIC-UNDERLAY-FOR-WOOD-LAMINATE-FLOORING-/160829139879?epid=1187401257&hash=item257229eba7:g:7TEAAOSwm8VU04ci
p67
aVhttp://www.ebay.com/itm/Red-Oak-Wood-Veneer-Sheet-2ft-x-8ft-/112099108168?hash=item1a19a0a548:g:lKwAAOSwU-pXtGcV
p68
aVhttp://www.ebay.com/itm/PLAIN-WOOD-WOODEN-BOX-29x25x6cm-IN-BROWN-COLOR-/161894130731?hash=item25b1a4642b:g:6JwAAOSw7FRWUJUM
p69
aVhttp://www.ebay.com/itm/BALSA-WOOD-SHEET-SHEETS-VARIOUS-THICKNESS-4-X-3-VARIOUS-PACK-SIZE-/251997584057?var=550861542746&hash=item3aac39fab9:m:mzcARAh0cuotznIUfjCA7Uw
p70
aVhttp://www.ebay.com/itm/1-Solid-Iroko-wood-Sheets-4mm-or-6mm-/112295948419?var=412712720749&hash=item1a255c3083:m:m_6mw3ZZoVj9cnSEHOXTjWA
p71
a.