(lp1
Vhttp://www.ebay.com/itm/5-Minute-Instant-Facelift-Skin-Tighten-Anti-Ageing-Wrinkle-Serum-HYALURONIC-ACID-/151841357871?var=&epid=1743580979&hash=item235a73402f:m:mDSF5N5iRNB3b_NvZDbao5A
p2
aVhttp://www.ebay.com/itm/Glycolic-Acid-Multi-Acid-Organic-Eye-Serum-Hyaluronic-AHA-Brighten-Tighten-Skin-/261198776749?hash=item3cd0a909ad:g:OpgAAOSw-kdX0c8Q
p3
aVhttp://www.ebay.com/itm/Minx-Embrace-Like-a-Virgin-Vaginal-Tightening-Gel-White-50ml-Increase-Elasticity-/332181038082?epid=751709909&hash=item4d57886402:g:VTUAAOSww3tY7ed6
p4
aVhttp://www.ebay.com/itm/Derma-Wand-Kit-Wrinkles-Puffy-Eyes-Skin-Tightening-Saggy-Non-Surgical-Face-Lift-/182049050274?epid=1012437752&hash=item2a62f80ea2:g:R7QAAOSwZQxW4FuK
p5
aVhttp://www.ebay.com/itm/Dr-Jart-V7-Renewal-Serum-30ml-Dr-Jart-Pore-Refine-Re-Tighten-Mask-100ml-SET-/382075401083?epid=1523216876&hash=item58f577f37b:g:BP0AAOSwPc9WyhYG
p6
aVhttp://www.ebay.com/itm/31pc-Oil-Filter-Removal-Wrench-Cap-Car-Garage-Tool-Set-Loosen-Tighten-Cup-Socket-/252158603708?epid=1143430860&hash=item3ab5d2f1bc:g:TDkAAOSwnK9ZUVgH
p7
aVhttp://www.ebay.com/itm/RF-Radio-Frequency-Dot-Matrix-Face-Tightening-Rejuvenation-Skin-Beauty-Machine-/162490070675?hash=item25d529b693:g:uU4AAOSwuspY~w8e
p8
aVhttp://www.ebay.com/itm/REVERSE-VAGINAL-TIGHTENING-GEL-AROUSAL-Sex-Aid-Cream-SHRINK-VIRGIN-/271474194972?hash=item3f351f7a1c:g:VD4AAOxyD9JR~o20
p9
aVhttp://www.ebay.com/itm/Minx-Embrace-Vaginal-Tightening-Gel-White-50ml-Increase-Sexual-Sensitivity-Cream-/162545695838?epid=751709909&hash=item25d87a7c5e:g:tLwAAOSw6ShZOKyh
p10
aVhttp://www.ebay.com/itm/AMAZING-INSTANT-FACE-EYE-WRINKLE-LIFT-TIGHTENING-CREAM-WORKS-INSTANTLY-30MLs-/180872450464?epid=1088247640&hash=item2a1cd691a0:g:x14AAOSwqu9U75f7
p11
aVhttp://www.ebay.com/itm/Strivectin-Tightening-Face-Body-Cream-200ml-TL-5-NIA-114-Protein-Tighteners-/122306867079?hash=item1c7a0eaf87:g:YqMAAOSwagdXSLLx
p12
aVhttp://www.ebay.com/itm/Laid-Bare-Pack-Your-Bags-Lighten-Tighten-Eye-Cream-30ml-natural-/290937229765?epid=1704303860&hash=item43bd35d1c5:g:pFsAAOSw6n5XvgrM
p13
aVhttp://www.ebay.com/itm/10-Minute-Solution-Tighten-and-Tone-Pilate-DVD-/272239878702?epid=168110855&hash=item3f62c2e22e:g:0XYAAOSwvU5XMyDc
p14
aVhttp://www.ebay.com/itm/Dr-Rongs-Chinese-Herbal-Formula-Unisex-Tighten-Skin-Anti-Ageing-Mask-Remedy-/252574246517?epid=1656438370&hash=item3ace992675:g:bGwAAOSwxH1UD2Tk
p15
aVhttp://www.ebay.com/itm/Doc-Johnson-Reverse-Vaginal-Tightening-Gel-Women-Increase-Sexual-Sensitivity-7-1-/331685689145?epid=1339885566&hash=item4d3a01f739:g:Yw0AAOSw5ZBWJO7W
p16
aVhttp://www.ebay.com/itm/Keith-Richards-hand-tighten-only-t-shirt-worn-by-rolling-stones-led-zeppelin-/182271565735?var=&hash=item2a703b5fa7:m:mtTl_7NbnBUn33X18RR60xg
p17
aVhttp://www.ebay.com/itm/Face-Toner-Massager-Anti-Ageing-Wrinkle-Facial-Massage-Younger-Skin-Tightening-/172219316331?hash=item281912386b:g:V2cAAOSwl9BWHjan
p18
aVhttp://www.ebay.com/itm/High-Frequency-Beauty-Facial-Machine-Skin-Tightening-Acne-Spot-Wrinkles-Remover-/311455797428?hash=item48843650b4:g:1-0AAOSwyDxXhwtX
p19
aVhttp://www.ebay.com/itm/Tighten-Up-Volume-2-Deluxe-Various-Artists-NEW-2CD-/352004177336?epid=1028405384&hash=item51f5157db8:g:BMMAAOSw4A5Yxlma
p20
aVhttp://www.ebay.com/itm/ViaTight-Tightens-Womens-Intimate-Zones-Vaginal-tightening-Gel-/282009631688?hash=item41a9157bc8:g:zR0AAOSwD2pXFUM4
p21
aVhttp://www.ebay.com/itm/Clarins-Extra-firming-Tightening-Lift-Botanical-Serum-100ml-Professional-Size-/182673023095?hash=item2a88292077:g:BKsAAOSwjKFZRDiH
p22
aVhttp://www.ebay.com/itm/NIP-TUCK-BANISH-THE-B-TOX-PILLS-ANTI-WRINKLE-TABLET-FIRM-TIGHTEN-LIFT-SKIN-/262731584128?epid=1839771041&hash=item3d2c05d280:g:NO0AAOSwHMJYNcUf
p23
aVhttp://www.ebay.com/itm/Jouve-Instant-Tightening-Restoring-Serum-/362035037632?hash=item544af845c0:g:nREAAOSwDmBY5s1J
p24
aVhttp://www.ebay.com/itm/M-ASAM-VINOLIFT-LIPOPEARLS-SKIN-TIGHTENING-CREAM-SPECIAL-NIGHT-CARE-CREAM-/262119874820?var=&hash=item3d078fe104:m:mWbVg_ORcf7WcZm7zWo68ng
p25
aVhttp://www.ebay.com/itm/StriVectin-StriVectin-TL-Tightening-Body-Cream-200ml-Womens-Skin-Care-/222368693738?epid=1913450160&hash=item33c634fdea:g:P8AAAOSw4YdY0Caq
p26
aVhttp://www.ebay.com/itm/StriVectin-TL-30ml-Tightening-Smooth-Tone-Face-Serum-5-NIA-Protein-Tighteners-/122287358459?hash=item1c78e501fb:g:UEUAAOSw14xWKR3Y
p27
aVhttp://www.ebay.com/itm/Vaginal-Tightening-Gel-Cream-Organic-Hold-Me-Tight-30ml-Shunga-Pjur-Lube-Sachet-/191314374466?epid=1525227084&hash=item2c8b39af42:g:ElcAAOSw~OVWx4zX
p28
aVhttp://www.ebay.com/itm/THE-NON-SURGICAL-FACE-LIFTING-SYSTEM-INSTANT-LIFT-TIGHTENING-MASK-UNISEX-/220994775912?epid=1688287006&hash=item337450ab68:g:sCIAAOxy3NBSeSXI
p29
aVhttp://www.ebay.com/itm/14Pcs-Oil-Filter-Removal-Wrench-Set-Cap-Car-Garage-Tool-Tighten-Cup-Socket-UK-/201965912200?hash=item2f061b4088:g:QVUAAOSwDrNZUUYg
p30
aVhttp://www.ebay.com/itm/Vaginal-tightening-pills-Herbal-Vagifirm-tighten-your-Vigina-/162485031445?hash=item25d4dcd215:g:lS4AAOSwsW9Y2NEx
p31
aVhttp://www.ebay.com/itm/Virginia-Like-A-Virgin-Vaginal-Tightening-Gel-50ml-/201624110638?epid=1817235695&hash=item2ef1bbc62e:g:1ucAAOSwZVlXiQpY
p32
aVhttp://www.ebay.com/itm/Silkn-FaceTite-For-Wrinkle-Reduction-And-Skin-Tightening-/332238315812?hash=item4d5af26124:g:Lw0AAOSww5hZKN0I
p33
aVhttp://www.ebay.com/itm/KEYAH-NATURALS-INSTANT-ERASER-WRINKLE-CREAM-ANTI-AGING-FIRM-TIGHTEN-BUY2GET1FREE-/281608722326?hash=item4191301796:g:adAAAOSwBahU62M9
p34
aVhttp://www.ebay.com/itm/Clarins-Extra-Firming-Tightening-Lift-Botanical-Serum-30ml-10-x-3ml-/272740521188?epid=1408775192&hash=item3f809a14e4:g:I2QAAOSwKytZFAMD
p35
aVhttp://www.ebay.com/itm/Portable-High-Frequency-Skin-Tightening-Acne-Spot-Wrinkles-Remover-Beauty-Health-/122437837601?epid=1021678862&hash=item1c81dd2321:g:jTEAAOSwc49Y6erX
p36
aVhttp://www.ebay.com/itm/Tighten-Up-Volume-1-Various-Artists-NEW-VINYL-LP-/391727201416?epid=1041786224&hash=item5b34c2bc88:g:-JwAAOSw4A5Yxlkj
p37
aVhttp://www.ebay.com/itm/31pc-Oil-Filter-Removal-Wrench-Cap-Car-Garage-Tool-Set-Loosen-Tighten-Cup-Socket-/222397301505?epid=536714685&hash=item33c7e98301:g:03oAAOSwA3dYk5GU
p38
aVhttp://www.ebay.com/itm/Neck-Firming-and-Tightening-Lifting-V-line-Serum-Chin-contouring-Double-Chin-/232266305879?hash=item3614269157:g:jIgAAOSw2gxYwolO
p39
aVhttp://www.ebay.com/itm/ONE-Tongkat-Madura-HERBAL-JAMU-STICK-TIGHTEN-AND-CLEANSE-/232400563028?hash=item361c272b54:g:0DUAAOSwd0BV2cLu
p40
aVhttp://www.ebay.com/itm/Knotty-Boy-Locksteady-Dreadlocks-Tropical-Tightening-Gel-4oz-Dread-Rasta-/321732982591?epid=1611962676&hash=item4ae8c7b73f:g:FScAAOSwRgJXg-wO
p41
aVhttp://www.ebay.com/itm/Matthews-Roosevelt-Tighten-Up-VINYL-NEW-/282421970405?epid=1505684558&hash=item41c1a945e5:g:uo0AAOSwc-tY5FSK
p42
aVhttp://www.ebay.com/itm/HIGH-FREQUENCY-Facial-Beauty-Machine-Skin-Care-Tightening-Acne-Spot-Remover-/132194847693?hash=item1ec76d4bcd:g:MEEAAOSw7FRWaVcl
p43
aVhttp://www.ebay.com/itm/Knotty-Boy-Locksteady-Dreadlocks-Tropical-Tightening-Gel-4oz-Dread-Rasta-/321732982591?epid=1611962676&hash=item4ae8c7b73f:g:FScAAOSwRgJXg-wO
p44
aVhttp://www.ebay.com/itm/Dr-Rong-Anti-Ageing-Tighten-Winkles-Chinese-Herbs-Face-Mask-Powder-Mother-Gift-/252574248562?epid=1656438370&hash=item3ace992e72:g:-~QAAOSwEzxYXQxu
p45
aVhttp://www.ebay.com/itm/Silkn-FaceTite-For-Wrinkle-Reduction-And-Skin-Tightening-/122465885407?hash=item1c83891cdf:g:SnIAAOSwE0JZAQC9
p46
aVhttp://www.ebay.com/itm/Kiehls-Precision-Lifting-Pore-Tightening-Concentrate-1-7oz-50ml-/282522239842?epid=1844371102&hash=item41c7a34362:g:SCQAAOSwVJhZPwzt
p47
aVhttp://www.ebay.com/itm/AMAZING-INSTANT-FACE-EYE-WRINKLE-LIFT-TIGHTENING-CREAM-WORKS-INSTANTLY-30MLs-/191716378982?epid=681649496&hash=item2ca32fc966:g:x14AAOSwqu9U75f7
p48
aVhttp://www.ebay.com/itm/Shills-AUTHENTIC-Ice-Pore-Tightening-Face-Gel-Soothe-Moisturise-Hydrate-50ml-/172455167154?epid=2115953056&hash=item28272104b2:g:gOoAAOSwlXhZaLza
p49
aVhttp://www.ebay.com/itm/Tighten-Up-Volume-2-/182446921428?hash=item2a7aaf16d4:g:304AAOSwNnRYmP2Z
p50
aVhttp://www.ebay.com/itm/Like-A-Virgin-Unique-Vaginal-Tightening-Cream-/302008936465?hash=item465122a811:g:F-IAAOSw4YJZYpOK
p51
aVhttp://www.ebay.com/itm/StriVectin-TL-Tightening-Body-Cream-NIA-114-Protein-Tighteners-200ml-6-7-oz-/152139009890?epid=2059234321&hash=item236c310f62:g:SfYAAOSw-YBXG9AO
p52
aVhttp://www.ebay.com/itm/REVERSE-VAGINAL-TIGHTENING-GEL-AROUSAL-SACHET-Sex-Aid-Cream-SHRINK-VIRGIN-/271350387087?epid=1981420536&hash=item3f2dbe518f:g:zs8AAMXQVhFR~o30
p53
aVhttp://www.ebay.com/itm/Silkn-FaceTite-for-Wrinkle-Reduction-and-Skin-Tightening-/152491462634?hash=item2381330fea:g:XtQAAOSwdGFY3WLB
p54
aVhttp://www.ebay.com/itm/5-in-1-HIGH-FREQUENCY-Facial-Beauty-Skin-Care-Tightening-Spot-Remover-Darsonval-/162433205999?hash=item25d1c606ef:g:CBYAAOSw3utY4R2R
p55
aVhttp://www.ebay.com/itm/31pc-Oil-Filter-Removal-Wrench-Cap-Car-Garage-Tool-Set-Loosen-Tighten-Cup-Socket-/262968058136?epid=536714685&hash=item3d3a1e2118:g:B5wAAOSwL7VWknAD
p56
aVhttp://www.ebay.com/itm/HOURGLASS-GODDESS-TIGHT-AND-TONED-TABLET-STOP-CELLULITE-TIGHTEN-LOOSE-SKIN-/121431696747?epid=1939767569&hash=item1c45e4a56b:g:wYMAAOSwa-dWq1a7
p57
aVhttp://www.ebay.com/itm/SNUGGELS-LUBRICATING-SHRINK-CREAM-Vaginal-TIGHTENING-AROUSAL-Sex-Aid-2nd-/281141475957?var=&epid=1441764914&hash=item4175567a75:m:mw2RsxNq8_KZp13kvDasXcg
p58
aVhttp://www.ebay.com/itm/NIOD-Myrrh-Clay-treatment-masque-50ml-instant-and-visible-tightening-of-the-skin-/232146624959?hash=item360d0461bf:g:vwsAAOSw3utY78hq
p59
aVhttp://www.ebay.com/itm/Like-a-Virgin-Tightening-Vaginal-Pleasure-Arousal-30ml-/152452241953?hash=item237edc9a21:g:4rgAAOSwUEVYDciS
p60
aVhttp://www.ebay.com/itm/SNUGGELS-LUBRICATING-SHRINK-CREAM-Vaginal-TIGHTENING-AROUSAL-Sex-Aid-12g-/331716421070?hash=item4d3bd6e5ce:g:9QQAAOSwwE5WVE-C
p61
aVhttp://www.ebay.com/itm/AMAZING-INSTANT-FACE-EYE-WRINKLE-LIFT-TIGHTENING-CREAM-WORKS-INSTANTLY-30MLs-/181195338543?hash=item2a3015732f:g:x14AAOSwqu9U75f7
p62
aVhttp://www.ebay.com/itm/Coachman-Caravan-Compression-Gas-Locker-Lock-Turn-and-Tighten-c-w-2-Keys-CJL-68-/172612115128?hash=item28307bdab8:g:Bz0AAOSw3utY5Qps
p63
aVhttp://www.ebay.com/itm/AMAZING-INSTANT-FACE-EYE-WRINKLE-LIFT-TIGHTENING-CREAM-WORKS-INSTANTLY-30MLs-/350824580296?epid=680674508&hash=item51aec644c8:g:x14AAOSwqu9U75f7
p64
aVhttp://www.ebay.com/itm/CLARINS-Extra-Firming-Tightening-Lift-Botanical-Serum-New-10ml-NEW-/322581141227?hash=item4b1b5596eb:g:iLgAAOSwRMtZZ2bO
p65
aVhttp://www.ebay.com/itm/Minx-Embrace-Vaginal-Tightening-Gel-White-50ml-/132163399770?hash=item1ec58d705a:g:vfkAAOSwSypY9kNo
p66
aVhttp://www.ebay.com/itm/Cleo-Q-Facial-Toning-System-Lift-Firm-Tighten-Look-Years-Younger-Naturally-/351039063733?epid=1508886647&hash=item51bb8f06b5:g:YLQAAOSwBvNTqCCA
p67
aVhttp://www.ebay.com/itm/Loose-Ends-Tighten-Up-Vol-I-CD-ALBUM-/381049811214?hash=item58b856b10e:g:B6MAAOSwqYBWojkJ
p68
aVhttp://www.ebay.com/itm/Veho-Muvi-10-Self-Tightening-Propellers-for-Q-Series-X-Drone-Pack-of-4-/122396137199?epid=1744330038&hash=item1c7f60d6ef:g:nisAAOSwuxFYxrwC
p69
aVhttp://www.ebay.com/itm/Best-Vitamin-C-skin-tightening-Serum-PREMIUM-Anti-ageing-Anti-wrinkle-Facelift-/282502611684?hash=item41c677c2e4:g:zCQAAOSwaeRZFFEp
p70
aVhttp://www.ebay.com/itm/Tightening-Slimming-Face-Beauty-1-Pcs-Massager-Stick-Vibration-Beauty-Skin-Care-/292150264997?hash=item44058344a5:g:DV4AAOSwTf9ZQOqz
p71
aVhttp://www.ebay.com/itm/BABYFACE-45-MATRIXYL-SKIN-TIGHTENING-PEPTIDE-POTION-FIRMING-SEERUM-TRAVEL-SIZE-/281953037054?hash=item41a5b5eafe:g:qaMAAOSwh-1W2C6B
p72
aVhttp://www.ebay.com/itm/Dr-Rong-Anti-Aging-Wrinkles-Tighten-Skin-Unisex-Face-Neck-Herbs-Powder-Mask-10g-/251678390247?epid=1656438370&hash=item3a993377e7:g:1AAAAOSwF1dUPX29
p73
aVhttp://www.ebay.com/itm/PRIORI-COFFEEBERRY-TIGHTENING-SERUM-UNBOXED-RRP-53-50-/302361559223?hash=item46662740b7:g:UEIAAOSwnF9Y750t
p74
aVhttp://www.ebay.com/itm/Quality-Prong-Bezel-Pusher-Tighten-Prongs-Press-Bezel-When-Setting-Stones-/261956544660?hash=item3cfdd3a894:g:lHgAAOSwgQ9VoDfS
p75
aVhttp://www.ebay.com/itm/TriPollar-POSE-Home-Body-skin-Tightening-improve-the-appearance-of-cellulite-/253042226606?hash=item3aea7df5ae:g:DuMAAOSwLnBXUruL
p76
aVhttp://www.ebay.com/itm/Fifty-Shades-of-Grey-Tighten-Tense-Silicone-Jiggle-Balls-Kegel-Soft-Ben-Wa-/332147119129?epid=1170131817&hash=item4d5582d419:g:gj0AAOSwWxNYvoWa
p77
aVhttp://www.ebay.com/itm/Tighten-Up-Volume-2-CD-/122359269092?epid=1028405384&hash=item1c7d2e46e4:g:gk0AAOSw32lYptu2
p78
aVhttp://www.ebay.com/itm/Orquid-Eternal-Soft-Focus-Effect-Tightening-Wrinkle-Filler-Blur-Cream-Gel-15ml-/151703019815?epid=853823055&hash=item2352346127:g:uQ8AAOSwv0tVbw6I
p79
aVhttp://www.ebay.com/itm/Viaxi-For-Her-Tightening-Breast-Firming-Whitening-Sensitive-Arousal-Creams-/182028814157?var=&epid=1155931213&hash=item2a61c3474d:m:mcdALcifkNO-7JMRYTBpwdg
p80
aVhttp://www.ebay.com/itm/Kegel-Exercise-Duo-Geisha-Vaginal-Stimulating-Tightening-Rolling-Ben-Wa-Balls-/262904873616?var=&hash=item3d365a0290:m:mxdP5u95y7La_yNwMJe_SxQ
p81
aVhttp://www.ebay.com/itm/Doc-Johnson-Reverse-Vaginal-Tightening-Gel-For-Women-Increase-Sexual-Sensitivity-/331685650377?epid=1541396840&hash=item4d3a015fc9:g:pUgAAOSw5VFWJN-5
p82
aVhttp://www.ebay.com/itm/Tickle-her-Like-a-virgin-tightening-pleasure-gel-New-3ml-Sachets-/331644989981?epid=1684333084&hash=item4d3794f21d:g:BlUAAOSwTA9X6QNI
p83
aVhttp://www.ebay.com/itm/SILVER-METAL-BEN-WA-KEGEL-LOVE-BALLS-KEGEL-PELVIC-FLOOR-TIGHTENING-EXERCISE-/222523311780?hash=item33cf6c46a4:g:110AAOSw42JZJgQB
p84
aVhttp://www.ebay.com/itm/Quality-Stone-Gem-Setting-Pliers-Jewelry-Making-Beads-Craft-Bending-Tightening-/251613278018?epid=1331855701&hash=item3a9551ef42:g:Xd0AAOSwd4tTwEW0
p85
aVhttp://www.ebay.com/itm/Intelligent-Tightening-Spray-For-Women-to-Become-a-Virgin-Again-/252738480767?epid=866588133&hash=item3ad8632a7f:g:WuIAAOSwZQRYh2T2
p86
aVhttp://www.ebay.com/itm/100-Genuine-V-Tight-Gel-Vaginal-Tightening-Gel-BUY-ONE-GET-ONE-FREE-/282580504763?hash=item41cb1c50bb:g:jfoAAOSwFJBZXNgm
p87
aVhttp://www.ebay.com/itm/Caravan-compression-compartment-gas-locker-lock-turn-and-tighten-GLL4-/182593214732?hash=item2a8367590c:g:rJsAAOSw9r1WD6XR
p88
aVhttp://www.ebay.com/itm/Full-Color-Kegel-Exercise-Duo-Geisha-Vaginal-Muscle-Tightening-Rolling-2-Balls-/332161439237?var=&hash=item4d565d5605:m:mrX10ESqRojiKqeGP2i7_nQ
p89
aVhttp://www.ebay.com/itm/HOURGLASS-GODDESS-PERT-AND-PEACHY-BUM-PILL-LIFT-TIGHTEN-BRAZILIAN-BUTT-LIFT-/121606197019?epid=1539757688&hash=item1c504b4f1b:g:gSIAAOSwKtlWqChO
p90
aVhttp://www.ebay.com/itm/HOURGLASS-GODDESS-TIGHT-AND-TONED-TABLET-STOP-CELLULITE-TIGHTEN-LOOSE-SKIN-/142426535773?epid=1939767569&hash=item212948775d:g:fo4AAOSw6ShZUJDW
p91
aVhttp://www.ebay.com/itm/Multi-Purpose-Adjustable-Rubber-Strap-Wrench-Grip-Tighten-Bottle-Jar-Opener-/152309792399?epid=1210940551&hash=item23765efe8f:g:Jc0AAOSwA3dYIQmw
p92
aVhttp://www.ebay.com/itm/Passion-Packs-For-Her-Impotence-Aid-Arousal-Creams-Tightening-Gel-Sexual-Aid-/181739259062?var=&hash=item2a508104b6:m:mk-y0wpiuFgD2lhvGxNuAgA
p93
aVhttp://www.ebay.com/itm/Roller-Massagers-Skin-Tightening-Face-Body-Lifting-Decent-Gadget-V-Shape-/292140832798?epid=940252244&hash=item4404f3581e:g:2~8AAOSwlMFZNQwP
p94
aVhttp://www.ebay.com/itm/Elddis-Compass-Swift-caravan-motorhome-turn-and-tighten-gas-locker-lock-GLL6-/382096691939?hash=item58f6bcd2e3:g:j1sAAOSwymxVQ6WP
p95
aVhttp://www.ebay.com/itm/ULTIMATE-SUPERIOR-BODY-APPLICATOR-TONE-TIGHTEN-FIRM-LIKE-IT-WORKS-5-WRAPS-UK-/252729846042?var=&hash=item3ad7df691a:m:mmlmvaiGqRH-OiFX0hRiBEQ
p96
aVhttp://www.ebay.com/itm/HOURGLASS-GODDESS-PERT-AND-PEACHY-BUM-PILL-LIFT-TIGHTEN-BRAZILIAN-BUTT-LIFT-/271601327591?epid=1539757688&hash=item3f3cb35de7:g:9soAAOSwFqJWn3VF
p97
aVhttp://www.ebay.com/itm/Tight-Cherry-Tightening-Gel-10ml-Orgasm-Enhancer-For-Her-Same-Day-Dispatch-/171711450647?var=&hash=item27faccce17:m:mdBklNBPPw1sL4KxoXp_CRw
p98
aVhttp://www.ebay.com/itm/Archie-Bell-And-The-Drells-Tighten-Up-Warner-Japan-NEW-CD-/311012138828?epid=1126597658&hash=item4869c49f4c:g:N0kAAOSw4bVTnWWg
p99
aVhttp://www.ebay.com/itm/Snuggels-Lubricating-Shrink-Cream-Cherry-Vaginal-Tightening-Lube-For-Her-/181848781873?hash=item2a57083431:g:gUAAAOSwqu9U~H~i
p100
aVhttp://www.ebay.com/itm/2-x-Curcovia-Toning-Tighten-Post-Pregnancy-Menstrual-Cramps-BUY-2-SET-GET-1-FREE-/272092770098?var=&hash=item3f59fe2f32:m:m41S2E52eMR3O2KCSuQMsXw
p101
aVhttp://www.ebay.com/itm/Measuring-Skylove-Angle-izer-Template-Tool-Marker-Tool-Durable-Easy-To-Tighten-/132222847790?hash=item1ec9188b2e:g:CH4AAOSwOMdZPIpE
p102
aVhttp://www.ebay.com/itm/Neilson-Torque-Angle-Guage-Head-BoltsTighten-Degrees-1-2-Drive-Tighten-4B-/281061180737?epid=1305508661&hash=item41708d4541:g:UWAAAOxy-WxTE1pR
p103
aVhttp://www.ebay.com/itm/PORE-SOLUTIONS-DERMOPROGRAM-with-Japanese-Rose-DAY-NIGHT-Serum-BIO-Mask-Peeling-/162069902009?var=&hash=item25bc1e72b9:m:mnFvan_9ZbCthvXAHowT0vA
p104
aVhttp://www.ebay.com/itm/Tighten-Up-Volume-2-CD-/122359269092?epid=1028405384&hash=item1c7d2e46e4:g:gk0AAOSw32lYptu2
p105
aVhttp://www.ebay.com/itm/Total-Body-Sculpt-Tighten-yours-Thighs-Glutes-Abs-Arms-with-Caroline-Pea-/222392436730?epid=1337483663&hash=item33c79f47fa:g:9~MAAOSwjDZYjb8i
p106
aVhttp://www.ebay.com/itm/Laidbare-PACK-YOUR-BAGS-Lighten-Tighten-Eye-Cream-Neck-Contour-Treatment-30ml-/291908519176?epid=1704303860&hash=item43f71a8508:g:zzkAAOSw2GlXFhaI
p107
aVhttp://www.ebay.com/itm/Strivectin-Eye-Serum-TL-360-Tightening-Lifting-Puffiness-6-Protein-19ml-0-65oz-/122446635781?hash=item1c82636305:g:cM8AAOSwlXhZYgC0
p108
aVhttp://www.ebay.com/itm/Diana-Goddess-Micro-current-Facial-Toning-Tightening-Beauty-Machine-SERVICED-/332219374194?hash=item4d59d15a72:g:DnoAAOSwxu5ZJIqp
p109
aVhttp://www.ebay.com/itm/Doc-Johnson-Reverse-Tightening-Gel-Vaginal-Shrink-Cream-For-Women-Sex-Aid-Tight-/162196931223?epid=1339885566&hash=item25c3b0c297:g:Dr0AAOSw9IpX0rIp
p110
aVhttp://www.ebay.com/itm/HOURGLASS-GODDESS-PERT-AND-PEACHY-BUM-PILL-LIFT-TIGHTEN-BRAZILIAN-BUTT-LIFT-/221622580252?epid=1539757688&hash=item3399bc341c:g:fpkAAOSwaA5WlWvV
p111
aVhttp://www.ebay.com/itm/LASER-TOOLS-QUICK-ACTION-SELF-TIGHTENING-ADJUSTING-SPANNER-WRENCH-TOOL-SET-/361357090077?hash=item54228f9d1d:g:dI0AAOSw9N1Vwdxl
p112
aVhttp://www.ebay.com/itm/Prenatal-Pilates-Tone-Tighten-with-Caroline-Sandry-/222392437064?epid=1437485080&hash=item33c79f4948:g:7y0AAOSwo4pYjb8k
p113
aVhttp://www.ebay.com/itm/SCREW-GRAB-HELPS-REMOVE-OR-TIGHTEN-STRIPPED-SCREWS-INCREASES-TORQUE-BY-800-/171820589006?hash=item28014e1fce:g:xysAAOSwBLlVdr0T
p114
aVhttp://www.ebay.com/itm/Like-A-Virgin-Tightening-Pleasure-Gel-Sex-Toys-Lubricant-30ml-Spray-40-Applicati-/222562394829?epid=1812521556&hash=item33d1c0a2cd:g:QvcAAOSwNSxU03Yy
p115
aVhttp://www.ebay.com/itm/Grip-Wrench-Strap-Tool-Set-2-Sizes-Tighten-Loosen-Jars-Oil-Filter-Pipes-Easily-/262485279372?hash=item3d1d57828c:g:aGAAAOSwPcVVq9ab
p116
aVhttp://www.ebay.com/itm/2Pairs-9443-Carbon-Fiber-Self-tightening-Propeller-For-DJI-Phantom-2-Vision-RC27-/272499497443?hash=item3f723c59e3:g:BUUAAOSwCQZZEd2q
p117
aVhttp://www.ebay.com/itm/Archie-Bell-and-The-Drells-Tighten-Up-CD-NEW-/401219927418?epid=1126597658&hash=item5d6a923d7a:g:nYsAAOSwo4pYHJ1U
p118
aVhttp://www.ebay.com/itm/2-x-SNUGGELS-LUBRICATING-SHRINK-CREAM-Vaginal-TIGHTENING-AROUSAL-Sex-Aid-2nd-/282521483591?var=&hash=item41c797b947:m:mw2RsxNq8_KZp13kvDasXcg
p119
aVhttp://www.ebay.com/itm/STIMUL8-TIGHTENING-GEL-CREAM-50-ML-female-tighten-Tight-Vaginal-cream-/231404814299?epid=1835561235&hash=item35e0cd3fdb:g:A0sAAOSwaNBUdzOP
p120
aVhttp://www.ebay.com/itm/Colorful-Kegel-Exercise-Duo-Geisha-Vaginal-Muscle-Tightening-Silicone-Ball-UK-/172529139892?var=&hash=item282b89c0b4:m:mF-Ai08LuFdduoHfCOw06Bg
p121
aVhttp://www.ebay.com/itm/Dollylocks-Dreadlocks-Tightening-Gel-Coconut-Aloe-Lime-1oz-30ml-Travel-/322023571125?hash=item4afa19beb5:g:iqIAAOSwEOxXQFCu
p122
aVhttp://www.ebay.com/itm/Snuggels-Lubricating-Cherry-Shrink-Cream-Vaginal-Tightening-Arousal-Lube-Sex-Aid-/161298181587?epid=1561413959&hash=item258e1eedd3:g:OyMAAOxyUgtTLjB2
p123
a.