(lp1
Vhttp://www.ebay.com/itm/Clarks-Mens-Active-Air-Scopic-Way-Brown-Leather-Shoes-UK-various-sizes-wide-fit-/302038463705?var=&hash=item4652e534d9:m:mU3r6VuBT11I0TTvBwyECaQ
p2
aVhttp://www.ebay.com/itm/NEW-CLARKS-ACTIVE-AIR-SCOPIC-WAY-WIDE-FIT-BROWN-LEATHER-SHOES-VARIOUS-SIZES-/232029345282?var=&hash=item360606d602:m:mcNYjGwv_OKaS2Iyp99NOPA
p3
aVhttp://www.ebay.com/itm/Clarks-Mens-Black-Leather-Active-Air-Lace-up-Shoe-Scopic-Way-H-Fitt-R21B-/272015101348?var=&hash=item3f555d0da4:m:maP6DiSMibLceJgol5InACg
p4
aVhttp://www.ebay.com/itm/Hommes-Clarks-ActiveAir-Chaussures-A-Enfiler-Scopic-Automne-Step-Cuir-Pied-Large-/151817624984?var=&epid=1441593608&hash=item2359091d98:m:mhHDGz-pZoeRtJ7gaQMYK3w
p5
aVhttp://www.ebay.com/itm/Mens-Clarks-Scopic-Step-Black-Leather-Slip-On-Shoe-/131590520419?var=&epid=1940768710&hash=item1ea367fe63:m:mkIFCsdQ8PvwZ1lU78Wvb4A
p6
aVhttp://www.ebay.com/itm/MENS-CLARKS-SLIP-ON-BLACK-LEATHER-SHOES-STYLE-SCOPIC-STEP-H-FITTING-/251714836556?var=&epid=1840791224&hash=item3a9b5f984c:m:mVp4KF8pD-2dgtrIj6MRmTw
p7
aVhttp://www.ebay.com/itm/CLARKS-Scopic-Step-Mens-Black-Leather-Slip-On-Active-Air-Shoes-WIDE-H-Fit-/271615388030?var=&epid=1940768710&hash=item3f3d89e97e:m:m2frbJ9wZI-_ioeheZ5ws8Q
p8
aVhttp://www.ebay.com/itm/Mens-Clarks-SALE-Scopic-Way-Leather-Casual-Lace-Up-Shoes-Wide-H-Fitting-/221510726451?var=&epid=1941992586&hash=item3393117333:m:mI4RLzrnom6o_Ujv8-OjWJQ
p9
aVhttp://www.ebay.com/itm/Mens-Clarks-Smart-Lace-Up-Shoes-Scopic-Way-/161340120697?var=&epid=1638980778&hash=item25909ede79:m:mLnXexRb8_L8PQBZe72qdDQ
p10
aVhttp://www.ebay.com/itm/MENS-CLARKS-LEATHER-LACE-UP-CASUAL-FORMAL-WIDE-FITTING-WORK-SHOES-SCOPIC-WAY-/151235817050?var=&epid=1941992581&hash=item23365b6e5a:m:mxoVap3h9ebO29buHrKhDyA
p11
aVhttp://www.ebay.com/itm/Mens-Clarks-ActiveAir-Slip-On-Shoes-Scopic-Fall-Scopic-Step-Leather-Wide-Fitting-/151235160837?var=&epid=1640870560&hash=item2336516b05:m:mhHDGz-pZoeRtJ7gaQMYK3w
p12
aVhttp://www.ebay.com/itm/Mens-Clarks-Active-Air-Slip-On-Shoes-Scopic-Step-Leather-Wide-Shoes-Soft-Size-/281225765808?var=&epid=1640870560&hash=item417a5ca3b0:m:myukveQy198f9-QiVgiURBw
p13
aVhttp://www.ebay.com/itm/Mens-Clarks-Scopic-Step-Black-Leather-Casual-Slip-On-Shoes-/271339033112?var=&epid=1940768710&hash=item3f2d111218:m:medS3hp8Zynzl06HiN6zLCA
p14
aVhttp://www.ebay.com/itm/Mens-Clarks-Smart-Lace-Up-Shoes-Scopic-Way-/171163523361?var=&epid=1638980778&hash=item27da241921:m:mLnXexRb8_L8PQBZe72qdDQ
p15
a.