(lp1
Vhttp://www.ebay.com/itm/VTech-Baby-Toot-Toot-Animals-Chicken-Coop-Brand-NEW-/112483998312?epid=1537475500&hash=item1a30919a68:g:oY0AAOSw3R5Za5YS
p2
aVhttp://www.ebay.com/itm/VTech-Baby-Toot-Toot-Drivers-Off-Roader-and-Trailer-/162543522305?epid=595473904&hash=item25d8595201:g:n7UAAOSwB-1Ytvym
p3
aVhttp://www.ebay.com/itm/VTech-Baby-Toot-Toot-Drivers-Deluxe-Track-Set-30-Interchangeable-Track-Pieces-/302189050817?epid=1647762211&hash=item465bdefbc1:g:2DcAAOSwImRYb7Hf
p4
aVhttp://www.ebay.com/itm/VTech-Baby-Toot-Toot-Friends-Trot-and-Go-Pony-with-18-Songs-Sounds-Melodies-/232074020648?epid=595466693&hash=item3608b08728:g:K54AAOSwMgdXz79d
p5
aVhttp://www.ebay.com/itm/Vtech-Baby-Toot-Toot-Animals-Hamster-Toy-All-In-Price-7-45-/132055266425?epid=595473583&hash=item1ebf1b7479:g:1hIAAOSwImRYbkfV
p6
aVhttp://www.ebay.com/itm/VTech-Baby-Toot-Toot-Drivers-Racing-Rampway-/371701957502?epid=1642224273&hash=item568b29c37e:g:VLUAAOSwZVlXozcD
p7
aVhttp://www.ebay.com/itm/GARCIA-EMMA-TOOT-TOOT-BEEP-BEEP-BOOK-NEW-/351929318767?epid=104683132&hash=item51f09f3d6f:g:qJwAAOSwB09YSw4r
p8
aVhttp://www.ebay.com/itm/THE-WIGGLES-Toot-Toot-Yummy-Yummy-Australian-Kids-UK-DVD-/222465485018?hash=item33cbf9e8da:g:BHAAAOSwVctY5myw
p9
aVhttp://www.ebay.com/itm/vTech-Baby-Toot-Toot-Animals-Turtle-with-Light-and-Sound-/121901531276?epid=596468183&hash=item1c61e5c08c:g:EHYAAOSwx-9Wydlb
p10
aVhttp://www.ebay.com/itm/Vtech-Toot-Toot-Drivers-Monster-Truck-/182551773517?epid=528517405&hash=item2a80ef014d:g:7hkAAOSwax5YrEsP
p11
aVhttp://www.ebay.com/itm/New-Vtech-Toot-Toot-Drivers-Advent-Calendar-Christmas-2016-/391842063922?epid=232016587&hash=item5b3b9b6632:g:h74AAOSwzaJYBRQb
p12
aVhttp://www.ebay.com/itm/VTech-Baby-Toot-Toot-Animals-Chicken-Coop-Brand-NEW-/252755073725?epid=1537475500&hash=item3ad9605abd:g:rA8AAOSwo4pYleba
p13
aVhttp://www.ebay.com/itm/Vtech-Baby-Toot-Toot-Friends-Kingdom-Toys-Princess-Robin-Multi-Coloured-New-/192241999940?epid=1474852297&hash=item2cc2842044:g:hH0AAOSw0TxZYRkS
p14
aVhttp://www.ebay.com/itm/Chuggington-Toot-tastic-Box-Set-DVD-/281933927315?epid=1738153693&hash=item41a4925393:g:xtYAAOSwUuFWvdoE
p15
aVhttp://www.ebay.com/itm/vTech-Baby-Toot-Toot-Animals-Furry-Dog-Dalmatian-with-Light-and-Sound-/111925948602?epid=1257074626&hash=item1a0f4e70ba:g:EUkAAOSwZQxW2c8O
p16
aVhttp://www.ebay.com/itm/vTech-Baby-Toot-Toot-Splash-Waterproof-Sailboat-with-Light-and-Sound-/131732474312?epid=595470181&hash=item1eabde09c8:g:ImoAAOSwuAVW1adF
p17
aVhttp://www.ebay.com/itm/Vtech-Toot-Toot-Drivers-Ultimate-Track-Set-Toddlers-Childrens-Interactive-Toys-/131955548827?epid=1175242357&hash=item1eb929e29b:g:HTIAAOSw4shX7mNL
p18
aVhttp://www.ebay.com/itm/Vtech-Toot-Toot-Drivers-Cargo-Plane-/182464047557?epid=512645406&hash=item2a7bb469c5:g:MNoAAOSwdGFYrcBC
p19
aVhttp://www.ebay.com/itm/VTech-Baby-Toot-Toot-Drivers-Garage-New-Gift-Idea-Birthday-Xmas-/152332600260?hash=item2377bb03c4:g:cYwAAOSwal5YL24L
p20
aVhttp://www.ebay.com/itm/VTech-Baby-Toot-Toot-Drivers-Deluxe-Track-Set-All-In-Price-13-45-/132060426412?epid=1507748730&hash=item1ebf6a30ac:g:YlIAAOSwZQRYdO8S
p21
aVhttp://www.ebay.com/itm/Toot-Toot-Animals-Advent-Calendar-/142156740622?epid=596598383&hash=item211933b80e:g:9mAAAOSwXeJYCscO
p22
aVhttp://www.ebay.com/itm/Vtech-Baby-Toot-Toot-Drivers-Advent-Calendar-/222271224726?epid=1375134019&hash=item33c065bb96:g:SRoAAOSwLnBX9CDe
p23
aVhttp://www.ebay.com/itm/VTech-Baby-Toot-Toot-Drivers-Construction-Site-/142147868786?hash=item2118ac5872:g:0XkAAOSwNRdX~9gX
p24
aVhttp://www.ebay.com/itm/Toot-Toot-Drivers-Advent-Calendar-/162268150001?epid=1375134019&hash=item25c7ef78f1:g:4nIAAOSwXeJYG4bk
p25
aVhttp://www.ebay.com/itm/NEW-Vtech-Toot-Toot-Friends-Kingdom-Princess-Lily-and-her-Carriage-/401287330572?hash=item5d6e96bb0c:g:D3QAAOSwdGFYvtv7
p26
aVhttp://www.ebay.com/itm/VTech-Baby-Toot-Toot-Friends-Helpful-Hospital-Multi-Coloured-/162490057069?epid=595503310&hash=item25d529816d:g:41YAAOSwnvNZbzBC
p27
aVhttp://www.ebay.com/itm/Vtech-Baby-Toot-Toot-Drivers-Taxi-Brand-New-/371930119818?epid=1237746166&hash=item5698c33e8a:m:mm-AWJsUpjGeKGUaaFlv5Lw
p28
aVhttp://www.ebay.com/itm/2-x-VTech-Baby-Toot-Toot-Drivers-Deluxe-Track-Set-30-Track-Pieces-/322381837195?hash=item4b0f74738b:g:nAUAAOSwA3dYb5xr
p29
aVhttp://www.ebay.com/itm/Vtech-Toot-Toot-Drivers-Hot-Rod-/182510448520?epid=527652749&hash=item2a7e786f88:g:UnwAAOSwTuJYrG9p
p30
aVhttp://www.ebay.com/itm/Toot-Sweets-The-Sweet-Box-Maoam-Chews-Retro-Gift-Box-Stripes-Sours-Pinballs-/191228620591?hash=item2c861d2f2f:g:DE0AAOSw1ZBUrs9L
p31
aVhttp://www.ebay.com/itm/Vtech-Baby-Toot-Toot-Animals-Track-Set-/371979535090?epid=595473852&hash=item569bb542f2:g:qhsAAOSwnK9ZPnN1
p32
aVhttp://www.ebay.com/itm/Vtech-Toot-Toot-Drivers-Press-N-Go-Fire-Engine-/182462736669?epid=516521682&hash=item2a7ba0691d:g:1NUAAOSwfVpYrF31
p33
aVhttp://www.ebay.com/itm/VTech-Baby-Toot-Toot-Animals-Tree-House-/141776433427?hash=item210288b113:g:QLcAAOSwKIpV-Wlh
p34
aVhttp://www.ebay.com/itm/Vtech-Baby-Toot-Toot-Drivers-Fuel-Tanker-Brand-New-/292096645830?epid=1637747823&hash=item4402511ac6:g:~gIAAOSwCQZZBtc9
p35
aVhttp://www.ebay.com/itm/VTech-Toot-Friends-Palace-Play-Set-5-Magic-Point-Locations-Activity-Toy-New-/291974889676?epid=1974692949&hash=item43fb0f40cc:g:5vcAAOSw5cNYVXcI
p36
aVhttp://www.ebay.com/itm/Vtech-Baby-Toot-Toot-Drivers-Gold-Mine-Train-Set-Toy-UK-SELLER-FREE-P-P-/282156084898?epid=648716416&hash=item41b1d02ea2:g:j5sAAOSwdIFXxuMU
p37
aVhttp://www.ebay.com/itm/VTech-Baby-Toot-Toot-Friends-Helpful-Hospital-/222181359026?epid=595503310&hash=item33bb0a7db2:g:dJgAAOSwyKxXgPla
p38
aVhttp://www.ebay.com/itm/Toot-and-Pop-by-Sebastien-Braun-9780008126292-Paperback-2014-/252572984403?epid=209648010&hash=item3ace85e453:g:BMIAAOSwmLlX9rvc
p39
aVhttp://www.ebay.com/itm/VTech-Baby-Toot-Toot-Drivers-Deluxe-Track-Set-/292022735534?epid=1647762211&hash=item43fde952ae:g:-AcAAOSw241YmrRC
p40
aVhttp://www.ebay.com/itm/Vtech-Baby-Toot-Toot-Friends-Toys-Doctor-Brian-/222392973867?epid=1373286506&hash=item33c7a77a2b:g:xQEAAOSwnHZYjlMD
p41
aVhttp://www.ebay.com/itm/Toot-Sweets-The-Sweet-Box-Filled-With-21-Large-Chew-Bars-Retro-Sweets-Gift-Box-/201494101005?hash=item2ee9fbfc0d:g:a70AAOSwUdlWhD-9
p42
aVhttp://www.ebay.com/itm/VTech-Baby-Toot-Toot-Drivers-Deluxe-Track-Set-/252838171212?epid=1480469423&hash=item3ade54524c:g:u~4AAOSwXYtY3guN
p43
aVhttp://www.ebay.com/itm/Vtech-Toot-Toot-Friends-Kingdom-Princess-Carriage-Brand-New-/371952321004?epid=580874756&hash=item569a1601ec:i:371952321004
p44
aVhttp://www.ebay.com/itm/VTech-Baby-Toot-Toot-Drivers-Garage-New-Gift-Idea-Birthday-Xmas-/122203303962?epid=1640714655&hash=item1c73e2701a:g:IsEAAOSwImRYOAH-
p45
aVhttp://www.ebay.com/itm/VTech-Toot-Toot-Animals-Bear-LIGHT-AND-SOUND-Toddler-Kids-Play-Music-Funny-Toy-/272704557601?epid=595464403&hash=item3f7e755221:g:g~YAAOSwK6RZNnzV
p46
aVhttp://www.ebay.com/itm/VTECH-Toot-Toot-Drivers-Parking-Tower-Toy-Playset-Baby-young-child-/262424252196?epid=1544847830&hash=item3d19b44f24:g:MMQAAOSw2x1XLO-q
p47
aVhttp://www.ebay.com/itm/vTech-Baby-Toot-Toot-Drivers-Off-Roader-Vehicle-with-Trailer-Light-and-Sound-/111747053002?epid=595473904&hash=item1a04a4b5ca:g:MvkAAOSw~y9ZEFXU
p48
aVhttp://www.ebay.com/itm/TOMY-Chuggington-Hoot-and-Toot-Motorised-Kids-Train-Interactive-Die-Cast-Toy-/322569703914?epid=22004153030&hash=item4b1aa711ea:g:aZcAAOSwN2VZUjlD
p49
aVhttp://www.ebay.com/itm/VTech-Baby-Toot-Toot-Drivers-Everyday-Vehicles-3-Car-Pack-/302104058248?hash=item4656ce1988:g:0OsAAOSwxKtX~VYi
p50
aVhttp://www.ebay.com/itm/VTech-Baby-Toot-Toot-Drivers-Everyday-Vehicles-3-Car-Pack-/302104058248?hash=item4656ce1988:g:0OsAAOSwxKtX~VYi
p51
aVhttp://www.ebay.com/itm/VTech-Baby-Toot-Toot-Drivers-Emergency-Vehicles-3-Car-Pack-/122259635142?epid=1281168120&hash=item1c773dfbc6:g:YYUAAOSwImRYSOFp
p52
aVhttp://www.ebay.com/itm/Vtech-Baby-Toot-Toot-Friends-Toys-Officer-Wayne-/122259710701?epid=595475062&hash=item1c773f22ed:g:mlgAAOSw44BYSP5E
p53
aVhttp://www.ebay.com/itm/VTech-Baby-Toot-Toot-Drivers-Parking-Tower-Garage-Toy-Playset-Improve-Dexterity-/262408430464?epid=1794271682&hash=item3d18c2e380:g:mk8AAOSw6kxXIOUV
p54
aVhttp://www.ebay.com/itm/Vtech-Baby-Toot-Toot-Drivers-Advent-Calendar-Learning-and-Activity-Toys-/222271222429?epid=631339784&hash=item33c065b29d:g:0~AAAOSwpLNX9CB1
p55
aVhttp://www.ebay.com/itm/VTech-Baby-Toot-Toot-Animals-Pig-Sheep-and-Cow-/141801490790?epid=1141042116&hash=item2104070966:g:XzEAAOSw9mFWHn6b
p56
aVhttp://www.ebay.com/itm/VTech-Baby-Toot-Toot-Drivers-Service-Centre-/142117531476?epid=1623763104&hash=item2116dd6f54:g:cQkAAOSwPCVX2W5i
p57
aVhttp://www.ebay.com/itm/VTech-Baby-Toot-Toot-Drivers-Helicopter-/302241386949?epid=1687319206&hash=item465efd91c5:g:yVEAAOSwWxNYucqi
p58
aVhttp://www.ebay.com/itm/VTech-Baby-Toot-Toot-Drivers-Emergency-Vehicles-3-Car-Pack-/111616829711?hash=item19fce1a90f:g:DhkAAOSwxYxUzn4w
p59
aVhttp://www.ebay.com/itm/VTech-Baby-Toot-Toot-Friends-Helpful-Hospital-/121798468126?epid=595503310&hash=item1c5bc1221e:g:F7IAAOSw5VFWLn-E
p60
aVhttp://www.ebay.com/itm/Vtech-Baby-Toot-Toot-Animals-Cat-Toy-/322406251922?epid=1453428298&hash=item4b10e8fd92:g:n-0AAOSw44BYjgB1
p61
aVhttp://www.ebay.com/itm/VTech-Baby-Toot-Toot-Animals-Chicken-Coop-/172382560008?epid=1537475500&hash=item2822cd1f08:g:fTYAAOSwx2dYCiPl
p62
aVhttp://www.ebay.com/itm/VTech-Baby-Toot-Toot-Drivers-Car-Construction-Vehicles-Pack-of-3-MUlti-PACK-3-/322239300857?hash=item4b06f584f9:g:cMIAAOSwMtxXvfsQ
p63
aVhttp://www.ebay.com/itm/VTech-Baby-Toot-Toot-Drivers-Bus-Multi-Coloured-/292044461108?epid=643764780&hash=item43ff34d434:g:wRgAAOSwWxNYucp3
p64
a.