(lp1
Vhttp://www.ebay.com/itm/Strappy-Sleeveless-Celeb-Safari-Floral-Bodycon-Pencil-Wiggle-Midi-Dress-/222494143329?var=&epid=830043593&hash=item33cdaf3361:m:md2qDDMXWVrSIZecTD4yadA
p2
aVhttp://www.ebay.com/itm/Nike-Mens-Safari-Print-Lebron-James-Destroyer-Running-Jackets-/122373609741?var=&hash=item1c7e09190d:m:mHBlCAdga2hX3JMaTa5qUlg
p3
aVhttp://www.ebay.com/itm/Mens-Gilet-WaistCoat-Body-Coat-Vest-Hunting-Shooting-Safari-Big-Size-2XL-6XL-/401310950450?var=&hash=item5d6fff2432:m:mr2KK0rdLew62PQN9k_zVXQ
p4
aVhttp://www.ebay.com/itm/HELL-BUNNY-SAFARI-zebra-CROPPED-TOP-blouse-CREAM-/292098576251?var=&epid=1461230449&hash=item44026e8f7b:m:mgN_eYT0rVDI9__f_T9RsWg
p5
aVhttp://www.ebay.com/itm/Nike-Mens-Safari-Print-Lebron-James-Destroyer-Running-Jackets-/122373609741?var=&hash=item1c7e09190d:m:mHBlCAdga2hX3JMaTa5qUlg
p6
aVhttp://www.ebay.com/itm/Mens-3-4-Real-Leather-Safari-Jacket-Overcoat-Removable-Double-Zip-Black-Brown-/131623874440?var=&hash=item1ea564ef88:m:meq_DQ-I8gNnQ5Ll4VVLyEQ
p7
aVhttp://www.ebay.com/itm/HELL-BUNNY-SAFARI-zebra-CROPPED-TOP-blouse-CREAM-/292098576251?var=&epid=1461230449&hash=item44026e8f7b:m:mgN_eYT0rVDI9__f_T9RsWg
p8
aVhttp://www.ebay.com/itm/Mens-Real-Leather-Hood-Duffle-Safari-Jacket-Long-3-4-Fur-Washed-Timber-Brown-Tan-/161926595141?var=&hash=item25b393c245:m:mM1PCZ-Kza6iXhuA9xHFc7A
p9
aVhttp://www.ebay.com/itm/Result-Work-Guard-Safari-Waistcoat-Mens-Gilet-Tool-Vest-Fishing-Workwear-R45X-/141835806418?var=&hash=item210612a6d2:m:m7kQae7-_0q0HuL9J0Z5xkw
p10
aVhttp://www.ebay.com/itm/Carrera-Sunglasses-New-Safari-KME-J6-Havana-Brown-Brown-Gradient-/401110320035?epid=1466880135&hash=item5d6409c3a3:g:Un4AAOSw-ldZY0zL
p11
aVhttp://www.ebay.com/itm/NataNella-Skater-Summer-Mini-Dress-Cold-Off-The-Shoulder-Bodycon-Boutique-/322508626501?var=&hash=item4b17031a45:m:mb3rg1iGtPC2BKGpUqj-YaA
p12
aVhttp://www.ebay.com/itm/New-mens-Cotton-Casual-Army-Military-Twill-Jacket-zip-up-hunting-safari-desert-/231915579961?var=&epid=1755813355&hash=item35ff3eea39:m:mr7xat5cighD9jnqYuBpS3A
p13
aVhttp://www.ebay.com/itm/Dock-of-the-Bay-Mens-Alecedos-Multi-Pocket-Safari-Travel-Shirt-100-Cotton-/200786936502?var=&hash=item2ebfd582b6:m:mXkhaq_l3d5B5NaIYGwR6TQ
p14
aVhttp://www.ebay.com/itm/New-mens-Cotton-Casual-Army-Style-Jacket-zip-up-hunting-safari-desert-/331121208306?var=&epid=1455733298&hash=item4d185cabf2:m:mJdD2R9zQypIEaznMFjMHwg
p15
aVhttp://www.ebay.com/itm/Mens-Game-Padded-Camouflage-Safari-Parka-Jacket-/201023476179?var=&hash=item2ecdeed1d3:m:m_PuViah_EipvLTYanBrTZA
p16
aVhttp://www.ebay.com/itm/NEW-Mens-retro-vtg-50s-indie-SHIRT-preppy-safari-60s-mad-short-sleeve-Beige-men-/330894270985?var=&hash=item4d0ad5e209:m:mwcnPI4zRO-ik6sWfAQQ-Dw
p17
aVhttp://www.ebay.com/itm/Jack-Jones-Pacific-Bomber-Jacket-Safari-/182493311248?var=&hash=item2a7d72f110:m:mh1rAmJWM26v8tQKVOKTMkg
p18
aVhttp://www.ebay.com/itm/Dale-Mens-Cognac-Quilt-Safari-Stylish-Retro-Casual-Multi-Pocket-Leather-Jacket-/322168998824?var=&epid=1271245929&hash=item4b02c4cba8:m:mk_0MqGnBcoO-6olOQOSDog
p19
aVhttp://www.ebay.com/itm/Safari-Animal-Leopard-Spots-Print-Themed-Bunting-Banner-15-flags-by-PARTY-DECOR-/252943049503?epid=887151758&hash=item3ae494a31f:g:g7EAAOSw3gJZHCK-
p20
aVhttp://www.ebay.com/itm/Leonardo-Black-Mens-New-Retro-Smart-Casual-Real-Waxed-Leather-Safari-Jacket-/252435385585?var=&hash=item3ac6524cf1:m:myo2L8VhIIteIoTX0VaZt4A
p21
aVhttp://www.ebay.com/itm/Mens-3-4-Tailored-Fit-Safari-Parka-Jacket-Genuine-Real-Leather-Military-Black-/132136829834?var=&hash=item1ec3f8038a:m:mmv0kXrVbyK5T-TchNhLfRw
p22
aVhttp://www.ebay.com/itm/Mens-Slim-Fit-Wool-3-4-Duffle-Overcoat-Leather-Sleeves-Hood-Safari-Jacket-Italia-/131621151590?var=&epid=1250752741&hash=item1ea53b6366:m:myHiY2NHGcgpKq2FKTMFSKQ
p23
aVhttp://www.ebay.com/itm/ANIMAL-PRINT-SAFARI-TISSUE-PAPER-12-SHEETS-6-DESIGNS-/253005268439?epid=1267381010&hash=item3ae84a05d7:m:mlwNGNhiVQcB1aBQt-s6yTQ
p24
aVhttp://www.ebay.com/itm/Mens-Real-Leather-Jacket-Safari-Hooded-Removable-Fleece-Lined-Brown-Soft-Napa-/130827059861?var=&hash=item1e75e68295:m:m8FTMIlWmSz2s9bmJ6Hu9ow
p25
aVhttp://www.ebay.com/itm/Mens-Real-Leather-Hood-Duffle-Safari-Jacket-Long-3-4-Fur-Washed-Vintage-Brown-/161926600622?var=&hash=item25b393d7ae:m:mYeUcRATwRWMGMRhnQnSgnQ
p26
aVhttp://www.ebay.com/itm/Mens-Gilet-Body-Action-Waist-Coat-Country-Hunting-Safari-Fishing-Vest-/191833129188?var=&hash=item2caa2540e4:m:mrOr_GV6ViNIt6MvlxXLIgw
p27
aVhttp://www.ebay.com/itm/Craghoppers-Mens-Nosilife-Adventure-Safari-Walking-Hike-Shirt-Light-Blue-/152466016125?var=&epid=564942336&hash=item237faec77d:m:m2wK8ljRpeigXZNbD4AmK2g
p28
aVhttp://www.ebay.com/itm/Mens-Real-Leather-Safari-Quilted-Blazer-Jacket-Zip-Button-Black-/160998876715?var=&hash=item257c47e62b:m:mWitAQgF0NJ5PWquW6sZJRw
p29
aVhttp://www.ebay.com/itm/Safari-Ltd-toy-ANCIENT-EGYPT-TOOB-learning-resource-set-of-12-figurines-/152556493972?epid=1204158278&hash=item2385135c94:g:FygAAOSw4shX8k8X
p30
aVhttp://www.ebay.com/itm/Mens-Safari-Real-Leather-Coat-Trench-Fitted-Retro-70s-Style-Blazer-Jacket-Brown-/291132060338?var=&epid=1061904702&hash=item43c8d2b2b2:m:m_boTz1mQ-eoGRySbhL8ZSQ
p31
aVhttp://www.ebay.com/itm/Franco-Black-Mens-New-Retro-Casual-Real-Waxed-Quilted-Leather-Safari-Jacket-/282077012317?var=&hash=item41ad19a15d:m:mw8tXLxllbaRdSr69dcor6A
p32
aVhttp://www.ebay.com/itm/Game-Mens-Padded-Safari-Parka-Jacket-Coat-Olive-/390718319040?var=&hash=item5af8a069c0:m:mN2Uj6BOK9XEdISX-7V7oSg
p33
aVhttp://www.ebay.com/itm/Result-Cotton-Twill-MIDNIGHT-NAVY-BLUE-Safari-Waistcoat-Gilet-Vest-11-Pockets-/320641693228?var=&epid=1569948550&hash=item4aa7bbf62c:m:m62YfAia7EMfiK5dlMv_CUw
p34
aVhttp://www.ebay.com/itm/Ladies-Safari-Style-Dress-Button-Detail-Belt-Navy-Length-43-Size-18-NEW-/322049644380?hash=item4afba7975c:g:5N0AAOSw0kNXhtH4
p35
aVhttp://www.ebay.com/itm/Franco-Chestnut-Brown-Mens-Retro-Casual-Real-Waxed-Quilted-Leather-Safari-Jacket-/282077013491?var=&epid=1675820397&hash=item41ad19a5f3:m:mIEUHKpSwLnEcru10O3cOyg
p36
aVhttp://www.ebay.com/itm/UNISEX-MENS-LADIES-AUSTRALIAN-OUTBACK-SAFARI-BUSH-HAT-/121604004280?var=&hash=item1c5029d9b8:m:m_kYURXhZlrrQUSzdP72o_g
p37
aVhttp://www.ebay.com/itm/Game-Kids-Boys-Camouflage-Woodland-Safari-Jacket-Coat-Army-Military-/291511490667?var=&hash=item43df70586b:m:mMfhOcWUBiKKbWpiAap1JQg
p38
aVhttp://www.ebay.com/itm/Mens-Winter-Real-Sheepskin-Leather-Duffle-Safari-Crombi-Jacket-Black-Hood-Vinta-/141129288551?var=&hash=item20dbf60b67:m:m5-CsokSuZYryDZdyHJUZuA
p39
aVhttp://www.ebay.com/itm/LONE-STAR-Mens-Glazed-Blue-Safari-Western-Cowboy-Biker-Leather-Shirt-Jacket-/190745709671?var=&hash=item2c69548c67:m:mZD9vkbwPRsllxc6v53Qf5g
p40
aVhttp://www.ebay.com/itm/Mens-SAHARA-SAFARI-Style-BLACK-Lambskin-Genuine-Leather-Classic-Jacket-Coat-/321688498691?var=&hash=item4ae620f203:m:mRJc3coXJ08-fGCHQuO8yQg
p41
aVhttp://www.ebay.com/itm/UNISEX-MENS-LADIES-AUSTRALIAN-OUTBACK-SAFARI-BUSH-HAT-/121604004280?var=&hash=item1c5029d9b8:m:m_kYURXhZlrrQUSzdP72o_g
p42
aVhttp://www.ebay.com/itm/Scott-Mens-Black-Smart-Casual-Safari-Style-Real-Lambskin-Leather-Shirt-Jacket-/251305839486?var=&epid=1972346475&hash=item3a82fecb7e:m:m6xkA3i9fDDTqBHoKRvGdig
p43
aVhttp://www.ebay.com/itm/Free-Post-Mens-Safari-Military-PREMIUM-cotton-Parka-hip-length-Jacket-/121901651096?var=&epid=1454113008&hash=item1c61e79498:m:mfYuXLG67oUjipWfk_YMT9w
p44
aVhttp://www.ebay.com/itm/Wrangler-New-Men-s-Long-Sleeve-Cotton-Check-Shirt-Regular-Western-Safari-Khaki-/112086932379?var=&epid=1583373320&hash=item1a18e6db9b:m:mScGb1AL4T37JFA_JzDppEw
p45
aVhttp://www.ebay.com/itm/MENS-GILET-BODY-WARMER-ACTION-WAIST-COAT-COUNTRY-HUNTING-SAFARI-TOP-FISHING-VEST-/222428173194?var=&epid=598764228&hash=item33c9c0938a:m:mmbYDR-9Qc1GJdMpPWKTAEw
p46
aVhttp://www.ebay.com/itm/New-mens-Cotton-Casual-Army-Style-Jacket-zip-up-hunting-safari-desert-/331848943369?var=&epid=1867717968&hash=item4d43bd0709:m:mZrvFD32tJYAm2AYTiG9EKw
p47
aVhttp://www.ebay.com/itm/Wild-Safari-Pink-Girls-1st-Birthday-Complete-Party-Tableware-Pack-Kit-For-16-/191516626502?epid=1144682436&hash=item2c9747ce46:g:THUAAOSwqu9U5wnX
p48
a.