(lp1
Vhttp://www.ebay.com/itm/South-Sudan-2012-Unissued-Set-China-Friendship-MNH-/172555590014?hash=item282d1d597e:g:hhUAAOSwcUBYRb8N
p2
aVhttp://www.ebay.com/itm/SUDAN-1951-2m-WHALE-HEADED-STORK-SHOEBILL-SG124-VERY-FINE-MNH-/292173217536?hash=item4406e17f00:g:rpQAAOSwtfhYrbLD
p3
aVhttp://www.ebay.com/itm/South-Sudan-100-Pounds-ND-2011-P-10-First-Prefix-AA-Mint-UNC-Banknotes-/361844460728?hash=item543f9c4cb8:g:iLMAAOSwcUBYQc8s
p4
aVhttp://www.ebay.com/itm/South-Sudan-1-5-10-20-Pounds-Set-of-4-Mint-UNC-Banknotes-4-PCS-/361655510668?hash=item543459268c:g:mLwAAOSwbsBXkder
p5
aVhttp://www.ebay.com/itm/Egypt-3317-1953-King-of-Egypt-Sudan-50m-DOUBLE-BARS-u-m-/371906724061?hash=item56975e40dd:g:wzIAAOSwuxFY3N0g
p6
aVhttp://www.ebay.com/itm/South-Sudan-20-Pounds-2015-P-New-1st-Prefix-AA-Mint-UNC-Uncirculated-Banknotes-/361647525926?hash=item5433df5026:g:9fcAAOSwqfNXiPE0
p7
aVhttp://www.ebay.com/itm/South-Sudan-10-Pounds-ND-2011-P-7-UNC-Low-Serial-Numbers-/361919909323?hash=item54441b8dcb:g:fZMAAOSwXYtYur6o
p8
aVhttp://www.ebay.com/itm/South-Sudan-1-5-10-Pounds-2011-Set-of-3-Mint-UNC-Banknotes-3-PCS-/252389968590?hash=item3ac39d4ace:g:qS4AAOSwSgJXN3T9
p9
aVhttp://www.ebay.com/itm/SUDAN-1951-3m-GIRAFFE-SG125-VERY-FINE-MNH-/292173218133?hash=item4406e18155:g:1lIAAOSw4CFYrbNK
p10
aVhttp://www.ebay.com/itm/South-Sudan-5-10-20-Pounds-2015-Set-of-3-Mint-UNC-Banknotes-3-PCS-/252489223246?hash=item3ac987cc4e:g:-s0AAOSwARZXpIGz
p11
aVhttp://www.ebay.com/itm/South-Sudan-10-Pounds-2015-P-New-UNC-/252462451582?hash=item3ac7ef4b7e:g:5p4AAOSwsTxXiO8D
p12
aVhttp://www.ebay.com/itm/South-Sudan-5-Pounds-2015-P-New-Mint-UNC-Uncirculated-Banknotes-/361676709675?hash=item54359c9f2b:g:rucAAOSwqfNXpIOp
p13
aVhttp://www.ebay.com/itm/South-Sudan-1-Pounds-2011-P-5-UNC-Uncirculated-Banknote-Giraffe-/302379190170?hash=item466734479a:g:qe0AAOSwlY1ZGXo2
p14
aVhttp://www.ebay.com/itm/SUDAN-1951-1m-IBEX-SG123-VERY-FINE-MNH-CV-4-/292173216974?hash=item4406e17cce:g:QXkAAOSw4A5YrbHU
p15
aVhttp://www.ebay.com/itm/South-Sudan-1-5-Pounds-2011-Set-of-2-Mint-UNC-Uncirculated-Banknotes-2-PCS-/252373713264?hash=item3ac2a54170:g:xkIAAOSw9~RXJRi-
p16
aVhttp://www.ebay.com/itm/South-Sudan-1-Pound-2011-P-5-UNC-NEW-LOWER-PRICE-/251978471542?hash=item3aab165876:g:38UAAOSwcLxYG5uO
p17
aVhttp://www.ebay.com/itm/South-Sudan-5-Pounds-ND-2011-P-6-Mint-UNC-Uncirculated-Banknotes-/252373696797?hash=item3ac2a5011d:g:PisAAOSw3mpXJRVs
p18
aVhttp://www.ebay.com/itm/WARFARE-IN-EGYPT-AND-THE-SUDAN-PARTIZAN-PRESS-/162397991514?epid=566722468&hash=item25cfacb25a:g:vq0AAOSwx6pYpY94
p19
aVhttp://www.ebay.com/itm/South-Sudan-10-Pounds-ND-2011-P-7-Mint-UNC-Uncirculated-Banknotes-/252389031883?hash=item3ac38effcb:g:WUgAAOSwInxXNkIr
p20
aVhttp://www.ebay.com/itm/The-River-War-An-Account-of-the-Reconquest-of-the-Sudan-9781620874769-/232193612088?epid=139735686&hash=item360fd15938:g:HK0AAOSwImRYalbN
p21
aVhttp://www.ebay.com/itm/Armies-In-Plastic-5704-Egypt-Sudan-Set-2-1-32-Plastic-Figures-/132096243239?epid=1968801498&hash=item1ec18cb627:g:8tgAAOSwcL5XMwJu
p22
aVhttp://www.ebay.com/itm/SUDAN-Arab-Sheikh-Visiting-Baker-Pasha-at-Suakin-Antique-Print-1884-/351145939164?hash=item51c1edd0dc:g:YCsAAOSwEK9T7N1z
p23
aVhttp://www.ebay.com/itm/Sudan-Race-Religion-and-Violence-New-Jok-Jok-Madut-Book-/291860188602?epid=227077052&hash=item43f4390dba:g:YJQAAOSw9IpXxYEB
p24
aVhttp://www.ebay.com/itm/Armies-In-Plastic-5442-Egypt-Sudan-Madhists-Rifle-Figures-Wargaming-kit-/132129159087?epid=1305328041&hash=item1ec382f7af:g:Z9cAAOxykMpTGbSS
p25
aVhttp://www.ebay.com/itm/SUDAN-Attack-on-the-Enemy-Eight-Miles-from-Souakin-Antique-Print-1884-/181495582169?hash=item2a41facdd9:g:vw8AAOSwxCxT7Nh4
p26
aVhttp://www.ebay.com/itm/BRITISH-INFANTRY-AFGHANISTAN-SUDAN-1877-1885-PERRY-MINIATURES-SENT-1ST-CLASS-/152043005602?epid=531412735&hash=item23667826a2:g:NmMAAOSwtUtXA8xM
p27
aVhttp://www.ebay.com/itm/Armies-in-Plastic-5665-Egypt-Sudan-Wars-British-Army-Dervishes-1-32-/401045578707?hash=item5d602de3d3:g:qwoAAOSw14xWKgb6
p28
aVhttp://www.ebay.com/itm/SUDAN-El-Obeid-sketch-map-c1885-old-antique-vintage-plan-chart-/272593890815?hash=item3f77dcadff:g:GSIAAOSwXYtYzAKq
p29
a.