(lp1
Vhttp://www.ebay.com/itm/NEW-TOPPLE-BALANCING-TOPS-TOPPLING-CHILDRENS-FAMILY-GAME-ACKERMAN-/311484659716?epid=1344300787&hash=item4885eeb804:g:3nwAAOSwEgVWRdA5
p2
aVhttp://www.ebay.com/itm/Topple-Game-Topple-Balancing-Tops-Game-Toppling-Game-Fun-Family-Game-Age-3-New-/302262651637?hash=item4660420af5:g:1UEAAOSwCU1Y1plJ
p3
aVhttp://www.ebay.com/itm/STACKING-CHAIRS-Game-in-Tin-TOWER-TOPPLE-Family-Game-/351972458423?epid=1005276721&hash=item51f3317fb7:g:gf4AAMXQfvlScaI1
p4
aVhttp://www.ebay.com/itm/Tipsy-Topple-Great-Party-Game-/291828286969?hash=item43f25245f9:g:RzwAAOSw5cNYOHyT
p5
aVhttp://www.ebay.com/itm/Wooden-Tumble-Topple-Jenga-Tower-Retro-Child-Game-New-/131707201939?epid=1287745374&hash=item1eaa5c6993:g:cX0AAOSwa-dWoQ~j
p6
aVhttp://www.ebay.com/itm/Desktop-Tipple-Topple-Board-Game-Secret-Santa-office-Christmas-Present-Gift-Him-/311181157782?hash=item4873d7a596:g:ap8AAOSwQJhUbL9P
p7
aVhttp://www.ebay.com/itm/BOOM-BLOX-BASH-PARTY-NINTENDO-Wii-ACTION-PUZZLE-STEVEN-SPIELBERG-TOPPLE-SLING-/131736456177?hash=item1eac1acbf1:g:Zo8AAOSwKtVWzwiH
p8
aVhttp://www.ebay.com/itm/Mini-Topple-Tower-Travel-Game-Games-Small-Car-Play-2-4-Players-/361776390165?hash=item543b8da015:g:j~UAAOSw4shYBnth
p9
aVhttp://www.ebay.com/itm/Adema-Topple-the-Giants-UK-IMPORT-CD-NEW-/132159190120?epid=141859188&hash=item1ec54d3468:g:m6gAAOSw4CFY8NGf
p10
aVhttp://www.ebay.com/itm/Superpet-Tip-N-Topple-Ferret-Pet-Toy-/332111756833?hash=item4d53673e21:g:EQwAAOSwjvJZXg4q
p11
aVhttp://www.ebay.com/itm/UKS-BIGGEST-RANGE-Figit-Fidget-Hand-Finger-Spinner-Stress-Relief-ADD-ADHD-2017-/282495424376?var=&hash=item41c60a1778:m:mnlcwt4IvdGFwre__X6d-mg
p12
aVhttp://www.ebay.com/itm/Desktop-Tipple-Topple-Clock-Watchers-Office-Game-Novelty-Gift-Executive-Game-/161287425100?epid=1410920742&hash=item258d7acc4c:g:aYEAAOxy9X5TXP4I
p13
a.