(lp0
Vhttps://www.amazon.co.uk/Eloise-DVD-Chace-Crawford/dp/B01LW6N9LE/ref=sr_1_1/262-8901884-8362628?ie=UTF8&qid=1500121408&sr=8-1&keywords=Eloise
p1
aVhttps://www.amazon.co.uk/d/Books/Eloise-Judy-Finnigan/075154860X/ref=sr_1_2/262-8901884-8362628?ie=UTF8&qid=1500121408&sr=8-2&keywords=Eloise
p2
aVhttps://www.amazon.co.uk/Eloise-Eliza-Dushku/dp/B01N4PID12/ref=sr_1_3/262-8901884-8362628?ie=UTF8&qid=1500121408&sr=8-3&keywords=Eloise
p3
aVhttps://www.amazon.co.uk/Eloise-Book-CD-Books/dp/1481451545/ref=sr_1_4/262-8901884-8362628?ie=UTF8&qid=1500121408&sr=8-4&keywords=Eloise
p4
aVhttps://www.amazon.co.uk/Eloise-DVD-Diana-Gomez/dp/B0038409J2/ref=sr_1_5/262-8901884-8362628?ie=UTF8&qid=1500121408&sr=8-5&keywords=Eloise
p5
aVhttps://www.amazon.co.uk/Eloise-at-Plaza-Books/dp/1481451596/ref=sr_1_6/262-8901884-8362628?ie=UTF8&qid=1500121408&sr=8-6&keywords=Eloise
p6
aVhttps://www.amazon.co.uk/Eloise-Kay-Thompson/dp/0743489764/ref=sr_1_7/262-8901884-8362628?ie=UTF8&qid=1500121408&sr=8-7&keywords=Eloise
p7
aVhttps://www.amazon.co.uk/d/gh3/Eloise/B001KUOB40/ref=sr_1_8/262-8901884-8362628?ie=UTF8&qid=1500121408&sr=8-8&keywords=Eloise
p8
aVhttps://www.amazon.co.uk/Eloise-Collectors-Set-Wedding-Snowman/dp/1481445162/ref=sr_1_9/262-8901884-8362628?ie=UTF8&qid=1500121408&sr=8-9&keywords=Eloise
p9
aVhttps://www.amazon.co.uk/Eloise-Diana-Gomez/dp/B01LFRX9H2/ref=sr_1_10/262-8901884-8362628?ie=UTF8&qid=1500121408&sr=8-10&keywords=Eloise
p10
aVhttps://www.amazon.co.uk/d/ft7/Eloise-Collection-DVD-Tim-Curry/B00MODCHMU/ref=sr_1_11/262-8901884-8362628?ie=UTF8&qid=1500121408&sr=8-11&keywords=Eloise
p11
aVhttps://www.amazon.co.uk/Eloise-Paris-Kay-Thompson/dp/1416916598/ref=sr_1_12/262-8901884-8362628?ie=UTF8&qid=1500121408&sr=8-12&keywords=Eloise
p12
aVhttps://www.amazon.co.uk/Eloise-BD/dp/B01N1X0AV3/ref=sr_1_13/262-8901884-8362628?ie=UTF8&qid=1500121408&sr=8-13&keywords=Eloise
p13
aVhttps://www.amazon.co.uk/Eloise-Throws-Party-Books/dp/1416961720/ref=sr_1_14/262-8901884-8362628?ie=UTF8&qid=1500121408&sr=8-14&keywords=Eloise
p14
aVhttps://www.amazon.co.uk/d/Books/Eloise-Visits-Zoo-Kay-Thompson/1416986421/ref=sr_1_15/262-8901884-8362628?ie=UTF8&qid=1500121408&sr=8-15&keywords=Eloise
p15
aVhttps://www.amazon.co.uk/Eloise-Christmastime-DVD-Region-NTSC/dp/B0002VEWY2/ref=sr_1_16/262-8901884-8362628?ie=UTF8&qid=1500121408&sr=8-16&keywords=Eloise
p16
aVhttps://www.amazon.co.uk/Eloise-Christmastime-DVD-Region-NTSC/dp/B0002VEWY2/ref=sr_1_17/262-8901884-8362628?ie=UTF8&qid=1500121412&sr=8-17&keywords=Eloise
p17
aVhttps://www.amazon.co.uk/d/Books/Eloise-Visits-Zoo-Kay-Thompson/1416986421/ref=sr_1_18/262-8901884-8362628?ie=UTF8&qid=1500121412&sr=8-18&keywords=Eloise
p18
aVhttps://www.amazon.co.uk/Eloise/dp/B00JK0PV9G/ref=sr_1_19/262-8901884-8362628?ie=UTF8&qid=1500121412&sr=8-19&keywords=Eloise
p19
aVhttps://www.amazon.co.uk/Princess-Eloise-Board-Child-Present/dp/B00P7X13NS/ref=sr_1_20_a_it/262-8901884-8362628?ie=UTF8&qid=1500121412&sr=8-20&keywords=Eloise
p20
aVhttps://www.amazon.co.uk/Fantasie-Eloise-Underwired-Support-Supportive/dp/B01MTNCZEU/ref=sr_1_21/262-8901884-8362628?ie=UTF8&qid=1500121412&sr=8-21&keywords=Eloise
p21
aVhttps://www.amazon.co.uk/Gaslight-Eloise-Williams-x/dp/1910080543/ref=sr_1_22/262-8901884-8362628?ie=UTF8&qid=1500121412&sr=8-22&keywords=Eloise
p22
aVhttps://www.amazon.co.uk/Eloise-Plaza-DVD-Region-NTSC/dp/B0000BWVMO/ref=sr_1_23/262-8901884-8362628?ie=UTF8&qid=1500121412&sr=8-23&keywords=Eloise
p23
aVhttps://www.amazon.co.uk/dp/B06XKFH2ZR/ref=sr_1_24_a_it/262-8901884-8362628?ie=UTF8&qid=1500121412&sr=8-24&keywords=Eloise
p24
aVhttps://www.amazon.co.uk/Eloise-Barry-Ryan/dp/B000059ZO0/ref=sr_1_25/262-8901884-8362628?ie=UTF8&qid=1500121412&sr=8-25&keywords=Eloise
p25
aVhttps://www.amazon.co.uk/Schuller-711021-Elo%C3%AFse-Wall-Light/dp/B00U1HULMY/ref=sr_1_26/262-8901884-8362628?ie=UTF8&qid=1500121412&sr=8-26&keywords=Eloise
p26
aVhttps://www.amazon.co.uk/Letters-Eloise-Emily-Williams/dp/0995742103/ref=sr_1_27/262-8901884-8362628?ie=UTF8&qid=1500121412&sr=8-27&keywords=Eloise
p27
aVhttps://www.amazon.co.uk/Birthday-Gift-Chocolates-Beautifully-Somebody/dp/B00MKDSHO6/ref=sr_1_28/262-8901884-8362628?ie=UTF8&qid=1500121412&sr=8-28&keywords=Eloise
p28
aVhttps://www.amazon.co.uk/Table-19-Anna-Kendrick/dp/B06Y1K5PLW/ref=sr_1_29/262-8901884-8362628?ie=UTF8&qid=1500121412&sr=8-29&keywords=Eloise
p29
aVhttps://www.amazon.co.uk/Pia-Rossini-Eloise-Womens-Hat/dp/B005JDLS90/ref=sr_1_30/262-8901884-8362628?ie=UTF8&qid=1500121412&sr=8-30&keywords=Eloise
p30
aVhttps://www.amazon.co.uk/ELOISE-Marina-Bracelet-Sterling-Effectz/dp/B0199VJCWM/ref=sr_1_31/262-8901884-8362628?ie=UTF8&qid=1500121412&sr=8-31&keywords=Eloise
p31
aVhttps://www.amazon.co.uk/Hess-Wooden-Decor-Holder-Eloise/dp/B00I9ZP0YE/ref=sr_1_32_a_it/262-8901884-8362628?ie=UTF8&qid=1500121412&sr=8-32&keywords=Eloise
p32
a.