(lp0
Vhttp://www.ebay.com/itm/Puma-King-Spirit-Shin-Ankle-Guards-Yellow-Black-Large-/201946967734?epid=942522667&hash=item2f04fa2eb6:i:201946967734
p1
aVhttp://www.ebay.com/itm/Ice-Hockey-Socks-BLACK-shin-pad-socks-leg-socks-/112433255015?var=&hash=item1a2d8b5267:m:mdMO6fHxMjJr-NixMiVuBLQ
p2
aVhttp://www.ebay.com/itm/Nike-T90-Protegga-Mens-Shin-Guards-Black-Red-Football-Soccer-/201434971243?var=&epid=1277602698&hash=item2ee675bc6b:m:med17xQFCodVth-wJhRAKvg
p3
aVhttp://www.ebay.com/itm/Winnwell-COMP-XT-Shin-pads-Junior-Hockey-Shin-Pads-Kids-Shin-Pads-/112061219584?var=&hash=item1a175e8300:m:m6GaGP9WQ4I1jjKdwgNHV7A
p4
aVhttp://www.ebay.com/itm/Winnwell-GX4-shin-pads-Ice-Hockey-Shin-Pads-Lime-Black-/182450557094?var=&hash=item2a7ae690a6:m:mP55HBTjANGwVPAKShCMxoA
p5
aVhttp://www.ebay.com/itm/Sher-Wood-T50-Shin-Pads-Blue-and-Black-Ice-Hockey-Shin-Pads-/112172452464?var=&hash=item1a1dffca70:m:mh67J2sJEI70pOWuCPoQnow
p6
aVhttp://www.ebay.com/itm/T120-Shin-Pads-SHER-WOOD-T120-Pro-Ice-Hockey-Shin-Pads-Leg-Pads-/112061176301?var=&hash=item1a175dd9ed:m:mFig53MvEtFakE-FPC6eTrA
p7
aVhttp://www.ebay.com/itm/DR-SG65-Shin-pads-Ice-Hockey-Shin-Guards-Knee-Pads-/182209874204?var=&hash=item2a6c8e091c:m:maPlxu6GauI0PHlUN04qnZQ
p8
aVhttp://www.ebay.com/itm/Stunted-Kids-Adjustable-Knee-Elbow-Wrist-and-Shin-Protector-Skating-Pads-/112412405549?epid=1929144157&hash=item1a2c4d2f2d:g:lucAAOSw8lpZHrin
p9
aVhttp://www.ebay.com/itm/Actesso-Calf-Support-Sleeve-PAIR-Running-Pain-Shin-Splints-Compression-/262825716474?var=&epid=1558513430&hash=item3d31a22afa:m:m0zONZY2AnUjWXNsRmkZnJw
p10
aVhttp://www.ebay.com/itm/Venum-Kontact-Shin-Guard-and-Instep-Protectors-MMA-Competition-Muay-Thai-/161870308252?var=&epid=1237948512&hash=item25b038e39c:m:mGJwmW5yg6OlhRp5BxSp3Bg
p11
aVhttp://www.ebay.com/itm/Shin-Megami-Tensei-IV-Apocalypse-3DS-Game-Brand-New-/292116977994?epid=2069745320&hash=item440387594a:g:uDkAAOSw9OFZGDfz
p12
aVhttp://www.ebay.com/itm/Adjustable-Compression-Neoprene-Calf-Support-Sleeve-Shin-Splints-Muscle-Injury-/301716605096?epid=1445333894&hash=item463fb608a8:g:XhYAAOSwyQtV0yci
p13
aVhttp://www.ebay.com/itm/RDX-Gel-Shin-Instep-Foot-Pads-MMA-Leg-Kick-Guards-Muay-Thai-Boxing-Training-UFC-/201419103535?var=&epid=1812726643&hash=item2ee5839d2f:m:mT6hXOA2Y2MIUJiaQOWAASg
p14
aVhttp://www.ebay.com/itm/Shin-Godzilla-6-Action-Figure-Classic-2016-12-Head-to-Tail-NECA-IN-STOCK-/252894317038?epid=726410908&hash=item3ae1ad09ee:g:3AMAAOSwWWxY~lSq
p15
aVhttp://www.ebay.com/itm/Tokyo-Ghoul-Past-by-Shin-Towada-9781421591773-Paperback-2017-/352058810735?epid=234102357&hash=item51f857216f:g:o60AAOSwBt5ZGjgE
p16
aVhttp://www.ebay.com/itm/Actesso-Calf-Support-Sleeve-Shin-Splints-Pain-Breathable-Compression-Sport-/262889483022?var=&hash=item3d356f2b0e:m:m7GTKqJehEJ3hg6kUfIkOzw
p17
aVhttp://www.ebay.com/itm/1-PAIR-Actesso-Black-Calf-Support-Sleeve-Shin-Splints-Running-Sport-Injury-Pain-/252180028591?var=&epid=1558513430&hash=item3ab719dcaf:m:mipz11T5UWIwYTkDCmraqPw
p18
aVhttp://www.ebay.com/itm/SHIN-ETSU-X23-7783D-2g-Tube-6-0-w-M-K-HIGH-QUALITY-THERMAL-PASTE-WITH-SPREADER-/172173189793?hash=item28165262a1:g:cb4AAOSw7ThUgcV1
p19
aVhttp://www.ebay.com/itm/DJ-Shin-Samuri-Seven-Scratch-Tool-7-Portablist-Portable-Kutter-Black-Vinyl-/182630832443?hash=item2a85a5593b:g:UGAAAOSw1~JZSn30
p20
aVhttp://www.ebay.com/itm/adidas-Messi-10-Pro-Slip-In-Shin-Guards-/401256713779?var=&epid=1395001517&hash=item5d6cc38e33:m:m9tjKPKpVyzstU584ciGdMA
p21
aVhttp://www.ebay.com/itm/Venum-Kontact-Shin-Guards-pads-One-size-3-Colours-Adults-/252713868975?var=&epid=2115280104&hash=item3ad6eb9eaf:m:m2rpZz81IUQ4cNy4R0sJmsw
p22
aVhttp://www.ebay.com/itm/GENUINE-HONDA-SILICONE-GREASE-SHIN-ETSU-100g-TUBE-S2000-CIVIC-INTEGRA-/271430119116?epid=1415924740&hash=item3f327eeecc:g:D-QAAMXQlgtS85sN&vxp=mtr
p23
aVhttp://www.ebay.com/itm/RDX-Shin-Instep-Pads-MMA-Leg-Foot-Guards-Muay-Thai-Kick-Boxing-Guard-Protector-M-/381306074258?var=&epid=1842389045&hash=item58c79cf492:m:m0YVqvXqxCs9Dkq45bH-GZQ
p24
aVhttp://www.ebay.com/itm/Evo-Elastic-MMA-Shin-Insteps-guards-Martial-arts-Kick-Boxing-Muay-Thai-Leg-Pads-/251454810798?var=&hash=item3a8bdfeaae:m:mZUKJw1elISE-nOJ69BfwTA
p25
aVhttp://www.ebay.com/itm/LEATT-DUAL-AXIS-KNEE-SHIN-GUARDS-BLACK-HINGED-MOTOCROSS-MX-ENDURO-BMX-BRACES-/201695263570?var=&hash=item2ef5f97b52:m:mcPY8w5wl9i3Kmlw9wAUQcA&vxp=mtr
p26
aVhttp://www.ebay.com/itm/SEGA-Evangelion-Shin-Gekijouban-Ikari-Shinji-Nagisa-Kaworu-Figures-Set-/132241381735?hash=item1eca335967:g:aEMAAOSwVJhZUlP~
p27
aVhttp://www.ebay.com/itm/Venum-Kontact-Evo-Shin-Guards-Black-/152212908939?var=&epid=1181035048&hash=item237098ab8b:m:m7l24Q1tillxPV4gQfdFVKw
p28
aVhttp://www.ebay.com/itm/RDX-MMA-Shin-Instep-Guard-Muay-Thai-Leg-Protector-Kickboxing-Boxing-Foot-Pads-AR-/191004110754?epid=1486695201&hash=item2c78bb6fa2:g:hRkAAOSwi0RXzwG8
p29
aVhttp://www.ebay.com/itm/Shin-Instep-Pads-MMA-Leg-Foot-Guards-Muay-Thai-Kick-Boxing-Guard-Protector-/322297192548?var=&epid=1095048598&hash=item4b0a68e064:m:mcEBukNgi5nv2ZWICgizpaQ
p30
aVhttp://www.ebay.com/itm/Shin-Megami-Tensei-Devil-Summoner-Soul-Hackers-3DS-BRAND-NEW-SEALED-UK-/222333169629?epid=1410276350&hash=item33c416efdd:g:pPcAAOSwB09YQVxW
p31
aVhttp://www.ebay.com/itm/Fox-Clothing-Launch-Pro-Mountain-MTB-Bike-Knee-Shin-Guard-Protection-Pads-S-M-/192058831808?epid=1561155854&hash=item2cb79933c0:g:WXgAAOSwhdRYWkHN
p32
aVhttp://www.ebay.com/itm/Mitre-Aircell-Speed-Shin-Guards-Pads-Kids-Mens-Adults-Size-S-M-L-Black-/301791231173?var=&epid=1034477950&hash=item464428bcc5:m:mGz6NiH3180OOYVBXMhfd5Q
p33
aVhttp://www.ebay.com/itm/G-Form-Pro-S-Compact-Youth-Shin-Guards-/362006187567?var=&hash=item5449400e2f:m:m5bRvMk3WxIy17U9PFsFDCA
p34
aVhttp://www.ebay.com/itm/Shin-Pad-Tape-Yellow-Leg-Tape-Sock-Tape-Hockey-Leg-Tape-24x30m-Roll-/112338052914?hash=item1a27dea732:g:1zgAAOSwWxNYy-Es
p35
aVhttp://www.ebay.com/itm/ps2-SHIN-MEGAMI-TENSEI-PERSONA-4-Soundtrack-NEW-Sealed-PAL-UK-Version-/371589420029?hash=item56847493fd:g:~iwAAOSwFMZWqgRA
p36
aVhttp://www.ebay.com/itm/RDX-Neoprene-Gel-Shin-Instep-Pads-MMA-Leg-Foot-Guards-Kick-Protector-Muay-Thai-N-/191719108619?var=&epid=1812681417&hash=item2ca359700b:m:mW52128y2-C6aowAIdtPmyw
p37
aVhttp://www.ebay.com/itm/Shin-Lim-Playing-Cards-By-Shin-Lim-/231836232889?hash=item35fa842cb9:g:56QAAOSwCGVX~MkU
p38
aVhttp://www.ebay.com/itm/DJ-Shin-Kamikaze-Seven-Scratch-Tool-Vinyl-7-Portablist-Portable-Kutter-in-White-/182662860595?hash=item2a878e0f33:g:xyoAAOSwB-1YnEIu
p39
aVhttp://www.ebay.com/itm/RDX-MMA-Shin-Instep-Pads-Leg-Foot-Guards-Kickboxing-Protector-Training-Muay-Thai-/200812972769?var=&epid=1744712673&hash=item2ec162cae1:m:mn-5FRlDn68DjXdOYiew7yA
p40
aVhttp://www.ebay.com/itm/Sandee-Sport-Slim-Padded-PU-Shin-Guards-Muay-Thai-Boxing-Black-Red-Blue-/162514983944?var=&hash=item25d6a5dc08:m:m_ab3uqechFFpYZWksS_qGQ
p41
aVhttp://www.ebay.com/itm/Venum-Kontact-Evo-Shin-Guards-MMA-Muay-Thai-Pads-Black-/162422163352?var=&epid=1761573522&hash=item25d11d8798:m:mGyH8wYOUy00rdfl6zr3eyA
p42
aVhttp://www.ebay.com/itm/MX-Motorcycle-Motocross-Hinged-Knee-Shin-Pads-Guard-Protective-Gear-Body-Armour-/321860021726?epid=860160269&hash=item4af05a2dde:g:Aj4AAOSw~OdVW5AO&vxp=mtr
p43
aVhttp://www.ebay.com/itm/Darth-Vader-ANH-full-size-wearable-Shin-Armour-Star-wars-prop-replica-/182633231996?hash=item2a85c9f67c:g:Q2EAAOSwjqVZHf2U
p44
aVhttp://www.ebay.com/itm/Football-Shin-Pad-Supports-Shinpad-Holders-Ties-Guard-Stays-Free-P-P-/291854066632?epid=1090745814&hash=item43f3dba3c8:g:yQEAAOSwHoFXvKbP
p45
aVhttp://www.ebay.com/itm/ACERBIS-GORILLA-HINGED-KNEE-GUARDS-SHIN-MOTOCROSS-MX-ENDURO-CHEAP-QUAD-BRACE-MTB-/201782578503?hash=item2efb2dcd47:g:B8AAAOSw2xRYeKxm&vxp=mtr
p46
aVhttp://www.ebay.com/itm/Evo-Elastic-MMA-Shin-Insteps-guards-Martial-arts-Kick-Boxing-Muay-Thai-Leg-Pads-/252627246549?var=&hash=item3ad1c1ddd5:m:mZUKJw1elISE-nOJ69BfwTA
p47
aVhttp://www.ebay.com/itm/EVS-OPTION-KNEE-SHIN-GUARDS-ADULT-MOTOCROSS-MX-OFF-ROAD-ENDURO-ARMOUR-GUARD-PADS-/381003974802?var=&epid=1119305556&hash=item58b59b4892:m:mZJkZBQ8Ei1deUHOhKdiEiQ&vxp=mtr
p48
aVhttp://www.ebay.com/itm/Mitre-Aircell-Speed-Slip-In-Shinguards-Shin-Pads-/391528380014?var=&hash=item5b28e8f66e:m:mO7x8lrR3ncWSofPT2fScSw
p49
aVhttp://www.ebay.com/itm/RDX-Leather-Gel-Shin-Instep-Pads-MMA-Leg-Foot-Guards-Muay-Thai-Kick-Boxing-UFC-W-/200909326679?var=&epid=1537785711&hash=item2ec7210957:m:mL8d-fbz-MBFf1b1YqDXxmQ
p50
aVhttp://www.ebay.com/itm/VELO-Junior-Shin-Guard-Pads-MMA-Leg-Foot-Kids-Guards-Muay-Thai-Kick-kid-9-11-age-/252339348883?epid=1563037457&hash=item3ac098e593:g:7L8AAOSwgApW~aLh
p51
aVhttp://www.ebay.com/itm/Nike-Guard-Stays-2-PACK-Shin-Pad-Holder-Hook-And-Loop-Band-Football-Strap-/151552610653?var=&hash=item23493d515d:m:mafVL0MfsKfM9Q22IthkGjw
p52
aVhttp://www.ebay.com/itm/2017-Adidas-Lux-Hockey-Shin-Pad-Free-P-P-/222552198164?var=&hash=item33d1250c14:m:mhJvsOTyGnpCCLeyR0JZKKQ
p53
aVhttp://www.ebay.com/itm/Netrunner-LCG-Promo-Mushin-No-Shin-Playset-of-3-cards-/381985327516?epid=906311822&hash=item58f019899c:g:9AgAAOSw8lpZFjl4
p54
aVhttp://www.ebay.com/itm/Optimum-Sports-New-Fusion-Hockey-Shin-Guard-Protector-Small-Medium-Large-/322419354003?var=&hash=item4b11b0e993:m:m9JFCZOMEkDP_WfdvOziNuw
p55
aVhttp://www.ebay.com/itm/BLACK-BACK-ON-TRACK-PAIN-RELIEF-SHIN-LEG-WRAPS-FOR-DOGS-S-M-L-/263062890560?var=&hash=item3d3fc52840:m:mUcnlDULWF9twZQmdN_aMSg
p56
aVhttp://www.ebay.com/itm/Shin-Megami-Tensei-Devil-Survivor-2-Record-Breaker-3DS-BRAND-NEW-SEALED-UK-/222332352311?epid=1642100258&hash=item33c40a7737:g:7TYAAOSwImRYQFl9
p57
aVhttp://www.ebay.com/itm/Ex-Police-Riot-Gear-Knee-Lower-Leg-Shin-Guards-Paintballing-Airsoft-RG001-/371931052828?var=&hash=item5698d17b1c:m:mmIolnJXtdS-QZISQi8v9Lw
p58
aVhttp://www.ebay.com/itm/RDX-Neoprene-Ankle-Support-Foot-Brace-Guard-Sports-Shin-Protector-Feet-MMA-B-/380530068804?var=&epid=1712708919&hash=item58995c0d44:m:ms_EOnKsFFrWIcPa7CfUiHA
p59
aVhttp://www.ebay.com/itm/NEW-Nike-Guard-Stays-II-2-Pack-Pair-Shin-Pad-Holder-Band-Football-Strap-/332158999487?var=&hash=item4d56381bbf:m:mVURhFTwguO5n6iP0Jl6fww
p60
aVhttp://www.ebay.com/itm/Nike-Youth-Charge-2-0-Hard-Shell-Junior-Football-Shin-Guards-Pads-Jade-yellow-/332067148263?var=&epid=1477977915&hash=item4d50be91e7:m:mj_KWuIhPBi0_GuTyYu8Nzw
p61
aVhttp://www.ebay.com/itm/adidas-Messi-10-Pro-Slip-In-Shin-Guards-/401264081971?var=&epid=1976605318&hash=item5d6d33fc33:m:mULGektJplJDjh5KX4lgiMA
p62
aVhttp://www.ebay.com/itm/UHLSPORT-SOCKSHIELD-LITE-2-0-SHIN-GUARD-Size-L-black-fluo-yellow-/332141907576?epid=1057423462&hash=item4d55334e78:g:OhcAAOSwhlZYtrbr
p63
aVhttp://www.ebay.com/itm/Farabi-T-tech-Kids-junior-shin-pads-instep-training-mma-kick-boxing-protector-/290990466223?var=&epid=1962751417&hash=item43c06224af:m:m_DH-TtdTD0VUQ0EdUPlPPA
p64
aVhttp://www.ebay.com/itm/Actesso-Neoprene-Calf-Support-Brace-Shin-Splints-Wrap-Compression-Injury-Sleeve-/252617268336?var=&epid=1756051913&hash=item3ad1299c70:m:mExGuIFubWY79m95Sz3eCqQ
p65
aVhttp://www.ebay.com/itm/RDX-Neoprene-Brace-Calf-Support-Wrap-Shin-Sleeve-Running-Bandage-Leg-Compression-/191097709322?var=&epid=1238740584&hash=item2c7e4fa30a:m:mnqjytJJy-AXpORyekFf_Uw
p66
aVhttp://www.ebay.com/itm/Twins-Special-Muay-Thai-Black-Slim-Padded-Shin-Guards-/162385652108?var=&epid=1673730009&hash=item25cef0698c:m:mWxVzodh-bKTSRoEsydN8kg
p67
aVhttp://www.ebay.com/itm/Venum-Challenger-2-0-Shin-Guards-3-Colours-Protective-Thai-Shin-pads-/252305027646?var=&epid=1460870609&hash=item3abe8d323e:m:mi001WWZWhBr1u9sa4VQTUw
p68
aVhttp://www.ebay.com/itm/661-SIXSIXONE-COMP-MOTOCROSS-MX-KNEE-SHIN-GUARD-pads-protectors-enduro-bike-OS-/361974575685?var=&hash=item54475db245:m:mZEfPm7fDe6tZB2yPzeQBpA&vxp=mtr
p69
aVhttp://www.ebay.com/itm/CHENG-SHIN-COMP3-TYRE-PAIR-THIN-THIN-20-x-1-75-RALEIGH-BURNER-OLD-SHOOL-BMX-/272547772846?var=&hash=item3f751cf9ae:m:mIRR29WFrhdLtIYN1fUm7fA
p70
aVhttp://www.ebay.com/itm/adidas-Messi-10-Pro-Slip-In-Shin-Guards-/361937664423?var=&epid=1761613714&hash=item54452a79a7:m:mtUIu2D6gVQ-a1VMdAdOB4Q
p71
aVhttp://www.ebay.com/itm/KIDS-XTRM-HINGE-KNEE-SHIN-ARMOUR-MOTOCROSS-QUAD-KARTING-SAFETY-PROTECTION-/292086558890?hash=item4401b730aa:g:YVAAAOSwZeVY8fkq&vxp=mtr
p72
aVhttp://www.ebay.com/itm/adidas-Ghost-Graphic-Shin-Guards-Training-Sports-Protection-Accessories-/371855958229?var=&hash=item569457a0d5:m:maEpbbRNXPG96bUuddIikIA
p73
aVhttp://www.ebay.com/itm/Nike-Mercurial-Lite-Ronaldo-CR7-Football-Hard-Shell-Shinguards-Shin-Pads-Orange-/332184131316?var=&hash=item4d57b796f4:m:m-15kic5cj75hxn-jY4899Q
p74
aVhttp://www.ebay.com/itm/SixSixOne-661-Rage-Hard-Knee-Shin-Guards-Pads-MTB-Mountain-Bike-BMX-Size-L-/263033935577?hash=item3d3e0b56d9:g:TywAAOSwTf9ZPrj1
p75
aVhttp://www.ebay.com/itm/VELO-Shin-Guard-Gel-Pads-MMA-Leg-Foot-Guards-Muay-Thai-Kick-Boxing-MMA-Training-/252346510890?var=&hash=item3ac1062e2a:m:mrNnSX2jApLA3kBEJIxZJJQ
p76
aVhttp://www.ebay.com/itm/ZEALOUS-SHIN-PADS-MMA-LEG-FOOT-PROTECTOR-GUARDS-MUAY-THAI-KICK-BOXING-TRAINING-/232347916231?var=&epid=1342682436&hash=item361903d7c7:m:mLkLI3swyTSeh1f87g_UA7g
p77
aVhttp://www.ebay.com/itm/UFO-BMX-Motocross-FULL-FLEX-Knee-Shin-Guards-Adult-Mx-mtb-protection-armour-/262979928740?hash=item3d3ad342a4:g:1G4AAOSwtGlZFHht
p78
aVhttp://www.ebay.com/itm/NONG-SHIM-SHIN-RAMYUN-KOREAN-SPICY-INSTANT-NOODLES-5-Packets-/191939917491?epid=1505398161&hash=item2cb082b6b3:g:t1YAAOSwpONZU6Mh
p79
aVhttp://www.ebay.com/itm/Ex-Police-Riot-Gear-Set-Forearm-Thigh-Shin-And-Guards-Paintballing-Airsoft-S01-/371857911269?var=&hash=item5694756de5:m:mtg4dFEwCBW8Rh4S2aU7v3w
p80
aVhttp://www.ebay.com/itm/VELO-Gel-Shin-Guard-Pads-MMA-Leg-Foot-Guards-Muay-Thai-Kick-Boxing-MMA-Training-/252322899784?var=&hash=item3abf9de748:m:miXrMMxI3wupMSVEBm8zN9g
p81
aVhttp://www.ebay.com/itm/Orange-Sock-Tape-Leg-Tape-Shin-Pad-Tape-Hockey-Leg-Pad-Tape-24mm-x-30m-/182492832042?hash=item2a7d6ba12a:g:Q9MAAOSw4CFYy9hL
p82
aVhttp://www.ebay.com/itm/Nike-Mercurial-Lite-FC-Barcelona-Football-Hard-Shell-Shin-Pads-Guards-Mint-Glow-/332127613767?var=&hash=item4d54593347:m:mQtxCbrr-JQptl477iAGi4Q
p83
aVhttp://www.ebay.com/itm/RDX-Shin-Pads-MMA-Leg-Guards-Martial-Arts-Kick-Boxing-Guard-Protectors-Mens-WR-/191611865739?var=&epid=1512692195&hash=item2c9cf50a8b:m:mkqx_Cm511ibCUxAfBmJcNg
p84
aVhttp://www.ebay.com/itm/Everlast-MMA-Shin-Guards-Shin-Instep-Foot-Pads-Martial-Arts-Muay-Thai-K1-/112319981070?var=&hash=item1a26cae60e:m:mSw6AjErxOxfZq42VhV6zmw
p85
aVhttp://www.ebay.com/itm/Nike-Guard-Lock-Black-Elite-Sleeves-For-Slip-In-Shin-Guard-Shin-Pads-One-Pair-/232201833886?var=&hash=item36104ecd9e:m:mKGTzG20FRgyZdOm3AQB7cw
p86
aVhttp://www.ebay.com/itm/Ice-Hockey-sock-shin-pad-Tape-by-SPORTSTAPE-suppliers-to-NHL-AHL-ECHL-and-CHL-/172776156811?var=&epid=16005085619&hash=item283a42ee8b:m:mmV66gC5JMvZ9Fv7_BN_4QQ
p87
aVhttp://www.ebay.com/itm/The-Touch-of-Healing-Energizing-the-Body-Mind-and-Spirit-with-Jin-Shin-Alice-/130852041865?epid=87251629&hash=item1e7763b489:g:RhQAAOxyK~hRHnLe
p88
aVhttp://www.ebay.com/itm/VELO-Shin-Instep-Foot-Pads-MMA-UFC-Leg-Kick-Guards-Muay-Thai-Boxing-Training-Yel-/221558056469?var=&epid=1654591824&hash=item3395e3a615:m:mqSdWEQvYWYDSoBoxR9xppg
p89
aVhttp://www.ebay.com/itm/Shin-Guards-Knee-Pads-All-In-One-For-Brushcutter-Strimmer-Users-/191740358459?hash=item2ca49daf3b:g:tpoAAOSwnF9Y5~ZB
p90
aVhttp://www.ebay.com/itm/Nike-Mercurial-Flylite-Shin-Guards-Adult-Sizes-SP-0291-920-/152533720215?var=&hash=item2383b7dc97:m:mPYiJy8URIM1ixeUMOKy7JA
p91
aVhttp://www.ebay.com/itm/NONG-SHIM-SMALL-SHIN-CUP-SPICY-INSTANT-NOODLES-6-Cups-/200989288663?hash=item2ecbe528d7:g:EI0AAOSw0j9ZU6FS
p92
aVhttp://www.ebay.com/itm/WULFSPORT-ADULTS-MOTOCROSS-BODY-PROTECTION-HINGED-KNEE-SHIN-PAD-ARMOUR-NEW-MODEL-/152398481731?epid=552322818&hash=item237ba84943:g:zRkAAOSwnHZYfMVe&vxp=mtr
p93
aVhttp://www.ebay.com/itm/White-Sock-Tape-Hockey-Leg-Tape-Shin-Pad-Tape-Hockey-Leg-Pad-Tape-/182492898641?hash=item2a7d6ca551:g:WeMAAOSwuLZYy-h0
p94
aVhttp://www.ebay.com/itm/adidas-Adult-Ghost-Club-Football-Shin-Guards-/332065966895?var=&hash=item4d50ac8b2f:m:mSv9BJuSe8S8-IaG7HVrUPg
p95
aVhttp://www.ebay.com/itm/Venum-Muay-Thai-Kontact-Shin-Guards-MMA-Pads-FREE-Tracked-Delivery-/162463794328?var=&epid=2100661293&hash=item25d398c498:m:m3ioRdKCrcJN6VWNttorDkg
p96
aVhttp://www.ebay.com/itm/ps2-PERSONA-3-FES-Shin-Megami-Tensei-RARE-RPG-Game-Playstation-PAL-UK-Version-/371837606052?epid=1822852871&hash=item56933f98a4:g:aaEAAOSw6btXRX0Z
p97
aVhttp://www.ebay.com/itm/Shin-Instep-Pads-White-MMA-Leg-Foot-Guards-Muay-Thai-Kick-Boxing-Protector-/221771691635?var=&hash=item33a29f7673:m:m_CXZ-f8bqs8f8BmcjOkc7A
p98
aVhttp://www.ebay.com/itm/Warrior-football-shin-pads-guards-SLIP-IN-SMALL-free-liverpool-junior-socks-/122556856417?var=&hash=item1c88f53861:m:m3T9k6th1KzGVDG0cB3RwSQ
p99
aVhttp://www.ebay.com/itm/Venum-Adult-Black-Challenger-Stand-Up-Shinguards-MMA-Shin-Pads-Muay-Thai-/172158953890?var=&epid=1070144083&hash=item28157929a2:m:maakEiD8lrwM7iscQ2A8VVA
p100
aVhttp://www.ebay.com/itm/VELO-Gel-Shin-Instep-Foot-Pads-MMA-UFC-Leg-Kick-Guards-Muay-Thai-Boxing-V4BW-/252046261545?var=&epid=1942640038&hash=item3aaf20bd29:m:mdSFQCQ8FHYJ10mag2eeScQ
p101
aVhttp://www.ebay.com/itm/TurnerMAX-Shin-Pads-MMA-Leg-Foot-Protector-Guards-Muay-Thai-Kick-Boxing-Training-/160666780742?var=&epid=1412695010&hash=item25687c8446:m:mjzvTSXjOc2THQP6cAtZbbg
p102
aVhttp://www.ebay.com/itm/Nike-Mercurial-Flylite-Shin-Guards-Crimson-Red-Adult-Size-S-L-SP2085-601-/112298951793?var=&hash=item1a258a0471:m:m4cKoIABLwoCOExlQR9fx8Q
p103
aVhttp://www.ebay.com/itm/Venum-Muay-Thai-Kontact-Shin-Guards-MMA-Kickboxing-/172634276508?var=&epid=12003931752&hash=item2831ce029c:m:m3ioRdKCrcJN6VWNttorDkg
p104
aVhttp://www.ebay.com/itm/SHIN-MEGAMI-TENSEI-PERSONA-5-Coffee-MUG-CUP-RPG-personalised-Anime-Manga-/142188956238?hash=item211b1f4a4e:g:muAAAOSwImRYNf9i
p105
aVhttp://www.ebay.com/itm/Calf-Compression-Sleeves-Leg-Support-Pain-Relief-Shin-Splints-Running-Injury-/282477059150?hash=item41c4f1dc4e:g:~FwAAOSw5cRZF9Rb
p106
aVhttp://www.ebay.com/itm/VELO-Shin-Instep-Pads-MMA-Leg-Foot-Guards-Muay-Thai-Kick-Boxing-Guard-Protectors-/321831074789?var=&epid=1361897544&hash=item4aeea07be5:m:mdUvvgOjhnTvrh4oqaq_rIg
p107
aVhttp://www.ebay.com/itm/MTG-Pro-Muay-Thai-Black-Elastic-Shin-Guards-/152401800016?var=&epid=502729675&hash=item237bdaeb50:m:maWd1xS5vnbd9FbI_FbHrdA
p108
aVhttp://www.ebay.com/itm/EMRAH-Shin-Instep-Pads-MMA-Leg-Foot-Guards-Muay-Thai-Kick-Boxing-Guard-Protector-/301900987932?var=&hash=item464ab37e1c:m:mGgnPKznd82lH6RIS_eIMKw
p109
aVhttp://www.ebay.com/itm/Takara-Beyblades-/272753140407?var=&hash=item3f815aa2b7:m:mwfbuURAomNvjQ3vzADg2lg
p110
aVhttp://www.ebay.com/itm/RockTape-Rock-Guard-II-Shin-Skins-Pair-Black-Shin-Protectors-CrossFit-/152385369849?var=&epid=1962243090&hash=item237ae036f9:m:m-_VsuKNNTZ-9rYQmb_3Sow
p111
aVhttp://www.ebay.com/itm/661-SIXSIXONE-YOUTH-COMP-MOTOCROSS-MX-KNEE-SHIN-GUARD-pads-protectors-KIDS-/232328028034?var=&hash=item3617d45f82:m:mZEfPm7fDe6tZB2yPzeQBpA&vxp=mtr
p112
aVhttp://www.ebay.com/itm/Ex-Police-Riot-Gear-Knee-Lower-Leg-Shin-Guards-Paintballing-Airsoft-RG002-/311873490083?var=&hash=item489d1bcca3:m:mRLH7uD_HH7qUIrNADPGGQg
p113
aVhttp://www.ebay.com/itm/Sidekick-Cobra-Series-Pink-Ladies-Womens-Female-Muay-Thai-Kickboxing-Shin-Guards-/112361330471?var=&hash=item1a2941d727:m:moIOwOHOyXUu2ccfXPXZHoA
p114
aVhttp://www.ebay.com/itm/VELO-Shin-Instep-Pads-MMA-Leg-Guards-Foot-Muay-thai-kick-Boxing-Guard-Protectors-/321839090955?var=&epid=1163330086&hash=item4aef1acd0b:m:mikhQT16_9zOfX8E7ADyuUQ
p115
aVhttp://www.ebay.com/itm/Vulkan-Calf-Shin-Splint-Support-Compression-Sports-Sleeve-NHS-/262450610812?var=&epid=1612756645&hash=item3d1b46827c:m:mOdLGY7yz9gE24MGhy3ZTwA
p116
aVhttp://www.ebay.com/itm/Troy-Lee-Designs-Grey-Shock-Doctor-Pair-of-Kids-MX-Knee-and-Shin-Guard-/272646425109?epid=1032078664&hash=item3f7afe4a15:g:vk0AAOSw5UZZANpn&vxp=mtr
p117
aVhttp://www.ebay.com/itm/EMRAH-Shin-Instep-Pads-MMA-Leg-Foot-Guards-Muay-Thai-Kick-Boxing-Guard-Protector-/301900987932?var=&hash=item464ab37e1c:m:mGgnPKznd82lH6RIS_eIMKw
p118
aVhttp://www.ebay.com/itm/Oneal-Pro-III-Carbon-Look-Motocross-Knee-Shin-Guards-MX-Off-Road-Protectors-Pads-/191995449428?epid=1195504164&hash=item2cb3d21054:g:JJcAAOSwo4pYEPi0&vxp=mtr
p119
aVhttp://www.ebay.com/itm/Venum-Kontact-Shin-Guards-Muay-Thai-MMA-/152062764338?var=&epid=691362475&hash=item2367a5a532:m:m9quLoOkvS6jTxvzLUAMTzg
p120
aVhttp://www.ebay.com/itm/adidas-Field-Club-Shin-Guards-Protectors-Football-Equipment-Accessories-/391246154358?var=&epid=1841898299&hash=item5b18168a76:m:m47S_gtj3Ly9WqFsDYid9hA
p121
aVhttp://www.ebay.com/itm/Ex-Police-Riot-Gear-Knee-Lower-Leg-Shin-Guards-Paintballing-Airsoft-RG002-/311873490083?var=&hash=item489d1bcca3:m:mRLH7uD_HH7qUIrNADPGGQg
p122
aVhttp://www.ebay.com/itm/Kookaburra-Viper-Hockey-Shin-Guards-Orange-/172093345904?var=&epid=1741832329&hash=item2811901070:m:mU-atqdRKHD9VPmHNmWnI8A
p123
aVhttp://www.ebay.com/itm/KIDS-XTRM-HINGE-KNEE-SHIN-ARMOUR-MOTOCROSS-QUAD-KARTING-SAFETY-PROTECTION-/292086558890?hash=item4401b730aa:g:YVAAAOSwZeVY8fkq&vxp=mtr
p124
aVhttp://www.ebay.com/itm/MTG-Pro-Muay-Thai-Leather-Shin-Guards-Black-/152426195537?var=&epid=546448155&hash=item237d4f2a51:m:mWH_FRATk_3CHTLNhe1WweA
p125
aVhttp://www.ebay.com/itm/adidas-Adult-Ghost-Club-Football-Shin-Guards-/332065966895?var=&hash=item4d50ac8b2f:m:mSv9BJuSe8S8-IaG7HVrUPg
p126
aVhttp://www.ebay.com/itm/VELO-Gel-Shin-Guard-Pads-MMA-Leg-Foot-Guards-Muay-Thai-Kick-Boxing-MMA-Training-/252322899784?var=&hash=item3abf9de748:m:miXrMMxI3wupMSVEBm8zN9g
p127
aVhttp://www.ebay.com/itm/Shin-Guards-Knee-Pads-For-Brushcutter-Strimmer-Users-/390583402052?epid=920025600&hash=item5af095be44:g:FWEAAOSwZQxW4SmN
p128
aVhttp://www.ebay.com/itm/Liverpool-FC-Football-Kids-Adults-Goalie-Gloves-Shin-pad-Birthday-Christmas-Gift-/262945302363?var=&hash=item3d38c2e75b:m:mBkDzT-1MdmZ80vBpROvE7A
p129
aVhttp://www.ebay.com/itm/OFFICIAL-VARIOUS-FOOTBALL-CLUB-SHINGUARDS-SHIN-GUARDS-PADS-KIDS-NEW-XMAS-GIFT-/262661138019?var=&epid=1840052420&hash=item3d27d2e663:m:m7riSSx5doPbV1hJuMgsCgA
p130
aVhttp://www.ebay.com/itm/Shin-Instep-Pads-White-MMA-Leg-Foot-Guards-Muay-Thai-Kick-Boxing-Protector-/221771691635?var=&hash=item33a29f7673:m:m_CXZ-f8bqs8f8BmcjOkc7A
p131
aVhttp://www.ebay.com/itm/Gone-Deck-by-Shin-Lim-Trick-/231823007355?hash=item35f9ba5e7b:g:1~4AAOSwNRdX~MrO
p132
aVhttp://www.ebay.com/itm/Adidas-Ace-Club-Football-Mens-Junior-Shin-Guards-Pads-Shinpads-Orange-White-/162536986593?var=&hash=item25d7f597e1:m:mThaQTfPrB2GznmYBpKnVTA
p133
aVhttp://www.ebay.com/itm/Sidekick-Kids-Childs-Xsmall-Muay-Thai-Kickboxing-MMA-Shin-Guards-Pads-Red-/122396340734?hash=item1c7f63f1fe:g:yxYAAOSw2gxYxtrH
p134
aVhttp://www.ebay.com/itm/Shin-Guards-Knee-Pads-All-In-One-For-Brushcutter-Strimmer-Users-/141362513026?hash=item20e9dcc482:g:2gwAAOSwARZXkI3L
p135
aVhttp://www.ebay.com/itm/VELO-Strike-Leather-Shin-Guards-Instep-Pads-MMA-Leg-Foot-Muay-Thai-Kick-Boxing-/221453564602?var=&epid=1151071074&hash=item338fa93aba:m:m2O0wo5i4twG-iOwNS2iVCQ
p136
aVhttp://www.ebay.com/itm/Blitz-Sports-Dipped-Foam-Shin-Guards-Kickboxing-Pads-Black-Red-Blue-/162493868750?var=&epid=1912721840&hash=item25d563aace:m:mMqDRAloMmdr9Kldynw-Amw
p137
aVhttp://www.ebay.com/itm/Suzuki-RM-100-A-B-C-N-T-X-76-81-Cheng-Shin-C858-Prem-Trail-410-18-59P-Rear-Tyre-/302202793857?hash=item465cb0af81:g:wTYAAOSw5cNYhB0-&vxp=mtr
p138
aVhttp://www.ebay.com/itm/Venum-Kontact-Shin-Guards-pads-One-size-ufc-mma-fight-gear-/252552117164?var=&epid=1237948512&hash=item3acd477bac:m:mTp1sioslYcIKGXl5-zpPMw
p139
aVhttp://www.ebay.com/itm/Flash-Deck-Switch-2-0-Improved-Red-by-Shin-Lim-Trick-/231622098680?hash=item35edc0bef8:g:JzsAAOSwmLlX~O2M
p140
aVhttp://www.ebay.com/itm/VELO-Shin-Instep-Pads-MMA-Leg-Foot-Guards-Muay-Thai-Kick-Boxing-Guard-Protectors-/321831074789?var=&epid=1761996723&hash=item4aeea07be5:m:mdUvvgOjhnTvrh4oqaq_rIg
p141
aVhttp://www.ebay.com/itm/MX-Motorcycle-Motocross-Hinged-Knee-Shin-Pads-Guard-Protective-Gear-Body-Armour-/161800135316?epid=860160269&hash=item25ac0a2294:g:HnMAAOSwv0tVRSx~&vxp=mtr
p142
aVhttp://www.ebay.com/itm/Black-Elastic-Sports-Protective-Shin-Splint-Sleeve-Calf-Support-SK-/182134971869?epid=1449383367&hash=item2a68171ddd:g:Xi0AAOSwdjNZGejN
p143
aVhttp://www.ebay.com/itm/TACTICAL-PATROL-ANTI-RIOT-LEG-SHIN-KNEE-GUARDS-PROTECTION-POLICE-SECURITY-BLACK-/281302476722?epid=1856385940&hash=item417eef27b2:g:3nsAAOxyIv5TkCaT
p144
aVhttp://www.ebay.com/itm/Venum-Black-Challenger-Adult-Shin-Guards-/282343711438?var=&hash=item41bcff22ce:m:mELD5cKKQS9Q7d5AsRciHVQ
p145
aVhttp://www.ebay.com/itm/Yu-Gi-Oh-ARC-V-Vol-1-Shin-Yoshida-/132179423481?epid=234178028&hash=item1ec681f0f9:g:q0IAAOSw7GRZCaZZ
p146
aVhttp://www.ebay.com/itm/Shin-Guards-Knee-Pads-All-In-One-For-Brushcutter-Strimmer-Users-/141362513026?hash=item20e9dcc482:g:2gwAAOSwARZXkI3L
p147
aVhttp://www.ebay.com/itm/Acerbis-Gorilla-Knee-Guards-Hinged-Shin-Femur-And-Knee-Motorcross-Armour-/332239265175?epid=2135933787&hash=item4d5b00dd97:g:IQIAAOSwCQZZKaCs&vxp=mtr
p148
aVhttp://www.ebay.com/itm/Sidekick-Kids-Childs-Xsmall-Muay-Thai-Kickboxing-MMA-Shin-Guards-Pads-Red-/122396340734?hash=item1c7f63f1fe:g:yxYAAOSw2gxYxtrH
p149
aVhttp://www.ebay.com/itm/Mitre-Aircell-Carbon-Ankle-Protect-Football-Shin-Pads-Blue-Cyan-Yellow-Medium-/292128880368?epid=1774652120&hash=item44043cf6f0:g:HMAAAOSwKytZJiH2
p150
aVhttp://www.ebay.com/itm/Blitz-Sports-Dipped-Foam-Shin-Guards-Kickboxing-Pads-Black-Red-Blue-/162493868750?var=&epid=1912721840&hash=item25d563aace:m:mMqDRAloMmdr9Kldynw-Amw
p151
aVhttp://www.ebay.com/itm/Grays-G500-Shin-Guards-Black-Free-P-P-/222252815574?var=&hash=item33bf4cd4d6:m:mYhmPzILC8j6sHewybcshYw
p152
aVhttp://www.ebay.com/itm/MX-Motorcycle-Motocross-Hinged-Knee-Shin-Pads-Guard-Protective-Gear-Body-Armour-/161799680107?epid=1934618239&hash=item25ac03306b:g:8XcAAOSw1ZBUrrQF&vxp=mtr
p153
aVhttp://www.ebay.com/itm/MX-Motorcycle-Motocross-Hinged-Knee-Shin-Pads-Guard-Protective-Gear-Body-Armour-/161800135316?epid=860160269&hash=item25ac0a2294:g:HnMAAOSwv0tVRSx~&vxp=mtr
p154
aVhttp://www.ebay.com/itm/adidas-Ghost-Pro-Shin-Guards-/272581895381?var=&epid=606340667&hash=item3f7725a4d5:m:mv_3K4FucCmzXdZ4m9z73DQ
p155
aVhttp://www.ebay.com/itm/FOOTBALL-SHIN-PAD-SUPPORTS-SOCK-SHINPAD-HOLDERS-TIES-GUARD-STAYS-/282526313941?var=&hash=item41c7e16dd5:m:msFGgh5ZNH2st63_2G4-Ovw
p156
aVhttp://www.ebay.com/itm/Adidas-Guard-Stays-Shin-Pad-Holder-Football-Ankle-Straps-Soccer-Ankle-Supports-/322514416117?var=&hash=item4b175b71f5:m:mITne71_i6_Ie_7sk-ZLxeg
p157
aVhttp://www.ebay.com/itm/Sidekick-Girls-Ladies-Womens-Pink-Muay-Thai-Kickboxing-Shin-Guards-Instep-Pads-/121971282027?var=&hash=item1c660e106b:m:mwVL43XHJK7VL_wHZzwQ0yQ
p158
aVhttp://www.ebay.com/itm/52-Shades-Gimmicks-20-ct-by-Shin-Lim-/351454298660?hash=item51d44f0224:g:h3sAAOSw8gVX~PsX
p159
aVhttp://www.ebay.com/itm/EVS-Epic-MX-Motocross-Enduro-Knee-Shin-Guards-/232023996965?var=&hash=item3605b53a25:m:mZTjvhCWOrMeZio-hx37wrg&vxp=mtr
p160
aVhttp://www.ebay.com/itm/Nongshim-Shin-Ramyun-Gourmet-Spicy-Instant-Noodles-Pack-of-5-/191533185765?epid=1988618394&hash=item2c98447ae5:g:QOUAAOSwPhdU~uUw
p161
aVhttp://www.ebay.com/itm/Badbreed-Leather-Shin-Instep-Pads-MMA-Leg-Foot-Guards-Muay-Thai-Kick-Boxing-/112201157978?var=&epid=1456798479&hash=item1a1fb5cd5a:m:mDmWWr0h3L6Fo4TtwTtjH4g
p162
aVhttp://www.ebay.com/itm/MMA-Shin-Guards-cowhide-leather-traditional-brown-Muay-Thai-Large-/122348341718?hash=item1c7c8789d6:g:RjEAAOSw3v5YnJuJ
p163
aVhttp://www.ebay.com/itm/OCTAVE-Mens-High-Performance-Ski-Socks-With-Shin-Protection-/111597405055?var=&hash=item19fbb9437f:m:mG0SZsJTbqNAnJYJa3QRdPw
p164
aVhttp://www.ebay.com/itm/Ankle-Magnetic-Foot-support-Brace-Guard-Gym-Sport-Protector-Shin-Straps-quality-/152507136331?epid=802061277&hash=item238222394b:g:vFcAAOSwDk5UJgwq
p165
aVhttp://www.ebay.com/itm/LEATT-KNEE-SHIN-GUARD-3-0-EXT-PAIR-MOTOCROSS-ENDURO-ADULT-MX-/182427285510?var=&hash=item2a79837806:m:mdoSubFIU5-pUU8yZU9PNpQ&vxp=mtr
p166
aVhttp://www.ebay.com/itm/Shin-Instep-Pads-MMA-Kick-Boxing-Protector-For-junior-Kids-Muay-Thai-Shin-/390784135575?var=&hash=item5afc8cb197:m:m_DH-TtdTD0VUQ0EdUPlPPA
p167
aVhttp://www.ebay.com/itm/Twins-Special-Sgl-10-Maroon-Shin-Guards-Size-L-/253013524907?hash=item3ae8c801ab:g:WSsAAOSw~AVYskqp
p168
aVhttp://www.ebay.com/itm/WHOLESALE-PREMIUM-PVC-SPORTS-RUGBY-FOOTBALL-HOCKEY-SOCK-SHIN-PAD-COLOURED-TAPE-/261860816227?var=&epid=1561529457&hash=item3cf81ef563:m:myIdayYbqUi6vZkRcvENcUQ
p169
aVhttp://www.ebay.com/itm/G-Form-Pro-S-Shin-Guards-/272524131272?var=&epid=1657448236&hash=item3f73b43bc8:m:mkXgcBzN_PiWgWk_AWG_sMg
p170
aVhttp://www.ebay.com/itm/Wulf-Cub-Junior-Knee-Pads-Motocrosss-ATV-Quad-Kids-Youth-Shin-Guards-Protectors-/191322043781?epid=1722048642&hash=item2c8baeb585:g:e7wAAOSwx2dYEQAH&vxp=mtr
p171
aVhttp://www.ebay.com/itm/2-x-Blue-Elasticated-Calf-Shin-Support-Compression-Brace-Sleeve-Guard-New-/122527099446?epid=1688365770&hash=item1c872f2a36:g:YYwAAOSwuMZZCLck
p172
aVhttp://www.ebay.com/itm/VELO-Shin-Instep-Foot-Pads-MMA-UFC-Leg-Kick-Guards-Muay-Thai-Boxing-Training-RDB-/252312489965?var=&hash=item3abeff0fed:m:mggT3tt_3D0oUC33JKnhZUA
p173
aVhttp://www.ebay.com/itm/Fox-Launch-Pro-MTB-DH-Downhill-Bike-Knee-Shin-Pads-L-XL-/132251983360?hash=item1ecad51e00:g:yUsAAOxyVaBSyB1G
p174
aVhttp://www.ebay.com/itm/Liverpool-FC-Football-Kids-Adults-Goalie-Gloves-Shin-pad-Birthday-Christmas-Gift-/262945302363?var=&hash=item3d38c2e75b:m:mBkDzT-1MdmZ80vBpROvE7A
p175
aVhttp://www.ebay.com/itm/McDavid-8836-Calf-Sleeve-Support-Sport-Brace-Wrap-Compression-Guard-Shin-Strap-/282060270372?var=&epid=1672925967&hash=item41ac1a2b24:m:mLO1uMpWIKCL1SijI8F1egw
p176
aVhttp://www.ebay.com/itm/FOOTBALL-CLUB-SLIP-ON-SHINPADS-KIDS-YOUTH-BOYS-PROTECTION-SHIN-PADS-GUARDS-/191470210903?var=&epid=1825026549&hash=item2c94838f57:m:m2nXhs9hrXaEOZk-yMcePvg
p177
aVhttp://www.ebay.com/itm/Vulkan-Calf-Shin-Splint-Support-Compression-Sports-Sleeve-NHS-/262450610812?var=&epid=1612756645&hash=item3d1b46827c:m:mOdLGY7yz9gE24MGhy3ZTwA
p178
aVhttp://www.ebay.com/itm/Barcelona-FCB-Football-All-Design-Size-Goalkeeper-gloves-Shin-pads-Pump-Gift-/263019705294?var=&hash=item3d3d3233ce:m:mgE4DnKUQ1lvnCyXmPuisMw
p179
aVhttp://www.ebay.com/itm/Evo-Ladies-Pink-MMA-Shin-Insteps-guards-Martial-arts-Kick-Boxing-Muay-Thai-Pads-/261407918640?var=&hash=item3cdd204a30:m:m1OpdZFtsdYtqyXlIsQT24w
p180
aVhttp://www.ebay.com/itm/VELO-Kids-Shin-Guard-Pads-MMA-Leg-Foot-Junior-Guards-Muay-Thai-Kick-Boxing-mma-/222521410562?var=&hash=item33cf4f4402:m:mzetvpiIZemv5hTjaiFlwoQ
p181
a.