(lp1
Vhttp://www.ebay.com/itm/Matched-Pair-ECC83-12AX7-Svetlana-Winged-C-Valve-Tubes-/112424137374?epid=1423271007&hash=item1a2d00329e:g:-noAAOSwEHpZLLGa
p2
aVhttp://www.ebay.com/itm/Winged-C-SVETLANA-12AX7-ECC83-CV4004-/311552851785?epid=1078613708&hash=item4889ff3f49:g:KpEAAOSwll1Wyzad
p3
aVhttp://www.ebay.com/itm/12AX7-ECC83-SVETLANA-WINGED-C-BOXED-ANODE-VALVE-TUBE-/310215317249?epid=1930170836&hash=item483a461701:m:mvnVlRe2ukwP-ZStBSRSUQQ
p4
aVhttp://www.ebay.com/itm/EL34-SVETLANA-WINGED-C-NOS-MATCHED-PAIR-/280486432039?epid=1805638205&hash=item414e4b4d27:m:mW1ytSXYEBHv9VnhLwBHuRg
p5
aVhttp://www.ebay.com/itm/Matched-Pair-6AS7G-Svetlana-Winged-C-NOS-Russian-Valve-Tubes-/112430448107?hash=item1a2d607deb:g:1RAAAOSwurZZMzg8
p6
aVhttp://www.ebay.com/itm/6L6GC-SVETLANA-WINGED-C-NOS-BOXED-VALVE-TUBE-/262905762797?epid=698605925&hash=item3d366793ed:g:HnEAAOSw4CFY0nCq
p7
aVhttp://www.ebay.com/itm/5U3C-SVETLANA-5U4G-NEW-OLD-STOCK-TUBE-VALVE-1-PC-J17-/391669453337?hash=item5b31519219:g:kbwAAOSwnHZYbmRh
p8
aVhttp://www.ebay.com/itm/Matched-Pair-NOS-6L6GC-Svetlana-Wlnged-C-Russian-Valve-Tubes-/112436306005?epid=1929306868&hash=item1a2db9e055:g:1W0AAOSwIjJZOeLf
p9
aVhttp://www.ebay.com/itm/Matched-Pair-ECL82-Svetlana-C-NOS-Russian-Valve-Tubes-/112429382975?epid=1406179105&hash=item1a2d503d3f:g:7F4AAOSw0hlZMecB
p10
aVhttp://www.ebay.com/itm/6C19N-6S19P-SVETLANA-MATCHED-PAIR-/310184663705?epid=1288244875&hash=item4838725a99:m:mkJ_Sm-ivrZnGgjd9FRn5zw
p11
aVhttp://www.ebay.com/itm/SV83-SVETLANA-EL83-NOS-VALVE-TUBE-1-PC-/370616942412?hash=item564a7dbf4c:m:meKi199tV0WqqgygTXyLYUw
p12
aVhttp://www.ebay.com/itm/Matched-Pair-EF86-Z729-mesh-plate-Svetlana-C-NOS-Valve-Tubes-/112425383042?hash=item1a2d133482:g:0QsAAOSwlY1ZLf-P
p13
aVhttp://www.ebay.com/itm/EL34-Svetlana-Winged-C-Valve-Platinum-Tested-Tube-/321442392672?hash=item4ad775aa60:g:-egAAMXQE9hR9jtJ
p14
aVhttp://www.ebay.com/itm/Premium-Matched-Pair-5U4G-CV575-Svetlana-C-SED-Logo-NOS-Valve-Tubes-/111896176406?epid=1680154921&hash=item1a0d882716:g:I~4AAOSwaEhZMzPs
p15
aVhttp://www.ebay.com/itm/ULTIMATE-UPGRADE-SET-YAQIN-MC-6P1P-8-X-VALVE-TUBE-6P1P-6J1-FREE-RINGS-UK-STOCK-/252141064842?hash=item3ab4c7528a:g:uBAAAOSwwpdW2qzt
p16
aVhttp://www.ebay.com/itm/Svetlana-6BM8-ECL82-triode-pentode-/310911953221?epid=855794844&hash=item4863cbe945:g:TQEAAOxy039TNFuu
p17
aVhttp://www.ebay.com/itm/6P1P-Svetlana-NOS-60s-same-codes-tubes-1pcs-/391830539541?hash=item5b3aeb8d15:g:QngAAOSwxu5ZND3D
p18
aVhttp://www.ebay.com/itm/6H5C-6AS7G-SVETLANA-NOS-/261130776503?hash=item3ccc9b6fb7:m:mxEnNKGqS5oGyhGmENnGIug
p19
aVhttp://www.ebay.com/itm/Second-Hand-Time-Paperback-Alexievich-Svetlana-Shayevich-Be-9781910695111-/391623776153?epid=221247288&hash=item5b2e989799:g:qscAAOSwInxXNZCD
p20
aVhttp://www.ebay.com/itm/Chernobyl-Prayer-Alexievich-Svetlana-/371713052843?epid=221281355&hash=item568bd310ab:g:NmIAAOSw6n5XtLgq
p21
aVhttp://www.ebay.com/itm/The-Last-Superpower-Summits-Svetlana-Savranskaya-/371933678136?epid=228285975&hash=item5698f98a38:g:LQoAAOSwcgNZA55P
p22
aVhttp://www.ebay.com/itm/The-Future-of-Nostalgia-by-Svetlana-Boym-9780465007080-Paperback-2002-/252572948446?epid=89019698&hash=item3ace8557de:g:FKgAAOSwLnBX9rJ2
p23
aVhttp://www.ebay.com/itm/EL34-SVETLANA-WINGED-C-NOS-MATCHED-QUAD-/310210519022?epid=1805638205&hash=item4839fcdfee:m:mMK7kZbZ79VZSi80IM5k5SQ
p24
aVhttp://www.ebay.com/itm/5U4G-CV575-Svetlana-Winged-C-SED-NOS-Russian-Valve-Tubes-/111896168786?epid=1680154921&hash=item1a0d880952:g:tlMAAOSwEHpZMzSS
p25
aVhttp://www.ebay.com/itm/Stalins-Daughter-The-Extraordinary-and-Tumultuous-Life-of-Svetlana-Alliluyeva-/162574327451?epid=213389520&hash=item25da2f5e9b:g:m3kAAOSw44BYiP62
p26
aVhttp://www.ebay.com/itm/Namensketten-SVETLANA-18K-Vergoldet-Namen-Modedesigner-Muttertag-Schmuck-/151299483368?var=&hash=item233a26e6e8:m:mwJOJO_VVCAjd062UpSkXkg
p27
aVhttp://www.ebay.com/itm/Another-Freedom-The-Alternative-History-of-an-Idea-by-Svetlana-Boym-/252140964204?epid=113251459&hash=item3ab4c5c96c:g:S~EAAOSwaB5Xm0I9
p28
aVhttp://www.ebay.com/itm/Chernobyl-Prayer-Alexievich-Svetlana-/311679291189?epid=221234965&hash=item4891888f35:g:Z1oAAOSw6n5XtdMG
p29
aVhttp://www.ebay.com/itm/Name-Necklace-Svetlana-18K-Gold-Plated-Valentines-Wedding-Unique-Pendant-/162029974027?var=&hash=item25b9bd320b:m:mDKkgzG_CnKveFZWDNPI_jw
p30
aVhttp://www.ebay.com/itm/EL34-SVETLANA-WINGED-C-NOS-/260577827411?epid=1805638205&hash=item3caba61a53:m:mOBZRIVce_ZbzsfLYwnwZYQ
p31
aVhttp://www.ebay.com/itm/Gangs-of-Russia-From-the-Streets-to-the-Corridors-of-Power-by-Svetlana-/331781111242?epid=213389819&hash=item4d3fb1fdca:g:HVUAAOSwInxXMhqh
p32
aVhttp://www.ebay.com/itm/Nightschool-Svetlana-Chmakova-Paperback-New-Book-Free-UK-Delivery-/322285178439?epid=88547943&hash=item4b09b18e47:g:pYEAAOSwYIxX9rgb
p33
aVhttp://www.ebay.com/itm/Kuznetsova-Svetlana-30295-8x10-Photo-/380733859214?epid=1588380535&hash=item58a581a58e:g:OD8AAOxy-W9SStfZ
p34
aVhttp://www.ebay.com/itm/SVETLANA-FROST-GIANT-PRINCESS-Reaper-Miniatures-Dark-Heaven-Bones-77107-/262929093264?epid=1236718957&hash=item3d37cb9290:g:0HUAAOSw5cNYhmFk
p35
a.