(lp1
Vhttp://www.ebay.com/itm/Angel-fashions-Women-Sequin-Tulle-Long-Wedding-Bridesmaid-Prom-Dress-Gold-106-/391239727195?var=&hash=item5b17b4785b:m:mGXQB4td-kY0vHRRTe1Q1yQ
p2
aVhttp://www.ebay.com/itm/NWT-sequin-beaded-Embellished-Flapper-20s-Gatsby-Prom-Dress-Cruise-8-16-/322468804991?var=&hash=item4b14a3797f:m:mlEOBTnL4xdhFCfm52xZ7pQ
p3
aVhttp://www.ebay.com/itm/New-1920s-gatsby-vintage-flapper-lace-sequin-black-white-party-maxi-dress-UK8-20-/162487819291?var=&hash=item25d5075c1b:m:mER42BROfaGrOm6m01T3rxg
p4
aVhttp://www.ebay.com/itm/Olivia-White-Rose-Gold-Sequin-Mesh-Wrap-V-Neck-Bodycon-Mini-Dress-6-12-New-/201754708666?var=&hash=item2ef9848aba:m:mA6Hs9-WDLN_eOQWs_nMYgQ
p5
aVhttp://www.ebay.com/itm/Tank-Womens-Coctail-Top-Glitter-New-Sparkle-3-4-Sleeve-Sequin-Party-T-Shirt-/182650701129?var=&hash=item2a86d48549:m:mqWen_QJFVGdt8hKxVRd1Xg
p6
aVhttp://www.ebay.com/itm/New-1920s-gatsby-vintage-flapper-charleston-green-sequin-party-dress-UK-10-12-/152105858836?epid=558633000&hash=item236a373714:g:g6oAAOSwagdXSJRD
p7
aVhttp://www.ebay.com/itm/Gold-Sequin-Scalloped-Crochet-Plunge-Bodycon-Evening-Party-Dress-Size-10-12-/253023388459?var=&hash=item3ae95e832b:m:mMvEmzp5PxjkmZIx2qmWEeQ
p8
aVhttp://www.ebay.com/itm/Metallic-Mint-Sequin-Party-Evening-Bodycon-Stretch-Dress-BNWT-125-8-10-12-14-/291772596595?var=&hash=item43ef008173:m:mVq9zStWMI9HH-Azj_0SYbA
p9
aVhttp://www.ebay.com/itm/Metallic-Mint-Sequin-Party-Evening-Bodycon-Stretch-Dress-BNWT-125-8-10-12-14-/291772596595?var=&hash=item43ef008173:m:mVq9zStWMI9HH-Azj_0SYbA
p10
aVhttp://www.ebay.com/itm/New-1920-vintage-gatsby-flapper-charleston-sequin-gold-evening-party-dress-10-12-/161559893484?epid=856175612&hash=item259db855ec:g:LmUAAOSwkNZUa9AQ
p11
aVhttp://www.ebay.com/itm/Chic-Women-Strappy-Sequin-Striped-Bodycon-Midi-Mini-Party-Evening-Cocktail-Dress-/252895729484?var=&hash=item3ae1c2974c:m:m30UJx9RLiSXxfaQgxWCYwg
p12
aVhttp://www.ebay.com/itm/NEW-Blue-Maxi-Dress-Gem-Sequin-Embellished-Bridesmaid-Evening-Party-Prom-Gown-/231616599547?var=&hash=item35ed6cd5fb:m:m7-GRUHS8S9kEyqWLVpHpng
p13
aVhttp://www.ebay.com/itm/Women-Choker-V-Neck-Casual-Loose-Tops-T-Shirt-Lace-up-Plunge-Mini-Dress-UK-6-14-/391670121721?var=&hash=item5b315bc4f9:m:mHqY8suVAjVAW_YyJwRZnJg
p14
aVhttp://www.ebay.com/itm/KAYE-Black-Gold-Sequin-Celeb-Bodycon-Evening-Mini-Party-Dress-8-10-12-14-/112226930914?var=&hash=item1a213f10e2:m:mEvNHEt6EDu3kv19SeCCyTw
p15
aVhttp://www.ebay.com/itm/New-gatsby-20s-vintage-flapper-charleston-black-sequin-party-dress-UK-10-12-/161819588957?hash=item25ad32f95d:g:hB4AAOSwPcVVzQiT
p16
aVhttp://www.ebay.com/itm/New-1920s-gatsby-vintage-flapper-lace-sequin-black-white-party-dress-UK-8-to-20-/151671122170?var=&hash=item23504da8fa:m:m9mVocoh3ZW9VeTC3IxMrig
p17
aVhttp://www.ebay.com/itm/New-1920s-gatsby-vintage-flapper-charleston-red-sequin-party-dress-UK-10-12-/162073220822?hash=item25bc5116d6:g:oggAAOSwZetXOiAL
p18
aVhttp://www.ebay.com/itm/1920S-STYLE-GATSBY-VINTAGE-LOOK-CHARLESTON-SEQUIN-FLAPPER-DRESS-SIZE-10-12-/161852147686?hash=item25af23c7e6:g:KiYAAOSw5ZBWFq9U
p19
aVhttp://www.ebay.com/itm/UK-Womens-Ladies-Sequin-Sparkle-Glitter-Lace-Mesh-High-Neck-Party-Crop-Top-/112019512454?var=&hash=item1a14e21c86:m:mfiZD1a8TWuQLbp49c6JX_Q
p20
aVhttp://www.ebay.com/itm/New-sequin-beaded-Embellished-Flapper-20s-Gatsby-Prom-Dress-Cruise-8-10-12-/322504553557?var=&hash=item4b16c4f455:m:m8ysAX-jOUztYh9KNFldjaQ
p21
aVhttp://www.ebay.com/itm/Art-Deco-Rose-Gold-Sequin-Mesh-Bodycon-Mini-Evening-Party-Dress-Size-8-10-12-14-/252703216901?var=&hash=item3ad6491505:m:m6kmouK0b9y7Cl9J0rlvrhA
p22
aVhttp://www.ebay.com/itm/Womens-Plus-Size-Dress-Ladies-Flapper-Sequin-Lace-Floral-Short-Sleeve-Nouvelle-/232159874952?var=&epid=2088035440&hash=item360dce8f88:m:mInuLwchF4xSW0cHhkQ0vUA
p23
aVhttp://www.ebay.com/itm/Angel-fashions-Strapless-Sequins-Mermaid-Wedding-Long-Evening-Dress-Pink-212-/172158716723?var=&hash=item2815758b33:m:mTas6F-sj69_IJbk9OovneA
p24
aVhttp://www.ebay.com/itm/New-1920s-vintage-gatsby-flapper-charleston-sequin-purple-party-dress-UK-10-12-/162511457910?hash=item25d6700e76:g:il8AAOSwH09ZE3VE
p25
aVhttp://www.ebay.com/itm/New-1920s-vintage-gatsby-flapper-charleston-sequin-purple-party-dress-UK-10-12-/162511457910?hash=item25d6700e76:g:il8AAOSwH09ZE3VE
p26
aVhttp://www.ebay.com/itm/Champagne-Sequin-Long-Dress-Club-Wear-Fashion-Evening-Wear-Size-M-L-/262965143953?hash=item3d39f1a991:g:zKwAAOSwT-FZCcOn
p27
aVhttp://www.ebay.com/itm/New-1920s-gatsby-vintage-flapper-charleston-tassel-sequin-black-dress-UK-8-18-/152582058109?var=&hash=item238699707d:m:mXpUBTtat4tg0RcrUKsZQng
p28
aVhttp://www.ebay.com/itm/H-M-ladies-girls-green-fully-sequin-party-dress-full-sleeved-stretch-party-wear-/292191920231?var=&hash=item4407fee067:m:mE5spctByjUPAggfJwCsJ0Q
p29
aVhttp://www.ebay.com/itm/UK-Womens-Backless-Sequin-Dress-Ladies-Kendall-Chain-Choker-Slip-Dress-Size-6-14-/282341423937?var=&hash=item41bcdc3b41:m:mSFDtN2oST-dMOACvQhWujQ
p30
aVhttp://www.ebay.com/itm/Virgos-Lounge-Blue-Nicola-Embellished-Cocktail-Midi-Sequin-Party-Dress-6-14-/311912845749?var=&hash=item489f7451b5:m:mglzyZ8o8GxTFr0PF2wvu7g
p31
aVhttp://www.ebay.com/itm/M-S-Ivory-Jersey-Sequin-Detail-Top-Size-22-New-ms-99h-/222454861512?hash=item33cb57cec8:g:pHUAAOSwTM5Y2R~c
p32
aVhttp://www.ebay.com/itm/Angel-fashions-Long-Prom-Gowns-Vintage-Sequin-Court-Wedding-Evening-Dress-224-/172233112531?var=&hash=item2819e4bbd3:m:mN7NVg4au-5oe1RBwXsuBkw
p33
aVhttp://www.ebay.com/itm/New-gatsby-20s-vintage-flapper-charleston-black-sequin-party-dress-UK-10-12-/151829038356?hash=item2359b74514:g:GkYAAOSwPcVV25gI
p34
aVhttp://www.ebay.com/itm/NEW-M-S-PER-UNA-PENCIL-DRESS-BLACK-GREY-NAVY-SEQUIN-FLORAL-LACE-10-12-14-16-18-/191269460222?var=&hash=item2c888c58fe:m:mka18dWRBVmNgvLvKj75IMQ
p35
aVhttp://www.ebay.com/itm/Womens-Lace-And-Sequin-Bodycon-Party-Cocktail-Dress-Size-10-12-RRP-70-/112215257285?var=&hash=item1a208cf0c5:m:mgXyz9XiJNcqBIWeEjKtKXw
p36
aVhttp://www.ebay.com/itm/NWT-sequin-beaded-Embellished-Flapper-20s-Gatsby-Party-Prom-Dress-Cruise-8-16-/222484691426?var=&hash=item33cd1ef9e2:m:mj1GmW4_9IWoB4eLFdzszgQ
p37
aVhttp://www.ebay.com/itm/Angel-fashions-Womens-Sequin-Mermaid-Long-Evening-Dress-Formal-Dress-Party-297-/391607988268?var=&hash=item5b2da7b02c:m:mQ4AlJMYxkgnRXvLKA-BFFQ
p38
aVhttp://www.ebay.com/itm/Champagne-Sequin-Long-Maxi-Dress-Club-Wear-Fashion-Evening-Wear-Size-S-M-L-/262967244708?hash=item3d3a11b7a4:g:PDwAAOSwCQZZC34q
p39
aVhttp://www.ebay.com/itm/Womens-Lace-Lined-Sequin-Dress-Evening-Party-Plus-Size-12-14-16-18-20-22-24-26-/251330872468?var=&hash=item3a847cc494:m:mZGNUOlaX335FMDkcX17MFA
p40
aVhttp://www.ebay.com/itm/Ladies-Gold-Sliver-Sequin-Chiffon-Lined-Bustier-Stretch-Back-Womens-Dress-8-14-/190926455418?var=&hash=item2c741a827a:m:mEPBQV3wa3fnwmLDxKKthCg
p41
aVhttp://www.ebay.com/itm/Womens-Ladies-Missguided-Premium-Sequin-Maxi-Dress-Gold-Size-/322503637023?var=&hash=item4b16b6f81f:m:mUuxG71_fFcmjOwpPgtaQoQ
p42
aVhttp://www.ebay.com/itm/Angel-fashions-Round-Neck-Sequin-Cap-Sleeve-Mermaid-Long-Prom-Dress-285-/172333072770?var=&hash=item281fda0182:m:m1hHIVcOOHxqjqdI20UBzrg
p43
aVhttp://www.ebay.com/itm/AMARIE-Nude-Sequin-Plunge-V-Celeb-Bodycon-Evening-Mini-Party-Dress-8-10-12-14-/182375827516?var=&hash=item2a7672483c:m:mtjaHJ_JAuS97Mu4pALbM7A
p44
aVhttp://www.ebay.com/itm/NEW-Wallis-10-20-Black-Lace-Sequin-Maxi-Dress-Evening-Party-Occasion-Wedding-/132102840361?var=&hash=item1ec1f16029:m:mxqwLgxmWGyFsm0FByyaoLA
p45
aVhttp://www.ebay.com/itm/ROSE-GOLD-PLUNGE-LONG-SLEEVE-FLORAL-SEQUIN-DOUBLE-SLIT-MAXI-PARTY-DRESS-6-16-/222492555670?var=&hash=item33cd96f996:m:mvaA0Ql9A1ypxzuhsspTmJw
p46
aVhttp://www.ebay.com/itm/ROSE-GOLD-KEYHOLE-BUST-FLORAL-SEQUIN-SCALLOPED-MIDI-PARTY-HOLIDAY-DRESS-6-12-/322498716616?var=&hash=item4b166be3c8:m:mI2J2WV6G6zEWyOFNJS5QgA
p47
aVhttp://www.ebay.com/itm/Ladies-3-Quarter-Sleeve-Gold-Black-Shiny-Round-Sequin-Bodycon-Women-s-Dress-/190865749158?var=&epid=1656199230&hash=item2c707c34a6:m:mD4L9E6Se8W1IXMfspU1LUw
p48
aVhttp://www.ebay.com/itm/LIAH-Nude-Gold-Sequin-Celeb-Bodycon-Evening-Mini-Party-Dress-8-10-12-14-/112224766483?var=&hash=item1a211e0a13:m:mZpCR1ojgo23jr_1B2lyPMw
p49
aVhttp://www.ebay.com/itm/Ladies-Long-Sleeved-Lace-Mesh-Sequin-Paisley-Chiffon-Frill-Womens-Bodycon-Dress-/200972707889?var=&epid=1454752837&hash=item2ecae82831:m:mjt-3hU3nEQFE8JzDwV-z4Q
p50
aVhttp://www.ebay.com/itm/New-Ladies-Celeb-Black-White-Sequin-Cross-Contrast-Pattern-Womens-Bodycon-Dress-/350863509812?var=&hash=item51b1184934:m:mvRg7ALfBYY3fEhEFlDpeag
p51
aVhttp://www.ebay.com/itm/Womens-Ladies-Lace-Sequin-Stretch-VEST-TOP-Summer-Party-Girls-Strappy-T-Shirt-/112284162541?var=&hash=item1a24a859ed:m:mBeXgQOIngtjQWgm8D9-KfQ
p52
aVhttp://www.ebay.com/itm/Plus-Size-Black-and-Gold-Sequin-Sleeveless-Fishtail-Skater-Evening-Mini-Dress-16-/112474129919?var=&hash=item1a2ffb05ff:m:mGYcD4WuTMG5lQRZI90PC1A
p53
aVhttp://www.ebay.com/itm/Club-L-Dress-with-Scallop-Sequin-Skirt-Black-Gold-/391785590269?var=&hash=item5b383dadfd:m:mWfl7M6fgsA6jL9gfa8ZhJg
p54
aVhttp://www.ebay.com/itm/Ladies-Womens-Plus-Size-Lace-SLEEVELESS-SEQUIN-Lined-Party-Floral-Dress-Tunic-/181276049224?var=&hash=item2a34e4ff48:m:mNI87fSZfuq4XkgKySu0CZw
p55
aVhttp://www.ebay.com/itm/womens-black-gold-sequin-dress-eveing-towie-boutique-mesh-size-10-12-14-/401214549343?var=&hash=item5d6a402d5f:m:mnNcM7nBLXAlFFc7YXbUykg
p56
aVhttp://www.ebay.com/itm/1920S-STYLE-GATSBY-VINTAGE-LOOK-CHARLESTON-SEQUIN-FLAPPER-DRESS-SIZE-10-12-/152269230962?hash=item2373f41372:g:aSAAAOSwpLNX9ngK
p57
aVhttp://www.ebay.com/itm/Coast-Blush-Embellished-Dera-Evening-Sequin-Dress-Crop-Party-3-4-Top-6-18-/272700549373?var=&epid=936995704&hash=item3f7e3828fd:m:mbnJuJVsoSkhtwV_qIjlkVA
p58
aVhttp://www.ebay.com/itm/UK-Womens-Ladies-Sequin-Sparkle-Glitter-Lace-Mesh-High-Neck-Party-Crop-Top-/132226535984?var=&hash=item1ec950d230:m:mrqBkWrpkZsZ-Gjg8gdBfeQ
p59
aVhttp://www.ebay.com/itm/Ladies-Sequin-Chiffon-Skater-Party-Dress-Cream-Gold-Navy-Cocktail-Womens-UK-Size-/222393773338?var=&hash=item33c7b3ad1a:m:m8M1YGmFGgQD-EdbkvrxqfQ
p60
a.