(lp1
Vhttp://www.ebay.com/itm/KORDA-STOW-SNAG-BAR-IN-BLACK-CARP-FISHING-SNAG-EARS-REMOVABLE-FITS-ALL-ALARMS-/152614893351?hash=item23888e7727:g:yVEAAOSwhQhY3n9j
p2
aVhttp://www.ebay.com/itm/Black-Thin-Hair-Bobble-Hair-Band-Snag-Free-Elasticated-Girls-Ladies-Children-/232399214897?hash=item361c129931:g:CgkAAOSwJ7RYUBCY
p3
aVhttp://www.ebay.com/itm/PK-OF-6-THICK-STRETCHABLE-SOFT-HAIRBAND-DONUT-ELASTIC-PONYTAIL-SNAG-FREE-VA159a-/232398606745?var=&hash=item361c095199:m:mL1vPNDg4TsZR2orZb1FU6Q
p4
aVhttp://www.ebay.com/itm/STAINLESS-STEEL-CARP-EARS-SNAG-EARS-BOLTS-TO-FIT-3x-OLD-SCHOOL-BITE-ALARMS-/122582612844?hash=item1c8a7e3b6c:g:TQMAAOSwNSxU5byu
p5
aVhttp://www.ebay.com/itm/Fox-Black-Label-5-Hockey-Stick-Snag-Ears-CBB011-Carp-fishing-tackle-/172764612293?hash=item283992c6c5:g:A6AAAOSwKytZIDcr
p6
aVhttp://www.ebay.com/itm/Delkim-Safe-D-Carbon-Snag-Bars-Carp-fishing-tackle-/172764568109?epid=689005689&hash=item2839921a2d:g:F~MAAOxyQfJTh09j
p7
aVhttp://www.ebay.com/itm/3-x-NGT-Carp-Fishing-Grippz-Gripper-Rear-Rod-Rest-For-Secure-Snag-Locked-Up-/282556842572?hash=item41c9b3424c:g:kWUAAOSwXetZW6Z7
p8
aVhttp://www.ebay.com/itm/50-Quality-Thick-Endless-Snag-Free-Hair-Elastics-Bobbles-Glitter-Hair-Bands-/172763833986?var=&hash=item283986e682:m:mQCH6DUhrmhhPcPkLBCfYTg
p9
aVhttp://www.ebay.com/itm/Fox-NEW-Black-Label-Lightweight-Aluminium-Snag-Ears-Swinger-Plate-CBB016-/253027246075?epid=1544636024&hash=item3ae9995ffb:g:WpsAAOSwSlBYtWIg
p10
aVhttp://www.ebay.com/itm/STAINLESS-STEEL-OPTI-POLO-BOLTS-SNAG-EAR-BOLTS-TO-FIT-3x-OLD-SCHOOL-BITE-ALARMS-/122580918262?hash=item1c8a645ff6:g:fcIAAOSwgQ9VkaTy
p11
aVhttp://www.ebay.com/itm/Stainless-Steel-Snag-Ears-/152610303682?hash=item2388486ec2:m:mX7GioBz4YNVuR5-kDU2Y2w
p12
aVhttp://www.ebay.com/itm/Snag-Ears-Niteglow-Covers-5-Colours-Buy-1-Pair-Get-2-Pairs-Free-For-Delkim-/152607587608?var=&hash=item23881efd18:m:mqB9T2J87OXTMqF0PcMKbvg
p13
aVhttp://www.ebay.com/itm/Free-shipping-100-Strong-Thick-Snag-Free-Band-Hair-Elastics-Bobbles-Hair-Bands-/201970076684?var=&hash=item2f065acc0c:m:mEekjmIt-xXgQSp2Yya3Uzg
p14
aVhttp://www.ebay.com/itm/12-Quality-Thick-Endless-Snag-Free-Neon-Elastic-Girls-Kids-Hair-Bands-Bobbles-/172754959348?hash=item2838ff7bf4:g:pUcAAOSwMvtZVTbN
p15
aVhttp://www.ebay.com/itm/Fox-NEW-Black-Label-Lightweight-Aluminium-Snag-Ear-Swinger-Plate-CBB015-/263062706131?epid=1126530676&hash=item3d3fc257d3:g:dJ8AAOSwr~lYtWol
p16
aVhttp://www.ebay.com/itm/Hijab-scarf-Hat-Abaya-Safety-Pins-Snag-free-Metallic-Diamante-Brooch-Pin-/282547872052?var=&hash=item41c92a6134:m:mZUVZ-dWOMFYeV8NagDSRtA
p17
aVhttp://www.ebay.com/itm/6-SNAG-FREE-SAFETY-PINS-Diamante-HIJAB-SCARF-BLACK-and-WHITE-/292166368666?hash=item440678fd9a:g:6y0AAMXQXWhRGPu9
p18
aVhttp://www.ebay.com/itm/10-Quality-Thick-Thin-Endless-Snag-Free-Hair-Band-Elastics-Bobbles-Bands-Ponios-/282547419818?var=&hash=item41c9237aaa:m:mgE7oLb1yQoXJwUwF12OatA
p19
aVhttp://www.ebay.com/itm/Fox-NUEVO-Etiqueta-Negra-Pesca-Ligero-Snag-Ear-Hockey-Stick-Plate-CBB013-/253010818520?hash=item3ae89eb5d8:g:7AwAAOSwWxNYtWkJ
p20
aVhttp://www.ebay.com/itm/6-Marrone-colore-dei-capelli-elastici-Endless-Snag-GRATIS-/122563575519?hash=item1c895bbedf:g:k8MAAOSwvg9Xc7j1
p21
aVhttp://www.ebay.com/itm/GARDNER-BANK-SAW-COMPACT-BLADE-SAW-SNAG-CUTTER-CARP-COARSE-FISHING-TACKLE-/263051078267?hash=item3d3f10ea7b:g:IcEAAOSwXXxZS9Oi
p22
aVhttp://www.ebay.com/itm/Boohoo-Womens-Natalie-No-Snag-Hair-Bands-Pastels-4pk-in-Pink-size-One-Size-/362016871057?hash=item5449e31291:g:Z80AAOSw~e5ZS-Sb
p23
aVhttp://www.ebay.com/itm/NEW-Matrix-Snag-Free-Pole-Roost-Complete-GMB032-/401350188723?epid=1529300992&hash=item5d7255deb3:g:VLcAAOSw5IJWc-6p
p24
aVhttp://www.ebay.com/itm/36-x-Small-Mini-Black-Snag-Free-Endless-Hair-Elastics-Bobbles-Ponios-/302352726398?epid=1172769849&hash=item4665a0797e:g:4bgAAOSw3YJZRStP
p25
aVhttp://www.ebay.com/itm/New-6-x-Round-Pearl-Snag-Free-Safety-Craft-Dressmaking-Hijab-Scarf-Tailor-Pins-/322557514295?var=&hash=item4b19ed1237:m:miVNTQ5MNNdkjmQmsU0ddPA
p26
aVhttp://www.ebay.com/itm/Thick-Endless-Snag-Free-NO-METAL-END-Hair-Elastic-Bobbles-Ponios-Hair-Band-/292146661035?var=&hash=item44054c46ab:m:m2vYRv6r_1i5EKmyNqu2jRw
p27
aVhttp://www.ebay.com/itm/Quality-set-of-4-Bite-alarms-with-receiver-snag-ears-/182613804533?hash=item2a84a185f5:g:Jt8AAOSw3h1ZOqaw
p28
aVhttp://www.ebay.com/itm/Quality-Bite-alarms-with-receiver-snag-ears-/182613803174?hash=item2a84a180a6:g:Jt8AAOSw3h1ZOqaw
p29
aVhttp://www.ebay.com/itm/Stone-Hijab-Pins-Safety-Scarf-6pcs-Snag-Free-Pins-Design-Black-White-Multi-Color-/122540246379?var=&hash=item1c87f7c56b:m:muIG7ukhZCQGrdltOET4klA
p30
aVhttp://www.ebay.com/itm/Boohoo-Womens-Leah-No-Snag-Hair-Bands-4-Pack-/362003027888?var=&hash=item54490fd7b0:m:m62ZBbAtYMcbeMDQCiQjjjQ
p31
aVhttp://www.ebay.com/itm/Crystal-Diamante-20-Pcs-Wheel-Hijab-Scarf-Pin-Snag-Free-Long-Sparkle-Pins-/112435972531?var=&hash=item1a2db4c9b3:m:mC1WPZ6Uv2HYglPzbmH1eQQ
p32
aVhttp://www.ebay.com/itm/20-x-Colourful-Ladies-Hair-Bands-Girls-Thick-Snag-Free-Hair-Bobbles-Ponytail-/282513863828?var=&epid=4002498484&hash=item41c7237494:m:mehsmlmqc3B4zECbeksQfdw
p33
aVhttp://www.ebay.com/itm/OPTONIC-BITE-ALARM-FLOURO-SNAG-EARS-/282509745443?var=&hash=item41c6e49d23:m:mU9ZIZ9ePSMtOyJnDdh85Zw
p34
aVhttp://www.ebay.com/itm/UK-Hijab-Head-scarf-Abaya-safety-snag-free-brooch-pearl-head-dupatta-Pins-/192207172580?hash=item2cc070b3e4:g:eOAAAOSwYlRZM8tN
p35
aVhttp://www.ebay.com/itm/Carp-Fishing-Tackle-Bright-Green-O-Ring-X36-Used-on-Bite-Alarm-Snag-Bar-bgbs36-/263015248183?hash=item3d3cee3137:g:Ht8AAOSwVFlUHybo
p36
aVhttp://www.ebay.com/itm/Crystal-Diamante-Hijab-Scarf-Pin-Tailor-Sewing-Snag-Free-Long-Sparkle-Pins-Clear-/272696966203?var=&hash=item3f7e017c3b:m:mzfVnqy6bLDozZDHCHiKVvA
p37
aVhttp://www.ebay.com/itm/Snag-Free-Thin-and-Thick-Elastic-Hair-Bands-Black-Bobbles-Band-School-Ponytail-E-/132211108942?var=&hash=item1ec8656c4e:m:motUfxOJIdbrGlqMkXN5Vng
p38
aVhttp://www.ebay.com/itm/Fabric-Snag-Repair-Needle-Korbond-1pc-/401338286094?epid=1841607179&hash=item5d71a0400e:g:kKcAAOSw42dZLsxm
p39
aVhttp://www.ebay.com/itm/Fabric-Snag-Repair-Needle-Korbond-1pc-/132211037476?epid=1543307031&hash=item1ec8645524:g:BkcAAOSw42JZLsup
p40
aVhttp://www.ebay.com/itm/3-x-Q-Dos-Alloy-Carp-Fishing-Bite-Alarm-Snag-Ears-Black-/201939894122?hash=item2f048e3f6a:g:DzEAAOSwEHpZKXHu
p41
aVhttp://www.ebay.com/itm/8-Black-PCS-Pearl-Hijab-Scarf-Safety-Fashion-Tailor-Sewing-Pin-Snag-Free-Plastic-/222527819794?var=&hash=item33cfb11012:m:mOkPiRyVuljHwMLM88NIH3w
p42
aVhttp://www.ebay.com/itm/New-Direction-Tackle-2-Blue-Carbon-Illuminating-Snag-Ears-For-K9-Bite-Alarm-/292131200414?hash=item4404605d9e:g:L-QAAOSwq1JZKRu2
p43
aVhttp://www.ebay.com/itm/Snag-Repair-Needle-/201933864026?epid=1111586060&hash=item2f04323c5a:g:FkQAAOSwurZZJFyC
p44
aVhttp://www.ebay.com/itm/6-Pack-Fuchsia-Hair-Elastics-Bobbles-Jersey-Fabric-Snag-Free-No-Metal-/262998031492?epid=1464689708&hash=item3d3be77c84:g:yewAAOSwxu5ZIsT2
p45
aVhttp://www.ebay.com/itm/6-Pack-Navy-Blue-Hair-Elastics-Bobbles-Jersey-Fabric-Snag-Free-No-Metal-/262998030613?epid=1464688523&hash=item3d3be77915:g:gUYAAOSw7GRZIsSn
p46
aVhttp://www.ebay.com/itm/Snag-Free-Plastic-Safety-Pins-Baby-Girls-Boys-Kids-Ladies-Hijab-Scarf-Pins-6Pack-/332229390519?hash=item4d5a6a30b7:g:fxsAAOSw5cRZILY7
p47
aVhttp://www.ebay.com/itm/20x-Quality-BLACK-THICK-BEADED-Endless-Hair-Elastics-Bobbles-Bands-Snag-Free-/292122657757?hash=item4403de03dd:g:vnYAAOSw~e5ZOKJB
p48
aVhttp://www.ebay.com/itm/Ouchless-Updo-Barrette-Pack-of-2-Snag-Free-No-Metal-and-very-flexible-/142386684238?hash=item2126e8614e:g:HN0AAOSw42dZHW~u
p49
aVhttp://www.ebay.com/itm/Denman-D200-Vent-Hair-Brush-with-Flexible-Pins-Womens-Detangle-No-Snagging-/112410279368?epid=1304145110&hash=item1a2c2cbdc8:g:hi0AAOSww9xZHC8z
p50
aVhttp://www.ebay.com/itm/8-BLACK-PCS-Pearl-Hijab-Scarf-Safety-Fashion-Tailor-Sewing-Pin-Plastic-Snag-Free-/182578924861?epid=887094288&hash=item2a828d4d3d:g:PXoAAOSw1WJZHByY
p51
aVhttp://www.ebay.com/itm/KORUM-BARBEL-FEEDER-FISHING-ROD-REST-ANGLE-TILT-SUPER-COMPACT-SNAG-BAR-DESIGN-/282482005293?var=&epid=1753979560&hash=item41c53d552d:m:myFiQlsD9ZGRg-PlwEbMQog
p52
aVhttp://www.ebay.com/itm/filles-20-petit-mini-bebe-taille-noir-fin-cheveux-elastiques-pompons-bandes-Snag-/172673017403?hash=item28341d263b:g:GYYAAOSwFe5XzVIL
p53
aVhttp://www.ebay.com/itm/Falconry-Creance-20m-Anti-Snag-Hunting-Green-Less-Prone-To-Dirt-3mm-/112405947605?hash=item1a2beaa4d5:g:0xsAAOSwmgJY2YKT
p54
aVhttp://www.ebay.com/itm/New-Saber-Wireless-3-1-Bite-Alarm-Set-Carp-Coarse-Fishing-With-Snag-Bars-Case-/382080014914?hash=item58f5be5a42:g:tWMAAOSwfpVZEakG
p55
aVhttp://www.ebay.com/itm/Nash-Siren-Snag-Ears-/182569062853?epid=1376430644&hash=item2a81f6d1c5:g:w30AAOSw~FJZE4u-
p56
aVhttp://www.ebay.com/itm/Scrunchie-Big-Bun-Hair-Tie-Bobble-Hijab-Volumising-Volumizer-scrunchy-Khaleej-/322512051119?var=&hash=item4b17375baf:m:m_seyNa-alWGlgPRoOZD9PQ
p57
aVhttp://www.ebay.com/itm/DROP-SHOT-WEIGHTS-CANNON-BALL-ROUND-SINKER-SNAG-FREE-FISHING-LURE-TACKLE-/322511920107?var=&hash=item4b17355beb:m:msBhfkYHmlZPNnzeT0S_hxA
p58
aVhttp://www.ebay.com/itm/Katz-Thin-Spiral-Elastics-Snag-Free-Hair-Band-Ponytail-Bobbles-Black-Brown-/282469208270?var=&hash=item41c47a10ce:m:mXacG_cCSkNRSQF1cLcTIYA
p59
aVhttp://www.ebay.com/itm/Round-Pearl-Snag-Free-Safety-Pin-Craft-Dressmaking-Hijab-Scarf-Tailor-Pins-Wheel-/222505342276?hash=item33ce5a1544:g:v2cAAOSwvUlWs4Vx
p60
aVhttp://www.ebay.com/itm/12-PIECE-THICK-ENDLESS-SNAG-FREE-PONY-TAIL-ELASTIC-BOBBLES-PONIOS-HAIR-BANDS-/182563402345?hash=item2a81a07269:g:sU0AAOSwuMZZDk4T
p61
aVhttp://www.ebay.com/itm/6-Extra-Large-THICK-Hair-Scrunchy-Bobble-Ponios-UNISEX-Band-Elastics-Snag-Free-/182563373933?hash=item2a81a0036d:g:5P8AAOSwuMZZDkUg
p62
aVhttp://www.ebay.com/itm/Falconry-Creance-20M-Anti-Snag-Coyote-Less-Prone-To-Dirt-3mm-/112398347447?hash=item1a2b76acb7:g:nCAAAOSwK6RZDh1z
p63
aVhttp://www.ebay.com/itm/pro-logic-Mimicry-3d-camo-Shock-snag-Leader-100m-44lb-21-3kg-0-60-green-ghost-/162504108290?hash=item25d5ffe902:g:BvkAAOSw~y9ZDC9J
p64
aVhttp://www.ebay.com/itm/Delkim-NEW-TXI-Set-Carp-Bite-Alarms-X3-RX-Plus-Pro-Receiver-Free-Snag-Ears-/122477769824?var=&epid=856599426&hash=item1c843e7460:m:m7Bei1CNANBJTJxqk2MbM8g
p65
aVhttp://www.ebay.com/itm/BLACK-SNAG-FREE-ENDLESS-HAIR-ELASTIC-BANDS-PONYTAIL-HOLDER-BOBBLES-PONIO-NEW-/292105056305?var=&hash=item4402d17031:m:m1EOgK3vChrm4tcoeT-Jy7Q
p66
aVhttp://www.ebay.com/itm/Crystal-Diamante-Hijab-Scarf-Pin-Tailor-Sewing-Snag-Free-Long-Sparkle-Pins-Clear-/252912934372?var=&hash=item3ae2c91de4:m:mBrDoHlg4m7iqeDsj_JIYlQ
p67
aVhttp://www.ebay.com/itm/Snag-DVD-and-Gimmicks-by-Ben-Howard-DVD-/352044881308?hash=item51f782959c:g:aeMAAOSww9xZCD4p
p68
aVhttp://www.ebay.com/itm/Carp-Fishing-Tackle-Blue-O-Rings-X36-Used-On-Bite-Alarm-Snag-Bar-Rod-Pod-bbs36-/262959382518?hash=item3d3999bff6:g:IuUAAOSwj0NUcL6F
p69
aVhttp://www.ebay.com/itm/Wet-Brush-Pro-Hairbrush-Non-Snag-Gentle-DeTangle-Extentions-Wig-in-Green-BNIB-/142366221749?epid=2069721433&hash=item2125b025b5:g:WnUAAOSw~y9ZBGiX
p70
aVhttp://www.ebay.com/itm/CUPCAKE-CANDLE-Mini-Clear-Stamp-Imaginisce-Snagem-/292100237783?hash=item440287e9d7:g:dWcAAOSww9xZA77E
p71
aVhttp://www.ebay.com/itm/Crystal-Diamante-Hijab-Scarf-Pin-Tailor-Sewing-Snag-Free-Long-Sparkle-Pins-Clear-/222491627994?var=&hash=item33cd88d1da:m:meTx2DuobKgQ5pyeB-HptEQ
p72
aVhttp://www.ebay.com/itm/Fox-NEW-Black-Label-Fishing-Lightweight-Snag-Ear-Hockey-Stick-Plate-CBB013-/252895748713?epid=1126530676&hash=item3ae1c2e269:g:7AwAAOSwWxNYtWkJ
p73
aVhttp://www.ebay.com/itm/Thin-Elastics-Snag-Free-Hair-Bands-Ponytail-Bobbles-Ponios-Black-Brown-12-pcs-/222485571214?var=&hash=item33cd2c668e:m:mPqvt7dZxKTsCL2iVfGJJZA
p74
aVhttp://www.ebay.com/itm/Thin-Elastics-Snag-Free-Hair-Bands-Ponytail-Bobbles-Ponios-Black-Brown-50-pcs-/322492220811?var=&hash=item4b1608c58b:m:mPqvt7dZxKTsCL2iVfGJJZA
p75
aVhttp://www.ebay.com/itm/12-Thick-Snag-Free-Endless-Hair-Elastic-Ponytail-Bobble-Bands-TOWELING-TYPE-/182541057800?var=&hash=item2a804b7f08:m:m9eMMubAW8FSqNBE89bAW0A
p76
aVhttp://www.ebay.com/itm/50-Quality-Thick-Endless-Snag-Free-Hair-Elastics-Bobbles-Bands-Ponios-Mix-/142358309491?var=&hash=item2125376a73:m:mEp5DZaIyO4DfdJc0AMEe7w
p77
aVhttp://www.ebay.com/itm/Scrunchie-Big-Bun-Hair-Bobble-Tie-Hijab-Scarf-Volumising-Volumizer-Khaleej-/222482347131?var=&hash=item33ccfb347b:m:mt-EyItthq55UP0tQhaF6zQ
p78
aVhttp://www.ebay.com/itm/Korbond-Snag-Repair-Needle-1pc-Snags-Pulled-Threads-NEW-110231-/222481980783?epid=1341948730&hash=item33ccf59d6f:g:2q0AAOSwepJXbRT-
p79
aVhttp://www.ebay.com/itm/Coloured-Mini-Snag-Free-Hair-Elastics-Girls-Women-Hair-accessories-Hairbands-/262943501420?var=&hash=item3d38a76c6c:m:mHuMvR7B3a3OJfvYdokJOQQ
p80
aVhttp://www.ebay.com/itm/Black-Mini-Snag-Free-Hair-Elastics-Girls-Women-Hair-accessories-Hairbands-/262943501422?var=&hash=item3d38a76c6e:m:mH_UMysDq4e6k3HIiik2g6A
p81
aVhttp://www.ebay.com/itm/3Pcs-MUSTAD-JIG-HEAD-ANTI-SNAG-WEEDLESS-ALL-SIZES-PREDATOR-LURE-FISHING-TACKLE-/222479855576?var=&hash=item33ccd52fd8:m:mRN0kT2thk-K2ZXP-PHzlPA
p82
aVhttp://www.ebay.com/itm/Rune-Snag-Coldsnap-MTG-Magic-Comm-25-35-OFF-/112372491534?hash=item1a29ec250e:g:kcwAAOSwWxNYzEtY
p83
aVhttp://www.ebay.com/itm/2-Bank-sticks-2-Buzz-bars-3-snag-Ears-good-quality-/182527723621?hash=item2a7f800865:g:tsoAAOSwnF9Y7mTp
p84
aVhttp://www.ebay.com/itm/Matrix-Rock-Solid-Snag-Buzzer-Buzz-Bars-x-2-ALL-SIZES-2-Rod-3-Rod-PAY-1-POST-/142345342822?var=&hash=item2124718f66:m:m7LWZdPdFvBGOcIamKoVdLA
p85
aVhttp://www.ebay.com/itm/50-Quality-Thin-Endless-Snag-Free-Hair-Elastic-Bobbles-Bands-Ponios-Hair-Bands-/332177886604?hash=item4d57584d8c:g:CYgAAOSw03lY6VQs
p86
aVhttp://www.ebay.com/itm/5PCS-ALL-SIZES-AND-WEIGHTS-JIG-HEADS-ANTI-SNAG-JAXON-TANAMI-WEEDLESS-PIKE-PERCH-/322474766244?var=&hash=item4b14fe6fa4:m:mMRIFyZZseq9H_fkl2j3XOw
p87
aVhttp://www.ebay.com/itm/50-Quality-Thick-Endless-Snag-Free-Hair-Elastics-Bobbles-Bands-Ponios-Mix-/172608855087?var=&hash=item28304a1c2f:m:mexzfkj7N5nxk_5J-ozW79w
p88
aVhttp://www.ebay.com/itm/NEW-Pack-of-2-Blonde-snag-free-headband-bandeaux-festivals-prom-fashion-hippy-/192145927598?epid=2124257006&hash=item2cbcca2dae:g:4KEAAOSwEzxYa5KS
p89
aVhttp://www.ebay.com/itm/36-X-Endless-Snag-Hair-Bobbles-Girls-Hair-Accessory-Hair-Bands-Elastics-Brown-/272611510514?hash=item3f78e988f2:g:xHIAAOSwuxFY3RRP
p90
aVhttp://www.ebay.com/itm/12-Girls-Hair-Bands-Bobbles-Pack-Snag-Free-Pony-Tail-Elastic-Stretchy-NEW-/332166133683?hash=item4d56a4f7b3:g:VVkAAOSwTglYm4sv
p91
aVhttp://www.ebay.com/itm/Hobbycraft-Hemline-Snag-Repair-Needle-Tool-Sewing-Haberdashery-Accessories-/112349017804?epid=1111586060&hash=item1a2885f6cc:g:su4AAOSwwzhZOVQf
p92
aVhttp://www.ebay.com/itm/MTG-Vapor-Snag-Blue-Common-New-Phyrexia-NPH-Magic-Card-/222449537717?hash=item33cb0692b5:g:tXsAAOSwUsJYV8bd
p93
aVhttp://www.ebay.com/itm/NEW-3-in-a-pack-Purple-Lilac-White-snag-free-stretch-headband-bandeaux-hair-/152478041778?epid=1663943089&hash=item23806646b2:g:8S8AAOSwZ8ZW2Bgn
p94
aVhttp://www.ebay.com/itm/2-x-packs-bottle-green-Hair-Elastics-Thick-Endless-No-Metal-Bobbles-Snag-Free-/292059826882?epid=1260102916&hash=item44001f4ac2:g:Si8AAOSwB-1YzUAx
p95
aVhttp://www.ebay.com/itm/Prym-Snag-Wizard-611836-/192133230598?epid=688096257&hash=item2cbc087006:g:hYoAAOSw4YdYzRkL
p96
aVhttp://www.ebay.com/itm/NEW-3-in-a-pack-Black-elastic-snag-free-stretch-headband-bandeaux-hair-sport-/192131801401?epid=1663940981&hash=item2cbbf2a139:g:IZ8AAOSwKtVW0G7t
p97
aVhttp://www.ebay.com/itm/6-SNAG-FREE-SAFETY-PINS-HIJAB-SCARF-BLACK-WHITE-Double-Diamante-/252814374485?hash=item3adce93655:g:IYcAAOSw4YdYyVpr
p98
aVhttp://www.ebay.com/itm/Hemline-Snag-Repair-Tool-/122398208106?hash=item1c7f80706a:g:9-kAAOSwtGlZELJP
p99
aVhttp://www.ebay.com/itm/10pcs-Thick-Endless-Snag-Free-strawberry-Hair-Elastics-Bobbles-Bands-Ponios-Mix-/192126576891?epid=626690013&hash=item2cbba2e8fb:g:~M8AAOSwsW9Yww4s
p100
aVhttp://www.ebay.com/itm/10-Quality-Thick-Endless-Snag-Free-Hair-band-Elastics-Bobbles-Bands-Ponios-Mix-/201848061648?epid=623470947&hash=item2eff14fed0:g:wncAAOSw2gxYww4e
p101
aVhttp://www.ebay.com/itm/IDENTISKINZ-SNAG-EAR-coloured-tubes-for-the-DELKIM-TX-I-EV-STD-ALARMS-/332150322743?var=&hash=item4d55b3b637:m:mVu2cKiYdO6MzoUTAHRFVlA
p102
aVhttp://www.ebay.com/itm/SNAG-FRFE-PINS-CRYSTAL-STONE-HIJAB-SCARF-PINS-GOOD-QUALITY-SNAG-PIN-/122390429998?var=&hash=item1c7f09c12e:m:mHTF6h-904mKIPAeVTzNZiA
p103
aVhttp://www.ebay.com/itm/snag-ears-/182481487212?hash=item2a7cbe856c:g:rSYAAOSwT6pV4KYw
p104
aVhttp://www.ebay.com/itm/24-Pastel-Ponios-Hair-Bobbles-Soft-No-Snagging-No-Metal-Baby-Headband-Hair-Tie-/182478932871?hash=item2a7c978b87:g:ih8AAOSwopRYfLmX
p105
aVhttp://www.ebay.com/itm/24-sparkle-Ponios-Hair-Bobbles-Soft-No-Snagging-No-Metal-Baby-Headband-Hair-Tie-/182478930804?hash=item2a7c978374:g:K1EAAOSwfVpYvTUx
p106
aVhttp://www.ebay.com/itm/16-pcs-Quality-Thick-Endless-Snag-Free-Hair-Band-Elastics-Bobbles-Ponytail-/332144970406?hash=item4d55620aa6:g:1kwAAOSwSlBYuujv
p107
aVhttp://www.ebay.com/itm/3-x-Mini-Black-Aluminium-Snag-Ear-Bars-for-Bite-Alarms-NGT-Carp-Fishing-Trackle-/282380760121?hash=item41bf347439:g:4QYAAOSwx6pYuEQf
p108
aVhttp://www.ebay.com/itm/100-x-Mini-black-Colour-Girls-Kids-Snag-Free-Elastic-Hair-Bands-Ponios-Bobbles-/292042443979?hash=item43ff160ccb:g:33EAAOSwUKxYjSZ7
p109
aVhttp://www.ebay.com/itm/Wholesale-30-Light-Dark-Brown-Snag-free-endless-Hair-elastic-Bobble-Hair-Band-/122377572720?hash=item1c7e459170:g:gSIAAOSwCU1Yt0F-
p110
aVhttp://www.ebay.com/itm/NEW-Nbrice-Carbon-Snag-Ears-5-CSEL-/361915803385?hash=item5443dce6f9:g:DS4AAOSwSHZWc-6R
p111
aVhttp://www.ebay.com/itm/WEEDLESS-TAUROS-JAXON-HOLO-REFLEX-SPOON-LURES-ANTI-SNAG-SEA-TROUT-SALMON-PIKE-/222423491314?var=&hash=item33c97922f2:m:m8pN2Yrd4jgyiOviWgdV4sQ
p112
aVhttp://www.ebay.com/itm/FOX-BLACK-LABEL-BANKWARE-FULL-RANGE-CARP-FISHING-TACKLE-/262871111771?var=&epid=1126530676&hash=item3d3456d85b:m:m0ZokzywegNQLRr4RsF12zA
p113
aVhttp://www.ebay.com/itm/Black-Snag-Free-Headband-Hair-Band-Bandeau-Hairband-Hair-Elastics-Hair-/272569856180?hash=item3f766df0b4:g:PyYAAOSwcgNZNCgZ
p114
aVhttp://www.ebay.com/itm/MTG-Vapor-Snag-English-Modern-Masters-2015-Free-P-P-/302233567428?hash=item465e8640c4:g:rmYAAOSwSlBYr1vI
p115
aVhttp://www.ebay.com/itm/PACK-OF-6-SNAG-SAFETY-PINS-HIJAB-AND-SCARF-PINS-WHOLESALE-JOB-LOT-FREE-P-P-/162406877554?var=&hash=item25d0344972:m:mPJeV9ATAfgvh2pFa46ClnA
p116
aVhttp://www.ebay.com/itm/50-Quality-Thick-Endless-Snag-Free-Hair-Elastics-Bobbles-Bands-Ponios-Mix-/332135798902?var=&hash=item4d54d61876:m:mm8Y8ulNp2GyvQ5SFgmp_4w
p117
aVhttp://www.ebay.com/itm/Set-of-4-Black-Velvet-Hair-Scrunchy-Bobble-Hair-Band-Elastic-Snag-Free-/292034617831?hash=item43fe9ea1e7:g:vJgAAOSw9GhYhowk
p118
aVhttp://www.ebay.com/itm/8pcs-SNAG-FREE-HAIR-BOBBLES-ELASTIC-HAIR-BANDS-GIRLS-LADIES-HAIR-TOP-ACCESSORY-/262862686921?hash=item3d33d64ac9:g:n7oAAOSwCU1Yq4Ht
p119
aVhttp://www.ebay.com/itm/10pcs-SNAG-FREE-HAIR-BOBBLES-ELASTIC-HAIR-BANDS-GIRLS-LADIES-HAIR-ACCESSORY-UK-/252780173317?hash=item3adadf5805:g:seEAAOSw3v5Yq3p6
p120
aVhttp://www.ebay.com/itm/4pcs-SNAG-FREE-HAIR-BOBBLES-ELASTIC-HAIR-BANDS-GIRLS-LADIES-HAIR-ACCESSORY-HAIR-/262862664587?hash=item3d33d5f38b:g:O0YAAOSw3v5Yq3ZB
p121
aVhttp://www.ebay.com/itm/10pcs-SNAG-FREE-HAIR-BOBBLES-ELASTIC-HAIR-BANDS-GIRLS-LADIES-HAIR-ACCESSORY-HAIR-/252780140964?hash=item3adaded9a4:g:eroAAOSwWxNYq2~F
p122
aVhttp://www.ebay.com/itm/Hijab-scarf-Hat-Abaya-Safety-Pins-Snag-free-Metallic-Glass-Shine-Brooch-Pin-/122364308594?var=&hash=item1c7d7b2c72:m:m1wRMkynZu-9hcPpPL19SwA
p123
aVhttp://www.ebay.com/itm/72-x-Thick-White-Endless-Snag-Free-Hair-Elastics-Bobbles-Ponios-/232246716627?hash=item3612fba8d3:g:ExUAAOSwtfhYqtfx
p124
aVhttp://www.ebay.com/itm/144-x-Thick-White-Endless-Snag-Free-Hair-Elastics-Bobbles-Ponios-/232246711100?hash=item3612fb933c:g:xQYAAOSw2gxYqtbl
p125
aVhttp://www.ebay.com/itm/6-Green-Hair-Elastics-Bobbles-Ponytail-No-Metal-Snag-FREE-Children-School-Gym-/262859694233?epid=1260102916&hash=item3d33a8a099:g:oeIAAOSw~AVYqMdF
p126
aVhttp://www.ebay.com/itm/6-Grey-Hair-Elastics-Bobbles-Ponytail-No-Metal-Snag-FREE-Children-School-Gym-/262859690750?epid=1257734808&hash=item3d33a892fe:g:JmgAAOSw32lYqMaK
p127
aVhttp://www.ebay.com/itm/6-Purple-Hair-Elastics-Bobbles-Ponytail-No-Metal-Snag-FREE-Children-School-Gym-/262859682297?epid=1457634272&hash=item3d33a871f9:g:UZwAAOSw~AVYqMTa
p128
aVhttp://www.ebay.com/itm/6-Navy-Hair-Elastics-Bobbles-Ponytail-No-Metal-Snag-FREE-Children-School-Gym-/262859675761?hash=item3d33a85871:g:hU4AAOSwr~lYqMOE
p129
aVhttp://www.ebay.com/itm/100-Quality-Thick-Endless-Snag-Free-Hair-Elastic-Bobbles-Bands-Ponios-Hair-Bands-/252774900923?hash=item3ada8ee4bb:g:lLwAAOSwX~dWjvF5
p130
aVhttp://www.ebay.com/itm/200-Quality-Thick-Endless-Snag-Free-Hair-Elastic-Bobbles-Bands-Ponios-Hair-Bands-/252774900209?hash=item3ada8ee1f1:g:lLwAAOSwX~dWjvF5
p131
aVhttp://www.ebay.com/itm/2-Pack-Gingham-Hair-Bobbles-Ponios-Checked-Bow-Elastics-Pretty-School-Snag-Free-/262856767202?var=&epid=568070973&hash=item3d337bf6e2:m:msVnIYjMMUY-sh6OW09yJwg
p132
aVhttp://www.ebay.com/itm/30-Thin-Elastics-Snag-Free-Hair-Bands-Ponytail-Bobbles-Ponios-/332127927003?var=&hash=item4d545dfadb:m:mwgD4kN-eqYSvHTPErYLXAQ
p133
aVhttp://www.ebay.com/itm/100-Piece-Hair-Bobbles-Elastics-Black-Snag-Free-No-Metal-thin-bobbles-/332126994930?hash=item4d544fc1f2:g:BbUAAOSwOgdYo6R4
p134
aVhttp://www.ebay.com/itm/100-Piece-Hair-Bobbles-Elastics-Black-Snag-Free-No-Metal-/332126993602?hash=item4d544fbcc2:g:~~8AAOSwfVpYo6PZ
p135
aVhttp://www.ebay.com/itm/14X-multicolor-Pearl-Snag-Free-Safety-Craft-Abaya-Hijab-Scarf-Tailor-Pins-Wheel-/272557215472?hash=item3f75ad0ef0:g:mEQAAOSwr~lYo3Yq
p136
aVhttp://www.ebay.com/itm/VELCRO-Brand-Snag-Free-Sew-On-Tape-20-mm-x-3-m-White-/142278091237?epid=1091121984&hash=item21206f61e5:g:4i0AAOSw~AVYohhK
p137
aVhttp://www.ebay.com/itm/8-BLACK-PCS-Pearl-Hijab-Scarf-Safety-Fashion-Tailor-Sewing-Pin-Plastic-Snag-Free-/122355019722?hash=item1c7ced6fca:g:qe8AAOSw4A5YoftP
p138
aVhttp://www.ebay.com/itm/5PCS-JIG-HEADS-ANTI-SNAG-JAXON-TANAMI-WEEDLESS-LURE-MANY-SIZE-FREE-DELIVERY-PIKE-/222408307490?var=&hash=item33c8917322:m:mrBxIbEpIMV6cwLroBwHsoA
p139
aVhttp://www.ebay.com/itm/100-x-Mini-Assorted-Colour-Girls-Kids-Snag-Free-Elastic-Hair-Bands-Bobbles-/332124317301?epid=726921430&hash=item4d5426e675:g:gAsAAOSwB-1YoQFd
p140
aVhttp://www.ebay.com/itm/80-x-Mini-Assorted-Colour-Girls-Kids-Snag-Free-Elastic-Hair-Bands-Ponios-Bobbles-/332123743238?hash=item4d541e2406:g:wp4AAOSwTuJYoIe4
p141
aVhttp://www.ebay.com/itm/80-x-Mini-Assorted-Colour-Girls-Kids-Snag-Free-Elastic-Hair-Bands-Ponios-Bobbles-/332123740584?hash=item4d541e19a8:g:rDYAAOSwOgdYoIb2
p142
aVhttp://www.ebay.com/itm/6x-Black-Pearl-Snag-Free-Safety-Craft-Dressmaking-Hijab-Scarf-Tailor-Pins-Wheel-/272553313210?hash=item3f757183ba:g:bIwAAOSw32lYnez4
p143
aVhttp://www.ebay.com/itm/Stretchy-Hair-Bobbles-Girls-Hairbands-Ponytail-Thick-Snag-Elastic-Endless-Color-/172523123656?var=&epid=553942294&hash=item282b2df3c8:m:m7G_wfdV9p50iOBJpFHYv5w
p144
aVhttp://www.ebay.com/itm/Fish-tape-Draw-tape-Nylon-20-metre-with-roller-to-minimise-snagging-/112297221528?var=&hash=item1a256f9d98:m:m3Z9_gxiZnSRKvNe9F2Ni8g
p145
aVhttp://www.ebay.com/itm/80-x-Mini-Assorted-Colour-Girls-Kids-Snag-Free-Elastic-Hair-Bands-Ponios-Bobbles-/332118880483?hash=item4d53d3f0e3:g:YZ8AAOSw44BYmz-7
p146
aVhttp://www.ebay.com/itm/Girls-Card-of-6-Ditsy-Pretty-Flowers-Snag-Free-Hair-Elastics-Bunches-6254-Cute-/262843125156?var=&hash=item3d32abcda4:m:mi0qvr16dFFH4KFtVh24Ilg
p147
aVhttp://www.ebay.com/itm/NEW-Korda-Snag-leader-100m-60lb-/192097855361?epid=1342923092&hash=item2cb9eca781:g:-aUAAOSwo4pYmJez
p148
aVhttp://www.ebay.com/itm/NEW-Korda-STOW-Snag-Bar-VARIOUS-COLOURS-/192097732997?var=&hash=item2cb9eac985:m:mwUpnAOAwdGAmATwjZ5cjWg
p149
aVhttp://www.ebay.com/itm/2-Rod-Set-Up-Buzz-Bars-Bank-Sticks-Snag-Ears-/182446132819?hash=item2a7aa30e53:g:Oo0AAOSwe7BWzcpY
p150
aVhttp://www.ebay.com/itm/Hijab-Abaya-Scarf-snag-Free-Pins-for-Shawl-Pashmina-ladies-safety-assorted-pins-/192096873754?hash=item2cb9ddad1a:g:e0UAAOSwYIxX-k7D
p151
aVhttp://www.ebay.com/itm/Ladies-Girls-Hair-Accessories-Kirby-Grips-Bobble-Elastic-Snag-Free-Clips-School-/222399797727?var=&hash=item33c80f99df:m:mgXcvEtamimhORHiai0XEVg
p152
aVhttp://www.ebay.com/itm/100-x-Mini-black-Colour-Girls-Kids-Snag-Free-Elastic-Hair-Bands-Ponios-Bobbles-/332115322689?hash=item4d539da741:g:0xEAAOSw4DJYluuB
p153
aVhttp://www.ebay.com/itm/50-x-Mini-black-Colour-Girls-Kids-Snag-Free-Elastic-Hair-Bands-Ponios-Bobbles-/332115321654?hash=item4d539da336:g:0xEAAOSw4DJYluuB
p154
aVhttp://www.ebay.com/itm/MENS-DRESSING-GOWN-MARKS-SPENCER-BLUE-TOWELLING-SNAG-RESIST-BATH-ROBE-NEW-/351972312254?var=&hash=item51f32f44be:m:mVKlIlO0sx29VZd3Z-fc43A
p155
aVhttp://www.ebay.com/itm/10-PIECE-THICK-ENDLESS-SNAG-FREE-PONY-TAIL-ELASTIC-BOBBLES-PONIO-HAIR-BANDS-SET-/292016417624?epid=900380331&hash=item43fd88eb58:g:8XwAAOSwTuJYpv0u
p156
aVhttp://www.ebay.com/itm/24pcs-HAIR-ELASTICS-BANDS-THIN-METAL-SNAG-FREE-PONIOS-BOBBLES-PONYTAIL-SCHOOL-/322408618510?var=&epid=534485634&hash=item4b110d1a0e:m:mxjJeWo02iKobjXjtiUsmTA
p157
aVhttp://www.ebay.com/itm/5-Black-Hair-Scrunchy-Bobble-Quality-Hair-Band-Elastics-Snag-Free-Endless-/292012997028?hash=item43fd54b9a4:g:jDEAAOSwFqNZOJmI
p158
aVhttp://www.ebay.com/itm/60-x-Thin-Elastics-Snag-Free-Black-Hair-Bands-Ponytail-Bobbles-Ponios-/292012987671?epid=713817583&hash=item43fd549517:g:YeQAAOSwnHZYjSRa
p159
aVhttp://www.ebay.com/itm/36-x-Thick-White-Endless-Snag-Free-Hair-Elastics-Bobbles-Ponios-/262824656553?hash=item3d3191fea9:g:l9wAAOSwNnRYijb8
p160
aVhttp://www.ebay.com/itm/36-x-Thick-Brown-Tonal-Satin-Endless-Snag-Free-Hair-Elastics-Bobbles-Ponios-/232218362910?hash=item36114b041e:g:CIYAAOSwo4pYijUt
p161
aVhttp://www.ebay.com/itm/12-Girls-Hair-Bands-Thick-Bobbles-Pack-Snag-Free-Pony-Tail-Elastic-Stretchy-/292009056811?hash=item43fd189a2b:g:5~gAAOSw4DJYh4NI
p162
aVhttp://www.ebay.com/itm/Gardner-Atts-Back-Plate-Snag-Back-Accessories-Carp-Fishing-/252738489992?hash=item3ad8634e88:g:UXUAAOSwv0tVCFXK
p163
aVhttp://www.ebay.com/itm/18-x-Small-Mini-Baby-Striped-Snag-Free-Endless-Hair-Elastics-Bobbles-Ponios-/232212280476?hash=item3610ee349c:g:rZgAAOSw4DJYgla1
p164
aVhttp://www.ebay.com/itm/36-x-Small-Mini-Baby-Coloured-Snag-Free-Endless-Hair-Elastics-Bobbles-Ponios-/262816369641?hash=item3d31138be9:g:YogAAOSw5cNYglW3
p165
aVhttp://www.ebay.com/itm/36-x-Small-Mini-Baby-Blonde-Snag-Free-Endless-Hair-Elastics-Bobbles-Ponios-/232212266967?hash=item3610edffd7:g:uU0AAOSw241YglHa
p166
aVhttp://www.ebay.com/itm/12-Small-Thin-Black-Hair-Elastics-Bobbles-Ponytail-No-Metal-Snag-FREE-Children-/262813144368?epid=501150522&hash=item3d30e25530:g:YgEAAOSwLEtYf15C
p167
aVhttp://www.ebay.com/itm/Girls-20-Small-Mini-Baby-Sized-Black-Thin-Hair-Elastics-Bobbles-Bands-Snag-Free-/172490081422?epid=1943331978&hash=item282935c48e:g:GYYAAOSwFe5XzVIL
p168
aVhttp://www.ebay.com/itm/Snag-Repair-Tool-Has-a-Miniature-latch-hook-to-pulls-snags-through-garments-/371841607081?epid=781949954&hash=item56937ca5a9:g:ah0AAOSwopRYfenM
p169
aVhttp://www.ebay.com/itm/Hemline-Snag-Repair-Needle-Draws-snags-through-to-the-back-of-garments-/252728181048?epid=1111586060&hash=item3ad7c60138:g:M4AAAOSw8lBTqaDP
p170
aVhttp://www.ebay.com/itm/12-Small-Thin-Black-Hair-Elastics-Bobbles-Ponytail-No-Metal-Snag-FREE-Children-/262810787204?epid=501150522&hash=item3d30be5d84:g:VNIAAOSwjDZYfVGu
p171
aVhttp://www.ebay.com/itm/quality-Hijab-scarf-Hat-Abaya-scarf-Safety-Pins-Snag-free-Good-Quality-Plastic-/252724163232?hash=item3ad788b2a0:g:GOYAAOSwAYtWJLYw
p172
aVhttp://www.ebay.com/itm/12-Girls-High-Quality-Thick-Endless-Snag-Free-Hair-Elastics-Bobbles-Dark-Green-/162357378855?epid=2135287110&hash=item25cd40ff27:g:bU8AAOSwA3dYeWEo
p173
aVhttp://www.ebay.com/itm/144-x-Thick-Black-Endless-Snag-Free-Hair-Elastics-Bobbles-Ponios-/232205350612?hash=item36108476d4:g:CTcAAOSwA3dYeQNP
p174
aVhttp://www.ebay.com/itm/Hair-Elastics-Bobbles-Bands-Ponios-30-pcsThick-Endless-Snag-Mix-Color-Uk-Storage-/201781548970?var=&hash=item2efb1e17aa:m:mZ9yXptexrTEUnBZSFq5CtA
p175
aVhttp://www.ebay.com/itm/6-Brown-Hair-Colour-Elastics-Hair-Endless-Bands-Ponios-Snag-Free-/112265658132?hash=item1a238dff14:g:k8MAAOSwvg9Xc7j1
p176
aVhttp://www.ebay.com/itm/Hair-Elastics-Bobbles-30-pcs-Thick-Endless-Snag-Bands-Ponios-Mix-/152390624497?var=&hash=item237b3064f1:m:mVSnPa1HjN4t9VMD7hKZTkw
p177
aVhttp://www.ebay.com/itm/Enterprise-Tackle-Snag-Safe-Run-Rings-Carp-Coarse-Fishing-Rigs-/272515880036?epid=1850381289&hash=item3f73365464:g:JngAAMXQ1d1THY8~
p178
aVhttp://www.ebay.com/itm/Hair-Elastics-Bobbles-Bands-30-Pcs-Best-Thick-Endless-Snag-Free-Ponios-Mix-/282320116057?var=&hash=item41bb971959:m:mm_Gjcyd4IG7haQZLws7Kww
p179
aVhttp://www.ebay.com/itm/12x-Snag-Ease-Metal-Free-Comfort-Hair-Bobble-Hair-Bands-Black-Mila-Rose-/252715454840?hash=item3ad703d178:g:czcAAOSwt5hYcnrk
p180
aVhttp://www.ebay.com/itm/Black-Snag-Free-Hairband-Hair-Elastics-School-Bobbles-No-Metal-PACK-OF-12-/222368659543?hash=item33c6347857:g:lOMAAOSw241YbpNA
p181
aVhttp://www.ebay.com/itm/InterDesign-17-Loops-Over-Door-Scarf-Closet-Organizer-No-Snag-Storage-for-NEW-/361871439999?epid=1971207977&hash=item544137f87f:g:kawAAOSwnHZYbk6l
p182
aVhttp://www.ebay.com/itm/Snag-Free-Scarf-Hijab-Pins-Safety-Pin-Plastic-Girls-Kids-Ladies-Hair-Dressing-6p-/122297548461?var=&hash=item1c79807ead:m:mQPn-8fhoVycTjXBkNykIBw
p183
aVhttp://www.ebay.com/itm/Pony-Magic-Anti-Snag-Needle-Sewing-/192069033313?epid=1211584124&hash=item2cb834dd61:g:nHYAAOSw5cNYa8Sd
p184
aVhttp://www.ebay.com/itm/Five-Hair-Scrunchy-Velvet-Bobble-Hair-Band-Elastics-Snag-Free-UK-SELLER-/192068037745?hash=item2cb825ac71:g:QzoAAOSw~uhUoFgb
p185
aVhttp://www.ebay.com/itm/12-x-Thick-Endless-Snag-Free-Hair-Elastics-Bobbles-Bands-Ponios-Hair-Bands-/201770266292?hash=item2efa71eeb4:g:6dEAAOSwH71XO4VT
p186
aVhttp://www.ebay.com/itm/12-x-Thick-Endless-Snag-Free-Hair-Elastics-Bobbles-Bands-Ponios-Hair-Bands-/192067523011?hash=item2cb81dd1c3:g:6dEAAOSwH71XO4VT
p187
aVhttp://www.ebay.com/itm/SABER-S4-WIRELESS-BITE-ALARM-SET-3-1-WITH-SNAG-BARS-CARP-PIKE-FISHING-BRAND-NEW-/262783853659?hash=item3d2f23645b:g:JuQAAOSwTA9X9TMQ
p188
aVhttp://www.ebay.com/itm/Velvet-Hair-Scrunchies-Elastic-Scrunchy-Hair-Bobbles-Snag-Free-Elastic-diamante-/122269522911?var=&hash=item1c77d4dbdf:m:mhnd7zZtM3YROJM7Gj8vMlg
p189
aVhttp://www.ebay.com/itm/8-BLACK-PCS-Pearl-Hijab-Scarf-Safety-Fashion-Tailor-Sewing-Pin-Snag-Free-Plastic-/222339855614?epid=887094288&hash=item33c47cf4fe:g:FT0AAOSwImRYSaQ6
p190
aVhttp://www.ebay.com/itm/50-Quality-Thick-Endless-Snag-Free-Hair-Elastics-Bobbles-Bands-Ponios-Mix-/222335248633?var=&hash=item33c436a8f9:m:md6fPiQfB6TUJ86kyl8YOtQ
p191
aVhttp://www.ebay.com/itm/3-x-SETS-OF-STAINLESS-STEEL-ALUMINIUM-SNAG-BARS-FOR-BITE-ALARMS-CARP-FISHING-/351923800899?hash=item51f04b0b43:g:34kAAOSwo4pYQX8V
p192
aVhttp://www.ebay.com/itm/2-x-SETS-OF-STAINLESS-STEEL-ALUMINIUM-SNAG-BARS-FOR-BITE-ALARMS-CARP-FISHING-/391642675469?hash=item5b2fb8f90d:g:34kAAOSwo4pYQX8V
p193
aVhttp://www.ebay.com/itm/Wholesale-30-Bright-Colored-Snag-free-endless-Hair-elastic-Bobble-Hair-Band-/112223007451?hash=item1a210332db:g:He0AAOSwj85YN3PJ
p194
aVhttp://www.ebay.com/itm/Gemini-System-100-Sinker-Moulds-and-Assembly-Kits-Cod-Bass-Sea-Fishing-Tackle-/152334188684?var=&hash=item2377d3408c:m:mnegfnuvAHsW1BcnzoM5cOA
p195
aVhttp://www.ebay.com/itm/Ultima-Vulcanite-Fluorocarbon-Coated-Snag-Leader-100m-Spool-/172424456616?var=&epid=1869930454&hash=item28254c69a8:m:mA0QuKmrFaXCFktWP0rf33g
p196
aVhttp://www.ebay.com/itm/Ultima-Guerilla-Pure-Fluorocarbon-Snag-Leader-/172424456574?var=&epid=1347483595&hash=item28254c697e:m:mEJhp_TByWAMlaqk9b_GF1w
p197
aVhttp://www.ebay.com/itm/36-Endless-Snag-Free-Hair-Bobbles-Girls-Hair-Accessory-Elastics-Hair-Bands-/282267194083?var=&epid=1748702343&hash=item41b86f92e3:m:mII_LQAUc1rN8Cb4d7l5qPA
p198
aVhttp://www.ebay.com/itm/Nash-Tackle-NEW-Carp-Fishing-Universal-Siren-Snag-Ear-T2936-/332042001335?hash=item4d4f3edbb7:g:NmUAAOSwcLxYDhv~
p199
aVhttp://www.ebay.com/itm/New-Kryston-Kraken-Monster-Mega-Braid-Super-Snag-Leader-200lb-Line-/201727348463?epid=1465035626&hash=item2ef7e30eef:g:DlcAAOSwHMJYNegR
p200
aVhttp://www.ebay.com/itm/6-Snag-Free-Scarf-Hijab-Pins-Safety-Pin-Plastic-Girls-Kids-Ladies-Hair-Dressing-/122237873566?var=&hash=item1c75f1ed9e:m:mmDH4wYKmjuqG5ogHzd4mUA
p201
aVhttp://www.ebay.com/itm/Black-Hair-Elastics-Snag-Free-Non-Metal-Elastic-Ponytail-Holder-Black-Hair-Bands-/162291290020?var=&hash=item25c9508fa4:m:mXYA6hx6-1OvXF9BfuCXwAA
p202
aVhttp://www.ebay.com/itm/Cricket-Fast-Flo-FastFlo-Anti-Static-Hair-Brush-Shaping-Non-Snag-Bristle-/322336564643?epid=944031930&hash=item4b0cc1a5a3:g:mS4AAOSwGXtXg4M7
p203
aVhttp://www.ebay.com/itm/POWAPAL-SNAG-BARS-EARS-BLACK-FOR-BITE-ALARMS-CARP-FISHING-TACKLE-/222319804745?hash=item33c34b0149:g:fBMAAOSwcLxYMDlC
p204
aVhttp://www.ebay.com/itm/6-Scarf-Hijab-Hat-Safety-Pins-Snag-Free-Multi-Pins-ladies-girls-UK-Free-delivery-/232147944436?hash=item360d1883f4:g:iGEAAOSwB09YL48M
p205
aVhttp://www.ebay.com/itm/8-Scarf-Hijab-Hat-Safety-Pins-Snag-Free-White-Pins-ladies-girls-UK-Free-delivery-/232147937602?hash=item360d186942:g:aCYAAOSw5cNYL41G
p206
aVhttp://www.ebay.com/itm/12-Thick-Hair-Elastics-Small-Multi-Colour-Bobbles-Hair-Band-Snag-Free-No-Metal-/262721504810?epid=1256765718&hash=item3d2b6c062a:g:hxQAAOSwcLxYLFmD
p207
aVhttp://www.ebay.com/itm/100-Thick-Hair-Elastics-Black-Bobbles-Hair-Band-Pony-Tail-Snag-Free-No-Metal-UK-/262721490482?epid=1694990154&hash=item3d2b6bce32:g:vTAAAOSwRUhY9S9E
p208
aVhttp://www.ebay.com/itm/10-Navy-Hair-Bobbles-Elastics-Thick-Snag-Free-No-Metal-Hair-Bands-Endless-Kids-/262721457859?epid=1708899996&hash=item3d2b6b4ec3:g:RmcAAOSwJ4hY9S3q
p209
aVhttp://www.ebay.com/itm/New-Direction-Tackle-2-Blau-Carbon-Illuminating-Snag-Ears-Fur-K9-Bissanzeiger-/262719834160?hash=item3d2b528830:g:AP0AAOSw4GVYKse2
p210
aVhttp://www.ebay.com/itm/New-Direction-Tackle-2-Grun-Carbon-Illuminating-Snag-Ears-Fur-K9-Bissanzeiger-/252636763140?hash=item3ad2531404:g:ON0AAOSwA3dYKqcc
p211
aVhttp://www.ebay.com/itm/STAINLESS-STEEL-ADJUSTABLE-SNAG-EARS-BARS-FOR-CARP-FISHING-BITE-ALARMS-ROD-POD-/361828401467?var=&hash=item543ea7413b:m:mwT4ASMWk-AEyIwvHz20IdA
p212
aVhttp://www.ebay.com/itm/Saber-Carp-Fishing-Low-Pro-Rod-Pod-S4-Wireless-Bite-Alarm-Set-With-Snag-Bars-/222314643358?epid=851944675&hash=item33c2fc3f9e:g:jRYAAOSw4GVYKcFG
p213
aVhttp://www.ebay.com/itm/NASH-CARP-FISHING-SIREN-UNIVERSAL-SNAG-EARS-BITE-ALARM-INDICATION-ACCESSORY-/272449138005?epid=1376430644&hash=item3f6f3bed55:g:loYAAOSw44BYKZMl
p214
aVhttp://www.ebay.com/itm/Crystal-Diamante-Hijab-Scarf-Pin-Tailor-Sewing-Snag-Free-Long-Sparkle-Pins-Clear-/322325158724?hash=item4b0c139b44:g:yTMAAOSwImRYJgQt
p215
aVhttp://www.ebay.com/itm/Delkim-NEW-TXi-Plus-Carp-Fishng-Bite-Alarm-Various-Colours-Free-Snag-Ears-/122222076750?var=&hash=item1c7500e34e:m:mkVyPWbZFLkI0DBIfdJcygg
p216
aVhttp://www.ebay.com/itm/NEW-TREND-10pcs-SILICONE-NON-SLIP-HAIR-ELASTICS-4cm-SNAG-FREE-PONY-TAIL-BANDS-/322324194358?epid=2035768122&hash=item4b0c04e436:g:a~gAAOSw4shX4P67
p217
aVhttp://www.ebay.com/itm/8-Black-PCS-Pearl-Hijab-Scarf-Safety-Fashion-Tailor-Sewing-Pin-Snag-Free-Plastic-/322324094915?var=&hash=item4b0c035fc3:m:mlcL6rJYjwlyX7yq7dpIvRA
p218
aVhttp://www.ebay.com/itm/Barrette-2-Hair-Clip-Side-6CM-Grip-Metal-Black-Silver-Snag-Free-Plain-Unsprung-/182348421197?var=&epid=17001797718&hash=item2a74d0184d:m:mUFmf1EHrMKdc8PZis2Wo7A
p219
aVhttp://www.ebay.com/itm/Pack-of-50-Elastics-Bobbles-Bands-Quality-Thick-Endless-Snag-Free-Hair-Band-/252620179605?hash=item3ad1560895:g:-ScAAOSwx2dYHF09
p220
aVhttp://www.ebay.com/itm/20x-New-Quality-BLACK-THIN-Endless-Hair-Elastics-Bobbles-Bands-Snag-Free-/232128554695?var=&hash=item360bf0a6c7:m:mz3Nq1YOqrzk4H6q8dFpECA
p221
aVhttp://www.ebay.com/itm/20x-Quality-BLACK-THICK-BEADED-Endless-Hair-Elastics-Bobbles-Bands-Snag-Free-/332017425206?var=&hash=item4d4dc7db36:m:mack2TCJGn7kNzvn19HBU4w
p222
aVhttp://www.ebay.com/itm/SABER-Wireless-3-1-Bite-Alarm-Set-Carp-Fishing-Snag-Bars-NGT-Nomadic-Rod-Pod-/381830022099?hash=item58e6d7c3d3:g:KSwAAOSwHsRYE0t-
p223
aVhttp://www.ebay.com/itm/Saber-Wireless-3-1-Bite-Alarm-Set-Carp-Coarse-Fishing-With-Snag-Bars-Case-/381830002624?hash=item58e6d777c0:g:tWMAAOSwfpVZEakG
p224
aVhttp://www.ebay.com/itm/Delkim-NEW-Txi-Plus-Alarm-x3-Receiver-FREE-Delkim-Snag-Ears-x3-Battery-x4-/371773283005?var=&hash=item568f6a1abd:m:mopPLVbHrYenxzq4Z_SVKtQ
p225
aVhttp://www.ebay.com/itm/3-x-Connectix-Network-Patch-Cable-CAT-6A-0-5m-Anti-Snag-Latch-Cover-Blue-Maplin-/182328774804?epid=1237804054&hash=item2a73a45094:g:9bUAAOSw3utY5mJh
p226
aVhttp://www.ebay.com/itm/Rose-Flower-Elastics-Bobbles-Bands-Snag-Free-Hair-Endless-Ponios-Quality-New-UK-/322305072954?var=&hash=item4b0ae11f3a:m:mWkpgQ7aHTWcCRHOTj0hnVg
p227
aVhttp://www.ebay.com/itm/InterDesign-Classico-18-Loops-Over-Door-Scarf-Closet-Organizer-No-Snag-Storag-/122196311952?epid=1371269169&hash=item1c7377bf90:g:iFcAAOSwXeJYDecg
p228
aVhttp://www.ebay.com/itm/12-Big-Ponios-Bobbles-metal-free-Hair-Snag-Bands-Elastics-stretchy-/172384920358?hash=item2822f12326:g:xoQAAOSwT~9WjECx
p229
aVhttp://www.ebay.com/itm/SNAG-FRFE-PINS-CRYSTAL-STONE-HIJAB-SCARF-LOCK-SAFETY-PINS-GOOD-QUALITY-SNAG-PIN-/122194604248?var=&hash=item1c735db0d8:m:mApNre4ou5zBywtjNURUTpQ
p230
aVhttp://www.ebay.com/itm/2-x-MINI-BLACK-SNAG-EAR-BARS-FOR-BITE-ALARMS-CARP-FISHING-TACKLE-TWO-/182322307988?epid=740752398&hash=item2a7341a394:g:YLUAAOSw65FXvFL9
p231
aVhttp://www.ebay.com/itm/Scrunchie-Big-Hair-Tie-Hijab-Volumising-Bun-Volumizer-Flower-Hair-Claw-Clamp-Jaw-/322299709666?var=&hash=item4b0a8f48e2:m:my2t7e97CPdgmnoBU15IwOg
p232
aVhttp://www.ebay.com/itm/HANDMADE-HAIR-BOBBLES-IN-BABY-PETER-RABBIT-ON-NON-SNAG-ELASTICS-BOW-IN-A-PAIR-/252593723042?hash=item3acfc256a2:g:vtMAAOSw8gVYB5YW
p233
aVhttp://www.ebay.com/itm/HANDMADE-HAIR-BOBBLES-IN-PRETTY-DOTS-ON-NON-SNAG-ELASTICS-BOW-IN-A-PAIR-/252593714529?hash=item3acfc23561:g:WYIAAOSwCGVYB5S5
p234
aVhttp://www.ebay.com/itm/8-X-Elastic-Hairbands-Multi-Colour-Thick-Girls-Ladies-Snag-Free-Hair-Bobbles-/182318907032?var=&epid=1140899930&hash=item2a730dbe98:m:mzS1KkTHBfC5CZ_8tDc2rGQ
p235
aVhttp://www.ebay.com/itm/Gardner-G-Force-Rear-Rod-Rest-Locked-Up-Snag-Heads-Flowing-Water-Barbel-Fishing-/262678878172?var=&hash=item3d28e197dc:m:mJJA2iYKgAwjNtjxxO9RQzQ
p236
aVhttp://www.ebay.com/itm/100-Piece-Hair-Bobbles-Elastics-Black-Snag-Free-No-Metal-Thick-Thin-Multi-Buy-/262677835144?var=&epid=1094898797&hash=item3d28d1ad88:m:mWm6fx8Hw--YhmIHsbtBcuw
p237
aVhttp://www.ebay.com/itm/8-BLACK-PCS-Pearl-Hijab-Scarf-Safety-Fashion-Tailor-Sewing-Pin-Snag-Free-Plastic-/262673878544?epid=887094288&hash=item3d28954e10:g:RN0AAOSw8gVYAMPT
p238
aVhttp://www.ebay.com/itm/6-8-PACK-Pearl-Hijab-Scarf-Safety-Fashion-Tailor-Sewing-Pin-Snag-Free-Plastic-/122180498067?var=&hash=item1c72867293:m:m4JAAoObgkdTMlNVMUXUoHA
p239
aVhttp://www.ebay.com/itm/8-PCS-SNAG-FREE-PINS-HIJAB-PINS-ABABYA-PINS-SCARF-PINS-SNAG-FREE-MIX-DESIGNS-/122180146046?var=&hash=item1c7281137e:m:mM1dFQK1uE2v1O12nV5V35Q
p240
aVhttp://www.ebay.com/itm/Denman-D200-Black-Salon-Hyflex-Flexible-Vent-Detangling-No-Snagging-Hair-Brush-/172372987141?epid=0&hash=item28223b0d05:g:PK4AAOSwtGlZOCIQ
p241
aVhttp://www.ebay.com/itm/Round-Pearl-Snag-Free-Safety-Pin-Craft-Dressmaking-Hijab-Scarf-Tailor-Pins-Wheel-/201688466000?hash=item2ef591c250:g:VOUAAOSwPCVX~jK5
p242
aVhttp://www.ebay.com/itm/10-Random-Thick-Endless-Snag-Free-Hair-Elastic-Bobbles-Bands-Ponios-Plats-Girls-/322290163002?var=&hash=item4b09fd9d3a:m:mIJeR-gNLJuO3jW2qlf5vgw
p243
aVhttp://www.ebay.com/itm/JAG-Products-NEW-316-3-Rod-Fixed-Stainless-Steel-Fishing-Snag-Bar-/232109969942?var=&hash=item360ad51216:m:mJYbewsjJroLUEy-ScdqGzA
p244
aVhttp://www.ebay.com/itm/8-Pcs-Snag-Free-Hijab-Abaya-Scarf-Safety-Plastic-Hair-dressing-Premium-Pins-/191991303787?epid=900297060&hash=item2cb392ce6b:g:e0UAAOSwYIxX-k7D
p245
aVhttp://www.ebay.com/itm/Hijab-Abaya-Scarf-snag-Free-8-Pins-for-Pashmina-ladies-safety-pins-Mix-colors-/191991300686?epid=900299055&hash=item2cb392c24e:g:e0UAAOSwYIxX-k7D
p246
aVhttp://www.ebay.com/itm/1-2-3-NGT-Carp-Fishing-Grippz-Gripper-Rear-Rod-Rest-For-Secure-Snag-Locked-Up-/272403525777?var=&hash=item3f6c83f091:m:mMm0kkHobd0l7N6U7_dCfbQ
p247
aVhttp://www.ebay.com/itm/Pearl-Hijab-Scarf-Pins-Safety-Pin-Multicolor-Black-Wheel-Tailor-Sewing-Snag-Free-/152267614858?var=&hash=item2373db6a8a:m:mX27eAcXRMqJE5bhXA26MoQ
p248
aVhttp://www.ebay.com/itm/THICK-ENDLESS-SNAG-FREE-ELASTIC-PONYTAIL-BOBBLE-HAIR-BUN-DOUGHNUT-HEAD-BANDS-NEW-/172364112156?var=&hash=item2821b3a11c:m:mlSakh-jvNV6kabUfwCXRPA
p249
aVhttp://www.ebay.com/itm/24-hair-Elastic-Bear-Kitty-Cat-Snag-free-Hair-bobble-Wholesale-endless-hair-band-/122166218421?hash=item1c71ac8eb5:g:CE4AAOSwmLlX9Bpu
p250
aVhttp://www.ebay.com/itm/Carp-Fishing-Bite-Alarms-Wireless-Receiver-Snag-Ears-Tone-Vol-Control-NGT-/282206464062?hash=item41b4d0e83e:g:vy4AAOSwA3dYerto
p251
aVhttp://www.ebay.com/itm/Deluxe-Bite-Alarm-With-Tone-Volume-Control-Plus-Snag-Bar-Ears-And-Batteries-/272397922023?hash=item3f6c2e6ee7:g:atUAAOSwImRYckSW
p252
aVhttp://www.ebay.com/itm/Girls-Hair-Accessories-School-Bottle-Green-Elastics-Bands-Scrunchies-Clips-Etc-/252565203332?var=&hash=item3ace0f2984:m:m8Xxg2N-cKyUkdelyO_ejYQ
p253
aVhttp://www.ebay.com/itm/Girls-Hair-Accessories-For-School-Navy-Elastics-Headbands-Scrunchies-Clips-Etc-/262652423342?var=&hash=item3d274decae:m:mvHLgKKR-k45AugFcU8q4aQ
p254
aVhttp://www.ebay.com/itm/SNAG-FREE-PIN-HIJAB-SAFETY-BROOCH-PINS-DIAMANTE-SNAG-FREE-HIJAB-SCARF-PINS-SNAG-/122156489367?var=&hash=item1c71181a97:m:mcKQAHkFeLsaLG9Y1Vn6Y4g
p255
aVhttp://www.ebay.com/itm/Fox-Black-Label-Edition-Compact-Pod-Frame-Bank-Sticks-Buzz-Bars-Accessories-/302086259909?var=&epid=1830026840&hash=item4655be84c5:m:m7mJW7CtMjcVGLRvr3kStSw
p256
aVhttp://www.ebay.com/itm/Six-Black-Large-Hair-Scrunchy-Bobble-Quality-Hair-Band-Elastics-Snag-Free-Endles-/191979044213?hash=item2cb2d7bd75:g:hxMAAOxyQfJTfxAK
p257
aVhttp://www.ebay.com/itm/5-Black-Large-Hair-Scrunchy-Bobble-Quality-Hair-Band-Elastics-Snag-Free-Endless-/191977533128?epid=2018242750&hash=item2cb2c0aec8:g:hj0AAOxyQfJTfxAC
p258
aVhttp://www.ebay.com/itm/10-Black-Hair-Scrunchy-Hair-Bobbles-Quality-Hair-Band-Elastics-Snag-Free-Endless-/191977531498?epid=525075648&hash=item2cb2c0a86a:g:zegAAOSwQItT8jSh
p259
aVhttp://www.ebay.com/itm/Set-of-4-Black-Velvet-Hair-Scrunchy-Bobble-Hair-Band-Elastic-Snag-Free-Endless-/191977526870?epid=522825666&hash=item2cb2c09656:g:epEAAOSwECZUoFh2
p260
aVhttp://www.ebay.com/itm/Four-Black-Velvet-Hair-Scrunchy-Bobble-Hair-Band-Elastics-Snag-Free-/201674234497?hash=item2ef4b89a81:g:QzoAAOSw~uhUoFgb
p261
aVhttp://www.ebay.com/itm/5-x-Black-Large-THICK-Hair-Scrunchy-Bobble-UNISEX-Hair-Band-Elastics-Snag-Free-/201674225822?epid=507560665&hash=item2ef4b8789e:g:hxMAAOxyQfJTfxAK
p262
aVhttp://www.ebay.com/itm/Amega-Grippz-Gripper-Rear-Rod-Rest-Secure-Grip-Snag-Locked-Up-Fishing-/262632105854?var=&hash=item3d2617e77e:m:md93anFcIAxxWV6e2XOeU3Q
p263
aVhttp://www.ebay.com/itm/Pearl-Hijab-Scarf-Pins-Safety-Pin-Black-Wheel-Tailor-Sewing-Snag-Free-/302078557715?hash=item465548fe13:g:DwQAAOSw8gVX2Ex0
p264
aVhttp://www.ebay.com/itm/Round-Pearl-Snag-Free-Safety-Craft-Dressmaking-Hijab-Scarf-Tailor-Pins-Wheel-/201670348622?epid=1694984189&hash=item2ef47d4f4e:g:gZwAAOSw7n9XFMPF
p265
aVhttp://www.ebay.com/itm/6-x-Snag-Free-Elastic-Head-Bands-Hairbands-Ladies-Girls-School-Gym-Sports-BRIGHT-/252542331891?hash=item3accb22bf3:g:1XAAAOSwOyJX29CD
p266
aVhttp://www.ebay.com/itm/Ultima-Vulcanite-Ultra-Tough-Fluorocarbon-Coated-Snag-Leader-Carp-Fishing-Line-/152242922891?var=&epid=1571180616&hash=item237262a58b:m:mjU85WTF7K3NT5fGUVHuqtA
p267
aVhttp://www.ebay.com/itm/HIJAB-SCARF-ABAAYA-PINS-BROOCH-GLITTERY-NEW-DESIGN-SNAG-FREE-HIJAB-PINS-/122135229758?var=&hash=item1c6fd3b53e:m:mZ5njNX4jnir_yUw1EWfEPA
p268
aVhttp://www.ebay.com/itm/SNAG-FREE-PIN-BARRETTE-HAIR-CLIPS-FRENCH-HAIR-CLIPS-QUALITYPLASTIC-SLIDE-COLOURS-/122133573154?var=&hash=item1c6fba6e22:i:122133573154
p269
aVhttp://www.ebay.com/itm/Pearl-Hijab-Scarf-Pins-Safety-Pin-Multicolor-Wheel-Tailor-Sewing-Snag-Free-/302072373621?hash=item4654eaa175:g:kRYAAOSwA3dYJLzW
p270
aVhttp://www.ebay.com/itm/Pearl-Leaf-Hijab-Scarf-Pins-Safety-Pin-Wheel-Craft-Tailor-Sewing-Hat-Snag-Free-/322257964171?var=&hash=item4b08124c8b:m:mZVwNTGMif3dkoVldU2Ebmw
p271
aVhttp://www.ebay.com/itm/Delkim-NEW-Safe-D-Carbon-Carp-Fishing-Snag-Bars-Ears-x2-/371733003261?epid=1365925352&hash=item568d037bfd:g:pRMAAOSwX~dWsMn7
p272
aVhttp://www.ebay.com/itm/Delkim-NEW-Safe-D-Carbon-Carp-Fishing-Snag-Bars-Ears-x3-/371733003212?epid=1409189040&hash=item568d037bcc:g:TI0AAOSwa-dWsMmc
p273
aVhttp://www.ebay.com/itm/36-x-Black-Endless-Hair-Elastics-Bobbles-Snag-Free-/152236407433?epid=1584144517&hash=item2371ff3a89:g:FwcAAOSwgmJX06zZ
p274
aVhttp://www.ebay.com/itm/8-16-SNAG-FREE-HIJAB-SCARF-ABAYA-PINS-LATEST-ON-EBAY-IN-SHINY-ASSORTED-COLOURS-/122119639301?var=&hash=item1c6ee5d105:m:mDDp1_EeF5RFjdRbSxgt1gA
p275
aVhttp://www.ebay.com/itm/Quilted-Microfibre-Furniture-Protector-Soil-Snag-Resistant-Sofa-Cover-1-2-3-Seat-/311691550212?var=&epid=1055973207&hash=item4892439e04:m:m31UMmWY-lbUhLgH8iKwGfw
p276
aVhttp://www.ebay.com/itm/Sofa-Protector-Soil-Snag-Resistant-Quilted-Microfibe-Throw-Beige-1-2-3-Seater-/252526957188?var=&epid=1355949596&hash=item3acbc79284:m:mmvcmjkRrSXEsr0TMm-FiNg
p277
aVhttp://www.ebay.com/itm/Sofa-Protector-Soil-Snag-Resistant-Quilted-Microfibe-Throw-Wine-1-2-3-Seater-/401183112192?var=&epid=1956009229&hash=item5d68607c00:m:mDMQeWvUH3lk9HSV6r2e-yA
p278
aVhttp://www.ebay.com/itm/Sofa-Protector-Soil-Snag-Resistant-Quilted-Microfibe-Throw-Chocolate-Brown-/252526956707?var=&epid=1155971693&hash=item3acbc790a3:m:mqzEI9sym5-a36vGoyJDC_Q
p279
aVhttp://www.ebay.com/itm/Hijab-scarf-Hat-Abaya-Safety-Pins-Snag-free-New-colours-1-colour-8pins-set-/291863177590?var=&hash=item43f466a976:m:mKRWKXpxbaeW6gqQctqUsXA
p280
aVhttp://www.ebay.com/itm/Vintage-Retro-Style-Polka-Dot-Bow-With-Elastic-Hair-Band-Snag-Free-Made-In-UK-/322248366338?hash=item4b077fd902:g:pdQAAOSwMgdXyGrM
p281
aVhttp://www.ebay.com/itm/36-Quality-Assorted-Snag-Free-Hair-Elastics-Bobbles-Bands-Ponios-Mix-OTL-/182258352891?epid=1382225392&hash=item2a6f71c2fb:g:RKMAAOSwv2JXwaru
p282
aVhttp://www.ebay.com/itm/72-Quality-Assorted-Snag-Free-Hair-Elastics-Bobbles-Bands-Ponios-Mix-OTL-/172320757296?epid=1364688465&hash=item281f1e1630:g:BuQAAOSwFc5XwaQb
p283
aVhttp://www.ebay.com/itm/Hybrid-Tackle-Carp-Hooks-/222231537603?var=&hash=item33be0827c3:m:mOJQQq6yTLl3kgFEdC-7lyg
p284
aVhttp://www.ebay.com/itm/Hemline-Snag-Repair-Tool-for-Woollens-H248-/252514056253?epid=1411541478&hash=item3acb02b83d:g:bJ8AAOSwgZ1XwEWG
p285
aVhttp://www.ebay.com/itm/NGT-Grippz-Gripper-Rear-Rod-Rest-Secure-Grip-Fishing-Locked-Up-Snag-Fishing-/172318412638?var=&hash=item281efa4f5e:m:mC6QS3QDVDaDvOEx4kAc0fg
p286
aVhttp://www.ebay.com/itm/Hemline-Snag-Repair-Tool-for-Woollens-H248-/252514056253?epid=1411541478&hash=item3acb02b83d:g:bJ8AAOSwgZ1XwEWG
p287
aVhttp://www.ebay.com/itm/NGT-Grippz-Gripper-Rear-Rod-Rest-Secure-Grip-Fishing-Locked-Up-Snag-Fishing-/172318412638?var=&hash=item281efa4f5e:m:mC6QS3QDVDaDvOEx4kAc0fg
p288
aVhttp://www.ebay.com/itm/Aluminium-Anti-Snag-Adaptor-for-8mm-and-6mm-hose-Hoselock-WFP-Window-Cleaning-/172318312022?epid=795222431&hash=item281ef8c656:g:vL8AAOSwMtxXvrgY
p289
aVhttp://www.ebay.com/itm/Delkim-TX-I-Plus-Bite-Alarms-x3-TXI-RX-Pro-Receiver-FREE-Delkim-Snag-Ears-x3-/252510012551?var=&hash=item3acac50487:m:mNj4hdT4AOHc5C-Q9282_xQ
p290
aVhttp://www.ebay.com/itm/10-Snag-Free-Endless-Hair-Elastics-Bobbles-Hair-Bands-Choice-of-Colours-/131911810810?var=&hash=item1eb68e7efa:m:mgSy1Po3-2HslYAZZcU0OhA
p291
aVhttp://www.ebay.com/itm/Set-of-12-Mini-Bright-Tone-Snag-Free-Endless-Hair-Elastics-Bobbles-Bands-/131911595661?epid=2135309456&hash=item1eb68b368d:g:8esAAOSwU-pXtIb7
p292
aVhttp://www.ebay.com/itm/50-Quality-Thick-Endless-Snag-Free-Hair-Band-Elastics-Bobbles-Bands-Ponios-Mixed-/112091774014?var=&hash=item1a1930bc3e:m:m_yHzHGWBSjmpjIpTDWwwCQ
p293
aVhttp://www.ebay.com/itm/20-Pack-LARGE-HAIR-PONIOS-Snag-Free-Endless-Ladies-Kids-Girls-Bobbles-Gift-New-/282131655464?var=&hash=item41b05b6b28:m:mnJBTueot03nxHkJ8sNeoPA
p294
aVhttp://www.ebay.com/itm/36-Endless-Snag-Free-Hair-Bobbles-Girls-Hair-Bands-Elastics-Hair-Accessory-New-/262569998014?var=&hash=item3d226436be:m:mmNnUM107xRG2YS5x0dE9zA
p295
aVhttp://www.ebay.com/itm/12-Pack-Coloured-Snag-Free-Endless-Hair-Elastics-Bobbles-Hair-Bands-Accessories-/262564264581?var=&hash=item3d220cba85:m:mWzAL1TJyP7yJ5CFnkZam2A
p296
aVhttp://www.ebay.com/itm/TASKA-STUMPY-SNAG-EARS-CARP-MATCH-FISHING-TACKLE-BITE-INDICATOR-ACCESSORY-2-PCS-/272329576177?epid=1524330541&hash=item3f681b8ef1:g:sYMAAOSwhOdXog03
p297
aVhttp://www.ebay.com/itm/20-Pack-LARGE-HAIR-PONIOS-Endless-Snag-Free-Kids-Girls-Ladies-Bobbles-Gift-New-/302031074852?var=&epid=1280196840&hash=item4652747624:m:m4EOxdqcpkxHhvjgvm8VklA
p298
aVhttp://www.ebay.com/itm/Girls-Hair-Accessories-For-School-Red-Elastics-Headbands-Scrunchies-Clips-Etc-/262559488061?var=&hash=item3d21c3d83d:m:m1dBVD4HkKO9TUUcU5IjE8A
p299
aVhttp://www.ebay.com/itm/Girls-Hair-Accessories-School-Burgundy-Elastics-Headbands-Scrunchies-Clips-Etc-/252485479163?var=&hash=item3ac94eaafb:m:msAeoqmFPTg1TsrZYjhUKHg
p300
aVhttp://www.ebay.com/itm/Girls-Hair-Accessories-School-Royal-Blue-Elastics-Headbands-Scrunchies-Clips-Etc-/262559324405?var=&hash=item3d21c158f5:m:mEmrDK5ct8Fk2yzpTl_vRaA
p301
aVhttp://www.ebay.com/itm/3-X-ALLOY-SNAG-BARS-EARS-BLACK-FOR-BITE-ALARMS-CARP-FISHING-TACKLE-/302019003283?hash=item4651bc4393:g:YkkAAOSwtnpXjxQ2
p302
aVhttp://www.ebay.com/itm/4-X-STAINLESS-STEEL-SNAG-EAR-BARS-FOR-BITE-ALARMS-UNIVERSAL-CARP-FISHING-TACKLE-/361645371934?epid=9002532264&hash=item5433be721e:g:820AAOSw0kNXhpnN
p303
aVhttp://www.ebay.com/itm/1-X-STAINLESS-STEEL-SNAG-EAR-BAR-FOR-BITE-ALARMS-UNIVERSAL-CARP-FISHING-TACKLE-/232011746129?hash=item3604fa4b51:g:qvAAAOSwanRXhpks
p304
aVhttp://www.ebay.com/itm/2-X-STAINLESS-STEEL-SNAG-EAR-BARS-FOR-BITE-ALARMS-UNIVERSAL-CARP-FISHING-TACKLE-/401153590499?epid=1793311107&hash=item5d669e04e3:g:pc8AAOSw0kNXhpei
p305
aVhttp://www.ebay.com/itm/3-X-STAINLESS-STEEL-SNAG-EAR-BARS-FOR-BITE-ALARMS-UNIVERSAL-CARP-FISHING-TACKLE-/401153588570?epid=21002531845&hash=item5d669dfd5a:g:qxsAAOSwGXtXhpSg
p306
aVhttp://www.ebay.com/itm/2-x-LIDSTERS-BLACK-SNAG-EAR-BARS-FOR-BITE-ALARMS-UNIVERSAL-CARP-FISHING-TACKLE-/361645362278?epid=1091907353&hash=item5433be4c66:g:CkkAAOSwL7VWp5Y4
p307
aVhttp://www.ebay.com/itm/20-Pack-LARGE-HAIR-PONIOS-Snag-Free-Endless-Kids-Girls-Ladies-Bobbles-Gift-NEW-/262522865920?var=&hash=item3d1f950900:m:m8eOUWfeJ1w6_t9p1BJtB9w
p308
aVhttp://www.ebay.com/itm/TRONIX-NON-TOXIC-DROP-SHOT-COLUMN-WEIGHTS-LRF-SEA-COARSE-FISHING-SNAG-FREE-LEADS-/182204421790?var=&hash=item2a6c3ad69e:m:m0CAB6DmCLQem5Lf-CPKQjw
p309
aVhttp://www.ebay.com/itm/8-PCS-Hijab-scarf-Hat-Abaya-scarf-Safety-Pins-Snag-free-Good-Quality-Plastic-/122041390774?var=&hash=item1c6a3bd6b6:m:mmqzhLwZX9UaMRynZ6CBMIg
p310
aVhttp://www.ebay.com/itm/8-PCS-Hijab-scarf-Hat-Abaya-scarf-Safety-Pins-Snag-free-Good-Quality-Plastic-/122041387295?var=&hash=item1c6a3bc91f:m:mmqzhLwZX9UaMRynZ6CBMIg
p311
aVhttp://www.ebay.com/itm/8-PCS-Hijab-scarf-Hat-Abaya-scarf-Safety-Pins-Snag-free-Good-Quality-Plastic-/122041383296?var=&hash=item1c6a3bb980:m:mmqzhLwZX9UaMRynZ6CBMIg
p312
aVhttp://www.ebay.com/itm/8-quality-Hijab-scarf-Hat-Abaya-scarf-Safety-Pins-Snag-free-Good-Quality-Plastic-/122041378903?var=&hash=item1c6a3ba857:m:mmqzhLwZX9UaMRynZ6CBMIg
p313
aVhttp://www.ebay.com/itm/Hemline-Snag-Repair-Needle-Hook-Tool-Pluck-Removal-Ballpoint-Needle-Tool-Kit-/351779115312?epid=1560697528&hash=item51e7ab5130:g:P1MAAOSwMNxXWTGU
p314
aVhttp://www.ebay.com/itm/Hemline-Snag-Repair-Needle-Hook-Tool-Pluck-Removal-Ballpoint-Needle-Tool-Kit-/191918211524?epid=781949954&hash=item2caf3781c4:g:XKMAAOSwnFZXWTDV
p315
aVhttp://www.ebay.com/itm/Hemline-Snag-Repair-Needle-Hook-Tool-Pluck-Removal-Ballpoint-Needle-Tool-Kit-/201620060977?epid=1111586060&hash=item2ef17dfb31:g:waUAAOSwGYVXCgi6
p316
aVhttp://www.ebay.com/itm/24pc-PASTEL-4cm-WITH-SILVER-THREAD-HAIR-BAND-ELASTICS-HAIRBAND-SNAG-FREE-ENDLESS-/131871658094?hash=item1eb429d06e:m:mLH37dUeWtef6RmWwAshpzw
p317
aVhttp://www.ebay.com/itm/Matrix-NEW-Rock-Solid-Stainless-3-Rod-Fixed-Snag-Bars-/291812163801?epid=1475088340&hash=item43f15c40d9:m:mB2Qh4H-2ct68rIZIfDEgKA
p318
aVhttp://www.ebay.com/itm/20-Quality-Thick-Endless-Snag-Free-Hair-Elastics-Bobbles-Bands-Ponios-Mix-2016-/252451014728?var=&hash=item3ac740c848:m:mpmu_idKXXf53niUGlkT5PQ
p319
aVhttp://www.ebay.com/itm/12-hair-Elastics-Black-School-Gym-Snag-free-bobble-Wholesale-endless-hair-bands-/122037195876?hash=item1c69fbd464:g:U28AAOSwdzVXvgzl
p320
aVhttp://www.ebay.com/itm/60-hair-Elastics-Black-School-Gym-Snag-free-bobble-Wholesale-endless-hair-bands-/112048672560?hash=item1a169f0f30:g:HC0AAOSwMgdXxgKF
p321
aVhttp://www.ebay.com/itm/New-Direction-Tackle-1-Wireless-carp-fishing-alarm-with-1-Purple-snag-ears-/302004566991?epid=1979933094&hash=item4650dffbcf:g:hFYAAOSwhOVXemF5
p322
aVhttp://www.ebay.com/itm/8-x-SNAG-FREE-SAFETY-LOCK-SAFETY-PINS-HIJAB-SCARF-/291808124153?var=&hash=item43f11e9cf9:m:m5kGC2Ij9JVJ9exUEbShYNw
p323
aVhttp://www.ebay.com/itm/8-SNAG-FREE-SAFETY-PINS-HIJAB-SCARF-MULTI-COLOUR-/282082624470?hash=item41ad6f43d6:g:rr8AAOSw8cNUT5YF
p324
aVhttp://www.ebay.com/itm/VELCRO-Brand-Snag-Free-Sew-On-Tape-20mm-x-3m-White-/322172026403?epid=1423179525&hash=item4b02f2fe23:g:gXMAAOSwM4xXcbqh
p325
aVhttp://www.ebay.com/itm/12-Girls-High-Quality-Thick-Endless-Snag-Free-Hair-Elastics-Bobbles-Bands-black-/152143564638?epid=525201345&hash=item236c768f5e:g:nMcAAOSwQItULZZR
p326
aVhttp://www.ebay.com/itm/50pcs-Quality-Thick-Endless-Snag-Free-Hair-Elastics-Bobbles-Bands-Ponios-Mixed-/262491503624?hash=item3d1db67c08:g:a-0AAOSw44BYCxZm
p327
aVhttp://www.ebay.com/itm/100pcs-Quality-Thick-Endless-Snag-Free-Hair-Elastics-Bobbles-Bands-Ponios-Mixed-/252432027806?hash=item3ac61f109e:g:bCYAAOSwnbZYCxVW
p328
aVhttp://www.ebay.com/itm/100pcs-Quality-Thick-Endless-Snag-Free-Hair-Elastics-Bobbles-Bands-Ponios-Black-/252432024811?hash=item3ac61f04eb:g:~VgAAOSwM4xXaAqu
p329
aVhttp://www.ebay.com/itm/50-Quality-Thick-Endless-Snag-Free-Hair-Band-Elastics-Bobbles-Bands-Ponios-Black-/252432023459?epid=1294200305&hash=item3ac61effa3:g:~VgAAOSwM4xXaAqu
p330
aVhttp://www.ebay.com/itm/SNAG-FREE-PIN-HIJAB-SAFETY-BROOCH-PINS-DIAMANTE-SNAG-FREE-HIJAB-SCARF-PIN-BROOCH-/191898730828?var=&hash=item2cae0e414c:m:mc0S62CEk7KSe_-sLI13xzQ
p331
aVhttp://www.ebay.com/itm/KORDA-STOW-SNAG-BAR-IN-BLACK-FOR-CARP-FISHING-BRAND-NEW-/282070402929?hash=item41acb4c771:g:sWkAAOSwnDZUIoQG
p332
aVhttp://www.ebay.com/itm/Round-Pearl-Snag-Free-Safety-Pin-Craft-Dressmaking-Hijab-Scarf-Tailor-Pins-Wheel-/222149676781?hash=item33b9270eed:g:Ec0AAOSwnFZXXE3M
p333
aVhttp://www.ebay.com/itm/6-x-Stones-Pearl-Hijab-Scarf-Safety-Fashion-Tailor-Sewing-Pin-Plastic-Black-Snag-/331877390746?epid=1773297003&hash=item4d456f199a:g:RLIAAOSwtJZXWYw1
p334
aVhttp://www.ebay.com/itm/Matrix-Innovations-Blackout-Range-Buzz-Bars-Banksticks-Snag-Bars-Stabiliser-/231973717388?var=&hash=item3602b6058c:m:mtSMiQBsh5r7wI76G-42Z_A
p335
aVhttp://www.ebay.com/itm/8-PCS-SNAG-FREE-PINS-HIJAB-PINS-ABABYA-PINS-SCARF-PINS-SNAG-FREE-MIX-DESIGNS-/122010098456?var=&hash=item1c685e5b18:m:mM1dFQK1uE2v1O12nV5V35Q
p336
aVhttp://www.ebay.com/itm/KORDA-STOW-SNAG-BAR-IN-SILVER-FOR-CARP-FISHING-BRAND-NEW-/391476989815?hash=item5b25d8cf77:g:sWkAAOSwnDZUIoQG
p337
aVhttp://www.ebay.com/itm/SNAG-FREE-SAFETY-PINS-HIJAB-SCARF-ASSORTED-COLOURS-8PINS-/272266852976?hash=item3f645e7a70:m:mzYx_G-AVcNhV8d5APWFAlg
p338
aVhttp://www.ebay.com/itm/New-12-Multicolor-Snag-Free-Scarf-Hijab-Safety-Hair-Dressing-Diamante-Pins-UK-/182160367716?hash=item2a699aa064:g:f~oAAOSwLnBXVHdj
p339
aVhttp://www.ebay.com/itm/SNAG-FREE-PIN-BARRETTE-HAIR-CLIPS-FRENCH-CLIP-FLORAL-PRINT-BARRETTE-FRENCH-CLIPS-/122005290901?var=&hash=item1c6814ff95:m:mqQQDhnYN38cxs_c8TfSBgw
p340
aVhttp://www.ebay.com/itm/Velcro-Snag-Free-Sew-On-Tape-Hook-Loop-20mm-x-3M-White-/371645831382?epid=1423179525&hash=item5687d158d6:g:kmMAAOSwtJZXUVBr
p341
aVhttp://www.ebay.com/itm/8-16-24-48-PCS-Hijab-scarf-Hat-Abaya-Safety-Pins-Snag-free-Good-Quality-Plastic-/122004768912?var=&hash=item1c680d0890:m:mPJ6ZAdIf4tC506vo4jCffA
p342
aVhttp://www.ebay.com/itm/3-SNAG-FREE-fun-bright-ENDLESS-HEADBAND-BANDEAUX-Hairbands-CHOICE-of-COLOURS-/231964177755?var=&hash=item360224755b:m:m_GIgVuP778M0wJxNA4cw-g
p343
aVhttp://www.ebay.com/itm/Girls-Baby-Sized-20-Small-Mini-Thin-Hair-Elastics-Bobbles-Bands-Snag-Free-/381654744316?var=&epid=1122811888&hash=item58dc653cfc:m:mGe06H1vQTG5PXIQf5uUSvg
p344
aVhttp://www.ebay.com/itm/Matrix-Innovations-Blackout-Range-Buzz-Bars-Banksticks-Snag-Bars-Stabiliser-/301969330954?var=&hash=item464ec6530a:m:mgIZbkpy1eX4B4zUB6T4SJQ
p345
aVhttp://www.ebay.com/itm/Pearl-Hijab-Scarf-Pins-Safety-Multicolor-Black-Wheel-Tailor-Sewing-Snag-Free-Lot-/191882948491?var=&hash=item2cad1d6f8b:m:mVSYOc_6Ghp1J-uFU_-0q_A
p346
aVhttp://www.ebay.com/itm/InterDesign-Classico-18-Loops-Over-Door-Scarf-Closet-Organizer-No-Snag-Storage-/152102187315?epid=1371269169&hash=item2369ff3133:g:HKIAAOSwTdJXRIrB
p347
aVhttp://www.ebay.com/itm/Hemline-Snag-Repair-Tool-/322119982769?epid=1411541478&hash=item4affd8deb1:g:cDsAAOSwBw5XRDA2
p348
aVhttp://www.ebay.com/itm/Hemline-Snag-Repair-Needle-8cm-/331863774716?epid=1111586060&hash=item4d449f55fc:g:FjIAAOSwQaJXRDAx
p349
aVhttp://www.ebay.com/itm/VELCRO-Brand-Snag-Free-Sew-On-Tape-20-mm-x-3-m-White-/162076064717?epid=1423179525&hash=item25bc7c7bcd:g:wygAAOSwmc1XPaLz
p350
aVhttp://www.ebay.com/itm/Scrunchie-Big-Bun-Hair-Tie-Hijab-Scarf-Volumising-Volumizer-scrunchy-Khaleej-/222122829989?var=&hash=item33b78d68a5:m:mt-EyItthq55UP0tQhaF6zQ
p351
aVhttp://www.ebay.com/itm/SNAG-FREE-PINS-GIRLS-TODDLER-BARRETTE-CONCORD-BEAK-CLIPS-RIBBON-HAIR-ACCESSORIES-/121990926837?var=&hash=item1c6739d1f5:m:mbA_Z2Byav1NGj_9lKOC7-g
p352
aVhttp://www.ebay.com/itm/30-40-SNAG-FREE-PINS-HIJAB-PINS-SCARF-PINS-33mm-55mm-LONG-MUSLIM-HIJAB-ABAYA-PIN-/121990886933?var=&hash=item1c67393615:m:mP9MTHOQZJw4yS69tX-AkOQ
p353
aVhttp://www.ebay.com/itm/VELCRO-Snag-Free-Anti-Snag-Sew-On-Tape-Black-Hook-Loop-20mm-x-1m-2m-5m-10m-/322112891083?var=&hash=item4aff6ca8cb:m:m4WtD4YaYj6yp5ZdpBsaA3g
p354
aVhttp://www.ebay.com/itm/SNAG-FREE-PINS-HIJAB-PINS-SCARF-PINS-BROOCH-SAFETY-PINS-MUSLIM-HIJAB-ABAYA-PINS-/121990354319?var=&hash=item1c6731158f:m:m3J59gKYBYNapJTOWWix3iw
p355
aVhttp://www.ebay.com/itm/30-Thick-Endless-Snag-Hair-Elastics-Bobbles-Bands-Ponios-Mix-Free-Shipping-/191875159188?var=&hash=item2caca69494:m:mh477ykROLZKnRp1QVOXqGQ
p356
aVhttp://www.ebay.com/itm/48-SNAG-FREE-PINS-HIJAB-PINS-SCARF-PINS-SPECIAL-OFFER-MUSLIM-HIJAB-ABAYA-PINS-/121989919152?var=&hash=item1c672a71b0:m:mgkGk6YeVfn6kJ4562VJqKg
p357
aVhttp://www.ebay.com/itm/48-SNAG-FREE-PINS-HIJAB-PINS-SCARF-PINS-SPECIAL-OFFER-MUSLIM-HIJAB-ABAYA-PINS-/121989905170?var=&hash=item1c672a3b12:m:mfXlp2j4dhcJNHc9UxhEDmQ
p358
aVhttp://www.ebay.com/itm/48-SNAG-FREE-PINS-HIJAB-PINS-SCARF-PINS-SPECIAL-OFFER-MUSLIM-HIJAB-ABAYA-PINS-/121989888281?var=&hash=item1c6729f919:m:mVhoexP8yxqQ-fqxk6f_tXQ
p359
aVhttp://www.ebay.com/itm/HAIR-SCRUNCHIES-ELASTIC-SNAG-FREE-FLORAL-PRINTS-HAIR-SCRUNCHIE-FOR-GIRLS-HAIR-/121987624555?var=&hash=item1c67076e6b:m:m2rbtmwLsyj8-GmQsVaDn3w
p360
aVhttp://www.ebay.com/itm/HAIR-SCRUNCHIES-ELASTIC-SNAG-FREE-SATIN-BOBBLES-HAIR-SCRUNCHIE-FOR-GIRLS-HAIR-/121986782012?var=&hash=item1c66fa933c:m:m-6AdKQ_puJumJP6Ig3W9qg
p361
aVhttp://www.ebay.com/itm/SNAG-FREE-PINS-SAFETY-PINS-HIJAB-SCARF-ABAYA-PINS-IN-BLACK-WHITE-UK-SELLER-P-P-/121986774957?var=&hash=item1c66fa77ad:m:mSlpfG_IsIzMDGbKbw_LR8w
p362
aVhttp://www.ebay.com/itm/SNAG-FREE-PINS-GIRLS-TODDLER-BARRETTE-CONCORD-BEAK-CLIPS-RIBBON-HAIR-ACCESSORIES-/121985860829?var=&hash=item1c66ec84dd:m:mrCtyt4iupAz7Y9wXtPVdsQ
p363
aVhttp://www.ebay.com/itm/SNAG-FREE-PINS-GIRLS-TODDLER-BARRETTE-CONCORD-BEAK-CLIPS-RIBBON-HAIR-ACCESSORIES-/121985855599?var=&hash=item1c66ec706f:m:mJp1phoCzLh2Ry_f3v4aZjQ
p364
aVhttp://www.ebay.com/itm/SNAG-FREE-VELVET-HAIR-SCRUNCY-BOBBLES-ELASTIC-POLKA-DOT-PACK-OF-2-HAIR-SCRUNCHY-/121985787749?var=&hash=item1c66eb6765:m:mdaDXT1AOqmxqzpO2QS-DRw
p365
aVhttp://www.ebay.com/itm/Hair-Elastics-Endless-Snag-Free-Girls-Ponios-Bubbles-Bands-Thick-Big-60-MM-Women-/282035993201?var=&hash=item41aaa7ba71:m:mDEBnYGOqwDjQ94-8ELiQlA
p366
aVhttp://www.ebay.com/itm/Korda-Arma-Kord-30lb-Braided-Leader-Sub-Brown-Shock-Spod-Snag-Leader-Material-/282035845288?var=&epid=1923618221&hash=item41aaa578a8:m:mUfjrKRUKSB1Q7Eq8BUAuzw
p367
aVhttp://www.ebay.com/itm/2000-PACK-Snag-Free-Rubber-Hair-Bands-Elastic-Bobbles-Loom-Bead-Ponios-Ponytail-/252387174204?epid=1969263537&hash=item3ac372a73c:g:ELIAAOSwagdXRkPu
p368
aVhttp://www.ebay.com/itm/SNAG-FREE-PIN-GOOD-QUALTITY-ADJUSTABLE-LADIES-RINGS-CRYSTAL-RHINESTONE-COLOURS-/121982854012?var=&hash=item1c66bea37c:m:m_4GbdjxyWZ02vVE4M4isCA
p369
aVhttp://www.ebay.com/itm/SNAG-FREE-PIN-GOOD-QUALTITY-ADJUSTABLE-LADIES-RINGS-CRYSTAL-RHINESTONE-COLOURS-/121982847436?var=&hash=item1c66be89cc:m:mbNlEm7PR2qXAsARpAkHgQA
p370
aVhttp://www.ebay.com/itm/Fox-NEW-Carp-Fishing-Edges-Armadillo-Braided-Snag-Shock-Leader-All-Types-/282033679118?var=&epid=1617280912&hash=item41aa846b0e:m:mA-CzRxbZrc-QqZi-ju5knw
p371
aVhttp://www.ebay.com/itm/Brand-New-Fox-Snag-Leader-Line-All-Colours-Breaking-Strains-CML062-CML067-/282033438559?var=&hash=item41aa80bf5f:m:mLAG7HecppASSfGZGJ14CsA
p372
aVhttp://www.ebay.com/itm/2000-x-Snag-Free-Rubber-Hair-Bands-Bobbles-Loom-Bead-Ponios-Ponytail-TWIN-PACK-/282033165134?epid=1468766419&hash=item41aa7c934e:g:DBkAAOSwFdtX0Bwo
p373
aVhttp://www.ebay.com/itm/24-Pcs-Womens-Girls-Ponios-Bobbles-metal-free-Hair-Snag-Bands-Elastics-Medium-/172198446221?hash=item2817d3c48d:g:hGEAAOSw3mpXL0Ik
p374
aVhttp://www.ebay.com/itm/6pcs-Big-Ponios-Bobbles-metal-free-Hair-Snag-Bands-Elastics-stretchy-Large-/172198240668?hash=item2817d0a19c:g:vdcAAOSwQNRXLvbz
p375
aVhttp://www.ebay.com/itm/neutral-nude-hair-elastics-endless-snag-free-pony-tail-bands-ladies-girls-5936-/291758135472?epid=1389220968&hash=item43ee23d8b0:g:oVsAAOSwYmZXLjTt
p376
aVhttp://www.ebay.com/itm/24-SNAG-FREE-PIN-HIJAB-SCARF-PINS-DIAMANTE-SCARF-SAFETY-PINS-GOOD-QUALITY-PINS-/121976887277?var=&hash=item1c666397ed:m:mi0zTS5qBQhOw4R5bSKpOhw
p377
aVhttp://www.ebay.com/itm/SNAG-FREE-PIN-HIJAB-SCARF-PINS-DIAMANTE-SCARF-SAFETY-PINS-24-PCS-GOOD-QUALITY-/121976877145?var=&hash=item1c66637059:m:mOXpAmozZch9c0PAC7TkYhw
p378
aVhttp://www.ebay.com/itm/SNAG-FREE-PIN-HIJAB-SAFETY-BROOCH-PINS-DIAMANTE-SNAG-FREE-HIJAB-SCARF-PINS-SNAG-/121976864168?var=&hash=item1c66633da8:m:m1YWnAbWegZoyfFSer-JFjA
p379
aVhttp://www.ebay.com/itm/16-PCS-Hijab-scarf-Hat-Abaya-Safety-Pins-Snag-free-Good-Quality-Plastic-pins-/121973902161?var=&hash=item1c66360b51:m:m4uMhAug29jVmxruW6l6iZg
p380
aVhttp://www.ebay.com/itm/SNAG-FREE-PIN-HIJAB-SAFETY-BROOCH-PINS-DIAMANTE-SNAG-FREE-HIJAB-SCARF-PIN-BROOCH-/121972819228?var=&hash=item1c6625851c:m:mOWuYRH93BgfazJUWVb-ZqQ
p381
aVhttp://www.ebay.com/itm/SNAG-FREE-SAFETY-PINS-HIJAB-SCARF-PINS-SET-OF-4-/131797777190?var=&hash=item1eafc27b26:m:mq8wzhd4G_x9kMbDggh4bsw
p382
aVhttp://www.ebay.com/itm/Round-Pearl-Snag-Free-Safety-Pin-Craft-Dressmaking-Hijab-Scarf-Tailor-Pins-Wheel-/162054340679?var=&hash=item25bb310047:m:mgHYqkBm6gPXwJYf8KRP5lQ
p383
aVhttp://www.ebay.com/itm/Maver-hook-shields-for-snag-free-lure-bait-sea-rock-fishing-8mm-sz-4-/201571683242?epid=701688583&hash=item2eee9bcbaa:g:xoAAAOSwdGxXI17w
p384
aVhttp://www.ebay.com/itm/Delkim-Safe-D-Carbon-Snag-Bars-Ears-Bite-Alarm-Accessories-Fishing-/282020261859?hash=item41a9b7afe3:g:I1MAAOSwyQtViss5
p385
aVhttp://www.ebay.com/itm/SNAG-FRFE-PINS-HIJAB-SCARF-SILVER-SAFETY-PINS-GOOD-QUALITY-SNAG-FREE-SAFETY-PIN-/121969747278?var=&hash=item1c65f6a54e:m:mn1Zhil7SEn6hWZ_YqjtqEw
p386
aVhttp://www.ebay.com/itm/6-Soft-Endless-Hair-Elastics-Bobbles-Snag-Free-Ponytail-Holder-Hair-Bands-/322087568108?var=&hash=item4afdea42ec:m:mU3NCj7U2svawBp3qy9ek9w
p387
aVhttp://www.ebay.com/itm/SNAG-FREE-PIN-HIJAB-SAFETY-BROOCH-PINS-DIAMANTE-SNAG-FREE-HIJAB-SCARF-PINS-SNAG-/121963999298?var=&hash=item1c659ef042:m:mv7WZZNLHRnqITqMLLVZysA
p388
aVhttp://www.ebay.com/itm/SNAG-FREE-PIN-HIJAB-SAFETY-BROOCH-PINS-DIAMANTE-SNAG-FREE-HIJAB-SCARF-PINS-SNAG-/121963992291?var=&hash=item1c659ed4e3:m:m7t2mkNXA0t3BqKVakAOObA
p389
aVhttp://www.ebay.com/itm/3-PCS-OF-VELVET-HAIR-SCRUNCHIES-ELASTIC-SCRUNCHY-SNAG-FREE-GOOD-HAIR-SCRUNCHIE-/121963928459?var=&hash=item1c659ddb8b:m:m5s6Ea_PYZQ9mMWtW167BDw
p390
aVhttp://www.ebay.com/itm/SNAG-FRFE-PINS-SHAMBALA-BEADS-HIJAB-SCARF-LOCK-SAFETY-PINS-GOOD-QUALITY-SNAG-PIN-/121963919680?var=&hash=item1c659db940:m:mjamZRFzSyXQ7pcJAXCQwBQ
p391
aVhttp://www.ebay.com/itm/SNAG-FREE-GOLDEN-PROM-FLOWER-CLEAR-DIAMANTE-CRYSTAL-BROOCH-WEDDING-BROOCH-/121963069253?var=&hash=item1c6590bf45:m:mYCmCjXwpxDXzq9rggIzjmg
p392
aVhttp://www.ebay.com/itm/fox-fixed-buzz-bars-or-snag-ears-/172174352565?var=&epid=1709980343&hash=item28166420b5:m:mLF5Lss5WLiL8vLfo5aaOoQ
p393
aVhttp://www.ebay.com/itm/VOLUMISING-VELVET-SCRUNCHIE-PLIAN-BIG-HAIR-TIE-BUN-CLIP-HIJAB-SNAG-FREE-BUN-CLIP-/121952101281?var=&hash=item1c64e963a1:m:mZdWTtw8gQ42Z6fKBW3EExg
p394
aVhttp://www.ebay.com/itm/SNAG-FREE-PINS-HAIR-GRIP-SLIDER-DIAMANTE-HAIR-PINS-PAIR-ACCESSORIES-BOBBY-PINS-/121950819469?var=&hash=item1c64d5d48d:m:mS-MyZL2fSnJY85knAGYKqg
p395
aVhttp://www.ebay.com/itm/SNAG-FREE-PINS-HAIR-GRIP-SLIDER-DIAMANTE-HAIR-PINS-PAIR-ACCESSORIES-BOBBY-PINS-/121950807753?var=&hash=item1c64d5a6c9:m:mO4vImic5P-Z7ew_MSrVP8g
p396
aVhttp://www.ebay.com/itm/SNAG-FREE-PINS-HAIR-GRIP-SLIDER-DIAMANTE-HAIR-PINS-HAIR-ACCESSORIES-BOBBY-PINS-/121950787890?var=&hash=item1c64d55932:m:m3pWe-FmjSGWW10sQzBfuvw
p397
aVhttp://www.ebay.com/itm/New-Hijab-scarf-Hat-Abaya-Safety-Pins-Snag-free-Good-Quality-Plastic-Brooch-/121949734019?var=&hash=item1c64c54483:m:mfDuHcKItFscU0MHtGfRkpA
p398
aVhttp://www.ebay.com/itm/SNAG-FREE-PINS-SEWING-NEEDLES-PACK-OF-60-FOR-SEWING-EMBROIDER-GOOD-QUALITY-/121948130050?var=&hash=item1c64accb02:m:mZmkIJI0YjaZmS21rqR0eAg
p399
aVhttp://www.ebay.com/itm/Ultima-VULCANITE-Ultra-Tough-Snag-Leader-100m-Clear-All-B-S-/361528045638?var=&hash=item542cc03046:m:mJMfGf1dhJkg-QFGeCJAy0A
p400
aVhttp://www.ebay.com/itm/SNAG-FREE-PIN-NEW-HEAD-MATHA-PATTI-JEWELLERY-CHAIN-GOLD-INDIAN-TIKKA-HEAD-TIKKA-/121946782113?var=&hash=item1c649839a1:m:mu-lxuOoIxiuu4kIZdIy9Fw
p401
aVhttp://www.ebay.com/itm/Hijab-scarf-Safety-Pins-Snag-Free-Oval-shape-with-Diamond-stones-4-6-12-24-pack-/191840781687?var=&hash=item2caa9a0577:m:mzhWat0X1rWXSDTrn6bggwg
p402
aVhttp://www.ebay.com/itm/Hair-Elastics-Black-Snag-Free-Non-Metal-Elastic-Ponytail-Hair-Bands-UK-SELLER-/162026465615?var=&hash=item25b987a94f:m:m6dzxiR2clCRKcPS8cveIlg
p403
aVhttp://www.ebay.com/itm/SNAG-FREE-HAIR-BOBBLES-ELASTIC-HAIR-BANDS-GIRLS-LADIES-HAIR-ACCESSORY-HAIR-GIRP-/121941816746?var=&hash=item1c644c75aa:m:mnbGCLMabQv61u9xyzeT1AA
p404
aVhttp://www.ebay.com/itm/48-x-Multi-Coloured-Endless-Hair-Elastics-Bobbles-Ponios-Snag-Free-668-/111954108637?hash=item1a10fc20dd:g:JW8AAOSwxp9W~WVg
p405
aVhttp://www.ebay.com/itm/8-16-24-PCS-Hijab-scarf-Hat-Abaya-Safety-Pins-Snag-free-BLACK-WHITE-Plastic-/121939479297?var=&hash=item1c6428cb01:m:mlI4PQhGL1LUFs24Cb0Kpow
p406
aVhttp://www.ebay.com/itm/8-PCS-Hijab-scarf-Hat-Abaya-scarf-Safety-Pins-Snag-free-Good-Quality-Plastic-/121938806574?var=&hash=item1c641e872e:m:mmqzhLwZX9UaMRynZ6CBMIg
p407
aVhttp://www.ebay.com/itm/Round-Pearl-Snag-Free-Hijab-Pin-Craft-Dressmaking-Hijab-Scarf-Tailor-12x-Wheels-/231892901056?var=&hash=item35fde4dcc0:m:m7-qC1ThV6aXgCJSwuYc2Sg
p408
aVhttp://www.ebay.com/itm/SNAG-FREE-PIN-HIJAB-SAFETY-BROOCH-PINS-DIAMANTE-SNAG-FREE-HIJAB-SCARF-PIN-BROOCH-/121937575701?var=&hash=item1c640bbf15:m:ms_bz3_a8yNswyLH4hmi1oA
p409
aVhttp://www.ebay.com/itm/SNAG-FREE-PIN-HIJAB-SAFETY-BROOCH-PINS-DIAMANTE-SNAG-FREE-HIJAB-SCARF-PIN-BROOCH-/121937570004?var=&hash=item1c640ba8d4:m:mbR5d_NzVaKScGZdzGQsYxg
p410
aVhttp://www.ebay.com/itm/SNAG-FREE-PIN-BROOCH-LADIES-FANCY-SILVER-RHINESTONE-WEDDING-PARTY-COSTUME-BROOCH-/121935937590?var=&hash=item1c63f2c036:m:m7a4L9yeqTMgRPiiD3VW9PQ
p411
aVhttp://www.ebay.com/itm/Saber-S4-Wireless-3-1-Bite-Alarm-Set-Carp-Coarse-Fishing-Set-Snag-Bars-/231886165731?hash=item35fd7e16e3:g:JHwAAOSwpIdW8SE3
p412
aVhttp://www.ebay.com/itm/Pearl-Hijab-Scarf-Pins-Safety-Pin-Multicolor-Black-Wheel-Tailor-Sewing-Snag-Free-/281974684515?var=&hash=item41a7003b63:m:miBqtbL3L0MEMO2vy-57jSw
p413
aVhttp://www.ebay.com/itm/MATRIX-3D-UP-AND-OVER-SNAG-FREE-PADDED-POLE-REST-CARP-FISHING-POLE-ROD-ACCESSORY-/272177694224?epid=1650472119&hash=item3f5f0e0610:g:FFMAAOSws4JW7UXV
p414
aVhttp://www.ebay.com/itm/MATRIX-3D-EVA-ROD-BUTT-REST-CARP-FISHING-ACCESSORY-FOAM-PADDED-SNAG-FREE-/281972148529?epid=1649550735&hash=item41a6d98931:g:lmIAAOSwyjBW7UXG
p415
aVhttp://www.ebay.com/itm/FOX-BLACK-LABEL-SNAG-EARS-5-INCH-FISHING-RUBBER-OVERMOLD-CARP-PIKE-BITE-ALARM-/272177684798?epid=1023230421&hash=item3f5f0de13e:g:g5oAAOSwAuNW7UOv
p416
aVhttp://www.ebay.com/itm/Fox-NEW-Black-Label-Snag-Ears-Lightweight-Aluminium-Carp-Fishing-/131756073619?epid=1709980343&hash=item1ead462293:g:mTwAAOSwu1VW7D~I
p417
aVhttp://www.ebay.com/itm/The-Bright-Side-One-Tiny-Snag-Emergency-Tights-Pouch-Handbag-Tight-Holder-Bag-/322043168844?epid=1061646328&hash=item4afb44c84c:g:YnIAAOSwh-1W6sNL
p418
aVhttp://www.ebay.com/itm/FOX-BLACK-LABEL-EDITION-ANODIZED-ALUMINIUM-SNAG-EARS-FISHING-ACCESSORY-/172130080845?epid=1709980343&hash=item2813c0984d:g:G~wAAOSwmmxW4r7K
p419
aVhttp://www.ebay.com/itm/20-Quality-Thick-Endless-Snag-Free-Hair-Elastics-Bobbles-Bands-Ponios-Mix-/272163678488?var=&hash=item3f5e382918:m:mn22yO79GFoX8fG0iPgIX_g
p420
aVhttp://www.ebay.com/itm/Paintball-Remote-Air-Line-Hose-Cover-British-DPM-No-more-snagging-AJ3-/391402679322?hash=item5b216aec1a:g:K8oAAOSw9GhYjLUA
p421
aVhttp://www.ebay.com/itm/Paintball-Remote-Air-Line-Hose-Cover-Digital-No-more-snagging-AJ2-/391402679328?hash=item5b216aec20:g:u7gAAOSwuMFUdx5Z
p422
aVhttp://www.ebay.com/itm/Wide-Endless-Elastic-Hair-Bands-Baby-Girls-Ponytail-Stretchy-Bobbles-Snag-free-/201537573050?var=&hash=item2eec9350ba:m:m9U6F1YUXXaZj8npDMjxgAA
p423
aVhttp://www.ebay.com/itm/SNAG-FREE-PIN-WHEELS-HIJAB-SCARF-ABAYA-PINS-PEARL-HEADED-PIN-4-8-12-GOOD-QUALITY-/121917270598?var=&hash=item1c62d5ea46:m:mTLaqza5Nb2AACXJkKWp1dw
p424
aVhttp://www.ebay.com/itm/8-16-PCS-Hijab-scarf-Hat-Abaya-Safety-Pins-Snag-free-Good-Quality-Plastic-/121917237888?var=&hash=item1c62d56a80:m:mWwOzjcUPmifvfNOixGEbBw
p425
aVhttp://www.ebay.com/itm/Snazaroo-Glitter-Gel-12ml-Glitter-Dust-Fancy-Dress-Halloween-Face-Paint-Makeup-/111927770622?var=&hash=item1a0f6a3dfe:m:mrPGhrXoe524jNDzc4xl5sQ
p426
aVhttp://www.ebay.com/itm/New-two-Rod-set-up-Buzz-Bars-Bank-sticks-snag-ears-S-S-/182044856384?hash=item2a62b81040:g:wtAAAOSwyjBW2waB
p427
aVhttp://www.ebay.com/itm/New-2-Rod-set-up-Buzz-Bars-Bank-sticks-snag-ears-/182044855783?hash=item2a62b80de7:g:wtAAAOSwyjBW2waB
p428
aVhttp://www.ebay.com/itm/S-S-2-Rod-set-up-Buzz-Bars-Bank-sticks-snag-ears-/182044854848?hash=item2a62b80a40:g:wtAAAOSwyjBW2waB
p429
aVhttp://www.ebay.com/itm/New-Stainless-set-up-2-buzz-bars-2-bank-sticks-3-snag-ears-/172123522604?hash=item28135c862c:g:sggAAOSwu1VW2wPA
p430
aVhttp://www.ebay.com/itm/Stainless-set-up-2-buzz-bars-2-bank-sticks-3-snag-ears-/172123522164?hash=item28135c8474:g:sggAAOSwu1VW2wPA
p431
aVhttp://www.ebay.com/itm/Quality-snag-ears-Stainless-Steel-14-5-cm-bar-length-Solid-X-1-/172122252456?hash=item28134924a8:g:8hgAAOSwKtlWjoVv
p432
aVhttp://www.ebay.com/itm/Quality-snag-ears-s-s-14-5-cm-bar-length-Solid-X-1-/182043764427?hash=item2a62a766cb:g:8hgAAOSwKtlWjoVv
p433
aVhttp://www.ebay.com/itm/New-snag-ears-s-s-14-5-cm-bar-length-Solid-X-1-/172122242883?hash=item281348ff43:g:8hgAAOSwKtlWjoVv
p434
aVhttp://www.ebay.com/itm/SOPHIE-500-Black-Thick-Snag-Free-Endless-Band-Hair-Elastics-Bobbles-Hair-Bands-/272155483112?epid=1356409851&hash=item3f5dbb1be8:g:sCsAAOSw9IpX0BtQ
p435
aVhttp://www.ebay.com/itm/New-snag-ears-s-s-14-5-cm-bar-length-Solid-X-1-/172122242883?hash=item281348ff43:g:8hgAAOSwKtlWjoVv
p436
aVhttp://www.ebay.com/itm/SOPHIE-500-Black-Thick-Snag-Free-Endless-Band-Hair-Elastics-Bobbles-Hair-Bands-/272155483112?epid=1356409851&hash=item3f5dbb1be8:g:sCsAAOSw9IpX0BtQ
p437
aVhttp://www.ebay.com/itm/SOPHIE-200-Black-Thick-Snag-Free-Endless-Band-Hair-Elastics-Bobbles-Hair-Bands-/281953258639?epid=0&hash=item41a5b94c8f:g:~RQAAOSwgmJX0Bvt
p438
aVhttp://www.ebay.com/itm/SOPHIE-100-Black-Thick-Snag-Free-Endless-Band-Hair-Elastics-Bobbles-Hair-Bands-/281953256442?epid=0&hash=item41a5b943fa:g:oWUAAOSwxg5X0BvC
p439
aVhttp://www.ebay.com/itm/3-PCS-OF-VELVET-HAIR-SCRUNCHIES-ELASTIC-SNAG-FREE-HAIR-BOBBLES-HAIR-SCRUNCHIE-/121912006587?var=&hash=item1c628597bb:m:mDKDTWVHfWOok-hfECt70AQ
p440
aVhttp://www.ebay.com/itm/Scrunchie-Big-Hair-Tie-Hijab-Volumising-Bun-Volumizer-scrunchy-Khaleej-Snag-Pins-/322021340137?var=&hash=item4af9f7b3e9:m:muJmQylIosHJ0reHYrHMUWg
p441
aVhttp://www.ebay.com/itm/20x-New-Quality-Colored-THICK-Endless-Hair-Elastics-Bobbles-Bands-Snag-Free-/331788146766?var=&hash=item4d401d584e:m:muGCtsJEyjfyJzCSwTXpvCw
p442
aVhttp://www.ebay.com/itm/20-Small-Baby-Size-Mini-Hair-Elastics-Bobbles-Bands-Snag-Free-Various-Colours-/121899682553?var=&epid=1942918614&hash=item1c61c98af9:m:mFIHTKudovepJqmbe3yr-YA
p443
aVhttp://www.ebay.com/itm/12-x-Childrens-Small-Hair-Ponios-Elastics-Snag-Free-Endless-Various-Colours-/111909036030?var=&hash=item1a0e4c5ffe:m:mPOuI5N2JVWCx7kBP_QjvfQ
p444
aVhttp://www.ebay.com/itm/Pack-of-12-Mini-Baby-Hair-Ponios-Elastics-Snag-Free-Endless-Various-Colours-/111908991737?var=&hash=item1a0e4bb2f9:m:mPOuI5N2JVWCx7kBP_QjvfQ
p445
aVhttp://www.ebay.com/itm/12-Soft-Endless-Fabric-Hair-Elastics-Ponios-Bands-Snag-Free-Various-Colours-/111908784121?var=&epid=1012684825&hash=item1a0e4887f9:m:mLfsQPNxVpHdlyZPClrtwlQ
p446
aVhttp://www.ebay.com/itm/Pack-of-10-Snag-Free-Endless-Hair-Elastics-Bobbles-Bands-Various-Colours-/111907908819?var=&hash=item1a0e3b2cd3:m:mwQ-vGUQYux6ATYWZFANIYw
p447
aVhttp://www.ebay.com/itm/10-PIECE-THICK-ENDLESS-SNAG-FREE-PONY-TAIL-ELASTIC-BOBBLES-PONIO-HAIR-BANDS-SET-/231847330364?var=&hash=item35fb2d823c:m:mFPccMlfm-E7MCRkkzMTS4A
p448
aVhttp://www.ebay.com/itm/Set-of-12-Soft-Endless-Snag-Free-Ponios-Hair-Elastics-Bobbles-Bands-Donuts-/322003348652?var=&epid=1139124710&hash=item4af8e52cac:m:mZFhu4NYIFWRMqCEmvRRWSA
p449
aVhttp://www.ebay.com/itm/Fantastic-Snag-Free-Hair-Endless-Ponytail-Bobble-Hair-Bands-Toweling-Type-/351648795286?var=&hash=item51dfe6ca96:m:mQ7xCMlHQTAVzTyXqfMpLJg
p450
aVhttp://www.ebay.com/itm/2-of-Each-Buzz-Bars-Snag-Ears-in-Black-/172092888885?hash=item2811891735:g:k-IAAOSwUuFWt1Kj
p451
aVhttp://www.ebay.com/itm/Buzz-Bars-Snag-Ears-in-Black-/182016116754?hash=item2a61018812:g:k-IAAOSwUuFWt1Kj
p452
aVhttp://www.ebay.com/itm/Buzz-Bars-Snag-Ears-/172092879212?hash=item281188f16c:g:k-IAAOSwUuFWt1Kj
p453
aVhttp://www.ebay.com/itm/4-x-Snag-Free-Elastic-Head-Bands-Hairbands-Ladies-Girls-School-Gym-Sports-Hair-/252274870051?var=&epid=1556474860&hash=item3abcc10723:m:mUJbWh6K1pr805JZDEKlqQg
p454
aVhttp://www.ebay.com/itm/Fox-Black-Label-Snag-Ears-Swinger-Plate-Fishing-CBB016-/252274800792?hash=item3abcbff898:g:ZW4AAOSwKtlWsKad
p455
aVhttp://www.ebay.com/itm/Fox-Black-Label-Snag-Ears-and-Swinger-Plate-Standard-and-X-Large-/262272518322?var=&hash=item3d10a908b2:m:mAxn2dklgeKzHajLkv10-lg
p456
aVhttp://www.ebay.com/itm/3-x-Black-Snag-Bars-Lightweight-For-Bite-Alarms-Carp-Fishing-Snag-Ears-/381532376739?hash=item58d51a0ea3:g:TWUAAOSwX~dWqfbY
p457
aVhttp://www.ebay.com/itm/2-x-Black-Snag-Bars-Lightweight-For-Bite-Alarms-Carp-Fishing-Snag-Ears-/331764771082?hash=item4d3eb8a90a:g:9nIAAOSwvUlWqfVp
p458
aVhttp://www.ebay.com/itm/1-x-LIDSTERS-BLACK-SNAG-EAR-BAR-FOR-BITE-ALARMS-UNIVERSAL-CARP-FISHING-TACKLE-/231826716096?epid=1388981038&hash=item35f9f2f5c0:g:h0IAAOSwCypWp5tx
p459
aVhttp://www.ebay.com/itm/4-x-BLACK-SNAG-EAR-BARS-FOR-BITE-ALARMS-UNIVERSAL-CARP-FISHING-TACKLE-LIDSTERS-4-/401061672974?epid=1689098805&hash=item5d6123780e:g:WokAAOSwpRRWp5qF
p460
aVhttp://www.ebay.com/itm/3-x-LIDSTERS-BLACK-SNAG-EAR-BARS-FOR-BITE-ALARMS-UNIVERSAL-CARP-FISHING-TACKLE-3-/361477201389?epid=1289041164&hash=item5429b85ded:g:uRsAAOSwa-dWp5fE
p461
aVhttp://www.ebay.com/itm/Korda-Armakord-XT-85lb-Braided-Extreme-Snag-Leader-20m-/231824814379?epid=1988525302&hash=item35f9d5f12b:g:~3kAAOSwGotWpTvf
p462
aVhttp://www.ebay.com/itm/3-SPORTS-HAIR-BANDS-HEAD-BANDS-HEADBAND-THICK-ELASTIC-10mm-SPORT-NEW-/121874403299?var=&hash=item1c6047cfe3:m:mQUuVoo1tpf9uSoPWlMnfXA
p463
aVhttp://www.ebay.com/itm/Small-Thin-Thick-Snag-Free-Hair-Elastics-Bobbles-Bands-Pick-your-bundle-/371538533184?var=&hash=item56816c1b40:m:mz2wnqqkMimJp-8x7RfokkA
p464
aVhttp://www.ebay.com/itm/Soft-Hair-Bobble-Girls-Ponytail-Hair-Elastics-Snag-Free-Thick-Hair-Ponio-Bands-/161955124659?var=&hash=item25b54715b3:m:mesXNL03jtD69Nd7Xl42_VQ
p465
aVhttp://www.ebay.com/itm/Korda-Arma-Kord-Braided-Shock-Spod-Snag-Leader-20m-Spool-All-Strains-/111878716767?var=&epid=1923618221&hash=item1a0c7dbd5f:m:ma4BfmCDUKCfNyVQReJR4NQ
p466
aVhttp://www.ebay.com/itm/30-Quality-Thick-Endless-Snag-Hair-Elastics-Bobbles-Bands-Ponios-Mix-/161950579617?var=&hash=item25b501bba1:m:mm_Gjcyd4IG7haQZLws7Kww
p467
aVhttp://www.ebay.com/itm/ENTERPRISE-TACKLE-SNAG-SAFE-LINK-CLIPS-LARGE-5pcs-FOR-CARP-FISHING-/281909348481?epid=740590482&hash=item41a31b4881:g:ergAAOSwa-dWl-Fb
p468
aVhttp://www.ebay.com/itm/ENTERPRISE-TACKLE-SNAG-SAFE-LINK-CLIPS-SMALL-5pcs-FOR-CARP-FISHING-/281909347690?epid=738982586&hash=item41a31b456a:g:ergAAOSwa-dWl-Fb
p469
aVhttp://www.ebay.com/itm/SOPHIE-Set-of-50-Black-Thick-Snag-Free-Endless-Hair-Elastics-Bobbles-Hair-Bands-/281901777425?epid=1356409851&hash=item41a2a7c211:g:aQoAAOSwMgdX0Brp
p470
aVhttp://www.ebay.com/itm/Needle-Pony-Magic-Anti-Snag-Needle-P22601-/291639436269?epid=1211584124&hash=item43e710a3ed:g:LCEAAOSwZVhWRHOu
p471
aVhttp://www.ebay.com/itm/ENTERPRISE-TACKLE-SNAG-SAFE-LEAD-CLIPS-LARGE-5pcs-FOR-CARP-FISHING-/381492732912?epid=1887895074&hash=item58d2bd23f0:g:~tUAAOSwSdZWb~D2
p472
aVhttp://www.ebay.com/itm/ENTERPRISE-TACKLE-SNAG-SAFE-LEAD-CLIPS-SMALL-5pcs-FOR-CARP-FISHING-/381492732455?hash=item58d2bd2227:g:~tUAAOSwSdZWb~D2
p473
aVhttp://www.ebay.com/itm/Round-Pearl-Snag-Free-Hijab-Pin-Craft-Dressmaking-Hijab-Scarf-Tailor-Pins-Wheel-/231783100112?var=&hash=item35f7596ed0:m:m7-qC1ThV6aXgCJSwuYc2Sg
p474
aVhttp://www.ebay.com/itm/Oval-Pearl-Snag-Free-Hijab-Pin-Craft-Dressmaking-Hijab-Scarf-Tailor-Pins-Wheel-/331732118577?var=&hash=item4d3cc66c31:m:mwgOOwcM-KOUjK9TfwcBPWA
p475
aVhttp://www.ebay.com/itm/Scrunchie-Big-Hair-Tie-Hijab-Volumising-Bun-Bobble-Volumizer-scrunchy-Khaleej-/321946120001?var=&hash=item4af57bef41:m:my2t7e97CPdgmnoBU15IwOg
p476
aVhttp://www.ebay.com/itm/Pony-Anti-Snag-Repair-Needle-each-P22601-/381484306257?epid=1350814629&hash=item58d23c8f51:g:u20AAOSwux5YUeX-
p477
aVhttp://www.ebay.com/itm/Hemline-Snag-Repair-Tool-H248-/371501842298?hash=item567f3c3f7a:g:nQQAAOSw44BYUWNo
p478
aVhttp://www.ebay.com/itm/Hemline-Snag-Repair-Needle-H247-/371501842250?hash=item567f3c3f4a:g:hj0AAOSwA3dYUWNn
p479
aVhttp://www.ebay.com/itm/Prym-Snag-Wizard-Extra-Fine-each-611836-/381484253084?epid=1050803945&hash=item58d23bbf9c:g:DcgAAOSwOtdYUSF8
p480
aVhttp://www.ebay.com/itm/Snag-Free-Thin-Elastic-Hair-Bands-Black-Bobbles-Band-School-Ponytail-Elastics-UK-/262170922837?var=&epid=1893521196&hash=item3d0a9acf55:m:myqoIzehty8licSX5-vn_NQ
p481
aVhttp://www.ebay.com/itm/2-x-Snag-Free-Elastic-Head-Bands-Hairbands-Ladies-Girls-School-Sports-Gym-Hair-/252194273399?var=&epid=1156819405&hash=item3ab7f33877:m:mXgTYjsPmE_ds90fe05MeUg
p482
aVhttp://www.ebay.com/itm/12pc-Hair-Elastic-Bands-Bobbles-Thick-Snag-free-endless-PONIOS-PONYTAIL-SCHOOL-/321931837005?var=&epid=1842999248&hash=item4af4a1fe4d:m:myLwuBZPbMvLcolSE-UBzKQ
p483
aVhttp://www.ebay.com/itm/Stand-up-jig-heads-for-soft-plastics-5g-and-7g-great-for-snag-free-bottom-fish-/262158312290?var=&hash=item3d09da6362:m:mDtldIqlXaqojJAN9DoFM8g
p484
aVhttp://www.ebay.com/itm/Matrix-Innovations-NEW-Deluxe-Snag-Arm-/381474858548?epid=1648640864&hash=item58d1ac6634:g:i78AAOSwv-NWU2Hy
p485
aVhttp://www.ebay.com/itm/Brand-New-Nash-Tackle-Siren-S5-Alarm-All-Colours-Available-/291623059042?var=&hash=item43e616be62:m:mN12fZnvHKMRZvtEdjlc5Dg
p486
aVhttp://www.ebay.com/itm/Gardner-ATTs-Snag-Back-Kit-Accessories-Fishing-/252168124626?var=&hash=item3ab66438d2:m:mp-D1v310dlnhHzcWvHpfUg
p487
aVhttp://www.ebay.com/itm/KORDA-SNAG-LINE-0-55mm-60lb-NYLON-100mtrs-FOR-CARP-FISHING-BRAND-NEW-/381457559193?epid=1249448550&hash=item58d0a46e99:g:QUQAAOSw14xWOfvg
p488
aVhttp://www.ebay.com/itm/SNAG-BARS-EARS-BLACK-FOR-BITE-ALARMS-CARP-FISHING-TACKLE-BZS-BRAND-NEW-/351567496351?epid=1250318692&hash=item51db0e449f:g:DnAAAOSw3v5Yrzfq
p489
aVhttp://www.ebay.com/itm/3-x-PLASTIC-SNAG-BARS-EARS-BLACK-FOR-BITE-ALARMS-CARP-FISHING-TACKLE-BRAND-NEW-/401020341155?epid=1442480131&hash=item5d5eaccba3:g:JJQAAOSwAYtWNLy1
p490
aVhttp://www.ebay.com/itm/Gardner-ATTs-Crystal-Underlit-Bite-Alarm-Snag-Backs-Carp-Coarse-Fishing-Tackle-/171971484482?var=&hash=item280a4c9b42:m:mi0WUHm0xS6WlH33_k8sVmg
p491
aVhttp://www.ebay.com/itm/Gardner-ATTs-Underlit-Bite-Alarm-Snag-Backs-Carp-Pike-Coarse-Fishing-Tackle-/361410744172?var=&hash=item5425c24f6c:m:mg6TZR6-EyDNlQb_QJpt6uQ
p492
aVhttp://www.ebay.com/itm/144-Endless-Hair-Elastics-Bobbles-Snag-Free-Hair-Elastic-Bands-/231715517892?var=&hash=item35f35235c4:m:mnQT2mYgEjKl8zEy_IpA3lA
p493
aVhttp://www.ebay.com/itm/DIAMANTE-SNAG-GRATUIT-DE-SURETE-PINS-HIJAB-ECHARPE-ASSORTIS-COULEURS-8PINS-/281822194921?hash=item419de96ce9:g:f9IAAOSwLqFV9v6q
p494
aVhttp://www.ebay.com/itm/Carp-fishing-buzz-bars-snag-ears-/181896828778?hash=item2a59e5576a:g:FioAAOSw~bFWFnHQ
p495
aVhttp://www.ebay.com/itm/Large-Green-Pom-Pom-Hair-Elastic-Snag-Free-Non-Metal-/401006972189?hash=item5d5de0cd1d:g:1EUAAOxyedRTdnwR
p496
aVhttp://www.ebay.com/itm/2-x-PLASTIC-SNAG-BARS-EARS-BLACK-FOR-BITE-ALARMS-CARP-FISHING-TACKLE-BRAND-NEW-/231709596936?epid=1649319119&hash=item35f2f7dd08:g:GwwAAOSwBahVVl2g
p497
aVhttp://www.ebay.com/itm/12-Snag-Free-Endless-Red-White-mix-mini-little-Ponios-Elastics-School-Gym-Dance-/111786769656?hash=item1a0702bcf8:g:jrYAAOSwdvpWDau9
p498
aVhttp://www.ebay.com/itm/12-little-Snag-Free-Endless-Six-Colour-Ponios-Elastic-Children-School-Gym-Dance-/121775946148?hash=item1c5a6979a4:g:SQ4AAOSweW5Vf1Wz
p499
aVhttp://www.ebay.com/itm/6-Hair-Elastics-Thick-Endless-No-Metal-Bobbles-Snag-Free-School-Bands-Ponytail-/262068082749?var=&epid=1457633710&hash=item3d0479983d:m:mTWbn8I3roPu7-zme6ZRz1g
p500
aVhttp://www.ebay.com/itm/50-x-Grade-A-Crystal-Rhinestone-ribbon-buckle-sliders-X-bar-AB13-snag-free-/331655649871?hash=item4d38379a4f:g:nOgAAOSw9N1V1kJD
p501
aVhttp://www.ebay.com/itm/DIAMANTE-SNAG-FREE-SAFETY-PINS-HIJAB-SCARF-ASSORTED-COLOURS-8PINS-/281799862472?hash=item419c94a8c8:g:f9IAAOSwLqFV9v6q
p502
aVhttp://www.ebay.com/itm/Snag-It-26-Original-Mono-Recordings-CD-2003-/291562227731?epid=30599868&hash=item43e2768813:g:f0oAAOSwBahVeq7n
p503
aVhttp://www.ebay.com/itm/Katz-Ladies-Girls-2x-Snag-Free-Elastic-Head-Bands-Hairbands-School-Sports-Hair-/271979657711?var=&epid=1856815910&hash=item3f534039ef:m:m23Ryy2eiPd2da_URt4LjjA
p504
aVhttp://www.ebay.com/itm/MUSTAD-Jig-heads-ANTI-SNAG-ALL-SIZES-1-0-6-0-3g-15g-Predator-Tackle-Pike-/321856478687?var=&hash=item4af0241ddf:m:mGh1vdOHVs7tYtQ28WVYtww
p505
aVhttp://www.ebay.com/itm/12-Thick-Endless-Snag-Free-Hair-Elastic-Bobbles-Bands-Glittery-Sparky-Party-/321847210633?var=&hash=item4aef96b289:m:mvyWdNJmfiB8mhskgC4OGbg
p506
aVhttp://www.ebay.com/itm/2-x-Girls-Snag-Free-Head-Bands-Hairbands-Elastic-Headbands-Head-Band-10-Colours-/281785346260?var=&epid=1856486693&hash=item419bb728d4:m:mTfdrJe1g_6oORlIWcoBrKA
p507
aVhttp://www.ebay.com/itm/10-x-Grade-A-Crystal-Rhinestone-ribbon-buckle-sliders-X-bar-AB13-snag-free-/231660619784?hash=item35f00c8808:g:nOgAAOSw9N1V1kJD
p508
aVhttp://www.ebay.com/itm/10-x-Love-S-Grade-A-Crystal-Rhinestone-ribbon-buckle-sliders-AB4-snag-free-/331633688614?hash=item4d36e88026:g:3iYAAOSw3ydV1jx0
p509
aVhttp://www.ebay.com/itm/Girls-12-Hair-Elastics-Bobbles-Ponios-Thick-Bands-Snag-Free-/131583223569?var=&epid=1541119381&hash=item1ea2f8a711:m:m45AxTKW_-DpPT9su_-Beyg
p510
aVhttp://www.ebay.com/itm/Girls-12-Hair-Elastics-Bobbles-Ponios-Thick-Bands-Snag-Free-/161798579379?var=&epid=1541119381&hash=item25abf264b3:m:m2k9HID25dmcIGXmCMffQMQ
p511
aVhttp://www.ebay.com/itm/Women-Hair-Elastics-Bobbles-Ponios-Thick-Bands-Snag-Free-/141749837251?var=&epid=1041093500&hash=item2100f2ddc3:m:mmS9V0Ye0KGfmEWa0hT-Mqg
p512
aVhttp://www.ebay.com/itm/250-x-Snag-Free-Rubber-Hair-Bands-Bobbles-Loom-Bead-Ponios-Ponytail-MIX-BRIGHT-/271955467396?hash=item3f51cf1c84:g:qfoAAOSw9IpX0Bsi
p513
aVhttp://www.ebay.com/itm/250-x-Snag-Free-Rubber-Hair-Bands-Bobbles-Loom-Bead-Ponios-Ponytail-MIX-PURPLE-/271955466101?epid=1956331874&hash=item3f51cf1775:g:gbgAAOSwFe5X0BtZ
p514
aVhttp://www.ebay.com/itm/250-x-Snag-Free-Rubber-Hair-Bands-Bobbles-Loom-Bead-Ponios-Ponytail-MIX-BLUE-/301711308131?epid=1256466446&hash=item463f653563:g:mw8AAOSw8oFX0BuG
p515
aVhttp://www.ebay.com/itm/250-x-Snag-Free-Rubber-Hair-Bands-Bobbles-Loom-Bead-Ponios-Ponytail-MIX-BROWN-/281771765279?epid=1456426344&hash=item419ae7ee1f:g:kXYAAOSw8oFX0BtN
p516
aVhttp://www.ebay.com/itm/New-Endless-Snag-Free-Elastic-Hair-Bands-Baby-Girls-Ponytail-Stretchy-Bobbles-/201403980232?var=&hash=item2ee49cd9c8:m:mOlDi2ApKyir9gaL3RFx0pg
p517
aVhttp://www.ebay.com/itm/12-Hair-Ponios-Endless-Elastics-Bands-Girls-Soft-Snag-Free-Donut-Hair-Bobble-755-/161788129158?var=&hash=item25ab52ef86:m:m949Z5aK8KpF1OqENO7Eq8w
p518
aVhttp://www.ebay.com/itm/6-ELASTIC-SCRUNCHIES-ENDLESS-SNAG-FREE-HAIR-BANDS-PONYTAIL-HOLDER-BOBBLES-NEW-/291528339770?var=&hash=item43e071713a:m:minDjFC9cSzLsl-t_TAK13Q
p519
aVhttp://www.ebay.com/itm/Fox-Carp-Fishing-NEW-Edges-Armodillo-Shock-Snag-Leader-All-Sizes-/171867675964?var=&epid=1528428306&hash=item28041c9d3c:m:mxzpSNv5rs4sZ1EGZr0GWAw
p520
aVhttp://www.ebay.com/itm/12-Thick-Endless-Snag-Free-Hair-Elastics-Bobbles-Bands-Ponios-Mix-Quality-Plats-/231619397663?var=&hash=item35ed97881f:m:mmrVB3VO2kZ6icdShaG0-xA
p521
aVhttp://www.ebay.com/itm/Cricket-Mini-Fast-FlowFastFlo-Hair-Brush-Shaping-ANTI-STATIC-Non-Snag-Bristles-/131551249323?epid=1107873519&hash=item1ea110c3ab:g:U8EAAOSwMmBVmpTZ
p522
aVhttp://www.ebay.com/itm/ANTI-STATIC-Hair-Brush-Mini-Fast-Flo-CRICKET-Non-Snag-Bristles-by-Cricket-/311397188996?epid=1107873519&hash=item4880b80584:g:9rQAAOSw~gRVmpS2
p523
aVhttp://www.ebay.com/itm/FastFlo-CRICKET-Fast-Flow-Hair-Brush-ANTI-STATIC-Shapes-Hair-Non-Snag-Bristles-/131551247195?epid=1505543076&hash=item1ea110bb5b:g:5QMAAOSwyQtVmpQj
p524
aVhttp://www.ebay.com/itm/Cricket-Fast-Flo-FastFlo-Anti-Static-Hair-Brush-Shaping-Non-Snag-Bristle-/131551247133?hash=item1ea110bb1d:g:kMYAAOSwu4BVmpPt
p525
aVhttp://www.ebay.com/itm/4-x-Girls-Snag-Free-Head-Bands-Hairbands-Elastic-Headbands-Sport-Band-10-Colours-/281741617806?var=&epid=1256497975&hash=item41991bea8e:m:mTfdrJe1g_6oORlIWcoBrKA
p526
aVhttp://www.ebay.com/itm/12-x-Thin-Elastics-Snag-Free-Hair-Bands-Black-Bobbles-Ponios-Ponytail-Band-B3-/281740127202?epid=1256243028&hash=item4199052be2:g:SrIAAOSwvzRX0Bt0
p527
aVhttp://www.ebay.com/itm/Enterprise-Tackle-Terminal-Tackle-Links-Stops-Beads-Clips-Gardner-/281739846126?var=&hash=item419900e1ee:m:mJ8DgU84YNZxq78dSz3lOFw
p528
aVhttp://www.ebay.com/itm/24pc-BRIGHT-SOFT-FABRIC-3cm-HAIR-PONIO-ELASTICS-SNAG-FREE-ENDLESS-PONYTAIL-BAND-/141708881850?hash=item20fe81efba:g:5wgAAOSw~gRVlZ0o
p529
aVhttp://www.ebay.com/itm/Delkim-Safe-D-Carbon-Snag-Bars-Ears-Bite-Alarm-Accessories-Fishing-/361328334225?hash=item5420d8d591:g:I1MAAOSwyQtViss5
p530
aVhttp://www.ebay.com/itm/20pc-THICK-SNAG-FREE-ENDLESS-HAIR-ELASTICS-BANDS-PONIOS-BOBBLES-PONYTAIL-SCHOOL-/301665557528?epid=1788737568&hash=item463cab1c18:g:vSYAAOSw-vlVgq65
p531
aVhttp://www.ebay.com/itm/6-Thick-ENDLESS-HAIR-Bobbles-Snag-Free-Elastics-Bands-Pony-Tail-Bright-Colours-/251998909530?var=&hash=item3aac4e345a:m:mJiAqUFS98Px9tO1pL-PKAg
p532
aVhttp://www.ebay.com/itm/Snag-Repair-Tool-/291493728956?hash=item43de6152bc:g:xdMAAOSwax5Y2odf
p533
aVhttp://www.ebay.com/itm/30-Quality-Thick-Endless-Snag-Free-Hair-Elastics-Bobbles-Bands-Ponios-Mix-/281714732238?var=&hash=item419781acce:m:mm_Gjcyd4IG7haQZLws7Kww
p534
aVhttp://www.ebay.com/itm/DRAGON-V-Point-ANTI-SNAG-3pcs-Jig-heads-2-0-6-0-var-weights-Predator-fishing-/321769466544?var=&epid=1756455894&hash=item4aeaf46ab0:m:m4VTePQvPcfjwJbJUSFBcHg
p535
aVhttp://www.ebay.com/itm/250-x-Snag-Free-Thin-Rubber-Hair-Bands-Black-Bobbles-Loom-Bands-Ponios-Ponytail-/301646435557?epid=1556637507&hash=item463b8754e5:g:gFEAAOSwMgdX0BuR
p536
aVhttp://www.ebay.com/itm/Brand-New-JAG-Products-Prolite-Steve-Neville-Snag-Ears-/121659928904?hash=item1c537f3148:g:ABIAAMXQyY1TTSp3
p537
aVhttp://www.ebay.com/itm/12-Small-Thin-Blonde-Hair-Elastics-Bobbles-Ponytail-No-Metal-Snag-FREE-Children-/251969723306?epid=1757087355&hash=item3aaa90dbaa:g:SyEAAOSwLF1YB8V1
p538
aVhttp://www.ebay.com/itm/Pony-Anti-Snag-Needle-/171782727553?epid=649690635&hash=item27ff0c6781:g:ergAAOSwPgxVTSa4
p539
aVhttp://www.ebay.com/itm/Diamante-Velvet-Crystal-Elastic-Head-Hair-Scrunchie-Bobble-Ponios-Snag-free-UK-/181727088556?hash=item2a4fc74fac:g:qicAAOSwBahVO-aV
p540
aVhttp://www.ebay.com/itm/6-STRIPED-JERSEY-FABRIC-SNAG-FREE-ENDLESS-HAIR-ELASTICS-BANDS-PONIOS-/261865125660?epid=1556814114&hash=item3cf860b71c:g:-JYAAOSw8gVX7Uh1
p541
aVhttp://www.ebay.com/itm/Snag-Repair-Needle-8cm-H247-/191554156983?epid=1111586060&hash=item2c998479b7:g:2PYAAOSwPhdVJQ5C
p542
aVhttp://www.ebay.com/itm/12x-Round-Pearl-Snag-Free-Safety-Craft-Dressmaking-Hijab-Scarf-Tailor-Pins-Wheel-/271824991836?var=&hash=item3f4a08365c:m:mbX21lgFtgr0m2mBK6h1KMQ
p543
aVhttp://www.ebay.com/itm/Hair-Elastics-Endless-Snag-Free-Girls-Ponios-Bubbles-Bands-Thick-Big-50-MM-Women-/281648577175?var=&hash=item4193903a97:m:mwhm9t_vwXKxsZ8voEPLWwA
p544
aVhttp://www.ebay.com/itm/3-SNAG-BAR-EARS-BLACK-FOR-BITE-ALARMS-CARP-FISHING-TACKLE-NGT-FITS-ANY-ALARM-/181705005589?epid=1130944651&hash=item2a4e765a15:g:F98AAOSwiCRUlbx2
p545
aVhttp://www.ebay.com/itm/3-SNAG-BAR-EARS-BLACK-FOR-BITE-ALARMS-CARP-FISHING-TACKLE-NGT-FITS-ANY-ALARM-/181705005589?epid=1130944651&hash=item2a4e765a15:g:F98AAOSwiCRUlbx2
p546
aVhttp://www.ebay.com/itm/2pc-FLOWER-HAIR-BAND-ELASTIC-BOBBLES-PONIOS-ENDLESS-SNAG-FREE-BABY-HAIR-TODDLER-/321710791498?var=&epid=1357207708&hash=item4ae7751b4a:m:m4tpCd8_j0cyK8StFaXXFtQ
p547
aVhttp://www.ebay.com/itm/12-Hair-Elastics-Bobbles-Small-THICK-ENDLESS-Snag-Free-NO-METAL-Lycra-Elastane-/261826143897?epid=1256765718&hash=item3cf60de699:g:W08AAOSwzaJYB2sQ
p548
aVhttp://www.ebay.com/itm/TF-Gear-New-Illuminated-Snag-Ears-Various-Colours-RRP-29-99-/121605735354?var=&epid=1060267436&hash=item1c504443ba:m:mYdkDKZqWk6hxVcF4LeEOFA
p549
aVhttp://www.ebay.com/itm/Kodo-WHITE-Spiral-Invisible-Snag-Pain-Free-Bobble-Hair-Band-Pack-Of-3-/361249898247?epid=859105003&hash=item541c2bff07:g:M5YAAOSwvzRXxuBG
p550
aVhttp://www.ebay.com/itm/Kodo-YELLOW-Spiral-Invisible-Snag-Pain-Free-Bobble-Hair-Band-Pack-Of-3-/261821955126?epid=859093222&hash=item3cf5cdfc36:g:VCoAAOSwMgdXxuC6
p551
aVhttp://www.ebay.com/itm/Kodo-BROWN-Spiral-Invisible-Snag-Pain-Free-Bobble-Hair-Band-Pack-Of-3-/281638669576?epid=1188667007&hash=item4192f90d08:g:UtkAAOSwdIFXxuEW
p552
aVhttp://www.ebay.com/itm/Kodo-BLACK-Spiral-Invisible-Snag-Pain-Free-Bobble-Hair-Band-Pack-Of-3-/261821953829?epid=874623908&hash=item3cf5cdf725:g:U3gAAOSwvzRXxuFQ
p553
aVhttp://www.ebay.com/itm/Kodo-RED-Spiral-Invisible-Snag-Pain-Free-Bobble-Hair-Band-Pack-Of-3-/281638668023?epid=859038946&hash=item4192f906f7:g:6mwAAOSwGtRXxuAH
p554
aVhttp://www.ebay.com/itm/Kodo-PINK-Spiral-Invisible-Snag-Pain-Free-Bobble-Hair-Band-Pack-Of-3-/361249894394?epid=859020341&hash=item541c2beffa:g:T6sAAOSwFV9XxuGK
p555
aVhttp://www.ebay.com/itm/Kodo-BLUE-Spiral-Invisible-Snag-Pain-Free-Bobble-Hair-Band-Pack-Of-3-/261821951412?epid=859004689&hash=item3cf5cdedb4:g:X~YAAOSwvzRXxuG4
p556
aVhttp://www.ebay.com/itm/Snag-Bars-x3-Black-Lightweight-For-Bite-Alarms-Carp-Fishing-Snag-Ears-/391091380940?epid=1130944651&hash=item5b0edce2cc:g:OdYAAOSwI-BWHNhx
p557
aVhttp://www.ebay.com/itm/Snag-Bars-x2-Black-Lightweight-For-Bite-Alarms-Carp-Fishing-Snag-Ears-/381201701882?epid=1130944651&hash=item58c1645bfa:g:ZuUAAOSwl9BWHNmB
p558
aVhttp://www.ebay.com/itm/Snag-Bars-x1-Black-Lightweight-For-Bite-Alarms-Carp-Fishing-Snag-Ears-/391091261140?epid=1130944651&hash=item5b0edb0ed4:g:V38AAOSwpDdU5yGc
p559
aVhttp://www.ebay.com/itm/Snag-Bars-x4-Black-Lightweight-For-Bite-Alarms-Carp-Fishing-Snag-Ears-by-NGT-/391091260150?epid=1130944651&hash=item5b0edb0af6:g:LcEAAOSwBLlU5yJf
p560
aVhttp://www.ebay.com/itm/Stone-Hijab-Pins-Safety-Scarf-6pcs-Snag-Free-Pins-Design-Black-White-Multi-Color-/151623517579?var=&hash=item234d77458b:m:meRYr8Q3LW_GKS1KxI5hCXg
p561
aVhttp://www.ebay.com/itm/Gemini-Sinker-System-Fixed-Grip-Heads-Fishing-/361243632773?var=&hash=item541bcc6485:m:m9doN-7Lt7KUaIDPQnMYPmQ
p562
aVhttp://www.ebay.com/itm/6-Pack-HAIR-BOBBLES-ELASTICS-Jersey-Fabric-NO-METAL-SNAG-FREE-Children-8-Colours-/251875480314?var=&epid=1964613032&hash=item3aa4f2d2fa:m:m6YQXwztovBALfVr70mJnfg
p563
aVhttp://www.ebay.com/itm/Fox-Edges-Armadillo-Shock-and-Snag-Leader-Carp-Fishing-/281624850209?var=&hash=item4192262f21:m:metZSXTp7sCC0wDQCSLBFWQ
p564
aVhttp://www.ebay.com/itm/100-SMALL-Hair-Scrunchy-Bobble-Hair-Band-Elastic-Snag-Free-Endless-GIRL-HAIR-TIE-/201303556430?epid=1622875085&hash=item2edea0814e:g:6KUAAOSwiYFXJJzV
p565
aVhttp://www.ebay.com/itm/SNAG-FREE-6-SAFETY-PINS-HIJAB-SCARF-BLACK-WHOLESALE-JOBLOT-PLASTIC-CLASP-BABY-/251860285899?var=&hash=item3aa40af9cb:m:mO2HwX7VNo7PHYJAldtFvxw
p566
aVhttp://www.ebay.com/itm/Ultima-Torque-Ultra-Tough-Snag-Leader-All-B-S-/400873977373?var=&hash=item5d55f3761d:m:mDfvnKTa12y9MMMaozr7pjw
p567
aVhttp://www.ebay.com/itm/Paintball-Remote-Air-Line-Hose-Cover-Woodland-No-more-snagging-AJ4-/391064071212?hash=item5b0d3c2c2c:g:EhYAAOSwT5tWF7jP
p568
aVhttp://www.ebay.com/itm/Hijab-Scarf-Safety-Pins-Brooch-Snag-Free-Stylish-Colourful-Diamond-6-to-18pcs-/261775750711?var=&hash=item3cf30cf637:m:mmYiu_BkS9ueCvHlen7Ejxw
p569
aVhttp://www.ebay.com/itm/36-Endless-Snag-Free-Hair-Bobbles-Girls-Hair-Accessory-Hair-Bands-Elastics-/321659930997?var=&epid=1663609201&hash=item4ae46d0975:m:msLnNq_GiItwJX7Vj83g5KQ
p570
aVhttp://www.ebay.com/itm/40-hair-Elastics-4-packs-of-10-Black-School-Gym-Snag-free-Elastic-hairbands-/111588495581?hash=item19fb3150dd:g:tPIAAOSwi0RXzsH1
p571
aVhttp://www.ebay.com/itm/1-BLACK-SNAG-BAR-EAR-COMPATIBLE-WITH-ANY-ALARM-CARP-FISHING-ALUMINIUM-SNAG-BAR-/181651434772?hash=item2a4b44ed14:g:j4YAAOxyCGNTNGYU
p572
aVhttp://www.ebay.com/itm/Black-White-8-PCS-Pearl-Hijab-Scarf-Safety-Fashion-Sewing-Pin-Snag-Fre-Plastic-/221670548021?epid=1862567681&hash=item339c982235:g:kT0AAOSwq7JUIuYr
p573
aVhttp://www.ebay.com/itm/12-Black-Thick-Endless-Snag-Free-Hair-Elastic-Bobbles-Bands-Ponios-Plats-/321644774154?var=&hash=item4ae385c30a:m:maxtvE66qsnekrDLwU2dFFQ
p574
aVhttp://www.ebay.com/itm/Hijab-Safety-Pins-Snag-Free-Stylish-Colourful-Diamond-12-to-24pcs-Top-Quality-/261736399106?var=&hash=item3cf0b48102:m:m6x-vqZ2arpalGgnF3I3gZg
p575
aVhttp://www.ebay.com/itm/Snag-Repair-Tool-H248-/191482308263?epid=781949954&hash=item2c953c26a7:g:e4kAAOSwc0FUqdGE
p576
aVhttp://www.ebay.com/itm/2-SNAG-BAR-EARS-BLACK-FITS-ANY-BITE-ALARM-CARP-FISHING-NGT-SNAG-BARS-/171639358919?hash=item27f680c5c7:g:W-4AAOSw0vBUlb7F
p577
aVhttp://www.ebay.com/itm/matrix-innovations-range-BALL-CLIP-CHAINS-SNAG-EARS-ADD-ON-WEIGHTS-BRACKET-/331444011238?var=&hash=item4d2b9a40e6:m:mjHvXPtMPxRRCMFLdsvu3hA
p578
aVhttp://www.ebay.com/itm/4-x-NGT-MINI-BLACK-SNAG-EAR-BARS-FOR-BITE-ALARMS-CARP-FISHING-TACKLE-/361174163837?epid=704317156&hash=item5417a8617d:g:SsoAAOSw7ThUqXKD
p579
aVhttp://www.ebay.com/itm/3-x-NGT-MINI-BLACK-SNAG-EAR-BARS-FOR-BITE-ALARMS-CARP-FISHING-TACKLE-THREE-/400836984753?epid=1090006981&hash=item5d53beffb1:g:qpgAAOSwDwtUqXFL
p580
aVhttp://www.ebay.com/itm/2-x-NGT-MINI-BLACK-SNAG-EAR-BARS-FOR-BITE-ALARMS-CARP-FISHING-TACKLE-TWO-/361174152952?epid=1688651835&hash=item5417a836f8:g:lGkAAOSwDwtUqXCQ
p581
aVhttp://www.ebay.com/itm/8-Scarf-Hijab-Safety-Pins-Snag-Free-Multi-Colours-Black-Diamond-Stud-Pin-NEW-/371216581437?var=&hash=item566e3b833d:m:mj_i4Y8TqKUPWYfkFr3Creg
p582
aVhttp://www.ebay.com/itm/KORDA-XT-SNAG-LEADER-LINE-/371213041980?var=&hash=item566e05813c:m:msvi5zTWqwahCLOwieBi8_A
p583
aVhttp://www.ebay.com/itm/6-Scarf-Hijab-Safety-Pins-Snag-Free-Multi-Colour-Black-Diamond-Stud-Pin-Kids-/271682599653?var=&epid=1662027706&hash=item3f418b7ae5:m:mtaPvpFYIMNpaZRecd8XbVg
p584
aVhttp://www.ebay.com/itm/12-Hair-Bobbles-Elastic-Bands-Scrunchies-Thick-Ponios-Elastics-Snag-Free-/321591291186?var=&epid=1356596832&hash=item4ae055ad32:m:mnfZXoBLqr1TP5NYP_XnGpg
p585
aVhttp://www.ebay.com/itm/24-Hair-Bobbles-Elastic-Bands-Scrunchies-Thick-Ponios-Elastics-Snag-Free-/231396353189?var=&hash=item35e04c24a5:m:myaRZJKBwxmbgIE7jw96JtQ
p586
aVhttp://www.ebay.com/itm/2-x-SNAG-BARS-EARS-BLACK-FOR-BITE-ALARMS-CARP-FISHING-TACKLE-BZS-BRAND-NEW-/231385721626?epid=1342670196&hash=item35dfa9eb1a:g:CYQAAOSw54xUX-A4
p587
aVhttp://www.ebay.com/itm/Snag-Ears-Taska-Carp-Fishing-Snag-Ears-Carp-Fishing-Brand-New-Taska-Snag-Ears-/221563346311?var=&epid=1524330541&hash=item3396345d87:m:may3P1SL5WYviCtvwTQMtnQ
p588
aVhttp://www.ebay.com/itm/70x-Assorted-Size-Safety-Pins-Dress-Sewing-Craft-Brooch-Hijab-Snag-Free-Metal-/251658423006?epid=1162023292&hash=item3a9802cade:g:G5kAAOSwVFlUJVfI
p589
aVhttp://www.ebay.com/itm/36-Thick-Black-Endless-Snag-Free-Elastics-Bobbles-Ponios-Hair-Accessory-/321533243354?epid=1356472073&hash=item4adcdfefda:g:PYcAAOSwPe1UI-ML
p590
aVhttp://www.ebay.com/itm/12-Thick-Black-Endless-Snag-Free-Elastics-Bobbles-Ponios-Hair-Accessory-/321533237577?epid=1256882517&hash=item4adcdfd949:g:e6UAAOSwVFlUI98-
p591
aVhttp://www.ebay.com/itm/SNAG-FREE-SAFETY-PINS-HIJAB-SCARF-BLACK-/111467164437?hash=item19f3f5f315:g:87AAAOSw7NNUG3x~
p592
aVhttp://www.ebay.com/itm/2-ALUMINIUM-SNAG-BAR-EARS-COMPATIBLE-WITH-ANY-ALARM-BARS-ARE-15CM-LONG-/171460783984?hash=item27ebdbef70:g:OYEAAOSwVFlUFqwo
p593
aVhttp://www.ebay.com/itm/3-SNAG-BAR-EARS-ALUMINIUM-COMPATIBLE-WITH-ANY-ALARM-NGT-CARP-FISHING-/181527379112?hash=item2a43dffca8:g:fMUAAOxyUrZS58B2
p594
aVhttp://www.ebay.com/itm/6-Endless-Ponios-No-Snag-Baby-Hair-Accessory-Girls-Hair-bands-Bobbles-Elastics-/321512538016?var=&hash=item4adba3ffa0:m:mEwI_1qyOYredjNJB9Udvkw
p595
aVhttp://www.ebay.com/itm/Brand-New-Korda-XT-Snag-Leader-All-Sizes-Available-/291226872849?var=&hash=item43ce796c11:m:mDQaFEPCfyS8r1gWeDH8_rQ
p596
aVhttp://www.ebay.com/itm/3-PIECE-SCHOOL-COLOURS-SET-1-NARROW-ALICE-BAND-WITH-BOW-2-SNAG-FREE-BOW-PONIOS-/261570069540?var=&hash=item3ce6ca8424:m:mWyxTBwPweWRJ41WGCFQSow
p597
aVhttp://www.ebay.com/itm/20-Snag-Free-Hair-Ties-Hair-Elastics-Blue-FREE-DELIVERY-/181499308038?var=&hash=item2a4233a806:m:mcqtX9NNPlW21bl15x-VVIA
p598
aVhttp://www.ebay.com/itm/12-Mini-Bright-Tone-Snag-Free-Hair-Elastics-Bobbles-Hair-Bands-Accessories-/390908087062?hash=item5b03f00b16:g:fmgAAOSwofxUfFhc
p599
aVhttp://www.ebay.com/itm/10-BRIGHT-RED-PONIOS-GIRL-SCHOOL-ELASTICS-4469-HAIR-BAND-head-snag-free-/231298028100?hash=item35da6fd244:g:basAAOSwGzlTtr1H
p600
aVhttp://www.ebay.com/itm/3-BLACK-SNAG-BAR-EARS-FITS-FOX-DELKIM-ALARMS-NGT-CARP-FISHING-TACKLE-15cm-LONG-/181481110832?epid=1420039200&hash=item2a411dfd30:g:wHcAAOxyi-ZTcJbB
p601
aVhttp://www.ebay.com/itm/2-BLACK-SNAG-BAR-EARS-COMPATIBLE-WITH-ANY-ALARM-CARP-FISHING-TACKLE-15cm-LONG-/171405745405?hash=item27e8941cfd:g:PWwAAOSwbqpT2kSv
p602
aVhttp://www.ebay.com/itm/Brand-New-Korda-Armakord-XT-85lb-Braided-Extreme-Snag-Leader-20m-/121393164228?epid=1988525302&hash=item1c4398afc4:g:vskAAOSwEK9T0U6K
p603
aVhttp://www.ebay.com/itm/6-THICK-ENDLESS-BLACK-VELVET-HAIR-ELASTICS-BOBBLES-RINGS-SNAG-FREE-ACCESSORIES-/291194412951?var=&hash=item43cc8a1f97:m:mhv-zSUpZb66S-JVZR0TUyg
p604
aVhttp://www.ebay.com/itm/12-PIECE-SNAG-FREE-ENDLESS-PONY-TAIL-ELASTIC-BOBBLES-PONIO-HAIR-BANDS-SET-/261536647522?var=&hash=item3ce4cc8962:m:mSyo2jivo1BqPAjdVD_fQag
p605
aVhttp://www.ebay.com/itm/12-PIECE-ENDLESS-SNAG-FREE-PONY-TAIL-ELASTIC-BOBBLES-PONIO-HAIR-BANDS-SET-/261536537029?var=&hash=item3ce4cad9c5:m:mGPZumtt6VjpspBxmsD0M9w
p606
aVhttp://www.ebay.com/itm/4-x-NEW-Black-Alloy-Snag-Ear-Bars-Fits-Delkim-Fox-Alarms-NGT-Carp-Fishing-Tackle-/281383361590?epid=1387664985&hash=item4183c15c36:g:FAUAAOSwwPtTwD0j
p607
aVhttp://www.ebay.com/itm/12-Thick-Endless-Snag-Free-Hair-Elastics-Bobbles-Bands-Ponios-Mix-Quality-Plats-/321452626269?var=&hash=item4ad811d15d:m:mpshwmy0yKvQLW69Nzwe1VQ
p608
aVhttp://www.ebay.com/itm/50-Quality-Thick-Endless-Snag-Free-Hair-Elastics-Bobbles-Bands-Ponios-Mix-/221482752448?var=&hash=item33916699c0:m:mpshwmy0yKvQLW69Nzwe1VQ
p609
aVhttp://www.ebay.com/itm/Korda-XT-Snag-Leader-All-Sizes-Carp-Fishing-Snag-Line-/281374482418?var=&hash=item418339dff2:m:miUKEYpsBoajhN1E4SrMoQA
p610
aVhttp://www.ebay.com/itm/10-Snag-Free-Endless-Hair-Elastics-Bobbles-Hair-Bands-Various-colours-/380931584250?var=&epid=1441214356&hash=item58b14ab0fa:m:mwY8Yef-5b9p_-oAwgJCbxg
p611
aVhttp://www.ebay.com/itm/PACK-OF-12-NEON-SNAG-FREE-ENDLESS-ELASTICS-/261488055675?hash=item3ce1e7157b:g:XjMAAOSwKtlWqkgO
p612
aVhttp://www.ebay.com/itm/PACK-OF-12-BROWNS-NATURAL-SCHOOL-ENDLESS-SNAG-FREE-ELASTICS-/251538928796?hash=item3a90e3749c:g:T~QAAOSwPCVX7RDk
p613
aVhttp://www.ebay.com/itm/PACK-OF-12-SMALL-BRIGHT-SNAG-FREE-ENDLESS-ELASTICS-/251538900263?hash=item3a90e30527:g:58gAAOSwL7VWqgkP
p614
aVhttp://www.ebay.com/itm/PACK-OF-12-SCHOOL-THICK-SNAG-FREE-ENDLESS-ELASTICS-/251538792211?hash=item3a90e15f13:g:KMwAAOSwPCVX7Q~1
p615
aVhttp://www.ebay.com/itm/2-X-THICK-SNAG-FREE-ENDLESS-HAIR-ELASTICS-FASHION-BOBBLES-PONIOS-/301191574254?var=&hash=item46206ab2ee:m:msmzTaGWnddnUEUJHbtxbKA
p616
aVhttp://www.ebay.com/itm/6-TO-36-SNAG-FREE-SAFETY-PINS-DOUBLE-DIAMANTE-HIJAB-SCARF-BALCK-BROOCH-/261468034793?var=&hash=item3ce0b596e9:m:mnX5B2-R8H7_tufwDKvdS9g
p617
aVhttp://www.ebay.com/itm/12-Coloured-Snag-Free-Endless-Hair-Elastics-Bands-Bobbles-Hair-Accessory-/121330323332?var=&hash=item1c3fd9cf84:m:moatPxQ4_xZnB0HUY8a1_8w
p618
aVhttp://www.ebay.com/itm/10-THICK-NAVY-BLUE-SNAG-FREE-NO-Metal-HAIR-ELASTICS-BOBBLES-HAIR-BANDS-GIRLS-/261437323622?epid=1708899996&hash=item3cdee0f966:g:nOUAAOSwkZhWRNza
p619
aVhttp://www.ebay.com/itm/Falconry-para-cord-flying-jesses-heat-treated-to-reduce-any-snagging-/271436345453?var=&hash=item3f32ddf06d:m:mOe_XltY-cRpb_UoWqM1oxQ
p620
aVhttp://www.ebay.com/itm/2x-New-Carp-Fishing-Bite-Alarms-With-Tone-Volume-Plus-Snag-Ears-And-Batteries-/271428594641?epid=1288504445&hash=item3f3267abd1:g:QlwAAOSw-0xYc5VA
p621
aVhttp://www.ebay.com/itm/SET-12-ENDLESS-HAIR-ELASTICS-PONYTAIL-BAND-COLOUR-CHOICE-GYM-SCHOOL-SNAG-FREE-/161234686777?var=&epid=1934346540&hash=item258a561339:m:miGDh5IqJPQA6N3wMm6ouEQ
p622
aVhttp://www.ebay.com/itm/12pc-THICK-SNAG-FREE-ENDLESS-HAIR-ELASTICS-BANDS-PONIOS-BOBBLES-PONYTAIL-SCHOOL-/400666855622?var=&hash=item5d499b08c6:m:m2zZ4ktVvsqNMlWGd0VLB-g
p623
aVhttp://www.ebay.com/itm/12-Satin-Finish-Snag-Free-Endless-Hair-Elastics-Bobbles-Hair-Bands-Accessories-/261394473133?var=&hash=item3cdc5320ad:m:m0nGMs-CcNcSh4RAbE5fy8A
p624
aVhttp://www.ebay.com/itm/HAIR-ELASTICS-Girls-Metallic-Black-Bobbles-Bands-Ponytail-Snag-Free-Thick-Thin-/261385015513?var=&hash=item3cdbc2d0d9:m:mkS-6oy06DS2vmSMMGi32GA
p625
aVhttp://www.ebay.com/itm/ENTERPRIZE-TACKLE-END-TACKLE-CARP-BARBEL-PIKE-OR-SEA-/171228859749?var=&hash=item27de090d65:m:mh4NidhGlQbBbr1eJ7yxhuQ
p626
aVhttp://www.ebay.com/itm/MATRIX-SNAG-FREE-BROLLY-ARM-Seatbox-Accessories-fits-rive-box-/400652331249?var=&hash=item5d48bd68f1:m:mu3U6iyLGByOp0Ue-ajVBDQ
p627
aVhttp://www.ebay.com/itm/ALUMINIUM-SNAG-BAR-EAR-COMPATIBLE-WITH-ANY-ALARM-NGT-CARP-FISHING-/171225493837?epid=1621841608&hash=item27ddd5b14d:g:~iAAAOxyLN9SjUpQ
p628
aVhttp://www.ebay.com/itm/Round-Pearl-Snag-Free-Safety-Pin-Craft-Dressmaking-Hijab-Scarf-Tailor-Pins-Wheel-/321305178827?var=&hash=item4acf47f2cb:m:mRzXXXrsniFzqG06oAuPuNw
p629
aVhttp://www.ebay.com/itm/Delkim-NEW-TXI-Plus-Bite-Alarms-Purple-x3-Receiver-Combo-FREE-Snag-Ears-x3-/370980802579?epid=1851595373&hash=item56602dd013:g:CUEAAOxygPtSy9dv
p630
aVhttp://www.ebay.com/itm/Different-designs-HIJAB-SCARF-SAFETY-PINS-Wholesale-/141158394209?var=&hash=item20ddb22961:m:mm0Qdkx2hU9RB-i_lqqs8dA
p631
aVhttp://www.ebay.com/itm/SNAG-FREE-SAFETY-PINS-HIJAB-SCARF-PINS-/131086442752?epid=1960380309&hash=item1e855c6100:g:QRYAAOxyNo9SyKeT
p632
aVhttp://www.ebay.com/itm/Set-of-12-3mm-Girls-Toddler-Childrens-Endless-Snag-Free-Hair-Elastics-Bobbles-/181277461041?var=&epid=1763054534&hash=item2a34fa8a31:m:magBde1ziD6_8t8m7s0PznQ
p633
aVhttp://www.ebay.com/itm/BLACK-THIN-ELASTIC-ENDLESS-SNAG-FREE-HAIR-BANDS-PONYTAIL-HOLDER-BOBBLES-PONIO-/291028486918?var=&hash=item43c2a64b06:m:myD-2d5pYiUq-7Uf3UH_8wg
p634
aVhttp://www.ebay.com/itm/10-Coloured-Snag-Free-Endless-Hair-Elastics-Bobbles-Hair-Bands-Accessories-/261337646607?var=&hash=item3cd8f0060f:m:maa_vadbTLOKfAM5y7bXsLQ
p635
aVhttp://www.ebay.com/itm/Pearl-Hijab-Scarf-Pins-Safety-Pin-Multicolor-Black-Wheel-Tailor-Sewing-Snag-Free-/321245608185?var=&hash=item4acbbaf8f9:m:mgUPEYqRk5xp5XV_T45Phgw
p636
aVhttp://www.ebay.com/itm/Pearl-Hijab-Scarf-Pins-Safety-Pin-Multicolor-Black-Wheel-Tailor-Sewing-Snag-Free-/321245608185?var=&hash=item4acbbaf8f9:m:mgUPEYqRk5xp5XV_T45Phgw
p637
aVhttp://www.ebay.com/itm/8-Adult-Thick-Large-Endless-Snag-Free-Hair-Elastics-Bobbles-Bands-Ponios-/181226885986?var=&epid=1473183022&hash=item2a31f6d362:m:mgSaYkTiQ5B6YqMcRsEalHQ
p638
aVhttp://www.ebay.com/itm/4-x-NGT-BLACK-SNAG-EAR-BARS-FOR-BITE-ALARMS-UNIVERSAL-CARP-FISHING-TACKLE-FOUR-/231061850341?epid=1788424867&hash=item35cc5c08e5:g:MwEAAOxy6MBSQe0f
p639
aVhttp://www.ebay.com/itm/3-x-NGT-BLACK-SNAG-EAR-BARS-FOR-BITE-ALARMS-UNIVERSAL-CARP-FISHING-TACKLE-THREE-/400578784822?epid=1792322956&hash=item5d445b2e36:g:vhoAAOxyHltSQexA
p640
aVhttp://www.ebay.com/itm/4-x-NGT-ALUMINIUM-SNAG-EAR-BARS-FOR-BITE-ALARMS-UNIVERSAL-CARP-FISHING-TACKLE-/231056818948?epid=1788426310&hash=item35cc0f4304:g:WEsAAOxy79JSaXjL
p641
aVhttp://www.ebay.com/itm/3-x-NGT-ALUMINIUM-SNAG-EAR-BARS-FOR-BITE-ALARMS-UNIVERSAL-CARP-FISHING-TACKLE-/231056818299?epid=1388369415&hash=item35cc0f407b:g:NjwAAMXQVERSzpRB
p642
aVhttp://www.ebay.com/itm/2-x-NGT-ALUMINIUM-SNAG-EAR-BARS-FOR-BITE-ALARMS-UNIVERSAL-CARP-FISHING-TACKLE-/360741692396?epid=1650845003&hash=item53fde163ec:g:UFAAAOxyGqZSaXof
p643
aVhttp://www.ebay.com/itm/NGT-ALUMINIUM-SNAG-EAR-BARS-FOR-BITE-ALARMS-UNIVERSAL-CARP-FISHING-TACKLE-/231056816203?epid=1288423372&hash=item35cc0f384b:g:M4UAAOxyFjNSOKii
p644
aVhttp://www.ebay.com/itm/3-x-Aluminium-Snag-Bar-Ears-For-Delkim-Fox-And-For-Bite-Alarms-NGT-Carp-Fishingg-/271276827983?epid=1188352130&hash=item3f295be54f:g:lu0AAOxy~ilSQsFe
p645
aVhttp://www.ebay.com/itm/3-x-UNIVERSAL-ALUMINIUM-ALLOY-SNAG-BARS-FOR-BITE-ALARMS-CARP-FISHING-TACKLE-/221282436676?epid=873838944&hash=item3385760644:g:V0IAAOxyYu9SMrMu
p646
aVhttp://www.ebay.com/itm/2-x-UNIVERSAL-ALUMINIUM-ALLOY-SNAG-BARS-FOR-BITE-ALARMS-CARP-FISHING-TACKLE-/380717868785?hash=item58a48da6f1:g:PZ4AAOxyhotSMrDJ
p647
aVhttp://www.ebay.com/itm/12-Girls-High-Quality-Thick-Endless-Snag-Free-Hair-Elastics-Bobbles-Bands-Ponios-/171103689692?var=&epid=1864023327&hash=item27d6931bdc:m:mJYGBbXlu_RYok4o2Sp4Q5w
p648
aVhttp://www.ebay.com/itm/6-Pc-Snag-Free-Safety-Pins-Hijab-Scarf-Pins-/330965847631?var=&hash=item4d0f1a0e4f:m:mSWvVPRjoAfOL0KBjlWInZg
p649
aVhttp://www.ebay.com/itm/Hemline-Snag-Repair-Tool-Mini-Latch-Hook-Knitted-Garments-/200944376809?epid=781949954&hash=item2ec937dbe9:g:v98AAOSwM0FXIJcI
p650
aVhttp://www.ebay.com/itm/Hemline-Ball-Point-Snag-Repair-Needle-8cm-Sticky-Shank-Sewing-/200944375264?epid=1111586060&hash=item2ec937d5e0:g:ZR0AAOSwKfVXIJY1
p651
aVhttp://www.ebay.com/itm/Mini-Coloured-snag-free-Hair-Elastics-in-a-clear-plastic-purse-bobbles-loops-/181167089936?var=&hash=item2a2e666910:m:mEL5n-OxQhSSdxc0b1YuOzQ
p652
aVhttp://www.ebay.com/itm/Jag-316-Stainless-BANKSTICKS-BUZZER-BUZZ-BARS-STABILISER-SNAG-BAR-PAY-1-POST-/130933177228?var=&hash=item1e7c39bb8c:m:mp7NLNQyjJiQw7vK_pC4V8w
p653
aVhttp://www.ebay.com/itm/Snag-Free-50pc-Coloured-Hair-Elastics-in-a-clear-plastic-purse-bobbles-loops-/171055405631?var=&hash=item27d3b25a3f:m:mb4epSP1pGDeH4hZWG_fDjQ
p654
aVhttp://www.ebay.com/itm/12-Thick-Snag-Free-Endless-Hair-Elastics-Bobbles-Ponios-/221236731187?var=&epid=1156498560&hash=item3382bc9d33:m:m3xIbpb6rebV_0AcWphcmog
p655
aVhttp://www.ebay.com/itm/12-Soft-Endless-Elastics-Ponios-Bobbles-No-Metal-Snag-Hair-Accessory-/321137450492?var=&hash=item4ac5489dfc:m:mzvbbsezkNV1VOqs-a6SNbQ
p656
aVhttp://www.ebay.com/itm/10pc-ENDLESS-SNAG-FREE-HAIR-ELASTIC-BAND-BOBBLE-NAVY-BLUE-RED-BROWN-BLACK-4-5cm-/400491304990?var=&hash=item5d3f24581e:m:mJJUHPrZIg1atpCqgRo6fnw
p657
aVhttp://www.ebay.com/itm/Snag-Repair-Needle-/400488823831?hash=item5d3efe7c17:m:m-caVxuBGmy_z_QKog_-kRg
p658
aVhttp://www.ebay.com/itm/THICK-ENDLESS-SNAG-FREE-ELASTIC-PONYTAIL-BOBBLE-HAIR-BUN-DOUGHNUT-HEAD-BANDS-NEW-/370765505013?var=&hash=item565358a1f5:m:mj8Pe6NjcTq4l4yu3apAZ3g
p659
aVhttp://www.ebay.com/itm/Matrix-Innovations-Accessories-Complete-Range-Available-/300844607112?var=&hash=item460bbc6688:m:mdYQPISAA1_E20sgrjaST_g
p660
aVhttp://www.ebay.com/itm/Matrix-Innovations-Snag-Arms-Both-Types-Available-/300844581851?var=&hash=item460bbc03db:m:miThiJKLRVtW6bkW636FPzQ
p661
aVhttp://www.ebay.com/itm/Matrix-Innovations-Super-Slinky-Snag-Bars-All-Types-Available-/121049707284?var=&hash=item1c2f1ff314:m:mlyi9E_Y-G41JRU1GcifjMw
p662
aVhttp://www.ebay.com/itm/Matrix-Innovations-Rock-Solid-Snag-Bars-All-Types-Available-/300844504482?var=&hash=item460bbad5a2:m:mKvAo1a3BHP8dTDRpnbeE-Q
p663
aVhttp://www.ebay.com/itm/12x-THICK-ENDLESS-COLOUR-HAIR-ELASTICS-BOBBLES-SNAG-FREE-HAIR-ACCESSORIES-NEW-/290841259695?var=&hash=item43b77d6eaf:m:mkmo4C93iVLdkCPLM_dbGAQ
p664
aVhttp://www.ebay.com/itm/50pc-Coloured-snag-free-Hair-Elastics-in-a-clear-plastic-purse-bobbles-loops-/170965391769?var=&hash=item27ce54d999:m:mb4epSP1pGDeH4hZWG_fDjQ
p665
aVhttp://www.ebay.com/itm/6X-THICK-SNAG-FREE-ENDLESS-HAIR-ELASTIC-PONYTAIL-BOBBLE-HAIR-BANDS-TOWELING-TYPE-/370710413312?var=&hash=item5650100000:m:mATwlzeiaveUdatLtXP-i6Q
p666
aVhttp://www.ebay.com/itm/THICK-ENDLESS-SNAG-FREE-ELASTIC-PONYTAIL-BOBBLE-HAIR-BUN-DOUGHNUT-HEAD-BANDS-NEW-/290822493926?var=&hash=item43b65f16e6:m:mIa8A0qweuHv9iyM2mlvBoA
p667
aVhttp://www.ebay.com/itm/BLACK-THICK-ELASTIC-ENDLESS-SNAG-FREE-HAIR-BANDS-PONYTAIL-BOBBLES-PONIOS-X-12-/281028037298?epid=1788369182&hash=item416e938ab2:g:PFYAAOSwdvpWDG8z
p668
aVhttp://www.ebay.com/itm/Baiting-needle-with-anti-snag-closing-clasp-stainless-steel-knurled-handle-/221125897157?epid=1288353167&hash=item337c216bc5:m:m7pjvBp57Do6HbBo3AS_zWA
p669
aVhttp://www.ebay.com/itm/Hemline-Snag-Repair-Needle-/330768981163?epid=1111586060&hash=item4d035e1cab:g:s5AAAOSwCZ5VfzLY
p670
aVhttp://www.ebay.com/itm/Fox-Black-Label-Snag-Ears-/140735278914?hash=item20c479ef42:m:mbBsQiBFbmZzexngjRIzlkg
p671
aVhttp://www.ebay.com/itm/HEART-SHAPED-NAVEL-BELLY-BARS-DIAMANTE-STUDDED-WITH-SNAG-FREE-ACRYLIC-COATING-/220966484558?var=&hash=item3372a0fa4e:m:m9E0-DggQIYxDBLc0FJBplg
p672
aVhttp://www.ebay.com/itm/Brand-New-Fox-Snag-Leader-Line-All-Colours-Breaking-Strains-/300639878533?var=&hash=item45ff887d85:m:m-tMfAmWyuxqgaf6lqidZnw
p673
aVhttp://www.ebay.com/itm/Pair-of-Sailguard-Wheels-Prevents-Snagging-and-Reduces-Wear-and-Tear-on-Sails-/250920670938?hash=item3a6c0996da:g:sEUAAOSw9GhYies4
p674
aVhttp://www.ebay.com/itm/Delkim-Safe-D-Carbon-Snag-Ears-/130576070518?epid=1888746106&hash=item1e66f0b776:g:QssAAOSwPhdVEXMk
p675
aVhttp://www.ebay.com/itm/MAVER-B8-SHIELD-FOR-SNAG-FREE-LURE-FISHING-/180715754806?var=&hash=item2a137f9536:m:mxVESfbCxtmto2X7INe0O5w
p676
aVhttp://www.ebay.com/itm/12-THICK-SNAG-FREE-ENDLESS-HAIR-ELASTICS-BOBBLES-PONIOS-/120754437563?var=&hash=item1c1d867dbb:m:mk9kjkzOAVUPMWI994ZHxJQ
p677
aVhttp://www.ebay.com/itm/ULTIMA-POWER-XTREME-SNAG-LEADER-50M-SPOOL-CARP-/120746551290?var=&epid=1548656319&hash=item1c1d0e27fa:m:mORqknmsLzls-T2TuHRRt5Q
p678
aVhttp://www.ebay.com/itm/Matrix-NEW-Fishing-Stainless-Deluxe-Snag-Arms-Ears-/230632665894?epid=1648640864&hash=item35b2c73326:m:m6xe_VJchEduI_NfbD-5nZw
p679
aVhttp://www.ebay.com/itm/Gardner-G-Force-Butt-grip-for-snag-fishing-Pay-1-post-/140552616266?epid=695247068&hash=item20b996b94a:m:mVOenSD0tn_nNfDoK6nbtNA
p680
aVhttp://www.ebay.com/itm/100-Premium-Teflon-Carp-Tackle-Fishing-Tackle-Hooks-Micro-barb-/220785575085?var=&hash=item3367d884ad:m:mz6UlCfbZnYsSPAK_ZdjTqA
p681
aVhttp://www.ebay.com/itm/Quality-Gold-Eye-Pony-Hand-Sewing-Needles-All-Types-Sharp-Tapestry-Etc-/270735262968?var=&hash=item3f091444f8:m:msFmwGEqTh1XSPIQutMv9jA
p682
aVhttp://www.ebay.com/itm/JAG-Products-316-Stainless-Steel-3-Rod-Fixed-Snag-Bar-/110599371021?var=&hash=item19c03c790d:m:m_qZt5Qh-v-vdpvU6-9gagg
p683
aVhttp://www.ebay.com/itm/50pc-Coloured-snag-free-Hair-Elastics-in-a-clear-plastic-purse-bobbles-loops-/170965391769?var=&hash=item27ce54d999:m:mb4epSP1pGDeH4hZWG_fDjQ
p684
aVhttp://www.ebay.com/itm/6X-THICK-SNAG-FREE-ENDLESS-HAIR-ELASTIC-PONYTAIL-BOBBLE-HAIR-BANDS-TOWELING-TYPE-/370710413312?var=&hash=item5650100000:m:mATwlzeiaveUdatLtXP-i6Q
p685
aVhttp://www.ebay.com/itm/THICK-ENDLESS-SNAG-FREE-ELASTIC-PONYTAIL-BOBBLE-HAIR-BUN-DOUGHNUT-HEAD-BANDS-NEW-/290822493926?var=&hash=item43b65f16e6:m:mIa8A0qweuHv9iyM2mlvBoA
p686
aVhttp://www.ebay.com/itm/BLACK-THICK-ELASTIC-ENDLESS-SNAG-FREE-HAIR-BANDS-PONYTAIL-BOBBLES-PONIOS-X-12-/281028037298?epid=1788369182&hash=item416e938ab2:g:PFYAAOSwdvpWDG8z
p687
aVhttp://www.ebay.com/itm/Baiting-needle-with-anti-snag-closing-clasp-stainless-steel-knurled-handle-/221125897157?epid=1288353167&hash=item337c216bc5:m:m7pjvBp57Do6HbBo3AS_zWA
p688
aVhttp://www.ebay.com/itm/Hemline-Snag-Repair-Needle-/330768981163?epid=1111586060&hash=item4d035e1cab:g:s5AAAOSwCZ5VfzLY
p689
aVhttp://www.ebay.com/itm/Fox-Black-Label-Snag-Ears-/140735278914?hash=item20c479ef42:m:mbBsQiBFbmZzexngjRIzlkg
p690
aVhttp://www.ebay.com/itm/HEART-SHAPED-NAVEL-BELLY-BARS-DIAMANTE-STUDDED-WITH-SNAG-FREE-ACRYLIC-COATING-/220966484558?var=&hash=item3372a0fa4e:m:m9E0-DggQIYxDBLc0FJBplg
p691
aVhttp://www.ebay.com/itm/Brand-New-Fox-Snag-Leader-Line-All-Colours-Breaking-Strains-/300639878533?var=&hash=item45ff887d85:m:m-tMfAmWyuxqgaf6lqidZnw
p692
aVhttp://www.ebay.com/itm/Pair-of-Sailguard-Wheels-Prevents-Snagging-and-Reduces-Wear-and-Tear-on-Sails-/250920670938?hash=item3a6c0996da:g:sEUAAOSw9GhYies4
p693
aVhttp://www.ebay.com/itm/Delkim-Safe-D-Carbon-Snag-Ears-/130576070518?epid=1888746106&hash=item1e66f0b776:g:QssAAOSwPhdVEXMk
p694
aVhttp://www.ebay.com/itm/MAVER-B8-SHIELD-FOR-SNAG-FREE-LURE-FISHING-/180715754806?var=&hash=item2a137f9536:m:mxVESfbCxtmto2X7INe0O5w
p695
aVhttp://www.ebay.com/itm/12-THICK-SNAG-FREE-ENDLESS-HAIR-ELASTICS-BOBBLES-PONIOS-/120754437563?var=&hash=item1c1d867dbb:m:mk9kjkzOAVUPMWI994ZHxJQ
p696
aVhttp://www.ebay.com/itm/ULTIMA-POWER-XTREME-SNAG-LEADER-50M-SPOOL-CARP-/120746551290?var=&epid=1548656319&hash=item1c1d0e27fa:m:mORqknmsLzls-T2TuHRRt5Q
p697
aVhttp://www.ebay.com/itm/Matrix-NEW-Fishing-Stainless-Deluxe-Snag-Arms-Ears-/230632665894?epid=1648640864&hash=item35b2c73326:m:m6xe_VJchEduI_NfbD-5nZw
p698
aVhttp://www.ebay.com/itm/Gardner-G-Force-Butt-grip-for-snag-fishing-Pay-1-post-/140552616266?epid=695247068&hash=item20b996b94a:m:mVOenSD0tn_nNfDoK6nbtNA
p699
aVhttp://www.ebay.com/itm/100-Premium-Teflon-Carp-Tackle-Fishing-Tackle-Hooks-Micro-barb-/220785575085?var=&hash=item3367d884ad:m:mz6UlCfbZnYsSPAK_ZdjTqA
p700
aVhttp://www.ebay.com/itm/Quality-Gold-Eye-Pony-Hand-Sewing-Needles-All-Types-Sharp-Tapestry-Etc-/270735262968?var=&hash=item3f091444f8:m:msFmwGEqTh1XSPIQutMv9jA
p701
aVhttp://www.ebay.com/itm/JAG-Products-316-Stainless-Steel-3-Rod-Fixed-Snag-Bar-/110599371021?var=&hash=item19c03c790d:m:m_qZt5Qh-v-vdpvU6-9gagg
p702
aVhttp://www.ebay.com/itm/PACK-OF-12-NEON-SNAG-FREE-ENDLESS-ELASTICS-/261488055675?hash=item3ce1e7157b:g:XjMAAOSwKtlWqkgO
p703
aVhttp://www.ebay.com/itm/PACK-OF-12-BROWNS-NATURAL-SCHOOL-ENDLESS-SNAG-FREE-ELASTICS-/251538928796?hash=item3a90e3749c:g:T~QAAOSwPCVX7RDk
p704
aVhttp://www.ebay.com/itm/PACK-OF-12-SMALL-BRIGHT-SNAG-FREE-ENDLESS-ELASTICS-/251538900263?hash=item3a90e30527:g:58gAAOSwL7VWqgkP
p705
aVhttp://www.ebay.com/itm/PACK-OF-12-SCHOOL-THICK-SNAG-FREE-ENDLESS-ELASTICS-/251538792211?hash=item3a90e15f13:g:KMwAAOSwPCVX7Q~1
p706
aVhttp://www.ebay.com/itm/2-X-THICK-SNAG-FREE-ENDLESS-HAIR-ELASTICS-FASHION-BOBBLES-PONIOS-/301191574254?var=&hash=item46206ab2ee:m:msmzTaGWnddnUEUJHbtxbKA
p707
aVhttp://www.ebay.com/itm/6-TO-36-SNAG-FREE-SAFETY-PINS-DOUBLE-DIAMANTE-HIJAB-SCARF-BALCK-BROOCH-/261468034793?var=&hash=item3ce0b596e9:m:mnX5B2-R8H7_tufwDKvdS9g
p708
aVhttp://www.ebay.com/itm/12-Coloured-Snag-Free-Endless-Hair-Elastics-Bands-Bobbles-Hair-Accessory-/121330323332?var=&hash=item1c3fd9cf84:m:moatPxQ4_xZnB0HUY8a1_8w
p709
aVhttp://www.ebay.com/itm/10-THICK-NAVY-BLUE-SNAG-FREE-NO-Metal-HAIR-ELASTICS-BOBBLES-HAIR-BANDS-GIRLS-/261437323622?epid=1708899996&hash=item3cdee0f966:g:nOUAAOSwkZhWRNza
p710
aVhttp://www.ebay.com/itm/Falconry-para-cord-flying-jesses-heat-treated-to-reduce-any-snagging-/271436345453?var=&hash=item3f32ddf06d:m:mOe_XltY-cRpb_UoWqM1oxQ
p711
aVhttp://www.ebay.com/itm/2x-New-Carp-Fishing-Bite-Alarms-With-Tone-Volume-Plus-Snag-Ears-And-Batteries-/271428594641?epid=1288504445&hash=item3f3267abd1:g:QlwAAOSw-0xYc5VA
p712
aVhttp://www.ebay.com/itm/SET-12-ENDLESS-HAIR-ELASTICS-PONYTAIL-BAND-COLOUR-CHOICE-GYM-SCHOOL-SNAG-FREE-/161234686777?var=&epid=1934346540&hash=item258a561339:m:miGDh5IqJPQA6N3wMm6ouEQ
p713
aVhttp://www.ebay.com/itm/12pc-THICK-SNAG-FREE-ENDLESS-HAIR-ELASTICS-BANDS-PONIOS-BOBBLES-PONYTAIL-SCHOOL-/400666855622?var=&hash=item5d499b08c6:m:m2zZ4ktVvsqNMlWGd0VLB-g
p714
aVhttp://www.ebay.com/itm/12-Satin-Finish-Snag-Free-Endless-Hair-Elastics-Bobbles-Hair-Bands-Accessories-/261394473133?var=&hash=item3cdc5320ad:m:m0nGMs-CcNcSh4RAbE5fy8A
p715
aVhttp://www.ebay.com/itm/HAIR-ELASTICS-Girls-Metallic-Black-Bobbles-Bands-Ponytail-Snag-Free-Thick-Thin-/261385015513?var=&hash=item3cdbc2d0d9:m:mkS-6oy06DS2vmSMMGi32GA
p716
aVhttp://www.ebay.com/itm/ENTERPRIZE-TACKLE-END-TACKLE-CARP-BARBEL-PIKE-OR-SEA-/171228859749?var=&hash=item27de090d65:m:mh4NidhGlQbBbr1eJ7yxhuQ
p717
aVhttp://www.ebay.com/itm/MATRIX-SNAG-FREE-BROLLY-ARM-Seatbox-Accessories-fits-rive-box-/400652331249?var=&hash=item5d48bd68f1:m:mu3U6iyLGByOp0Ue-ajVBDQ
p718
aVhttp://www.ebay.com/itm/ALUMINIUM-SNAG-BAR-EAR-COMPATIBLE-WITH-ANY-ALARM-NGT-CARP-FISHING-/171225493837?epid=1621841608&hash=item27ddd5b14d:g:~iAAAOxyLN9SjUpQ
p719
aVhttp://www.ebay.com/itm/Round-Pearl-Snag-Free-Safety-Pin-Craft-Dressmaking-Hijab-Scarf-Tailor-Pins-Wheel-/321305178827?var=&hash=item4acf47f2cb:m:mRzXXXrsniFzqG06oAuPuNw
p720
aVhttp://www.ebay.com/itm/Delkim-NEW-TXI-Plus-Bite-Alarms-Purple-x3-Receiver-Combo-FREE-Snag-Ears-x3-/370980802579?epid=1851595373&hash=item56602dd013:g:CUEAAOxygPtSy9dv
p721
aVhttp://www.ebay.com/itm/Different-designs-HIJAB-SCARF-SAFETY-PINS-Wholesale-/141158394209?var=&hash=item20ddb22961:m:mm0Qdkx2hU9RB-i_lqqs8dA
p722
aVhttp://www.ebay.com/itm/SNAG-FREE-SAFETY-PINS-HIJAB-SCARF-PINS-/131086442752?epid=1960380309&hash=item1e855c6100:g:QRYAAOxyNo9SyKeT
p723
aVhttp://www.ebay.com/itm/Set-of-12-3mm-Girls-Toddler-Childrens-Endless-Snag-Free-Hair-Elastics-Bobbles-/181277461041?var=&epid=1763054534&hash=item2a34fa8a31:m:magBde1ziD6_8t8m7s0PznQ
p724
aVhttp://www.ebay.com/itm/BLACK-THIN-ELASTIC-ENDLESS-SNAG-FREE-HAIR-BANDS-PONYTAIL-HOLDER-BOBBLES-PONIO-/291028486918?var=&hash=item43c2a64b06:m:myD-2d5pYiUq-7Uf3UH_8wg
p725
aVhttp://www.ebay.com/itm/10-Coloured-Snag-Free-Endless-Hair-Elastics-Bobbles-Hair-Bands-Accessories-/261337646607?var=&hash=item3cd8f0060f:m:maa_vadbTLOKfAM5y7bXsLQ
p726
aVhttp://www.ebay.com/itm/Pearl-Hijab-Scarf-Pins-Safety-Pin-Multicolor-Black-Wheel-Tailor-Sewing-Snag-Free-/321245608185?var=&hash=item4acbbaf8f9:m:mgUPEYqRk5xp5XV_T45Phgw
p727
aVhttp://www.ebay.com/itm/8-Adult-Thick-Large-Endless-Snag-Free-Hair-Elastics-Bobbles-Bands-Ponios-/181226885986?var=&epid=1473183022&hash=item2a31f6d362:m:mgSaYkTiQ5B6YqMcRsEalHQ
p728
aVhttp://www.ebay.com/itm/4-x-NGT-BLACK-SNAG-EAR-BARS-FOR-BITE-ALARMS-UNIVERSAL-CARP-FISHING-TACKLE-FOUR-/231061850341?epid=1788424867&hash=item35cc5c08e5:g:MwEAAOxy6MBSQe0f
p729
aVhttp://www.ebay.com/itm/3-x-NGT-BLACK-SNAG-EAR-BARS-FOR-BITE-ALARMS-UNIVERSAL-CARP-FISHING-TACKLE-THREE-/400578784822?epid=1792322956&hash=item5d445b2e36:g:vhoAAOxyHltSQexA
p730
aVhttp://www.ebay.com/itm/4-x-NGT-ALUMINIUM-SNAG-EAR-BARS-FOR-BITE-ALARMS-UNIVERSAL-CARP-FISHING-TACKLE-/231056818948?epid=1788426310&hash=item35cc0f4304:g:WEsAAOxy79JSaXjL
p731
aVhttp://www.ebay.com/itm/3-x-NGT-ALUMINIUM-SNAG-EAR-BARS-FOR-BITE-ALARMS-UNIVERSAL-CARP-FISHING-TACKLE-/231056818299?epid=1388369415&hash=item35cc0f407b:g:NjwAAMXQVERSzpRB
p732
aVhttp://www.ebay.com/itm/2-x-NGT-ALUMINIUM-SNAG-EAR-BARS-FOR-BITE-ALARMS-UNIVERSAL-CARP-FISHING-TACKLE-/360741692396?epid=1650845003&hash=item53fde163ec:g:UFAAAOxyGqZSaXof
p733
aVhttp://www.ebay.com/itm/NGT-ALUMINIUM-SNAG-EAR-BARS-FOR-BITE-ALARMS-UNIVERSAL-CARP-FISHING-TACKLE-/231056816203?epid=1288423372&hash=item35cc0f384b:g:M4UAAOxyFjNSOKii
p734
aVhttp://www.ebay.com/itm/3-x-Aluminium-Snag-Bar-Ears-For-Delkim-Fox-And-For-Bite-Alarms-NGT-Carp-Fishingg-/271276827983?epid=1188352130&hash=item3f295be54f:g:lu0AAOxy~ilSQsFe
p735
aVhttp://www.ebay.com/itm/3-x-UNIVERSAL-ALUMINIUM-ALLOY-SNAG-BARS-FOR-BITE-ALARMS-CARP-FISHING-TACKLE-/221282436676?epid=873838944&hash=item3385760644:g:V0IAAOxyYu9SMrMu
p736
aVhttp://www.ebay.com/itm/2-x-UNIVERSAL-ALUMINIUM-ALLOY-SNAG-BARS-FOR-BITE-ALARMS-CARP-FISHING-TACKLE-/380717868785?hash=item58a48da6f1:g:PZ4AAOxyhotSMrDJ
p737
aVhttp://www.ebay.com/itm/12-Girls-High-Quality-Thick-Endless-Snag-Free-Hair-Elastics-Bobbles-Bands-Ponios-/171103689692?var=&epid=1864023327&hash=item27d6931bdc:m:mJYGBbXlu_RYok4o2Sp4Q5w
p738
aVhttp://www.ebay.com/itm/6-Pc-Snag-Free-Safety-Pins-Hijab-Scarf-Pins-/330965847631?var=&hash=item4d0f1a0e4f:m:mSWvVPRjoAfOL0KBjlWInZg
p739
aVhttp://www.ebay.com/itm/Hemline-Snag-Repair-Tool-Mini-Latch-Hook-Knitted-Garments-/200944376809?epid=781949954&hash=item2ec937dbe9:g:v98AAOSwM0FXIJcI
p740
aVhttp://www.ebay.com/itm/Hemline-Ball-Point-Snag-Repair-Needle-8cm-Sticky-Shank-Sewing-/200944375264?epid=1111586060&hash=item2ec937d5e0:g:ZR0AAOSwKfVXIJY1
p741
aVhttp://www.ebay.com/itm/Mini-Coloured-snag-free-Hair-Elastics-in-a-clear-plastic-purse-bobbles-loops-/181167089936?var=&hash=item2a2e666910:m:mEL5n-OxQhSSdxc0b1YuOzQ
p742
aVhttp://www.ebay.com/itm/Jag-316-Stainless-BANKSTICKS-BUZZER-BUZZ-BARS-STABILISER-SNAG-BAR-PAY-1-POST-/130933177228?var=&hash=item1e7c39bb8c:m:mp7NLNQyjJiQw7vK_pC4V8w
p743
aVhttp://www.ebay.com/itm/Snag-Free-50pc-Coloured-Hair-Elastics-in-a-clear-plastic-purse-bobbles-loops-/171055405631?var=&hash=item27d3b25a3f:m:mb4epSP1pGDeH4hZWG_fDjQ
p744
aVhttp://www.ebay.com/itm/12-Thick-Snag-Free-Endless-Hair-Elastics-Bobbles-Ponios-/221236731187?var=&epid=1156498560&hash=item3382bc9d33:m:m3xIbpb6rebV_0AcWphcmog
p745
aVhttp://www.ebay.com/itm/12-Soft-Endless-Elastics-Ponios-Bobbles-No-Metal-Snag-Hair-Accessory-/321137450492?var=&hash=item4ac5489dfc:m:mzvbbsezkNV1VOqs-a6SNbQ
p746
aVhttp://www.ebay.com/itm/10pc-ENDLESS-SNAG-FREE-HAIR-ELASTIC-BAND-BOBBLE-NAVY-BLUE-RED-BROWN-BLACK-4-5cm-/400491304990?var=&hash=item5d3f24581e:m:mJJUHPrZIg1atpCqgRo6fnw
p747
aVhttp://www.ebay.com/itm/Snag-Repair-Needle-/400488823831?hash=item5d3efe7c17:m:m-caVxuBGmy_z_QKog_-kRg
p748
aVhttp://www.ebay.com/itm/THICK-ENDLESS-SNAG-FREE-ELASTIC-PONYTAIL-BOBBLE-HAIR-BUN-DOUGHNUT-HEAD-BANDS-NEW-/370765505013?var=&hash=item565358a1f5:m:mj8Pe6NjcTq4l4yu3apAZ3g
p749
aVhttp://www.ebay.com/itm/Matrix-Innovations-Accessories-Complete-Range-Available-/300844607112?var=&hash=item460bbc6688:m:mdYQPISAA1_E20sgrjaST_g
p750
aVhttp://www.ebay.com/itm/Matrix-Innovations-Snag-Arms-Both-Types-Available-/300844581851?var=&hash=item460bbc03db:m:miThiJKLRVtW6bkW636FPzQ
p751
aVhttp://www.ebay.com/itm/Matrix-Innovations-Super-Slinky-Snag-Bars-All-Types-Available-/121049707284?var=&hash=item1c2f1ff314:m:mlyi9E_Y-G41JRU1GcifjMw
p752
aVhttp://www.ebay.com/itm/Matrix-Innovations-Rock-Solid-Snag-Bars-All-Types-Available-/300844504482?var=&hash=item460bbad5a2:m:mKvAo1a3BHP8dTDRpnbeE-Q
p753
aVhttp://www.ebay.com/itm/12x-THICK-ENDLESS-COLOUR-HAIR-ELASTICS-BOBBLES-SNAG-FREE-HAIR-ACCESSORIES-NEW-/290841259695?var=&hash=item43b77d6eaf:m:mkmo4C93iVLdkCPLM_dbGAQ
p754
aVhttp://www.ebay.com/itm/50pc-Coloured-snag-free-Hair-Elastics-in-a-clear-plastic-purse-bobbles-loops-/170965391769?var=&hash=item27ce54d999:m:mb4epSP1pGDeH4hZWG_fDjQ
p755
aVhttp://www.ebay.com/itm/6X-THICK-SNAG-FREE-ENDLESS-HAIR-ELASTIC-PONYTAIL-BOBBLE-HAIR-BANDS-TOWELING-TYPE-/370710413312?var=&hash=item5650100000:m:mATwlzeiaveUdatLtXP-i6Q
p756
aVhttp://www.ebay.com/itm/THICK-ENDLESS-SNAG-FREE-ELASTIC-PONYTAIL-BOBBLE-HAIR-BUN-DOUGHNUT-HEAD-BANDS-NEW-/290822493926?var=&hash=item43b65f16e6:m:mIa8A0qweuHv9iyM2mlvBoA
p757
aVhttp://www.ebay.com/itm/BLACK-THICK-ELASTIC-ENDLESS-SNAG-FREE-HAIR-BANDS-PONYTAIL-BOBBLES-PONIOS-X-12-/281028037298?epid=1788369182&hash=item416e938ab2:g:PFYAAOSwdvpWDG8z
p758
aVhttp://www.ebay.com/itm/Baiting-needle-with-anti-snag-closing-clasp-stainless-steel-knurled-handle-/221125897157?epid=1288353167&hash=item337c216bc5:m:m7pjvBp57Do6HbBo3AS_zWA
p759
aVhttp://www.ebay.com/itm/Hemline-Snag-Repair-Needle-/330768981163?epid=1111586060&hash=item4d035e1cab:g:s5AAAOSwCZ5VfzLY
p760
aVhttp://www.ebay.com/itm/Fox-Black-Label-Snag-Ears-/140735278914?hash=item20c479ef42:m:mbBsQiBFbmZzexngjRIzlkg
p761
aVhttp://www.ebay.com/itm/HEART-SHAPED-NAVEL-BELLY-BARS-DIAMANTE-STUDDED-WITH-SNAG-FREE-ACRYLIC-COATING-/220966484558?var=&hash=item3372a0fa4e:m:m9E0-DggQIYxDBLc0FJBplg
p762
aVhttp://www.ebay.com/itm/Brand-New-Fox-Snag-Leader-Line-All-Colours-Breaking-Strains-/300639878533?var=&hash=item45ff887d85:m:m-tMfAmWyuxqgaf6lqidZnw
p763
aVhttp://www.ebay.com/itm/Pair-of-Sailguard-Wheels-Prevents-Snagging-and-Reduces-Wear-and-Tear-on-Sails-/250920670938?hash=item3a6c0996da:g:sEUAAOSw9GhYies4
p764
aVhttp://www.ebay.com/itm/Delkim-Safe-D-Carbon-Snag-Ears-/130576070518?epid=1888746106&hash=item1e66f0b776:g:QssAAOSwPhdVEXMk
p765
aVhttp://www.ebay.com/itm/MAVER-B8-SHIELD-FOR-SNAG-FREE-LURE-FISHING-/180715754806?var=&hash=item2a137f9536:m:mxVESfbCxtmto2X7INe0O5w
p766
aVhttp://www.ebay.com/itm/12-THICK-SNAG-FREE-ENDLESS-HAIR-ELASTICS-BOBBLES-PONIOS-/120754437563?var=&hash=item1c1d867dbb:m:mk9kjkzOAVUPMWI994ZHxJQ
p767
aVhttp://www.ebay.com/itm/ULTIMA-POWER-XTREME-SNAG-LEADER-50M-SPOOL-CARP-/120746551290?var=&epid=1548656319&hash=item1c1d0e27fa:m:mORqknmsLzls-T2TuHRRt5Q
p768
aVhttp://www.ebay.com/itm/Matrix-NEW-Fishing-Stainless-Deluxe-Snag-Arms-Ears-/230632665894?epid=1648640864&hash=item35b2c73326:m:m6xe_VJchEduI_NfbD-5nZw
p769
aVhttp://www.ebay.com/itm/Gardner-G-Force-Butt-grip-for-snag-fishing-Pay-1-post-/140552616266?epid=695247068&hash=item20b996b94a:m:mVOenSD0tn_nNfDoK6nbtNA
p770
aVhttp://www.ebay.com/itm/100-Premium-Teflon-Carp-Tackle-Fishing-Tackle-Hooks-Micro-barb-/220785575085?var=&hash=item3367d884ad:m:mz6UlCfbZnYsSPAK_ZdjTqA
p771
aVhttp://www.ebay.com/itm/Quality-Gold-Eye-Pony-Hand-Sewing-Needles-All-Types-Sharp-Tapestry-Etc-/270735262968?var=&hash=item3f091444f8:m:msFmwGEqTh1XSPIQutMv9jA
p772
aVhttp://www.ebay.com/itm/JAG-Products-316-Stainless-Steel-3-Rod-Fixed-Snag-Bar-/110599371021?var=&hash=item19c03c790d:m:m_qZt5Qh-v-vdpvU6-9gagg
p773
a.