(lp0
Vhttp://www.ebay.com/itm/Geo-Orgone-Tetrahedron-Pyramid-Chakra-Yin-Yang-Psychic-Attack-Shungite-Sodalite-/261660783144?hash=item3cec32b228:g:JuIAAOSwZjJU7kCZ
p1
aVhttp://www.ebay.com/itm/MERKABA-Tetrahedron-Sacred-Geometry-vinyl-sticker-/302372712612?hash=item4666d170a4:g:VaYAAOSw241YZj0F
p2
aVhttp://www.ebay.com/itm/Tensor-Ring-Tetrahedron-Vortex-Generator-Harmoniser-Frequency-Antenna-Energy-/182060758245?hash=item2a63aab4e5:g:3EUAAOSwZ8ZW7oZN
p3
aVhttp://www.ebay.com/itm/Orgone-Aluminium-Resin-Casting-Tetrahedron-Pyramid-Mold-Mould-120mm-Base-/332299250072?hash=item4d5e942998:g:PEwAAOSwp5JWVaku
p4
aVhttp://www.ebay.com/itm/Orgone-Aluminium-Resin-Casting-Tetrahedron-Pyramid-Mold-Mould-bundle-of-8-/232146705453?hash=item360d059c2d:g:PEwAAOSwp5JWVaku
p5
aVhttp://www.ebay.com/itm/3d-Effect-Tetrahedron-Black-Charcoal-Grey-Paste-the-Wall-Wallpaper-/262468177618?epid=1841865434&hash=item3d1c528ed2:g:i9wAAOSwv0tVeABe
p6
aVhttp://www.ebay.com/itm/Nickel-Free-Metal-Beads-Antique-Silver-Various-Beads-to-choose-from-/141085724880?var=&hash=item20d95d50d0:m:m33xsTKqVNIXWORnlzi4V1g
p7
aVhttp://www.ebay.com/itm/Solid-Brass-Tetrahedron-Studs-Punk-Rock-Leather-Bag-Craft-Biker-12-mm-AHW-/171254569214?var=&hash=item27df9158fe:m:mAqgQsjJx_uuPq3BsSqBf5Q
p8
aVhttp://www.ebay.com/itm/Geo-Orgone-Tetrahedron-Pyramid-Gold-Silver-Copper-Brass-Steel-Shungite-Wealth-OM-/181316598256?hash=item2a374fb9f0:g:B1EAAOxy4dNS79PD
p9
aVhttp://www.ebay.com/itm/Orgone-Spiritual-Tetrahedron-Pyramid-Protection-Ornament-Turquoise-Tigers-Eye-/261389986929?hash=item3cdc0eac71:g:B1EAAOxy4dNS79PD
p10
aVhttp://www.ebay.com/itm/Orgone-Tetrahedron-Pyramid-Chakra-Yin-Yang-Psychic-Attack-Monatomic-Gold-Orme-/261389990691?hash=item3cdc0ebb23:g:B1EAAOxy4dNS79PD
p11
a.