(lp1
Vhttp://www.ebay.com/itm/Fisher-Price-Classic-Infant-Trio-Gift-Set-BRAND-NEW-/112467674471?hash=item1a2f988567:g:-iIAAOSwuMZZMvdd
p2
aVhttp://www.ebay.com/itm/Okuma-NEW-Prologic-Trio-Rex-TX-60-FD-Reel-6-1BB-47438-/371923685262?epid=1041541474&hash=item5698610f8e:g:U84AAOSwIWVY9fGx
p3
aVhttp://www.ebay.com/itm/LOCTITE-Super-Glue-POWER-FLEX-MINI-TRIO-GEL-Flexible-Adhesive-3-x-1g-Tubes-/151658693853?hash=item234f9004dd:g:K2sAAOSwaeRZJVv4
p4
aVhttp://www.ebay.com/itm/PARAGON-CHINA-ROSE-A-342-CUP-SAUCER-SIDE-PLATE-TRIO-/311913594078?hash=item489f7fbcde:g:qp8AAOSwTY9ZY6jH
p5
aVhttp://www.ebay.com/itm/Art-Deco-Vintage-China-Tea-Set-Trio-Royal-Albert-Crown-China-Gaiety-British-/192234892166?hash=item2cc217ab86:g:bG0AAOSwImRYXtsG
p6
aVhttp://www.ebay.com/itm/Royal-Albert-Serena-Bone-China-Trio-Tea-Cup-Saucer-Side-Plate-/122577782811?hash=item1c8a34881b:g:Jf0AAOSwE0JY-S9j
p7
aVhttp://www.ebay.com/itm/Coalport-BATWING-cobalt-blue-Y2480-TEA-TRIO-cup-saucer-plate-DEMITASSE-Coffee-/382162375392?hash=item58faa712e0:g:UOsAAOSwcx5ZZoWq
p8
aVhttp://www.ebay.com/itm/Art-Deco-Royal-Worcester-Pekin-Trio-of-Teacup-Saucer-Plate-1937-/122567780999?hash=item1c899bea87:g:RjUAAOSwvjdZUSDo
p9
aVhttp://www.ebay.com/itm/Wileman-tea-set-trio-Jungle-print-on-Daisy-shape-1890-/152517275842?hash=item2382bcf0c2:g:NHkAAOSwRUhY99SG
p10
aVhttp://www.ebay.com/itm/Antique-Teacup-Saucer-Trio-Hand-Painted-Porcelain-Dresden-Spray-19th-C-/122582766736?hash=item1c8a809490:g:HOUAAOSwjKFZXKnj
p11
aVhttp://www.ebay.com/itm/Panasonic-KX-TG-8063-Trio-Cordless-Phone-with-Integrated-Answering-Machine-New-/152119654906?hash=item236b09b9fa:g:h0EAAOSwcLxYJJJb
p12
aVhttp://www.ebay.com/itm/Avishai-Cohen-Trio-From-Darkness-Vinyl-12-Album-NEW-/351939732839?epid=1637580573&hash=item51f13e2567:g:n7IAAOSwa~BYXCqX
p13
aVhttp://www.ebay.com/itm/SHELLEY-porcelain-ROSES-ON-TRELLIS-2327-DAINTY-CUP-SAUCER-PLATE-TRIO-3-AVAILABLE-/362036736939?hash=item544b1233ab:g:XP8AAOSwJq1ZZo5~
p14
aVhttp://www.ebay.com/itm/Art-Deco-Vintage-China-Tea-Set-Trio-Heathcote-China-The-Glade-British-/201979946269?hash=item2f06f1651d:g:-xgAAOSwPh5ZN89D
p15
aVhttp://www.ebay.com/itm/Avishai-Cohen-Trio-Gently-Disturbed-Vinyl-12-Album-NEW-/302174328973?epid=202813078&hash=item465afe588d:g:m0sAAOSwgGJYXJ5D
p16
aVhttp://www.ebay.com/itm/Antique-Rose-Pattern-8095-Wileman-Foley-Trio-Cup-Saucer-Side-Plate-Cobalt-Blue-/311832693463?hash=item489aad4ad7:g:npsAAOSwzgBY1qOU
p17
aVhttp://www.ebay.com/itm/Chet-Baker-Trio-Chets-Choice-CD-NEU-/302320838618?epid=66532267&hash=item4663b9e7da:g:jisAAOSw0hlZHbcB
p18
aVhttp://www.ebay.com/itm/Vintage-Tuscan-Bone-China-Trio-Tea-Cup-Saucer-Side-Plate-Single-Pink-Rose-/122572724284?hash=item1c89e7583c:g:gOIAAOSw8d5ZVYcT
p19
aVhttp://www.ebay.com/itm/Holly-Trio-Cole-Dont-Smoke-In-Bed-NEW-CD-/390964591872?epid=30642029&hash=item5b074e3d00:g:8tsAAOSwGWNUV6Sm
p20
aVhttp://www.ebay.com/itm/Antique-mid-19th-Century-White-Gold-Tea-Trio-Teacup-Saucer-Plate-A-/232226521906?hash=item3611c78332:g:Yc8AAOSwImRYkz1O
p21
aVhttp://www.ebay.com/itm/Royal-Albert-Lady-Hamilton-Trio-Tea-Cup-Saucer-Side-Plate-/122577783320?hash=item1c8a348a18:g:l3cAAOSw0UdXrwwy
p22
aVhttp://www.ebay.com/itm/Shelley-Dorothy-Shape-Lowestoft-Pattern-Tea-Cup-Trio-/172774151070?hash=item283a24539e:g:tsAAAOSwiYFXLe~J
p23
aVhttp://www.ebay.com/itm/Vintage-Old-Royal-Bone-China-Trio-Wild-Roses-Flowers-7820-/122600045361?hash=item1c8b883b31:g:ns0AAOSwCQZZA78c
p24
aVhttp://www.ebay.com/itm/Art-Deco-Vintage-China-Tea-Set-Trio-Aynsley-china-5242-British-/192239865931?hash=item2cc263904b:g:gMAAAOSwtGlZNpb0
p25
aVhttp://www.ebay.com/itm/Vintage-Shelley-Rose-Spray-Pattern-No-2513-Trio-Teacup-Saucer-Tea-Plate-/311795265046?hash=item4898722e16:g:4~AAAOSw9GhYleoJ
p26
aVhttp://www.ebay.com/itm/Vintage-Paragon-Rockingham-Trio-tea-cup-saucer-tea-plate-green-/122593129081?hash=item1c8b1eb279:g:P4IAAOSwTY9ZZK1H
p27
aVhttp://www.ebay.com/itm/UNIVERSAL-BONE-CHINA-1950s-TRIO-CUP-SAUCER-PLATE-SET-GOLD-STARS-YELLOW-HARLEQUIN-/292176880155?hash=item440719621b:g:NEkAAOSwImRYe5rc
p28
aVhttp://www.ebay.com/itm/Mintons-pre-Minton-Antique-Floral-Gold-Tea-Trio-Cup-Saucer-Plate-/332245675913?hash=item4d5b62af89:g:aFcAAOSw8lpZLrC7
p29
aVhttp://www.ebay.com/itm/Mintons-pre-Minton-Antique-Floral-Gold-Tea-Trio-Cup-Saucer-Plate-/332245675913?hash=item4d5b62af89:g:aFcAAOSw8lpZLrC7
p30
aVhttp://www.ebay.com/itm/LIQUID-TRIO-EXPERIMENT-SPONTANEOUS-COMBUSTION-New-Sealed-CD-Dream-Theater-/281802461190?epid=62650149&hash=item419cbc5006:g:9u0AAOSwuTxV-pYn
p31
aVhttp://www.ebay.com/itm/Dolly-Parton-Linda-Ronstadt-Emmylou-Harris-Complete-Trio-NEW-3-x-CD-/351789070334?epid=1378570510&hash=item51e84337fe:g:mIkAAOSwaB5XkIx4
p32
aVhttp://www.ebay.com/itm/Royal-Albert-Moss-Rose-Trio-Tea-Cup-Saucer-Side-Plate-/122577782724?hash=item1c8a3487c4:g:89cAAOSw5ClXxpaB
p33
aVhttp://www.ebay.com/itm/Wedgwood-Gold-Grecian-Pattern-Trio-Cup-Saucer-Side-Plate-11-available-/172471350375?hash=item282817f467:g:wHUAAOSwEzxYa9ZE
p34
aVhttp://www.ebay.com/itm/Trio-Tekke-Ta-Reggetika-NEW-CD-/351122236090?epid=129480354&hash=item51c08422ba:g:VLAAAOSwKPNTyoaQ
p35
a.