(lp1
Vhttp://www.ebay.com/itm/THE-ITCHY-SCRATCHY-SHOW-Homer-The-Simpsons-UCL-Official-T-shirt-U-L-/282549063880?var=&hash=item41c93c90c8:m:mV5-acWaHWivdtlJYbaJXMw
p2
aVhttp://www.ebay.com/itm/The-Simpsons-OFFICIAL-Itchy-Scratchy-Logo-T-Shirt-16E-/142330910936?var=&hash=item21239558d8:m:m21IomLa8h9enfAccifcwRw
p3
aVhttp://www.ebay.com/itm/Simpsons-Itchy-vs-Scratchy-Mens-T-Shirts-/231819453291?var=&hash=item35f984236b:m:mUN1_SBwKawpo0Sq86RyDjQ
p4
aVhttp://www.ebay.com/itm/Lego-Series-1-The-Simpsons-Minifigure-Scratchy-New-Sealed-Packet-/142241867998?epid=1924649230&hash=item211e46a8de:g:0xYAAOSwa~BYdkuw
p5
aVhttp://www.ebay.com/itm/The-Simpsons-lego-minifigure-series-1-SCRATCHY-loose-with-axe-/311905741288?hash=item489f07e9e8:g:Xz8AAOSwax5Y23sQ
p6
aVhttp://www.ebay.com/itm/Lego-minifigures-scratchy-the-simpsons-series-1-71005-new-factory-sealed-/182075318139?epid=1137600635&hash=item2a6488df7b:g:iCIAAOSw8gVX76L2
p7
aVhttp://www.ebay.com/itm/TY-BEANIE-BABY-BABIES-SCRATCHY-FROM-RASTAMOUSE-PLUSH-SOFT-TOY-NEW-WITH-TAGS-/302207419950?hash=item465cf7462e:m:mYYKVt2IYL0uZREF8NWZUfA
p8
aVhttp://www.ebay.com/itm/Lego-The-Simpsons-Minifigures-Series-1-71005-BRAND-NEW-PICK-ANY-ONE-2014-/191208099624?var=&hash=item2c84e40f28:m:mj32czF4smtrn1KtVAqY2rg
p9
aVhttp://www.ebay.com/itm/LEGO-The-Simpsons-Scratchy-Removed-from-packet-NEW-SIM020-/271475672264?epid=1924649230&hash=item3f353604c8:g:E0sAAMXQDnpTZTKz
p10
aVhttp://www.ebay.com/itm/LEGO-Simpsons-Mini-Figure-Series-1-Scratchy-71005-14-SIM020-RBB-/232410329066?hash=item361cbc2fea:g:yAEAAOSw95FZacwl
p11
aVhttp://www.ebay.com/itm/U-Hugs-Scratchy-DJ-Original-Character-Doll-/272514170863?hash=item3f731c3fef:g:zFQAAOSwo4pYccem
p12
aVhttp://www.ebay.com/itm/Vesper-V-Scratchy-Sisal-Pad-for-52041-52042-52043-52045-52046-52048-52052-/121970324028?hash=item1c65ff723c:g:w~UAAOSw~oFXIHgP
p13
aVhttp://www.ebay.com/itm/Official-Slayer-Scratchy-Logo-Womens-T-Shirt-Band-Merch-Metallica-Exodus-USA-/121590197083?var=&hash=item1c4f572b5b:m:m76Ox2N2yedIVtTXpjZX_yQ
p14
aVhttp://www.ebay.com/itm/The-Simpsons-TCG-Rare-and-Foil-Cards-Part-1-2-A-M-/290673146657?var=&hash=item43ad783b21:m:m7q__NT8Fhvg8O9_bqkYmIQ
p15
aVhttp://www.ebay.com/itm/TY-BEANIE-BABIES-SCRATCHY-ZOOMER-FROM-RASTAMOUSE-PLUSH-SOFT-TOYS-NEW-TWIN-SET-/391476961967?hash=item5b25d862af:g:4PsAAOSwBahVepvX
p16
aVhttp://www.ebay.com/itm/New-Dog-Nail-Caps-Clips-Paw-Guard-Adhesive-Nails-Anti-Scratchy-Pet-Grooming-20pc-/251462367146?var=&epid=1262276742&hash=item3a8c5337aa:m:mHI7D2FJ5iIsVv8IhY9wvKw
p17
aVhttp://www.ebay.com/itm/20Pcs-Cat-Nail-Caps-Clips-Paw-Guard-Adhesive-Nails-Anti-Scratchy-Pet-Grooming-/261409693364?var=&epid=1762044574&hash=item3cdd3b5eb4:m:mShmRos9pTFTgox_KhugEzA
p18
aVhttp://www.ebay.com/itm/Tonic-Studios-Tim-Holtz-retractable-point-craft-scratchy-or-scratcher-tool-255E-/261401477243?epid=1166188957&hash=item3cdcbe007b:g:p9gAAOxysstSX7e2
p19
aVhttp://www.ebay.com/itm/Scratchy-Dog-Birthday-Card-A5-PGS490GC-FREE-UK-POSTAGE-/170830373669?hash=item27c648a325:m:mZ-L5SBBJXWcQ9hHsmtobVg
p20
aVhttp://www.ebay.com/itm/KITTY-HOOTS-BIG-MAMAS-SCRATCH-O-RAMA-SCRATCHY-MAT-FOR-CATS-CONTAINS-CATNIP-/232176464958?hash=item360ecbb43e:g:jskAAOSwV-RXE5jT
p21
aVhttp://www.ebay.com/itm/71005-SIMPSONS-Minifigures-Lego-Series-Choose-your-mini-figures-NEW-in-packet-/201095232778?var=&hash=item2ed235bd0a:m:mrM5ijACWpPDBQFzFTq0uMA
p22
aVhttp://www.ebay.com/itm/Large-14-Rastamouse-Plush-Soft-Toy-Scratchy-Zoomer-Wensyledale-/272195893340?var=&hash=item3f6023b85c:m:mHBnJ21PTWgG7rTGVo3dqaw
p23
aVhttp://www.ebay.com/itm/NEW-RASTAMOUSE-FIGURE-ACCESSORY-PACK-Scratchy-with-Guitar-/150822730357?hash=item231dbc3a75:g:7q8AAOSwiDFYLX4O
p24
aVhttp://www.ebay.com/itm/13-5-Rastamouse-Soft-Toys-Set-of-4-Rastamouse-Scratchy-Zoom-Wensly-Dale-/162342629018?hash=item25cc5fee9a:g:JzIAAOSwUKxYagM~
p25
aVhttp://www.ebay.com/itm/Ty-Beanie-Babies-46222-Rastamouse-Scratchy-/300812754518?epid=1711100617&hash=item4609d65e56:g:dIgAAOSwf-VWUEVh
p26
aVhttp://www.ebay.com/itm/LEGO-71005-THE-SIMPSONS-MINIFIGURES-CHOOSE-OR-PICK-A-FIGURE-FROM-THE-LIST-/261939217681?var=&hash=item3cfccb4511:m:mHwEw6aAh_gTFIsBFGiDPVQ
p27
aVhttp://www.ebay.com/itm/Lego-The-Simpsons-Minifigures-Series-71005-CHOOSE-YOUR-FIGURE-NEW-/331392197420?var=&hash=item4d2883a32c:m:mX2oKT1G28YHXZMeij5l_GA
p28
aVhttp://www.ebay.com/itm/NYK1-SMOOTHIE-Natural-Curved-Wood-Foot-File-Eliminates-Dry-Scratchy-Dead-Skin-/371936180078?hash=item56991fb76e:g:VBcAAOSwX61ZBvM~
p29
aVhttp://www.ebay.com/itm/Ty-Beanie-Babies-46222-Rastamouse-Scratchy-/300812754518?epid=1711100617&hash=item4609d65e56:g:dIgAAOSwf-VWUEVh
p30
a.