(lp1
Vhttp://www.ebay.com/itm/Zootropolis-Wily-Fox-Nick-Wilde-9-Inches-aka-Zootopia-Super-sized-Poseable-NEW-/262686752891?hash=item3d2959c07b:g:IDUAAOSwHMJYC64h
p2
aVhttp://www.ebay.com/itm/WILY-AND-THE-WISP-250-piece-WOODEN-JIGSAW-PUZZLE-by-Wentworth-NEW-Fox-/182447451602?hash=item2a7ab72dd2:g:sjEAAOSw5cNYmbct
p3
aVhttp://www.ebay.com/itm/Mega-Man-The-Wily-Wars-Sega-Megadrive-Replacement-Box-Art-Sleeves-Insert-Case-/302233197781?var=&hash=item465e809cd5:m:meWw5WnFk9QIB-5RdblEVvg
p4
aVhttp://www.ebay.com/itm/Framed-Print-Wily-Wild-White-Alaskan-Fox-in-the-Snow-Picture-Poster-Art-/321941156517?hash=item4af53032a5:g:I3oAAOSwrklVaiS9
p5
aVhttp://www.ebay.com/itm/MENS-KNEE-HIGH-QUALITY-WILY-COYOTE-SKI-SKIING-FOOTBALL-WELLY-SPORT-BOOT-SOCKS-/281193831078?hash=item4178755aa6:g:HCkAAOSwewJTodZG
p6
aVhttp://www.ebay.com/itm/UBUNTU-15-10-Wily-Werewolf-/142256539493?hash=item211f268765:g:KF4AAOSw4DJYh14d
p7
aVhttp://www.ebay.com/itm/Aurora-Flopsies-PLUSH-Cuddly-Soft-Toy-Teddy-Gift-New-Baby-12-inch-Brand-New-/351580631362?var=&epid=1937255798&hash=item51dbd6b142:m:mRsQLzkwWUgHSEHsYlTCU5w
p8
aVhttp://www.ebay.com/itm/MEGA-MAN-9-RETURN-OF-DR-WILY-VARIANT-SKETCH-CVR-ARCHIE-/390906275758?hash=item5b03d467ae:g:fWwAAOSwjDZYghbi
p9
aVhttp://www.ebay.com/itm/MTG-Kaladesh-KLD-Choose-your-Common-Playset-x-4-cards-N-W-New-1st-Class-Post-/201678270843?var=&hash=item2ef4f6317b:m:mmNqwFG5ljeXzGZ4wd9E0Zg
p10
aVhttp://www.ebay.com/itm/12-Flopsie-Willy-Wolf-Soft-Toy-New-12inch-Aurora-Plush-Cuddly-Flopsies-Wily-/361777212522?hash=item543b9a2c6a:g:PioAAOSwpLNYBsC5
p11
aVhttp://www.ebay.com/itm/Aurora-13269-WILY-WOLF-12-INCH-PLUSH-CUDDLY-TOY-BRAND-NEW-/162247585540?epid=1937255798&hash=item25c6b5af04:g:DYMAAOSwA3dYCPGh
p12
aVhttp://www.ebay.com/itm/Aurora-13269-WILY-WOLF-12-INCH-PLUSH-CUDDLY-TOY-BRAND-NEW-/162247585540?epid=1937255798&hash=item25c6b5af04:g:DYMAAOSwA3dYCPGh
p13
aVhttp://www.ebay.com/itm/Firewalls-and-Internet-Security-Repelling-the-Wily-Hacker-Add-9780201633573-/381508360488?epid=95070714&hash=item58d3ab9928:g:4cUAAOSwa-dWh9vy
p14
aVhttp://www.ebay.com/itm/12-Flopsie-Willy-Wolf-Soft-Toy-New-12inch-Aurora-Plush-Cuddly-Flopsies-Wily-/401209445887?hash=item5d69f24dff:g:pIAAAOSwzaJYBrsn
p15
aVhttp://www.ebay.com/itm/Wily-Cock-Penis-Leash-Practical-Joke-Hen-Night-Joke-Fun-/351251342590?hash=item51c83624fe:g:BzsAAOSw8cNUOhO-
p16
a.