(lp1
Vhttp://www.ebay.com/itm/Wallace-Wood-Presents-Shattuck-9781606999141-/351814504917?epid=221135432&hash=item51e9c751d5:g:dKUAAOSwQupXUo2s
p2
aVhttp://www.ebay.com/itm/Out-For-Blood-DVD-Region-2-Don-Wilson-Shari-Shattuck-Michael-Delano-and-Todd-/381049791335?hash=item58b8566367:g:~jsAAOSw5dNWojiV
p3
aVhttp://www.ebay.com/itm/Scream-at-the-Devil-DVD-2016-Shari-Shattuck-/381795834550?epid=1779462259&hash=item58e4ce1ab6:g:bukAAOSwnHZYkSBX
p4
aVhttp://www.ebay.com/itm/The-Banquet-Years-The-Origins-of-the-Avant-Garde-in-Fr-Paperback-NEW-Shattuck-/391501578060?epid=86578578&hash=item5b274fff4c:g:ow0AAOSwuzRXfiQB
p5
aVhttp://www.ebay.com/itm/Allergy-Cook-Book-Shattuck-Ruth-Paperback-Book-The-Cheap-Fast-Free-Post-/391747807532?epid=89948845&hash=item5b35fd292c:m:m6NT5BJ2jWT-KWYXtN747Gw
p6
aVhttp://www.ebay.com/itm/Proust-Modern-Masters-Shattuck-Roger-Paperback-Book-The-Cheap-Fast-Free-Post-/142413090308?epid=88684164&hash=item21287b4e04:g:mcQAAOSwyltZSDTa
p7
a.