(lp1
Vhttp://www.ebay.com/itm/100-Aunty-Fummi-Bouncy-Curly-Virgin-Brazilian-Peruvian-Malaysian-Hair-10-28-/152119630605?var=&hash=item236b095b0d:m:m8PXZBPBveFkHNWZdJpmgtw
p2
aVhttp://www.ebay.com/itm/100-Virgin-Brazilian-Peruvian-Malaysian-Kinky-Curly-Human-Hair-100g-10-28-/161890125207?var=&hash=item25b1674597:m:mu4-LMFDLwYoZo5klRPQZhQ
p3
aVhttp://www.ebay.com/itm/Brazilian-Virgin-Blonde-Lace-Closure-8Inch-Blonde-613-4X4-Bleach-Knot-BodyWave-/292093937393?hash=item440227c6f1:g:pjkAAOSwGJlZFAug
p4
aVhttp://www.ebay.com/itm/100-Real-Brazilian-Peruvian-Malaysian-Morrocon-Indian-Virgin-Remi-Human-Hair-/271347963756?var=&hash=item3f2d99576c:m:miDCQC-1JFeLOxmPpna3Nhg
p5
aVhttp://www.ebay.com/itm/12-Virgin-Brazilian-Human-Hair-13X4-Lace-Frontal-Closure-Free-Part-Body-Wave-/282093668036?hash=item41ae17c6c4:g:dHAAAOSwOVpXftpS
p6
aVhttp://www.ebay.com/itm/Brazilian-Hair-Extensions-Real-100-Human-Virgin-Remy-Natural-Premium-Weave-100g-/281222969590?var=&hash=item417a31f8f6:m:mcL7P53CYIOholS9BCJ49jA
p7
aVhttp://www.ebay.com/itm/28-inches-7A-113g-Brazilian-Deep-Wave-Virgin-Remy-100-HumanWeft-Hair-Extensions-/222535628862?hash=item33d028383e:g:yYAAAOSw~FJZLXyi
p8
aVhttp://www.ebay.com/itm/VENOM-VOL-3-150D-RARE-VIRGIN-COMIC-MINT-VARIANT-WK26-/362021810621?hash=item544a2e71bd:g:tBwAAOSw3YJZUo6t
p9
aVhttp://www.ebay.com/itm/7A-100-Brazilian-Malaysian-Real-Virgin-Human-Hair-Extensions-Wefts-Weave-300g-/112322409584?var=&hash=item1a26eff470:m:m3q3vArYHspddyiFDzRNU8Q
p10
aVhttp://www.ebay.com/itm/7A-VIRGIN-REMY-BRAZILIAN-HUMAN-HAIR-4X4-LACE-TOP-CLOSURE-STRAIGHT-/302365701078?var=&hash=item46666673d6:m:mUkp0aMs3i5116mEnkTTuNA
p11
aVhttp://www.ebay.com/itm/UK-seller-100-Virgin-Brazilian-Human-Hair-Body-Wave-Hair-Extension-Weave-100g-/162567391740?var=&hash=item25d9c589fc:m:mS5fYGBAawDZpcvdnpkUt_w
p12
aVhttp://www.ebay.com/itm/100g-Brazilian-Peruvian-Real-Virgin-Human-Hair-Extensions-Wefts-7A-Straight-Weav-/272667338642?var=&hash=item3f7c3d6792:m:mCYXNOG9E5qn90024leiX-w
p13
aVhttp://www.ebay.com/itm/BATMAN-DARK-NIGHTS-METAL-1-FRANCESCO-MATTINA-UNMASKED-VIRGIN-CBCS-9-8-ULTIMATE-/263090684301?hash=item3d416d418d:g:v-kAAOSwb~9ZatkA
p14
aVhttp://www.ebay.com/itm/Hair-Parting-Top-Closure-Brazilian-Virgin-Remy-6A-Human-Hair-Swiss-Lace-4x4-UK-/272323439926?var=&hash=item3f67bded36:m:maPEN621LqEn4qNcpOOGOeQ
p15
aVhttp://www.ebay.com/itm/100-Unprocessed-Brazilian-Remy-Virgin-Human-Hair-Bundles-Weave-Extension-100g-/281566516802?var=&hash=item418eac1642:m:mpxcujeiigq8EiyLCU1MK3A
p16
aVhttp://www.ebay.com/itm/100-Real-Malaysian-Brazilian-Peruvian-Kinky-Curly-Virgin-Human-Hair-Weave-1pac-/282426812188?var=&hash=item41c1f3271c:m:mvW7JqAZWpgcBxxp-M7_IhQ
p17
aVhttp://www.ebay.com/itm/100-Real-Malaysian-Brazilian-Peruvian-Kinky-Curly-Virgin-Human-Hair-Weave-1pac-/252852181235?var=&hash=item3adf2a18f3:m:m-XnIoXSSy0KwPt25TGQIQg
p18
aVhttp://www.ebay.com/itm/100-CAMBODIAN-VIRGIN-HUMAN-HAIR-WEFT-9A-UNPROCESSED-REAL-HAIR-100G-SAMEDAY-SHIP-/291826835387?var=&hash=item43f23c1fbb:m:mNci5ix8TpIWKQYECKJCLCQ
p19
aVhttp://www.ebay.com/itm/315g-3Bundles-Premium-Peruvian-Brazilian-100-Virgin-Human-Hair-Unprocessed-/322224703990?var=&hash=item4b0616c9f6:m:mV2usFBIcsUUi2NDSQw8TjA
p20
aVhttp://www.ebay.com/itm/100-7A-Brazilian-Virgin-Human-Hair-Weave-Extensions-Yaki-Kinky-Straight-Hair-/151719228653?var=&hash=item23532bb4ed:m:mxsanecYUiFf1SrsXwUhaBg
p21
aVhttp://www.ebay.com/itm/ALL-NEW-GUARDIANS-OF-THE-GALAXY-1-NATALI-SANDERS-Exclusive-Colour-Virgin-Set-/253028241650?hash=item3ae9a890f2:g:KzgAAOSwU8hY4r~L
p22
aVhttp://www.ebay.com/itm/Tape-In-100-Virgin-Human-Hair-Extensions-Seamless-Weft-Platinum-Blonde-60-/142125569109?var=&hash=item2117581455:m:mk8JV6fDhHazyTtRGLOzUpA
p23
aVhttp://www.ebay.com/itm/5-X-5-brazilian-virgin-human-hair-lace-closure-7A-body-wave-straight-14-inches-/221742777146?hash=item33a0e6433a:g:KMUAAOSwfVpYvcUS
p24
aVhttp://www.ebay.com/itm/Unprocessed-Brazilian-Kinky-Curly-Virgin-Hair-3-Bundles-Human-Hair-10-12-14-Inch-/182521401911?epid=579380646&hash=item2a7f1f9237:g:KioAAOSwTM5Y6KZU
p25
aVhttp://www.ebay.com/itm/Google-Pixel-32GB-5-Silver-EE-Orange-T-mobile-Virgin-Smartphone-UK-Stock-/152416229299?epid=511211535&hash=item237cb717b3:g:2msAAOSw4DJYkZD5
p26
aVhttp://www.ebay.com/itm/100-Brazilian-Real-Virgin-Remy-Human-Hair-Extensions-Wefts-7A-Grade-Weave-UK-/281914861023?var=&hash=item41a36f65df:m:mVu994MebPjQhDJUGvXzZ_g
p27
aVhttp://www.ebay.com/itm/300g-Afro-Kinky-Curly-FUNMI-Human-Hair-Extension-100-Virgin-Peruvian-Hair-Weave-/172480048838?var=&hash=item28289caec6:m:mpsgdCYrvLW5fEB8fEkJJBg
p28
aVhttp://www.ebay.com/itm/Our-Lady-of-Perpetual-help-Virgin-Mary-large-figurine-stands-32cm-high-/231955628371?epid=1871348168&hash=item3601a20153:g:ULAAAOSwneRXRZDJ
p29
aVhttp://www.ebay.com/itm/Straight-4x4-Hair-Parting-Lace-Top-Closure-6A-Virgin-Brazilian-Remy-Human-Hair-/282116344157?var=&hash=item41af71c95d:m:mVG0c-czm2rwBh-Lab_ozLA
p30
aVhttp://www.ebay.com/itm/X-10-Hair-Extension-Care-Kit-For-100-Real-Human-Virgin-Remy-Synthetic-Hair-/281252704229?var=&hash=item417bf7afe5:m:mBtV3-FN8a5xTHTrEBEGzhw
p31
aVhttp://www.ebay.com/itm/Brazilian-Virgin-LACE-FRONTALS-13x4-WATER-WAVE-Bleach-Knot-WATER-WAVE-FAST-SHIP-/291966604009?hash=item43fa90d2e9:g:TVsAAOSwEzxYSd8y
p32
aVhttp://www.ebay.com/itm/100-Brazilian-Virgin-Remy-3-Way-Freestyle-Silk-Base-Closure-4x4-Straight-Wavy-/281591152550?var=&hash=item419023ffa6:m:m2TDQDMDmmDFDdYgzEm4uLQ
p33
aVhttp://www.ebay.com/itm/100g-Brazilian-Peruvian-100-Real-Virgin-Human-Hair-Extensions-Wefts-7A-Weave-/252803746330?var=&hash=item3adc470a1a:m:mO6ptptIM0JNsZ_I1LckfQw
p34
aVhttp://www.ebay.com/itm/JUSTICE-LEAGUE-VS-SUICIDE-SQUAD-1-ARTGERM-VIRGIN-VARIANT-DC-COMICS-FIRST-PRINT-/132117307187?hash=item1ec2ce1f33:g:1xcAAOSwHMJYLHTC
p35
aVhttp://www.ebay.com/itm/100-PERUVIAN-VIRGIN-HUMAN-HAIR-WEFT-9A-UNPROCESSED-REAL-HAIR-100G-SAMEDAY-SHIP-/291826839817?var=&hash=item43f23c3109:m:mzzzBDXOjwGThOiPgOqbWqg
p36
aVhttp://www.ebay.com/itm/Brazilian-Virgin-Hair-Body-Wave-12-14-16-12-Closure-350g-1B-4-30-OMBRE-FASTSHIP-/291966614586?hash=item43fa90fc3a:g:OQEAAOSwnHZYSeUO
p37
aVhttp://www.ebay.com/itm/Brazilian-Temptation-Human-Hair-100-Virgin-Remy-Hair-Extension-105g-Unprocessed-/322191097532?var=&hash=item4b0415febc:m:msB-790johkstNtE8YAICvQ
p38
aVhttp://www.ebay.com/itm/18-Indian-Virgin-5A-Double-Drawn-Stick-Pre-Bonded-Remy-Hair-Extensions-1g-x25-/221743323161?var=&hash=item33a0ee9819:m:mFVHb8RC43IdHNq7jVSIVrQ
p39
aVhttp://www.ebay.com/itm/100-Hot-Brazilian-Virgin-Human-Hair-Lace-Top-Closure-Extension-Bleached-Knots-/251377178157?var=&hash=item3a873f562d:m:mN-knXb4ATmrO8llugXDyNA
p40
aVhttp://www.ebay.com/itm/100-Peruvian-Virgin-Remy-3-Way-Freestyle-Silk-Base-Closure-4x4-Straight-Wavy-/281861593434?var=&hash=item41a042995a:m:mjctxHGffX5ctSQLoV4jpEg
p41
aVhttp://www.ebay.com/itm/7A-VIRGIN-REMY-BRAZILIAN-HUMAN-HAIR-4X4-LACE-TOP-CLOSURE-BODY-WAVE-10-20-/302365688732?var=&hash=item466666439c:m:mAmqnaXuKgj1YOqi2omRjyQ
p42
aVhttp://www.ebay.com/itm/Hair-Parting-Lace-Top-Closure-6A-Virgin-Brazilian-Remy-Human-Hair-4x4-Free-Part-/282087872132?var=&hash=item41adbf5684:m:mtB_ge3PLGEbEyd9jRGIwhg
p43
aVhttp://www.ebay.com/itm/Brazilian-Virgin-Blonde-Closure-10Inch-613-4X4-Bleach-Knot-Body-Wave-Straight-/302175202962?hash=item465b0bae92:g:OT8AAOSwi7RZFLs1
p44
aVhttp://www.ebay.com/itm/300g-STRAIGHT-A-Brazilian-Peruvian-Real-Virgin-Human-Hair-Extensions-7A-Weave-/172491942504?var=&hash=item2829522a68:m:muKpEfu9cIqVr7597P5KLig
p45
aVhttp://www.ebay.com/itm/100-Peruvian-Virgin-Human-Curly-Black-Hair-Weave-EXTENSIONS-100g-12-28-1pc-/151097196622?var=&hash=item232e18404e:m:mP7HiOZ40qkkSU8Ci6347og
p46
aVhttp://www.ebay.com/itm/20-inches-7A-113g-Brazilian-Deep-Wave-Virgin-Remy-100-HumanWeft-Hair-Extensions-/222529238333?hash=item33cfc6b53d:g:yYAAAOSw~FJZLXyi
p47
aVhttp://www.ebay.com/itm/Nokia-301-Black-EE-Orange-Virgin-T-Mobile-Networks-Mobile-Phone-/221968919366?epid=173772411&hash=item33ae60eb46:g:7p0AAOSwax5YpVCJ
p48
aVhttp://www.ebay.com/itm/3BUNDLE-MONGOLIAN-VIRGIN-HUMAN-HAIR-NATURAL-COLOUR-1B-BODY-WAVE-FASTSHIP-9A-300g-/292120911057?var=&hash=item4403c35cd1:m:mGMLfPB-rKuDLxXn6mlFwxA
p49
aVhttp://www.ebay.com/itm/100-Afro-Kinky-Curly-Virgin-Brazilian-Hair-Natural-Black-100g-One-Bundle-Piece-/152122427442?var=&hash=item236b340832:m:mGMbWJyJMiP95-u_3SHG5Pw
p50
aVhttp://www.ebay.com/itm/100-Real-Virgin-Brazilian-Hair-Peruvian-Malayasian-Instagram-Admyhair-/320822455909?var=&hash=item4ab2822e65:m:mLBzctrvay9ByW87aFn7CoQ
p51
aVhttp://www.ebay.com/itm/3-Way-Parting-Lace-Top-Closure-Peruvian-Virgin-Human-Hair-Bleached-Knots-4x4-/281574089100?var=&hash=item418f1fa18c:m:mB8EXm5Cb3sl2yW2NePdQSw
p52
aVhttp://www.ebay.com/itm/9A-Brazilian-Virgin-Remy-Human-Hair-Silk-Base-Lace-Closure-4-x4-Ear-to-Ear-UK-/252850361847?var=&hash=item3adf0e55f7:m:mW1fE38Z4NwhnIVD-NX6UGA
p53
aVhttp://www.ebay.com/itm/100-Brazilian-Virgin-Human-Remy-Hair-Lace-Closure-Affordable-Top-Quality-SALE-/261621177179?var=&hash=item3ce9d65b5b:m:moe0dDgCzBCjbDNfoEJ0DBQ
p54
aVhttp://www.ebay.com/itm/Brazilian-Virgin-Hair-Body-Wave-12-14-16-300g-7A-Ombre-1B-99-SAME-DAY-DISPATCH-/291909235570?hash=item43f7257372:g:V6kAAOSw7XZXh~Ee
p55
aVhttp://www.ebay.com/itm/Nokia-100-Phantom-Black-T-Mobile-and-Virgin-Mobile-Phone-/252756079947?epid=134270010&hash=item3ad96fb54b:g:790AAOSw0fhXkg9s
p56
aVhttp://www.ebay.com/itm/20-SILKY-STRAIGHT-3WAYS-Parting-Closure-9A-Brazilian-VIRGIN-HUMAN-Hair-4x4-Lace-/292141994022?hash=item4405051026:g:j3AAAOSwAPVZNoLJ
p57
aVhttp://www.ebay.com/itm/AMAZING-SPIDER-MAN-VOL-4-25-ARTGERM-COMICXPOSURE-VIRGIN-VARIANT-MARVEL-VF-/142327496195?hash=item2123613e03:g:QIoAAOSwB-1Y2Qyt
p58
aVhttp://www.ebay.com/itm/Brazilian-Virgin-Hair-Body-Wave-14-16-18-300g-7AOmbre-1B-33-27-SAMEDAY-DISPATCH-/301857781655?hash=item4648203797:g:zhsAAOSw2GlXIoOG
p59
aVhttp://www.ebay.com/itm/100-Brazilian-Virgin-Human-Curly-Black-Hair-Weave-EXTENSION-100g-12-28-1pc-/151097242696?var=&hash=item232e18f448:m:mgMo953XvO8fVZNyzZw5oUA
p60
aVhttp://www.ebay.com/itm/100-BRAZILIAN-PERUVIAN-Virgin-Human-Remy-Natural-Weft-Hair-Extensions-/271528982569?var=&hash=item3f38637829:m:mbiKJjAa073T4Anp827puwQ
p61
aVhttp://www.ebay.com/itm/Virgin-Mary-Marble-Statue-Our-Lady-Catholic-Figurine-Madonna-Blessed-Mother-New-/112147765684?epid=1586821973&hash=item1a1c8719b4:g:E9AAAOSwPCVX5twM
p62
aVhttp://www.ebay.com/itm/16-18-20-Tape-In-Virgin-Remy-Human-Hair-Extension-Weft-Human-Hair-Extensions-/381549050739?var=&hash=item58d6187b73:m:m1jjyTVsdsz8VG99B2_fiFw
p63
aVhttp://www.ebay.com/itm/BRAZILIAN-PERUVIAN-LACE-CLOSURE-VIRGIN-REMY-HUMAN-HAIR-3-PART-MIDDLE-PARTING-4x4-/322155216537?var=&epid=1174065735&hash=item4b01f27e99:m:mIU0Vg2VD0vPTTvjSxmkFAw
p64
aVhttp://www.ebay.com/itm/Brazilian-Virgin-Human-Hair-BodyWave10-12-14-300g-7A-Ombre-1B-33-27-SAMEDAY-SHIP-/291747828537?hash=item43ed869339:g:WWkAAOSwKfVXHhEl
p65
aVhttp://www.ebay.com/itm/3-Way-Parting-6A-Brazilian-Lace-Top-Closure-Remy-Virgin-Hair-Bleached-Knots-/251515876724?var=&hash=item3a8f83b574:m:m_YhxhLiPHMuugElQVz9e2w
p66
aVhttp://www.ebay.com/itm/Brazilian-Virgin-Hair-27-Pieces-Short-Human-Hair-Weave-Straight-Wavy-Extension-/282392706651?hash=item41bfeabe5b:g:T5oAAOSwCU1YxXtW
p67
aVhttp://www.ebay.com/itm/VENOM-3-GABRIELE-DELLOTTO-VIRGIN-VARIANT-LIMITED-TO-600-CGC-9-8-/262951606607?hash=item3d3923194f:g:LukAAOSwxEpYxfxf
p68
aVhttp://www.ebay.com/itm/100-Brazilian-Virgin-Human-Hair-Lace-Top-Closure-4-4-Free-Part-Middle-Part-/261461936698?var=&hash=item3ce0588a3a:m:m48qRJiia16qlKc3DwRE4GQ
p69
aVhttp://www.ebay.com/itm/100-Mongolian-Afro-Kinky-Curly-Virgin-Hair-Weave-EXTENSION-100g-Natural-Black-/161712628755?var=&hash=item25a6d2e413:m:mEPbwZ1LnY_NbghWU-dYc6Q
p70
aVhttp://www.ebay.com/itm/Nokia-Asha-300-Graphite-Virgin-Smartphone-/263019584861?hash=item3d3d305d5d:g:U8cAAOSwawpXvc35
p71
aVhttp://www.ebay.com/itm/VAMPIRELLA-VOL-5-3E-1-10-COSPLAY-VIRGIN-VARIANT-WK22-/361994565787?hash=item54488eb89b:g:pm4AAOSwuMZZLan8
p72
aVhttp://www.ebay.com/itm/3Bundles-Brazilian-virgin-Ombre-body-wave-Straight-hair-Extension-300g-FASTSHIP-/291911757227?hash=item43f74bedab:g:0aIAAOSwmLlYAhJ9
p73
aVhttp://www.ebay.com/itm/18-Brazilian-Virgin-5A-Grade-Human-Hair-Extensions-Weft-Weave-1b-Off-Black-/321514149844?hash=item4adbbc97d4:g:Re0AAOSwGvhUC3P5
p74
aVhttp://www.ebay.com/itm/100-8A-Virgin-Brazilian-Peruvian-Malaysian-Kinky-Curly-Human-Hair-100g-10-28-/162099608391?var=&hash=item25bde3bb47:m:mcjkzVXgNBkBf5AesvA7zAQ
p75
aVhttp://www.ebay.com/itm/20-Peruvian-Virgin-AAAAA-Grade-Human-Hair-Extensions-Weft-Weave-100g-1b-/321514128406?hash=item4adbbc4416:g:UTwAAOSwq7JUC28E
p76
aVhttp://www.ebay.com/itm/Peruvian-Malaysian-Brazilian-100-Real-Virgin-Remy-Hair-Weave-Extensions-100g-/141438938366?var=&hash=item20ee6aecfe:m:mXXAdU4lQTPdAJLY1RF9fIQ
p77
aVhttp://www.ebay.com/itm/Brazilian-Virgin-Hair-27-Pieces-Short-Human-Hair-Weave-With-Free-Closure-Genuine-/222564951578?hash=item33d1e7a61a:g:k8kAAOSwjvJZVm7Y
p78
aVhttp://www.ebay.com/itm/100-Unprocessed-Peruvian-Remy-Virgin-Human-Hair-Bundles-Weave-Extension-1x-100g-/271859612610?var=&hash=item3f4c187bc2:m:ma30lO383W8vZW3LrD0iqFQ
p79
aVhttp://www.ebay.com/itm/Brazilian-Virgin-Lace-Closure-14INCH-CHESTNUT-BROWN-4X4-Bleach-Knot-STRAIGHT-7A-/302201463480?hash=item465c9c62b8:g:J~gAAOSwbopZT8Ed
p80
aVhttp://www.ebay.com/itm/900g-Brazilian-Virgin-Human-Hair-Body-Wave-Bundles-100g-9BUNDLES-18-16-14-9AAA-/302321197281?hash=item4663bf60e1:g:OKMAAOSwKytZHh5C
p81
aVhttp://www.ebay.com/itm/360-Lace-Full-Frontal-Closure-100-Brazilian-Virgin-Remy-Human-Hair-Body-Wave-/152609259895?var=&hash=item2388388177:m:mAkZp2S7heTa0d5enrfYGWg
p82
aVhttp://www.ebay.com/itm/Tape-In-Virgin-Remy-Human-Hair-Extension-Seamless-Weft-Straight-Hair-40pieces-UK-/122353508040?var=&hash=item1c7cd65ec8:m:mWV3OHjAs3kuzHG0_-vwvIA
p83
aVhttp://www.ebay.com/itm/Virgin-Remy-100-Human-Hair-Dip-dye-Extensions-Weave-Full-Head-Brazilian-Desire-/272503641399?var=&hash=item3f727b9537:m:ma0Q7Mfj4RpAl9g7TIXWSqA
p84
aVhttp://www.ebay.com/itm/BRAZILIAN-VIRGIN-HAIR-BLONDE-613-1B-DARK-ROOT-14-TO-30INCHE-100g-7A-SAMEDAY-SHIP-/291894328201?var=&hash=item43f641fb89:m:m6_uV7sUAX3Q4F1zXhUICfg
p85
aVhttp://www.ebay.com/itm/100-Hot-Peruvian-Virgin-Human-Remy-Hair-Lace-Closure-Extension-Bleached-Knots-/251779246977?var=&hash=item3a9f366b81:m:mN-knXb4ATmrO8llugXDyNA
p86
aVhttp://www.ebay.com/itm/4-4-Brazilian-VIRGIN-Lace-Closure-Straight-Hair-Closure-Free-Part-10-20-SC123-/371755110732?var=&hash=item568e54d14c:m:mrB85zC0njtKxlfxWB_kqNg
p87
aVhttp://www.ebay.com/itm/100-Brazilian-Virgin-Human-Hair-Weave-Extensions-12-30-Black-Yaki-Straight-/161104289548?var=&hash=item2582905f0c:m:m2mJ13juwVRv5zEqW3yA9Uw
p88
aVhttp://www.ebay.com/itm/1B-27-Ombre-Brazilian-Virgin-Human-Hair-Body-Wave-4-Bundles-With-Lace-Closure-/142329918860?hash=item212386358c:g:yuEAAOSweW5VXjvE
p89
aVhttp://www.ebay.com/itm/Tape-In-100-Virgin-Human-Hair-Extensions-Seamless-Weft-Light-Blonde-613-/142125580018?var=&hash=item2117583ef2:m:m4sx-zT7DEEw9L3FCjFZi7A
p90
aVhttp://www.ebay.com/itm/Brazilian-Hair-Extensions-Real-100-Human-Virgin-Remy-Deep-Curl-Weave-100g-x-3-/161157130744?var=&hash=item2585b6a9f8:m:mN919nxcjWl5stR_3drfq_A
p91
aVhttp://www.ebay.com/itm/7A-100g-Brazilian-Deep-Wave-Virgin-Remy-100-Human-Weft-Hair-Extensions-14-22-/231088436305?var=&hash=item35cdf1b451:m:m55620sm7zdTl8PPCOH4K7A
p92
aVhttp://www.ebay.com/itm/20-Brazilian-Virgin-5A-Grade-Human-Hair-Extensions-Weft-Weave-1-1b-/321514143121?hash=item4adbbc7d91:g:dA8AAOSwRLZUC3LF
p93
aVhttp://www.ebay.com/itm/7A-Middle-Parting-Straight-Brazilian-Virgin-4x4-Lace-Closure-100-Human-hair-/330980336952?var=&hash=item4d0ff72538:m:mh3bfh2JAplfgGM4wQExNCg
p94
aVhttp://www.ebay.com/itm/New-Brazilian-Peruvian-Virgin-Human-Body-Wave-Hair-Extensions-Wefts-7A-Weave-UK-/311797257142?var=&hash=item48989093b6:m:m1vwZn30yGLD7XTs00ibocA
p95
aVhttp://www.ebay.com/itm/Brazilian-Virgin-STRAIGHT-16-16-16-12-Closure-7A-Ombre-1B-27-SAME-DAY-DISPATCH-/291750781157?hash=item43edb3a0e5:g:iv4AAOSwmtJXXCXb
p96
aVhttp://www.ebay.com/itm/3-Way-Parting-Brazilian-Lace-Closure-Virgin-Human-Hair-Bleached-Knots-4x4-/281562918820?var=&hash=item418e752fa4:m:mZR-HrczQ2DttPoWujpYFAA
p97
aVhttp://www.ebay.com/itm/Like-a-Virgin-Tightening-Vaginal-Pleasure-Arousal-30ml-/152452241953?hash=item237edc9a21:g:4rgAAOSwUEVYDciS
p98
aVhttp://www.ebay.com/itm/7A-100g-Brazilian-Virgin-Body-Wave-Remy-100-Human-Hair-Weft-Extensions-12-24-/331011089551?var=&hash=item4d11cc648f:m:mRae9zVVByY2G1Q6b2Jd_tQ
p99
aVhttp://www.ebay.com/itm/Giftgarden-LED-Ornament-Virgin-Mary-Statue-Religious-Sculpture-for-Friends-Gift-/282394393622?epid=596009361&hash=item41c0047c16:g:rREAAOSwCU1YxzYw
p100
aVhttp://www.ebay.com/itm/100-300G-Brazilian-WATER-WAVE-CURLY-Virgin-Human-Hair-Weave-Extensions-A-8-28-/172480131580?var=&hash=item28289df1fc:m:mBIVFVYncPTYdZnuRqanpZg
p101
aVhttp://www.ebay.com/itm/2-Bundles-Brazilian-Glamour-Virgin-100-Human-Hair-with-free-Closure-2-2-5-220g-/322203373978?var=&hash=item4b04d1519a:m:m-T94j5f0Cn5pbZaSJG4VsQ
p102
aVhttp://www.ebay.com/itm/Brazilian-Human-Hair-100-Virgin-Remy-Hair-Extension-Weave-7A-Grade-3Bundle-315g-/322223498897?var=&hash=item4b06046691:m:msB-790johkstNtE8YAICvQ
p103
aVhttp://www.ebay.com/itm/Shake-N-Go-Naked-Brazilian-Virgin-Remy-Human-Lace-Front-Wig-Ray-/331557812852?hash=item4d3262ba74:g:SAgAAOSweW5VWQhu
p104
aVhttp://www.ebay.com/itm/3-Way-Parting-Lace-Closure-Peruvian-Remy-Virgin-Human-Hair-Extensions-4-4-/251584741932?var=&hash=item3a939e822c:m:m_YhxhLiPHMuugElQVz9e2w
p105
aVhttp://www.ebay.com/itm/100-Virgin-Human-Italian-Curl-Black-Hair-Weave-EXTENSION-100g-16-24-1pc-/161087053979?var=&hash=item258189609b:m:m_uag5aQKDGK_00BydVXq_g
p106
aVhttp://www.ebay.com/itm/NOKIA-5146-5130-402-BLACK-MOBILE-PHONE-FOR-GSM1800-T-MOBILE-ORANGE-VIRGIN-ETC-/230855602073?hash=item35c010ef99:m:mVujtARo41mdX93XdMz7Kqg
p107
aVhttp://www.ebay.com/itm/7A-Deep-Wave-Brazilian-4x4-Virgin-Lace-Closure-100-Human-hair-bleached-knot-/231088422368?var=&hash=item35cdf17de0:m:mu-opKACAWxsZY1RXyUn4Wg
p108
aVhttp://www.ebay.com/itm/9A-Unprocessed-BRAZILIAN-Virgin-Human-HAIR-Weft-3BUNDLES-STRAIGHT-22-24-26-300g-/291745921368?hash=item43ed697958:g:jqoAAOSwXj5XGz~e
p109
aVhttp://www.ebay.com/itm/Brazilian-Virgin-Hair-Bundle-12-14-16-12-Closure-4Bundle1B-27-HONEY-BLONDE-OMBRE-/291730175233?hash=item43ec793501:g:ELsAAOSw2xRYSFWu
p110
aVhttp://www.ebay.com/itm/BRAZILIAN-VIRGIN-HAIR-BLONDE-613-1B-DARK-ROOT-14-TO-30INCHE-100g-7A-SAMEDAY-SHIP-/291894328201?var=&hash=item43f641fb89:m:m6_uV7sUAX3Q4F1zXhUICfg
p111
aVhttp://www.ebay.com/itm/3-Way-Parting-7A-Brazilian-Virgin-Remy-4x4-Lace-Closure-Human-hair-bleached-knot-/231364912364?var=&hash=item35de6c64ec:m:mur4zJwbzgNr0ZAIo9zCg8g
p112
aVhttp://www.ebay.com/itm/100-Virgin-Brazilian-Human-Curly-Hair-Weave-Lace-Top-Closure-4-4-8-22-/161072331250?var=&hash=item2580a8b9f2:m:mRYQcTqixFU2U-JE5GQfQVg
p113
aVhttp://www.ebay.com/itm/Brazilian-Virgin-Remy-Human-Hair-Extensions-Natural-Black-100-Remy-Silky-Yaki-/322367950529?var=&hash=item4b0ea08ec1:m:mgzhhI1xf1Q-0dMcTxHxrVQ
p114
aVhttp://www.ebay.com/itm/Brazilian-100-Virgin-Remy-Human-Hair-Dip-dye-2-tone-Extension-Weave-Full-Head-/322356535950?var=&epid=543573894&hash=item4b0df2628e:m:ma0Q7Mfj4RpAl9g7TIXWSqA
p115
aVhttp://www.ebay.com/itm/1B-613-ROOT-BRAZILIAN-VIRGIN-OMBRE-HAIR-3BUNDLES-FRONTALS-SAME-DAY-SHIP-7A-390g-/292151864380?var=&hash=item44059bac3c:m:m337zo9IZV9hOXstTGfhguA
p116
aVhttp://www.ebay.com/itm/Brazilian-Virgin-Human-Hair-Natural-Black-None-Lace-Short-Wig-Bleach-Dye-Perm-/322158785974?var=&hash=item4b0228f5b6:m:mCMxv2EH2L2uyYvxuWYfQMQ
p117
aVhttp://www.ebay.com/itm/Now-Venom-4-EXCLUSIVE-GABRIELE-DELLOTTO-COLOUR-BW-VIRGIN-SET-1st-Print-NM-/262816010954?hash=item3d310e12ca:g:NUQAAOSwnHZYgg6L
p118
aVhttp://www.ebay.com/itm/1-3-Bundles-WITH-CLOSURE-100-Virgin-REMY-Peruvian-Human-Hair-Extensions-UKSC231-/142190745838?var=&hash=item211b3a98ee:m:me76Qbg5Vjw2zl0W_j2DC5w
p119
aVhttp://www.ebay.com/itm/Brazilian-virgin-human-hair-lace-front-closure-5-x-5-Free-3-or-Middle-8A-/221942797454?hash=item33acd2548e:g:34AAAOSw~AVYr5bI
p120
aVhttp://www.ebay.com/itm/20-22-24-16-INCH-LACE-CLOSURE-BRAZILIAN-VIRGIN-NATURAL-WAVE-9A-SAMEDAY-DISPATCH-/291991565317?hash=item43fc0db405:g:Rp4AAOSw5cNYbWiB
p121
aVhttp://www.ebay.com/itm/Unlock-Any-Alcatel-ONETOUCH-Pixi-3-4-4-5-Tesco-Virgin-EE-O2-Express-Service-/252944996379?epid=838941245&hash=item3ae4b2581b:g:870AAOSwrhBZBfcu
p122
aVhttp://www.ebay.com/itm/16-18-20INCH-BRAZILIAN-Honey-Blonde-27-DEEP-CURL-Virgin-Human-Hair-SAMEDAY-SHIP-/291941775989?hash=item43f915fa75:g:lzcAAOSwKOJYKJkf
p123
aVhttp://www.ebay.com/itm/100g-Brazilian-Peruvian-Real-Virgin-Human-Hair-Extensions-Wefts-7A-Weave-/201837223525?var=&hash=item2efe6f9e65:m:mpjQ2Wned4N1O6kZLQn7H3A
p124
aVhttp://www.ebay.com/itm/X-10-Hair-Extension-Care-Kit-For-Real-Human-Virgin-Remy-Synthetic-Hair-/252488439600?epid=1112647949&hash=item3ac97bd730:g:zoUAAOSwGIRXYsVa
p125
aVhttp://www.ebay.com/itm/Unprocessed-Brazilian-Kinky-Curly-Virgin-Hair-3-Bundles-Human-Hair-16-18-20-Inch-/182662050057?epid=848748602&hash=item2a8781b109:g:HvwAAOSw4YJZY81x
p126
aVhttp://www.ebay.com/itm/VAMPIRELLA-VOL-5-3E-1-10-COSPLAY-VIRGIN-VARIANT-WK22-/361994565787?hash=item54488eb89b:g:pm4AAOSwuMZZLan8
p127
a.