(lp0
Vhttp://www.ebay.com/itm/Propolis-Tincture-20ml-Alcohol-Free-Undiluted-Direct-from-Yorkshire-Beekeeper-/142273777921?hash=item21202d9101:g:APQAAOSwtfhYnNtC
p1
aVhttp://www.ebay.com/itm/Gotu-Kola-Tincture-100ml-Quality-Assured-Indigo-Herbs-/112292283491?epid=1926220799&hash=item1a25244463:g:S1oAAOSwYvFZN1dT
p2
aVhttp://www.ebay.com/itm/Saw-Palmetto-Serenoa-serulata-Organic-100ml-or-500ml-Herbal-Tincture-/272285068247?var=&hash=item3f65746bd7:m:mbs74EeQL4UQ3tBoUn1Twmg
p3
aVhttp://www.ebay.com/itm/Small-Flowering-Willow-Herb-Epilobium-parviflorum-Non-Alcoholic-Tincture-50ml-F-/251808204553?epid=1360678643&hash=item3aa0f04709:g:R7AAAOSwZ8ZW5Npd
p4
aVhttp://www.ebay.com/itm/Cayenne-Pepper-Liquid-Extract-Tincture-100ml-/201587005974?hash=item2eef859a16:g:QREAAOSw7FRWW4hk
p5
aVhttp://www.ebay.com/itm/Nettle-Root-Tincture-100ml-Indigo-Herbs-Quality-Assured-/112259885621?hash=item1a2335ea35:g:9yAAAOSwd~RZP~6a
p6
aVhttp://www.ebay.com/itm/PINE-POLLEN-EXTRACT-TINCTURE-100-ORGANIC-SPECIAL-OFFER-BUY-3-GET-1-FREE-/222407552114?hash=item33c885ec72:g:hhIAAOSwxj5XQeny
p7
aVhttp://www.ebay.com/itm/Clove-Liquid-Extract-Herbal-Tincture-100ml-/191571379865?hash=item2c9a8b4699:g:fnYAAOSweW5VRJdx
p8
aVhttp://www.ebay.com/itm/Organic-Bee-Propolis-Concentrated-Max-Strength-1-1-100ml-Non-Alcoholic-Tincture-/391394486950?epid=1260729789&hash=item5b20edeaa6:g:UdIAAOSwoudW5Kg5
p9
aVhttp://www.ebay.com/itm/Saw-Palmetto-Berry-Concentrated-Max-Strength-1-1-50ml-Non-Alcoholic-Tincture-/252056097874?epid=1060678112&hash=item3aafb6d452:g:BVEAAOSwr7ZW5M0R
p10
aVhttp://www.ebay.com/itm/Chanca-Piedra-Concentrated-Max-Strength-1-1-50ml-Non-Alcoholic-Tincture-/391224867439?epid=1740927584&hash=item5b16d1ba6f:g:bXsAAOSwYlJW5LgS
p11
aVhttp://www.ebay.com/itm/Wildcrafted-Comfrey-Leaf-Tincture-Alcohol-Free-Direct-from-Yorkshire-Beekeeper-/142408062131?hash=item21282e94b3:g:144AAOSwcB5ZOH-v
p12
aVhttp://www.ebay.com/itm/Propolis-Tincture-30-ml-BUROV-Food-Supplement-Assist-the-Immune-System-/252811119436?hash=item3adcb78b4c:g:GHYAAOSwdGFY0hg5
p13
aVhttp://www.ebay.com/itm/Horehound-Marrubium-vulgare-Non-Alcoholic-Tincture-50ml-FREE-UK-Post-/391038341189?epid=1060677517&hash=item5b0bb39045:g:60UAAOSwu1VW5KU~
p14
aVhttp://www.ebay.com/itm/Myrrh-Liquid-Extract-Tincture-Commiphora-Molmol-50ml-/201587023867?hash=item2eef85dffb:g:9DoAAOSwnH1WYi-C
p15
aVhttp://www.ebay.com/itm/A-Vogel-Echinaforce-Tincture-100ml-/360848307981?epid=1104316104&hash=item54043c370d:g:DMMAAOxyyUtScV17
p16
aVhttp://www.ebay.com/itm/Horny-Goat-Weed-Epimedium-sagittatum-Non-Alcoholic-Tincture-50ml-FREE-UK-Post-/251807610398?epid=1160672992&hash=item3aa0e7361e:g:FQMAAOSwYlJW5NJ6
p17
aVhttp://www.ebay.com/itm/Dragons-Blood-Concentrated-Max-Strength-1-1-50ml-Non-Alcoholic-Tincture-/252056074931?epid=1960597114&hash=item3aafb67ab3:g:vh8AAOSwxp9W5NHL
p18
aVhttp://www.ebay.com/itm/Artichoke-Leaf-Concentrated-Max-Strength-1-1-50ml-Non-Alcoholic-Tincture-/252056059237?epid=1240885725&hash=item3aafb63d65:g:J5AAAOSwoBtW5OGe
p19
aVhttp://www.ebay.com/itm/Black-Walnut-1-2-Ratio-100ml-Organic-Tincture-/371665163785?epid=1495436728&hash=item5688f85609:g:JOsAAOSwMmBVicx2
p20
aVhttp://www.ebay.com/itm/He-Shou-Wu-Concentrated-Max-Strength-1-1-50ml-Non-Alcoholic-Tincture-/252056081532?epid=1860639435&hash=item3aafb6947c:g:-y4AAOSwAuNW5NWE
p21
aVhttp://www.ebay.com/itm/A-Vogel-Agnus-Castus-Chaste-Tree-Drops-Tincture-50ml-/172620730786?epid=1829569226&hash=item2830ff51a2:g:c~4AAOSwYIxX6PZI
p22
aVhttp://www.ebay.com/itm/Mastic-Gum-Concentrated-Max-Strength-1-1-50ml-Non-Alcoholic-Tincture-/391224887379?epid=1160675044&hash=item5b16d20853:g:zLcAAOSwh-1W5LN6
p23
aVhttp://www.ebay.com/itm/Turmeric-Tincture-100ml-Quality-Assured-Indigo-Herbs-/302156898956?hash=item4659f4628c:g:cFIAAOSw7GRZNqeS
p24
aVhttp://www.ebay.com/itm/Dr-Clarks-Purity-Products-Green-Black-Walnut-Hull-Tincture-1-fl-oz-/222466344450?epid=1429100425&hash=item33cc070602:g:brQAAOSw2gxYptyp
p25
aVhttp://www.ebay.com/itm/Dr-Clarks-Purity-Products-Green-Black-Walnut-Hull-Tincture-1-fl-oz-/222466344450?epid=1429100425&hash=item33cc070602:g:brQAAOSw2gxYptyp
p26
aVhttp://www.ebay.com/itm/Tongkat-Ali-Concentrated-Max-Strength-1-1-50ml-Non-Alcoholic-Tincture-/252056101946?epid=1460679709&hash=item3aafb6e43a:g:P4cAAOSwZ8ZW5Nm~
p27
aVhttp://www.ebay.com/itm/Organic-Avena-Sativa-Tincture-100ml-Indigo-Herbs-/112402760990?epid=1612744479&hash=item1a2bba051e:g:ihcAAOSwKflZO65R
p28
aVhttp://www.ebay.com/itm/Bugleweed-Lycopus-virginicus-Non-Alcoholic-Tincture-50ml-FREE-UK-Post-/391038296420?epid=1560715427&hash=item5b0bb2e164:g:G68AAOSwu1VW5LMs
p29
aVhttp://www.ebay.com/itm/Muira-Puama-Bark-Concentrated-Max-Strength-1-1-50ml-Non-Alcoholic-Tincture-/391224888772?epid=1660696602&hash=item5b16d20dc4:g:3~YAAOSwoBtW5KZ-
p30
aVhttp://www.ebay.com/itm/Saw-Palmetto-Serenoa-repens-Non-Alcoholic-Tincture-50ml-FREE-UK-Post-/251807696185?epid=1560713045&hash=item3aa0e88539:g:JYUAAOSwyjBW5NQL
p31
aVhttp://www.ebay.com/itm/100ml-BLACK-WALNUT-HULL-TINCTURE-1-2-Prepared-using-green-hulls-Dr-Hulda-Clark-/221852948739?epid=1489946072&hash=item33a7775903:g:4kQAAOSw2xRYmfKI
p32
aVhttp://www.ebay.com/itm/Wormwood-Tincture-100ml-Quality-Assured-Indigo-Herbs-/302156712926?hash=item4659f18bde:g:BAYAAOSwCmZZSTEr
p33
aVhttp://www.ebay.com/itm/Oak-Bark-Concentrated-Max-Strength-1-1-50ml-Non-Alcoholic-Tincture-/252056090903?epid=1860635918&hash=item3aafb6b917:g:k4gAAOSwAuNW5NAk
p34
aVhttp://www.ebay.com/itm/Skullcap-Tincture-100ml-Quality-Assured-Indigo-Herbs-/302155837092?hash=item4659e42ea4:g:l6wAAOSwhvFZJ8vG
p35
aVhttp://www.ebay.com/itm/Black-Walnut-Juglans-Nigra-Non-Alcoholic-Tincture-100ml-FREE-UK-Post-/390909026095?epid=1160829338&hash=item5b03fe5f2f:g:hUMAAOSwyjBW5LDV
p36
aVhttp://www.ebay.com/itm/Horny-Goat-Weed-Epimedium-sagittatum-Non-Alcoholic-Tincture-Trade-1Ltr-1000ml-/251807610197?epid=1861251343&hash=item3aa0e73555:g:ql4AAOSwWKtUxTml
p37
aVhttp://www.ebay.com/itm/Chaga-Mushroom-Tincture-100ml-Quality-Assured-Indigo-Herbs-/112223888695?epid=1837684423&hash=item1a2110a537:g:AcYAAOSwXXxZSTfu
p38
aVhttp://www.ebay.com/itm/Motherwort-Liquid-Extract-Herbal-Tincture-Leonurus-cardiaca-50ml-/191941344441?hash=item2cb0987cb9:g:adsAAOSwrklVF-Qq
p39
aVhttp://www.ebay.com/itm/Skullcap-Liquid-Extract-Herbal-Tincture-Scutellaria-Iateriflora-100ml-/201468139659?hash=item2ee86fd88b:g:eDIAAOSw-7RVF~CS
p40
aVhttp://www.ebay.com/itm/Neem-Leaf-Non-Alcoholic-Tincture-100ml-FREE-UK-Post-/390909133373?epid=1160676362&hash=item5b0400023d:g:OsIAAOSwoudW5LSW
p41
aVhttp://www.ebay.com/itm/Stevia-Non-Alcoholic-Tincture-Trade-1Ltr-1000ml-/251808271235?epid=1861249374&hash=item3aa0f14b83:g:mXsAAOSwk5FUxc6o
p42
aVhttp://www.ebay.com/itm/Reishi-Tincture-100ml-Quality-Assured-Indigo-Herbs-/112224404267?epid=1137802435&hash=item1a2118832b:g:TzIAAOSwK6RZNGcR
p43
aVhttp://www.ebay.com/itm/Rosehip-Herbal-Tincture-100ml-Quality-Assured-Indigo-Herbs-/302161217731?hash=item465a3648c3:g:RmsAAOSw-K9ZMAH5
p44
aVhttp://www.ebay.com/itm/Lemon-Balm-Melissa-officinalis-Non-Alcoholic-Tincture-100ml-FREE-UK-Post-/251616365292?epid=1260893612&hash=item3a95810aec:g:a1sAAOSwxp9W5NzU
p45
aVhttp://www.ebay.com/itm/Bearberry-Tincture-100ml-Uva-Ursi-Indigo-Herbs-/302158700668?hash=item465a0fe07c:g:v5kAAOSww5hZJDma
p46
aVhttp://www.ebay.com/itm/Uva-Ursi-Arctostaphylos-uva-ursi-Non-Alcoholic-Tincture-50ml-FREE-UK-Post-/251808207978?epid=1460680413&hash=item3aa0f0546a:g:HZ8AAOSwu1VW5OiW
p47
aVhttp://www.ebay.com/itm/Organic-Motherwort-Concentrated-Max-Strength-1-1-100ml-Non-Alcoholic-Tincture-/391254265760?epid=1060351820&hash=item5b18924fa0:g:drgAAOSwr7ZW5LfL
p48
aVhttp://www.ebay.com/itm/Oriental-Wormwood-Artemisia-annua-Non-Alcoholic-Tincture-50ml-FREE-UK-Post-/391038382537?epid=1860634790&hash=item5b0bb431c9:g:~t4AAOSwu1VW5KYy
p49
aVhttp://www.ebay.com/itm/Chanca-Piedra-Concentrated-Max-Strength-1-1-100ml-200ml-Non-Alcoholic-Tincture-/391254242950?hash=item5b1891f686:g:ihkAAOSwZQxW5LEE
p50
aVhttp://www.ebay.com/itm/Wild-Yam-Liquid-Extract-Herbal-Tincture-100ml-/191666693933?hash=item2ca039a72d:g:PWcAAOSweW5VRMWU
p51
aVhttp://www.ebay.com/itm/Muira-Puama-Tincture-100ml-Quality-Assured-Indigo-Herbs-/302189604171?hash=item465be76d4b:g:FeoAAOSw3YJZPyRT
p52
aVhttp://www.ebay.com/itm/Baikal-Skullcap-Scutellaria-baicalensis-Non-Alcoholic-Tincture-50ml-FREE-UK-Pos-/251807504158?hash=item3aa0e5971e:g:F8IAAOSwP~tW5M1n
p53
aVhttp://www.ebay.com/itm/Organic-Ashwagandha-Withania-somnifera-Non-Alcoholic-Tincture-50ml-FREE-UK-Post-/391038286392?epid=1960196221&hash=item5b0bb2ba38:g:OXgAAOSwoudW5LSF
p54
aVhttp://www.ebay.com/itm/Organic-Motherwort-Leonurus-cardiaca-Non-Alcoholic-Tincture-50ml-FREE-UK-Post-/251807649417?epid=1460348683&hash=item3aa0e7ce89:g:u4sAAOSwwpdW5NMG
p55
aVhttp://www.ebay.com/itm/Chinese-Wild-Yam-Concentrated-Max-Strength-1-1-50ml-Non-Alcoholic-Tincture-/252056068330?epid=1943446269&hash=item3aafb660ea:g:fgcAAOSwvgdW5Nj4
p56
aVhttp://www.ebay.com/itm/Mistletoe-Tincture-100ml-Quality-Assured-Indigo-Herbs-/112246354379?hash=item1a226771cb:g:XxMAAOSw8GtZSTAs
p57
aVhttp://www.ebay.com/itm/Cayenne-Pepper-Capsicum-annuum-Non-Alcoholic-Tincture-100ml-FREE-UK-Post-/251616286873?epid=1560717510&hash=item3a957fd899:g:QF4AAOSwyjBW5NWL
p58
aVhttp://www.ebay.com/itm/Myrrh-Tincture-100ml-Indigo-Herbs-Quality-Assured-/112281606721?hash=item1a24815a41:g:K5AAAOSwCmZZRSEC
p59
aVhttp://www.ebay.com/itm/Organic-Ginkgo-Biloba-Ginkgo-Biloba-Non-Alcoholic-Tincture-100ml-FREE-UK-Post-/390909093996?hash=item5b03ff686c:g:3QYAAOSwv9hW5Lbw
p60
aVhttp://www.ebay.com/itm/Organic-Marigold-Calendula-Officinalis-Non-Alcoholic-Tincture-50ml-FREE-UK-Post-/391038362850?epid=1760439232&hash=item5b0bb3e4e2:g:xdcAAOSwwpdW5LSI
p61
aVhttp://www.ebay.com/itm/Lungwort-Pulmonaria-Non-Alcoholic-Tincture-300ml-FREE-UK-Post-/390909116799?epid=1761396291&hash=item5b03ffc17f:g:Bs0AAOSw7NNT61ab
p62
aVhttp://www.ebay.com/itm/Black-Haw-Bark-Viburnum-prunifolium-Non-Alcoholic-Tincture-50ml-FREE-UK-Post-/251807514475?epid=1660694527&hash=item3aa0e5bf6b:g:ufQAAOSwZQxW5MxI
p63
aVhttp://www.ebay.com/itm/Hawthorn-Tincture-100ml-Quality-Assured-Indigo-Herbs-/112224519792?hash=item1a211a4670:g:PAkAAOSwrhBZMlDB
p64
aVhttp://www.ebay.com/itm/Avens-Oat-Straw-Avena-Sativa-Non-Alcoholic-Tincture-50ml-FREE-UK-Post-/391038287008?epid=1560717511&hash=item5b0bb2bca0:g:VqgAAOSwxp9W5L0o
p65
aVhttp://www.ebay.com/itm/Gentian-Root-Gentiana-lutea-Non-Alcoholic-Tincture-50ml-FREE-UK-Post-/391038333770?epid=1560716003&hash=item5b0bb3734a:g:P4gAAOSwoBtW5Lhz
p66
aVhttp://www.ebay.com/itm/Black-Walnut-Juglans-Nigra-Non-Alcoholic-Tincture-300ml-FREE-UK-Post-/390909026186?epid=1361427511&hash=item5b03fe5f8a:g:TH4AAOSw7NNT6ycY
p67
aVhttp://www.ebay.com/itm/Muira-Puama-Ptychopetalum-olacoides-Non-Alcoholic-Tincture-50ml-FREE-UK-Post-/391038374030?epid=1060681856&hash=item5b0bb4108e:g:eTIAAOSwoudW5KpV
p68
aVhttp://www.ebay.com/itm/Motherwort-Tincture-100ml-Quality-Assured-Indigo-Herbs-/112224178209?hash=item1a21151021:g:BsEAAOSwJH1ZKZut
p69
aVhttp://www.ebay.com/itm/Chaga-Concentrated-Max-Strength-1-1-50ml-Non-Alcoholic-Tincture-/391224866740?epid=1343521594&hash=item5b16d1b7b4:g:ouIAAOSwv9hW5LPg
p70
aVhttp://www.ebay.com/itm/Bloodroot-Concentrated-Max-Strength-1-1-50ml-Non-Alcoholic-Tincture-/252056063546?epid=1143487422&hash=item3aafb64e3a:g:AisAAOSwP~tW5MxL
p71
aVhttp://www.ebay.com/itm/Hydrangea-Root-Concentrated-Max-Strength-1-1-50ml-Non-Alcoholic-Tincture-/252056082669?epid=1060683879&hash=item3aafb698ed:g:sW0AAOSwu1VW5NQP
p72
aVhttp://www.ebay.com/itm/Pau-DArco-Tincture-100ml-Quality-Assured-Indigo-Herbs-/112227827785?hash=item1a214cc049:g:95YAAOSw1WJZKBIR
p73
aVhttp://www.ebay.com/itm/Oriental-Wormwood-Artemisia-annua-Non-Alcoholic-Tincture-Trade-1Ltr-1000ml-/251807669416?epid=1361902895&hash=item3aa0e81ca8:g:H8MAAOSw2s1UxUNJ
p74
aVhttp://www.ebay.com/itm/Thuja-Herb-Concentrated-Max-Strength-1-1-50ml-Non-Alcoholic-Tincture-/252056101503?epid=1360680823&hash=item3aafb6e27f:g:vygAAOSwvgdW5N1J
p75
aVhttp://www.ebay.com/itm/Muira-Puama-Tincture-100ml-Quality-Assured-Indigo-Herbs-/302189604171?hash=item465be76d4b:g:FeoAAOSw3YJZPyRT
p76
aVhttp://www.ebay.com/itm/Bugleweed-Concentrated-Max-Strength-1-1-50ml-Non-Alcoholic-Tincture-/391224864131?epid=1643548659&hash=item5b16d1ad83:g:4TAAAOSwr7ZW5KPt
p77
aVhttp://www.ebay.com/itm/Myrrh-Liquid-Extract-Tincture-Commiphora-Molmol-50ml-/201587023867?hash=item2eef85dffb:g:9DoAAOSwnH1WYi-C
p78
aVhttp://www.ebay.com/itm/Coriander-Seed-Concentrated-Max-Strength-1-1-100ml-Non-Alcoholic-Tincture-/252085046500?epid=1460679338&hash=item3ab1708ce4:g:wIgAAOSwoudW5NrF
p79
aVhttp://www.ebay.com/itm/Organic-Motherwort-Concentrated-Max-Strength-1-1-100ml-Non-Alcoholic-Tincture-/391254265760?epid=1060351820&hash=item5b18924fa0:g:drgAAOSwr7ZW5LfL
p80
aVhttp://www.ebay.com/itm/Lemon-Balm-Melissa-officinalis-Non-Alcoholic-Tincture-50ml-FREE-UK-Post-/251807622958?epid=1760774425&hash=item3aa0e7672e:g:PaUAAOSwr7ZW5M~I
p81
aVhttp://www.ebay.com/itm/Oregon-Grape-Root-Liquid-Extract-Tincture-50ml-/201605915352?hash=item2ef0a622d8:g:z8EAAOSwwE5WYiof
p82
aVhttp://www.ebay.com/itm/Rhodiola-Rosea-Tincture-100ml-Quality-Assured-Indigo-Herbs-/112223957062?epid=1512718937&hash=item1a2111b046:g:k2wAAOSwAPVZK84u
p83
aVhttp://www.ebay.com/itm/Viridian-Cleavers-Tincture-100-Organic-50ml-Best-Before-End-08-2017-/112147385992?epid=1010540335&hash=item1a1c814e88:g:9m8AAOSw8w1X5mj7
p84
aVhttp://www.ebay.com/itm/Wild-Cherry-Bark-Concentrated-Max-Strength-1-1-50ml-Non-Alcoholic-Tincture-/391224913881?epid=1160669288&hash=item5b16d26fd9:g:Kx4AAOSwh-1W5KqV
p85
aVhttp://www.ebay.com/itm/Graviola-Fruit-Concentrated-Max-Strength-1-1-50ml-Non-Alcoholic-Tincture-/252056079991?epid=1460669730&hash=item3aafb68e77:g:DXAAAOSwu1VW5MxS
p86
aVhttp://www.ebay.com/itm/Blackcurrant-Leaf-Ribes-nigrum-Non-Alcoholic-Tincture-300ml-FREE-UK-Post-/390909027137?epid=1360809887&hash=item5b03fe6341:g:6SoAAOSwGvhT6yfY
p87
aVhttp://www.ebay.com/itm/Catuaba-Bark-Concentrated-Max-Strength-1-1-50ml-Non-Alcoholic-Tincture-/252056066942?epid=1543529296&hash=item3aafb65b7e:g:DFkAAOSwoudW5N-1
p88
aVhttp://www.ebay.com/itm/Small-Flowering-Willow-Herb-Epilobium-parviflorum-Non-Alcoholic-Tincture-200ml-F-/390909169869?epid=1862657892&hash=item5b040090cd:g:L8QAAOSwRLZT63HX
p89
aVhttp://www.ebay.com/itm/Sarsaparilla-Concentrated-Max-Strength-1-1-50ml-Non-Alcoholic-Tincture-/391224904381?epid=1160674310&hash=item5b16d24abd:g:yvkAAOSwZ8ZW5LMr
p90
aVhttp://www.ebay.com/itm/Watercress-Herb-Nasturtium-officinale-Non-Alcoholic-Tincture-Trade-1Ltr-1000ml-/251808279813?epid=1061299057&hash=item3aa0f16d05:g:8pMAAOSw1vlUxdGw
p91
aVhttp://www.ebay.com/itm/Bugleweed-Lycopus-virginicus-Non-Alcoholic-Tincture-100ml-FREE-UK-Post-/251616274666?epid=1360680317&hash=item3a957fa8ea:g:cxsAAOSwZ8ZW5N1u
p92
aVhttp://www.ebay.com/itm/Fenugreek-Seed-Tincture-100ml-Quality-Assured-Indigo-Herbs-/302155780381?hash=item4659e3511d:g:PDcAAOSw42JZKAry
p93
aVhttp://www.ebay.com/itm/Dandelion-Tincture-100ml-Quality-Assured-Indigo-Herbs-/302160251831?epid=1037941082&hash=item465a278bb7:g:R30AAOSwZKBZN0I9
p94
aVhttp://www.ebay.com/itm/Red-Clover-Tincture-100ml-Quality-Assured-Indigo-Herbs-/112229155679?hash=item1a2161035f:g:gxoAAOSwXXxZSTBx
p95
aVhttp://www.ebay.com/itm/Organic-Horse-Chestnut-Aesculus-hippocastanum-Non-Alcoholic-Tincture-50ml-FREE-U-/251807611117?epid=1060319112&hash=item3aa0e738ed:g:A~wAAOSwv9hW5NRg
p96
aVhttp://www.ebay.com/itm/Hawthorn-Berry-Concentrated-Max-Strength-1-1-100ml-Non-Alcoholic-Tincture-/391254254954?epid=1960603607&hash=item5b1892256a:g:BWgAAOSwoBtW5LVc
p97
aVhttp://www.ebay.com/itm/Black-Walnut-Juglans-Nigra-Non-Alcoholic-Tincture-50ml-FREE-UK-Post-/251807515362?epid=1260738855&hash=item3aa0e5c2e2:g:khwAAOSwYlJW5Nrk
p98
aVhttp://www.ebay.com/itm/Schisandra-Tincture-100ml-Quality-Assured-Indigo-Herbs-/112225716389?hash=item1a212c88a5:g:2p8AAOSwq~tZNoSf
p99
aVhttp://www.ebay.com/itm/Hops-Humulus-lupulus-Non-Alcoholic-Tincture-50ml-FREE-UK-Post-/391038340828?epid=1160675028&hash=item5b0bb38edc:g:m3gAAOSwv9hW5LOD
p100
aVhttp://www.ebay.com/itm/Witch-Hazel-Liquid-Extract-Herbal-Tincture-100ml-/201450072768?hash=item2ee75c2ac0:g:N14AAOSwrklVRMWa
p101
aVhttp://www.ebay.com/itm/Oregano-Origanum-vulgare-Non-Alcoholic-Tincture-100ml-FREE-UK-Post-/390909137879?epid=1260736435&hash=item5b040013d7:g:6XAAAOSwvgdW5LN3
p102
aVhttp://www.ebay.com/itm/Organic-Comfrey-Leaf-Symphytum-officinale-Non-Alcoholic-Tincture-50ml-FREE-UK-Po-/251807569580?epid=1560337564&hash=item3aa0e696ac:g:EsIAAOSwP~tW5N1J
p103
aVhttp://www.ebay.com/itm/Shiitake-Lentinula-edodes-Non-Alcoholic-Tincture-50ml-FREE-UK-Post-/251807867193?epid=1360675991&hash=item3aa0eb2139:g:6zMAAOSwv9hW5NNF
p104
aVhttp://www.ebay.com/itm/Tansy-Herb-Tanacetum-vulgare-Non-Alcoholic-Tincture-50ml-FREE-UK-Post-/251808206777?epid=1060686991&hash=item3aa0f04fb9:g:Qq0AAOSwoBtW5NO6
p105
aVhttp://www.ebay.com/itm/Arnica-Liquid-Extract-Herbal-Tincture-100ml-/191692531642?epid=14002505429&hash=item2ca1c3e7ba:g:CaIAAOSwT4lWRipH
p106
aVhttp://www.ebay.com/itm/Organic-Red-Maca-Root-Max-Strength-1-1-Non-Alcoholic-Tincture-50ml-/252308735859?epid=1572630211&hash=item3abec5c773:g:SeIAAOSwP~tW2W3O
p107
aVhttp://www.ebay.com/itm/Golden-Seal-Tincture-100ml-Quality-Assured-Indigo-Herbs-/112229588239?epid=1712735205&hash=item1a21679d0f:g:nqUAAOSwi7RZN6S6
p108
aVhttp://www.ebay.com/itm/Cordyceps-Concentrated-Max-Strength-1-1-50ml-Non-Alcoholic-Tincture-/391224870528?epid=1444171478&hash=item5b16d1c680:g:gM8AAOSwv9hW5KU7
p109
aVhttp://www.ebay.com/itm/Cola-Nuts-Cola-nitida-Non-Alcoholic-Tincture-50ml-FREE-UK-Post-/251807565231?hash=item3aa0e685af:g:adIAAOSwr7ZW5NH6
p110
aVhttp://www.ebay.com/itm/Kayu-Angin-Usnea-Trees-Dandruff-Beard-Lichen-Max-Strength-1-1-Tincture-50ml-/391406690203?epid=1761908683&hash=item5b21a81f9b:g:8AQAAOSwvgdW5wAk
p111
aVhttp://www.ebay.com/itm/Ashwagandha-Tincture-100ml-Indigo-Herbs-/112224574961?hash=item1a211b1df1:g:BqQAAOSwH09ZKWqM
p112
aVhttp://www.ebay.com/itm/Chaparral-Leaf-Concentrated-Max-Strength-1-1-100ml-Non-Alcoholic-Tincture-/391254243047?epid=1760779721&hash=item5b1891f6e7:g:xHcAAOSwxp9W5LTE
p113
aVhttp://www.ebay.com/itm/Organic-Mucuna-Tincture-100ml-Indigo-Herbs-/302340683218?hash=item4664e8b5d2:g:oKwAAOSwaeRZNUEb
p114
aVhttp://www.ebay.com/itm/Ginseng-Panax-Liquid-Extract-Herbal-Tincture-50ml-/191571447308?hash=item2c9a8c4e0c:g:-0sAAOSwstxVRLuU
p115
aVhttp://www.ebay.com/itm/Organic-Angelica-Root-Angelica-archangelica-Non-Alcoholic-Tincture-50ml-FREE-UK-/251807496306?hash=item3aa0e57872:g:V88AAOSwyjBW5Nbt
p116
aVhttp://www.ebay.com/itm/Hemp-Concentrated-Max-Strength-1-1-50ml-Non-Alcoholic-Tincture-/252056081752?epid=1360673398&hash=item3aafb69558:g:V1wAAOSwZQxW5NP5
p117
aVhttp://www.ebay.com/itm/Oriental-Wormwood-Artemisia-annua-Non-Alcoholic-Tincture-200ml-FREE-UK-Post-/390909138723?epid=1561322234&hash=item5b04001723:g:iS0AAOSwVFlT62NF
p118
aVhttp://www.ebay.com/itm/Organic-Marshmallow-Root-Althaea-Officinalis-Non-Alcoholic-Tincture-100ml-FREE-U-/390909125449?epid=1760936399&hash=item5b03ffe349:g:acoAAOSwAuNW5KYf
p119
aVhttp://www.ebay.com/itm/Black-Walnut-Hull-Tincture-100ml-1-2-mix-/221188736388?epid=1449721091&hash=item337fe04584:g:C0kAAOSwd4tT-g9e
p120
aVhttp://www.ebay.com/itm/Bugleweed-Lycopus-virginicus-Non-Alcoholic-Tincture-50ml-FREE-UK-Post-/391038296420?epid=1560715427&hash=item5b0bb2e164:g:G68AAOSwu1VW5LMs
p121
aVhttp://www.ebay.com/itm/Oriental-Wormwood-Artemisia-annua-Non-Alcoholic-Tincture-50ml-FREE-UK-Post-/391038382537?epid=1860634790&hash=item5b0bb431c9:g:~t4AAOSwu1VW5KYy
p122
aVhttp://www.ebay.com/itm/Agnus-Castus-Liquid-Extract-Herbal-Tincture-100ml-/201400660187?epid=851949396&hash=item2ee46a30db:g:LbkAAOSw34FVFXQs
p123
aVhttp://www.ebay.com/itm/Poppy-Seed-Blue-Concentrated-Max-Strength-1-1-100ml-Non-Alcoholic-Tincture-/391254271470?epid=1860635990&hash=item5b189265ee:g:dsQAAOSwmmxW5KpM
p124
aVhttp://www.ebay.com/itm/Organic-Brahmi-Concentrated-Max-Strength-1-1-50ml-Non-Alcoholic-Tincture-/252056064466?epid=1644664023&hash=item3aafb651d2:g:yoUAAOSwvgdW5M5P
p125
aVhttp://www.ebay.com/itm/Digestive-Bitters-Non-Alcoholic-Tincture-50ml-FREE-UK-Post-/391298817901?epid=1046821090&hash=item5b1b3a1f6d:m:mwJgKuJ3YqHVH40hX2tUwLg
p126
aVhttp://www.ebay.com/itm/Milk-Thistle-1-2-Ratio-100ml-Organic-Tincture-/271837872464?hash=item3f4accc150:g:f8QAAOSw3ydV6Ecy
p127
aVhttp://www.ebay.com/itm/Devils-Claw-Tincture-100ml-Quality-Assured-Indigo-Herbs-/302159672709?hash=item465a1eb585:g:QHsAAOSwaeRZIbm-
p128
aVhttp://www.ebay.com/itm/Organic-Mangosteen-Concentrated-Max-Strength-1-1-50ml-Non-Alcoholic-Tincture-/252095875303?epid=1860643405&hash=item3ab215c8e7:g:L7wAAOSwP~tW5QFM
p129
aVhttp://www.ebay.com/itm/Baikal-Skullcap-Scutellaria-baicalensis-Non-Alcoholic-Tincture-Trade-1Ltr-1000ml-/391038287126?epid=1661311842&hash=item5b0bb2bd16:g:-~0AAOSwa39UxSfH
p130
aVhttp://www.ebay.com/itm/Elderflower-Sambucus-Non-Alcoholic-Tincture-100ml-FREE-UK-Post-/251616322631?epid=1060678056&hash=item3a95806447:g:eRQAAOSwv9hW5Mz2
p131
aVhttp://www.ebay.com/itm/Tribulus-Terrestris-Tincture-100ml-Gokshura-Indigo-Herbs-/112208964600?hash=item1a202cebf8:g:pu0AAOSw6YtZSTDL
p132
aVhttp://www.ebay.com/itm/Sage-Tincture-100ml-Quality-Assured-Indigo-Herbs-/112229361957?hash=item1a21642925:g:DSgAAOSwd~RZSTFi
p133
aVhttp://www.ebay.com/itm/Cats-Claw-Tincture-100ml-Quality-Assured-Indigo-Herbs-/302207097974?hash=item465cf25c76:g:abYAAOSwyltZSSyu
p134
aVhttp://www.ebay.com/itm/Frankincense-Boswellia-carterii-Non-Alcoholic-Tincture-100ml-FREE-UK-Post-/390909090524?epid=1260735463&hash=item5b03ff5adc:g:lmoAAOSwyjBW5LGd
p135
aVhttp://www.ebay.com/itm/Buchu-Leaves-Liquid-Extract-Herbal-Tincture-100ml-/191682643279?hash=item2ca12d054f:g:deIAAOSweW5VRJcm
p136
aVhttp://www.ebay.com/itm/Daun-Jambu-Psidium-Guajava-Lemon-Guava-Max-Strength-Tincture-100ml-/252302356142?epid=1361369628&hash=item3abe646eae:g:kN8AAOSwKtVW0rkx
p137
aVhttp://www.ebay.com/itm/A-Vogel-Spilanthes-Tincture-50ml-/371488567001?epid=1905311034&hash=item567e71aed9:g:TWwAAOSwmmxW4uom
p138
aVhttp://www.ebay.com/itm/Damiana-Fluid-Extract-Tincture-100ml-Quality-Assured-Indigo-Herbs-/112329763793?hash=item1a27602bd1:g:ZoUAAOSw-K9ZHXfj
p139
aVhttp://www.ebay.com/itm/A-Vogel-Ginkgo-Biloba-Tincture-50ml-/360817529535?epid=1505277592&hash=item54026692bf:g:tGcAAOSwQTVV7-Aj
p140
aVhttp://www.ebay.com/itm/Siberian-Ginseng-Tincture-100ml-Quality-Assured-/112304789007?epid=1312710949&hash=item1a25e3160f:g:yqYAAOSwjvJZOeVn
p141
aVhttp://www.ebay.com/itm/Fo-ti-Tincture-100ml-Quality-Assured-Indigo-Herbs-/112224434403?hash=item1a2118f8e3:g:iH4AAOSwtGlZNYA5
p142
aVhttp://www.ebay.com/itm/Mastic-Gum-Concentrated-Max-Strength-1-1-100ml-Non-Alcoholic-Tincture-/252085066044?epid=1160671223&hash=item3ab170d93c:g:H2UAAOSwmmxW5NGw
p143
aVhttp://www.ebay.com/itm/Chrysanthemum-Flower-Ju-Hua-Non-Alcoholic-Tincture-100ml-FREE-UK-Post-/390909068216?epid=1460677145&hash=item5b03ff03b8:g:lNkAAOSwh-1W5LBf
p144
aVhttp://www.ebay.com/itm/Oregon-Grape-Root-Mahonia-Aquifolium-Non-Alcoholic-Tincture-50ml-FREE-UK-Post-/251807668754?epid=1560707102&hash=item3aa0e81a12:g:6WwAAOSwYlJW5M99
p145
aVhttp://www.ebay.com/itm/Lungwort-Pulmonaria-Non-Alcoholic-Tincture-100ml-FREE-UK-Post-/390909116720?epid=1260892677&hash=item5b03ffc130:g:Yw4AAOSwP~tW5LQL
p146
aVhttp://www.ebay.com/itm/Bladderwrack-Organic-Fucus-vesiculosus-Non-Alcoholic-Tincture-50ml-FREE-UK-Post-/251807517199?hash=item3aa0e5ca0f:g:NxkAAOSwoBtW5OKK
p147
aVhttp://www.ebay.com/itm/White-Willow-Bark-Tincture-100ml-Quality-Assured-Indigo-Herbs-/302298051616?epid=1826244506&hash=item46625e3420:g:l2kAAOSwVJhZSTQL
p148
aVhttp://www.ebay.com/itm/Organic-Black-Maca-Root-Max-Strength-1-1-Non-Alcoholic-Tincture-50ml-/252308735282?epid=1267424913&hash=item3abec5c532:g:ngMAAOSwwpdW2W2a
p149
aVhttp://www.ebay.com/itm/PINE-POLLEN-EXTRACT-TINCTURE-by-HerbalView-100-Organic-1-1-ratio-/222576529649?hash=item33d29850f1:g:hhIAAOSwxj5XQeny
p150
aVhttp://www.ebay.com/itm/A-Vogel-Echinaforce-Tincture-120-Tablets-/262695245335?epid=1705291088&hash=item3d29db5617:g:hJoAAOSwB09YE5vi
p151
aVhttp://www.ebay.com/itm/Elderflower-Sambucus-Liquid-Extract-Herbal-Tincture-Natural-Remedy-100ml-/201649951038?hash=item2ef346113e:g:CLgAAOSwHQ9WYi8G
p152
aVhttp://www.ebay.com/itm/Thuja-Liquid-Extract-Herbal-Tincture-Thuja-occidentalis-50ml-/191652793373?hash=item2c9f658c1d:g:jRYAAOSwstxVFZGk
p153
aVhttp://www.ebay.com/itm/Sarsaparilla-Smilax-regelii-Liquid-Extract-Tincture-50ml-/191970181874?hash=item2cb25082f2:g:vtUAAOSwcBhWYipZ
p154
aVhttp://www.ebay.com/itm/Sarsaparilla-Smilax-regelii-Liquid-Extract-Tincture-100ml-/201674932309?hash=item2ef4c34055:g:ttoAAOSwHQ9WYiqF
p155
aVhttp://www.ebay.com/itm/Rhodiola-Rosea-Concentrated-Max-Strength-1-1-100ml-Non-Alcoholic-Tincture-/252085074997?epid=1460668515&hash=item3ab170fc35:g:tMkAAOSwvgdW5M1G
p156
aVhttp://www.ebay.com/itm/Rue-Herb-Ruta-graveolens-Non-Alcoholic-Tincture-100ml-FREE-UK-Post-/251616424746?epid=1360682136&hash=item3a9581f32a:g:Am8AAOSwZQxW5N1w
p157
aVhttp://www.ebay.com/itm/Wild-Yam-Root-Concentrated-Max-Strength-1-1-50ml-Non-Alcoholic-Tincture-/391224914052?epid=1660704840&hash=item5b16d27084:g:zkYAAOSwxp9W5LVf
p158
aVhttp://www.ebay.com/itm/A-Vogel-Devils-Claw-Drops-Tincture-For-Inflammation-/122470122928?var=&epid=1712748088&hash=item1c83c9c5b0:m:mqf7ZiSqrCMxrLKRcL0nkoA
p159
aVhttp://www.ebay.com/itm/Organic-Tulsi-Tincture-100ml-Indigo-Herbs-/112366843943?hash=item1a2995f827:g:L5gAAOSwwzhZP2qC
p160
aVhttp://www.ebay.com/itm/A-Vogel-Milk-Thistle-Complex-Drops-Herbal-Tincture-50ml-/171830228746?epid=1404316473&hash=item2801e1370a:g:iDgAAOSwFqJWsiGb
p161
aVhttp://www.ebay.com/itm/Dandelion-Root-Concentrated-Max-Strength-1-1-50ml-Non-Alcoholic-Tincture-/252056072955?epid=1944435332&hash=item3aafb672fb:g:C8cAAOSwZQxW5NAl
p162
aVhttp://www.ebay.com/itm/Napiers-Rubus-Idaeus-Raspberry-Leaf-Tincture-Herbal-Supplement-for-Digestion-/201406212648?var=&hash=item2ee4beea28:m:m9W_1ypFgzSRoOFjrBWMYBA
p163
aVhttp://www.ebay.com/itm/Ginkgo-Biloba-Ginkgo-Biloba-Non-Alcoholic-Tincture-50ml-FREE-UK-Post-/391038334897?hash=item5b0bb377b1:g:GlYAAOSwoBtW5LaS
p164
aVhttp://www.ebay.com/itm/Cordyceps-Concentrated-Max-Strength-1-1-100ml-Non-Alcoholic-Tincture-/252085046285?epid=1860639528&hash=item3ab1708c0d:g:LDYAAOSwmmxW5NJ3
p165
aVhttp://www.ebay.com/itm/Guggul-Concentrated-Max-Strength-1-1-100ml-Non-Alcoholic-Tincture-/391254254818?epid=1060689994&hash=item5b189224e2:g:4MoAAOSwh-1W5LSJ
p166
aVhttp://www.ebay.com/itm/Dr-Clarks-Green-Black-Walnut-Hull-Tincture-100ml-1-2-mix-/321315017967?epid=1549209235&hash=item4acfde14ef:g:gVwAAMXQQtNRzKKR
p167
aVhttp://www.ebay.com/itm/Organic-Astragalus-Non-Alcoholic-Tincture-50ml-FREE-UK-Post-/251807502747?epid=1960202591&hash=item3aa0e5919b:g:CXkAAOSwoBtW5N~A
p168
aVhttp://www.ebay.com/itm/Graviola-Fruit-Concentrated-Max-Strength-1-1-100ml-Non-Alcoholic-Tincture-/391254253620?epid=1860646708&hash=item5b18922034:g:5bYAAOSwwpdW5LZq
p169
aVhttp://www.ebay.com/itm/Coriander-Leaf-Concentrated-Max-Strength-1-1-100ml-Non-Alcoholic-Tincture-/252085046394?epid=1860633722&hash=item3ab1708c7a:g:MEsAAOSwu1VW5M3z
p170
aVhttp://www.ebay.com/itm/25g-Swedish-Bitter-herbs-dried-loose-100-GMO-Free-full-tincture-instruction-/141771884113?hash=item2102434651:g:EK8AAOSwQPlV8uM2
p171
aVhttp://www.ebay.com/itm/Organic-Comfrey-Leaf-Concentrated-Max-Strength-1-1-100ml-Non-Alcoholic-Tincture-/391254244868?epid=1960223515&hash=item5b1891fe04:g:CAUAAOSwmmxW5LKj
p172
aVhttp://www.ebay.com/itm/Fennel-Seed-Tincture-100ml-Quality-Assured-Indigo-Herbs-/302157378430?hash=item4659fbb37e:g:Lk4AAOSwfRdZI95Q
p173
aVhttp://www.ebay.com/itm/Moringa-Concentrated-Max-Strength-1-1-50ml-Non-Alcoholic-Tincture-/252056088461?epid=1060688925&hash=item3aafb6af8d:g:BEYAAOSwP~tW5NxA
p174
aVhttp://www.ebay.com/itm/A-Vogel-Plantago-TINCTURE-50ml-Lance-Leaf-Plantain-/181218188044?epid=1304326768&hash=item2a31721b0c:g:ipUAAOSwqu9VBugC
p175
aVhttp://www.ebay.com/itm/A-Vogel-Eleutherococcus-Siberian-Ginseng-Herbal-Tincture-50ml-/272312857431?epid=1405252568&hash=item3f671c7357:g:UnwAAOSweW5U9I10
p176
aVhttp://www.ebay.com/itm/Stevia-Non-Alcoholic-Tincture-100ml-FREE-UK-Post-/251616447742?epid=1860632041&hash=item3a95824cfe:m:mNKV_UCZB5M9dgTY64AXfyA
p177
aVhttp://www.ebay.com/itm/Frankincense-Boswellia-carterii-Non-Alcoholic-Tincture-50ml-FREE-UK-Post-/251807590298?epid=1060688901&hash=item3aa0e6e79a:g:r48AAOSwyjBW5Nw-
p178
aVhttp://www.ebay.com/itm/Organic-Clivers-Herb-Cleavers-Max-Strength-1-1-100ml-Non-Alcoholic-Tincture-/252085044565?hash=item3ab1708555:g:39oAAOSwwpdW5NUS
p179
aVhttp://www.ebay.com/itm/Rosemary-Tincture-100ml-Quality-Assured-Indigo-Herbs-/112224336023?hash=item1a21177897:g:dDcAAOSwfRdZJA~N
p180
aVhttp://www.ebay.com/itm/A-Vogel-Agnus-Castus-Chaste-Tree-Drops-Herbal-Tincture-50ml-/311527028750?epid=1829569226&hash=item488875380e:g:j6gAAOSwdGFYoyUx
p181
aVhttp://www.ebay.com/itm/Arnica-Concentrated-Max-Strength-1-1-50ml-Non-Alcoholic-Tincture-/391224857520?epid=1943442927&hash=item5b16d193b0:g:zkQAAOSwAuNW5Krl
p182
aVhttp://www.ebay.com/itm/Moringa-Concentrated-Max-Strength-1-1-100ml-Non-Alcoholic-Tincture-/252085066824?epid=1760775700&hash=item3ab170dc48:g:9WMAAOSwZ8ZW5NSb
p183
aVhttp://www.ebay.com/itm/Rue-Herb-Ruta-graveolens-Non-Alcoholic-Tincture-400ml-FREE-UK-Post-/251616425145?epid=1067593801&hash=item3a9581f4b9:g:gu8AAOSwQItT62v3
p184
aVhttp://www.ebay.com/itm/A-Vogel-Urtica-Tincture-50ml-/361468551532?epid=1105279492&hash=item542934616c:g:gQIAAOSwHaBWl8hu
p185
aVhttp://www.ebay.com/itm/Shepherds-Purse-Capsella-bursa-pastoris-Non-Alcoholic-Tincture-50ml-FREE-UK-Pos-/251807792981?epid=1460671988&hash=item3aa0e9ff55:g:Xv4AAOSwu1VW5NAl
p186
aVhttp://www.ebay.com/itm/Cleavers-Tincture-100ml-Quality-Assured-Indigo-Herbs-/112229082858?hash=item1a215fe6ea:g:ev4AAOSwbtVZSTLz
p187
aVhttp://www.ebay.com/itm/Marigold-Tincture-100ml-Quality-Assured-Indigo-Herbs-/302155971973?epid=1512708670&hash=item4659e63d85:g:9hkAAOSwstJZSTAa
p188
aVhttp://www.ebay.com/itm/Saw-Palmetto-Serenoa-repens-Non-Alcoholic-Tincture-Trade-1Ltr-1000ml-/391038394116?epid=1861256067&hash=item5b0bb45f04:g:yYMAAOSw1ZBUxUeg
p189
aVhttp://www.ebay.com/itm/Reishi-Concentrated-Max-Strength-1-1-50ml-Non-Alcoholic-Tincture-/252201362041?epid=1760785109&hash=item3ab85f6279:g:e9gAAOSwAuNW5N1R
p190
aVhttp://www.ebay.com/itm/Cramp-Bark-Viburnum-opulus-Non-Alcoholic-Tincture-50ml-FREE-UK-Post-/391038324069?epid=1160669057&hash=item5b0bb34d65:g:-4QAAOSwwpdW5Kkr
p191
aVhttp://www.ebay.com/itm/Organic-Brahmi-Tincture-100ml-Indigo-Herbs-/112322050799?hash=item1a26ea7aef:g:1CMAAOSwDiBZNRbq
p192
aVhttp://www.ebay.com/itm/Dong-Quai-Tincture-100ml-Quality-Assured-Indigo-Herbs-/302276807220?hash=item46611a0a34:g:pKoAAOSwPWRZSS-g
p193
aVhttp://www.ebay.com/itm/Chancapiedra-Phyllanthus-niruri-Non-Alcoholic-Tincture-100ml-FREE-UK-Post-/390909064651?epid=1260738280&hash=item5b03fef5cb:g:J18AAOSwYlJW5LQB
p194
aVhttp://www.ebay.com/itm/Arnica-Liquid-Extract-Herbal-Tincture-50ml-/201475814665?hash=item2ee8e4f509:g:jG4AAOSwBLlVFY1J
p195
aVhttp://www.ebay.com/itm/Organic-Black-Maca-Root-Max-Strength-1-1-Non-Alcoholic-Tincture-100ml-/252308735163?epid=1164522764&hash=item3abec5c4bb:g:st0AAOSwZ8ZW2W2R
p196
aVhttp://www.ebay.com/itm/Hemp-Concentrated-Max-Strength-1-1-50ml-Non-Alcoholic-Tincture-/252056081752?epid=1360673398&hash=item3aafb69558:g:V1wAAOSwZQxW5NP5
p197
aVhttp://www.ebay.com/itm/Organic-Liquorice-Root-Glycyrrhiza-Glabra-Non-Alcoholic-Tincture-50ml-FREE-UK-P-/251807626327?epid=1160324694&hash=item3aa0e77457:g:bowAAOSwvgdW5Nfp
p198
aVhttp://www.ebay.com/itm/Organic-Red-Clover-Trifolium-Pratense-Non-Alcoholic-Tincture-50ml-FREE-UK-Post-/251807683354?epid=1260411729&hash=item3aa0e8531a:g:a-MAAOSwvgdW5Oib
p199
aVhttp://www.ebay.com/itm/Organic-Wormwood-Artemisia-Absinthium-Non-Alcoholic-Tincture-50ml-FREE-UK-Post-/251808211755?epid=1260429760&hash=item3aa0f0632b:g:C7kAAOSwZQxW5NAj
p200
aVhttp://www.ebay.com/itm/Organic-Angelica-Root-Concentrated-Max-Strength-1-1-50ml-Non-Alcoholic-Tincture-/252056058966?epid=1540864816&hash=item3aafb63c56:g:ViIAAOSwyjBW5NbS
p201
aVhttp://www.ebay.com/itm/Chickweed-Stellaria-media-Non-Alcoholic-Tincture-100ml-FREE-UK-Post-/390909066541?epid=1760775420&hash=item5b03fefd2d:g:WPcAAOSwmmxW5KjZ
p202
aVhttp://www.ebay.com/itm/A-Vogel-Plantago-Lanceolata-Tincture-50ml-/371863174618?epid=1304326768&hash=item5694c5bdda:g:cXwAAOSwtfhYnY-0
p203
aVhttp://www.ebay.com/itm/Cornsilk-Concentrated-Max-Strength-1-1-50ml-Non-Alcoholic-Tincture-/391224871147?epid=1743589996&hash=item5b16d1c8eb:g:HcUAAOSwmmxW5KW1
p204
aVhttp://www.ebay.com/itm/Stinging-Nettle-Root-Non-Alcoholic-Tincture-50ml-FREE-UK-Post-/391038671244?epid=1960595295&hash=item5b0bb8998c:g:tlUAAOSwyjBW5KbS
p205
aVhttp://www.ebay.com/itm/Turmeric-Curcuma-longa-Non-Alcoholic-Tincture-100ml-FREE-UK-Post-/390909197993?epid=1360674928&hash=item5b0400fea9:g:4t4AAOSwmmxW5LCA
p206
aVhttp://www.ebay.com/itm/Organic-Wormwood-Artemisia-Absinthium-Non-Alcoholic-Tincture-100ml-FREE-UK-Post-/251616476300?epid=1560863923&hash=item3a9582bc8c:g:WSMAAOSwwpdW5N1u
p207
aVhttp://www.ebay.com/itm/Acerola-Concentrated-Max-Strength-1-1-50ml-Non-Alcoholic-Tincture-/391224856315?epid=1260727770&hash=item5b16d18efb:g:HX4AAOSwZ8ZW5Klv
p208
aVhttp://www.ebay.com/itm/He-Shou-Wu-Concentrated-Max-Strength-1-1-100ml-Non-Alcoholic-Tincture-/391254255348?epid=1460668234&hash=item5b189226f4:g:YPkAAOSwP~tW5KW0
p209
aVhttp://www.ebay.com/itm/Bloodroot-Concentrated-Max-Strength-1-1-100ml-Non-Alcoholic-Tincture-/391254234237?hash=item5b1891d47d:g:zNAAAOSwwpdW5LTz
p210
aVhttp://www.ebay.com/itm/Elecampane-Inula-helenium-Non-Alcoholic-Tincture-50ml-FREE-UK-Post-/251807583507?epid=1960602814&hash=item3aa0e6cd13:g:qJIAAOSwZQxW5NgZ
p211
aVhttp://www.ebay.com/itm/Yellow-Dock-Root-Concentrated-Max-Strength-1-1-100ml-Non-Alcoholic-Tincture-/252085086317?epid=1560719655&hash=item3ab171286d:g:jtgAAOSwh-1W5NzR
p212
aVhttp://www.ebay.com/itm/Organic-Rehmannia-Shu-Di-Huang-Max-Strength-1-1-Non-Alcoholic-Tincture-50ml-/252308736323?epid=1972557826&hash=item3abec5c943:g:KmIAAOSwh-1W2W32
p213
aVhttp://www.ebay.com/itm/Cayenne-Tincture-100ml-Indigo-Herbs-Quality-Assured-/112224151827?hash=item1a2114a913:g:6eMAAOSwAO9ZPp68
p214
aVhttp://www.ebay.com/itm/Stinging-Nettle-Root-Concentrated-Max-Strength-1-1-50ml-Non-Alcoholic-Tincture-/391224911333?epid=1960597689&hash=item5b16d265e5:g:cYgAAOSwZ8ZW5K4a
p215
aVhttp://www.ebay.com/itm/Cayenne-Pepper-Capsicum-annuum-Non-Alcoholic-Tincture-50ml-FREE-UK-Post-/251807535353?epid=1160676065&hash=item3aa0e610f9:g:QXkAAOSwv9hW5NgM
p216
aVhttp://www.ebay.com/itm/Watercress-Herb-Nasturtium-officinale-Non-Alcoholic-Tincture-50ml-FREE-UK-Post-/391038672675?epid=1360671903&hash=item5b0bb89f23:g:-2cAAOSwwpdW5Kkq
p217
aVhttp://www.ebay.com/itm/Chaparral-Leaf-Larrea-tridentata-Non-Alcoholic-Tincture-50ml-FREE-UK-Post-/251807541159?epid=1360677628&hash=item3aa0e627a7:g:-IYAAOSwxp9W5NUS
p218
aVhttp://www.ebay.com/itm/Rue-Herb-Ruta-graveolens-Non-Alcoholic-Tincture-Trade-1Ltr-1000ml-/251807690119?epid=1161280800&hash=item3aa0e86d87:g:dgUAAOSwzrxUxUbz
p219
aVhttp://www.ebay.com/itm/Siberian-Ginseng-Eleutherococcus-senticosus-Non-Alcoholic-Tincture-100ml-/251616437361?epid=1260731858&hash=item3a95822471:g:WcgAAOSwr7ZW5NEs
p220
aVhttp://www.ebay.com/itm/Chamomile-Tincture-100ml-Quality-Assured-Indigo-Herbs-/112304737061?epid=1026200967&hash=item1a25e24b25:g:qmYAAOSw8GtZPVRN
p221
aVhttp://www.ebay.com/itm/Grains-of-Paradise-Concentrated-Max-Strength-1-1-100ml-Non-Alcoholic-Tincture-/391265371012?epid=1060679772&hash=item5b193bc384:g:LNMAAOSwmmxW5KZ3
p222
aVhttp://www.ebay.com/itm/Elderberry-Liquid-Extract-Herbal-Tincture-50ml-/201392447435?hash=item2ee3ecdfcb:g:qOUAAOSwpDdVRJ5w
p223
aVhttp://www.ebay.com/itm/Skullcap-Liquid-Extract-Herbal-Tincture-Scutellaria-Iateriflora-50ml-/191546930776?hash=item2c99163658:g:rPoAAOSwPhdVF~CE
p224
aVhttp://www.ebay.com/itm/Neem-Leaf-Non-Alcoholic-Tincture-Trade-1Ltr-1000ml-/391038376886?epid=1461292373&hash=item5b0bb41bb6:g:8LMAAOSwm8VUxUGe
p225
aVhttp://www.ebay.com/itm/Organic-Liquorice-Root-Glycyrrhiza-Glabra-Non-Alcoholic-Tincture-100ml-FREE-UK-/251616369058?epid=1660870029&hash=item3a958119a2:g:FNYAAOSwP~tW5M1H
p226
aVhttp://www.ebay.com/itm/Myrrh-Gum-Concentrated-Max-Strength-1-1-50ml-Non-Alcoholic-Tincture-/252056090081?hash=item3aafb6b5e1:g:8W0AAOSwZ8ZW5NRi
p227
aVhttp://www.ebay.com/itm/Slippery-Elm-Ulmus-rubra-Non-Alcoholic-Tincture-50ml-FREE-UK-Post-/391038670755?epid=1160679230&hash=item5b0bb897a3:g:BFIAAOSwv9hW5Ljl
p228
aVhttp://www.ebay.com/itm/Hemp-Concentrated-Max-Strength-1-1-100ml-Non-Alcoholic-Tincture-/252085057845?epid=1160678615&hash=item3ab170b935:g:y-cAAOSwyjBW5N33
p229
aVhttp://www.ebay.com/itm/Goldenrod-Solidago-Virgaurea-Non-Alcoholic-Tincture-50ml-FREE-UK-Post-/391038335816?epid=1060687645&hash=item5b0bb37b48:g:zWIAAOSwh-1W5LOF
p230
aVhttp://www.ebay.com/itm/Ground-Ivy-Herb-Glechoma-hederacea-Non-Alcoholic-Tincture-50ml-FREE-UK-Post-/391038338136?epid=1160666470&hash=item5b0bb38458:g:mBEAAOSwv9hW5KZQ
p231
aVhttp://www.ebay.com/itm/Ginseng-Panax-Liquid-Extract-Herbal-Tincture-100ml-/201342310960?hash=item2ee0efda30:g:-fsAAOSwstxVRLuD
p232
aVhttp://www.ebay.com/itm/Walnut-Shells-Black-Concentrated-Max-Strength-1-1-50ml-Non-Alcoholic-Tincture-/391224913308?epid=1260730882&hash=item5b16d26d9c:g:PbQAAOSwxp9W5K2x
p233
aVhttp://www.ebay.com/itm/Lungwort-Pulmonaria-Non-Alcoholic-Tincture-50ml-FREE-UK-Post-/391038360685?epid=1160669135&hash=item5b0bb3dc6d:g:B80AAOSwh-1W5KjQ
p234
aVhttp://www.ebay.com/itm/Thuja-Herb-Thuja-occidentalis-Non-Alcoholic-Tincture-50ml-FREE-UK-Post-/251808207147?hash=item3aa0f0512b:g:EL0AAOSwwpdW5Nh5
p235
aVhttp://www.ebay.com/itm/Sarsaparilla-Smilax-regelii-Non-Alcoholic-Tincture-100ml-FREE-UK-Post-/390909158882?epid=1460670564&hash=item5b040065e2:g:bTcAAOSwAuNW5KZK
p236
aVhttp://www.ebay.com/itm/Black-Walnut-Juglans-Nigra-Non-Alcoholic-Tincture-Trade-1Ltr-1000ml-/391038291928?epid=1861251294&hash=item5b0bb2cfd8:g:1wAAAOSw1ZBUxSm3
p237
aVhttp://www.ebay.com/itm/50ml-BLACK-WALNUT-HULL-TINCTURE-1-2-FREE-P-P-/221852948486?hash=item33a7775806:m:mqcy5KyM7YaernvIlOx8mow
p238
aVhttp://www.ebay.com/itm/Motherwort-Liquid-Extract-Herbal-Tincture-Leonurus-cardiaca-100ml-/201506406127?hash=item2eeab7beef:g:GfcAAOSwEeFVF-Rh
p239
aVhttp://www.ebay.com/itm/Juniper-Berry-Concentrated-Max-Strength-1-1-100ml-Non-Alcoholic-Tincture-/252085062233?epid=1960605648&hash=item3ab170ca59:g:wh8AAOSwv9hW5OBg
p240
aVhttp://www.ebay.com/itm/Swedish-Bitters-Non-Alcoholic-Tincture-50ml-FREE-UK-Post-/391038671576?epid=1360678841&hash=item5b0bb89ad8:g:RSEAAOSwmmxW5LYl
p241
aVhttp://www.ebay.com/itm/Organic-Plantain-Herb-Concentrated-Max-Strength-1-1-50ml-Non-Alcoholic-Tincture-/252056094290?epid=1960278086&hash=item3aafb6c652:g:YKYAAOSwZ8ZW5O0-
p242
aVhttp://www.ebay.com/itm/Catnip-Concentrated-Max-Strength-1-1-50ml-Non-Alcoholic-Tincture-/391224865805?epid=1943445459&hash=item5b16d1b40d:g:XNcAAOSwr7ZW5LZv
p243
aVhttp://www.ebay.com/itm/Cloves-Concentrated-Max-Strength-1-1-50ml-Non-Alcoholic-Tincture-/391224869166?hash=item5b16d1c12e:g:m1wAAOSwZ8ZW5LCH
p244
aVhttp://www.ebay.com/itm/Swedish-Bitters-Non-Alcoholic-Tincture-Trade-1Ltr-1000ml-/251808274676?hash=item3aa0f158f4:g:rksAAOSwm8VUxc-s
p245
aVhttp://www.ebay.com/itm/Shepherds-Purse-Capsella-bursa-pastoris-Non-Alcoholic-Tincture-100ml-FREE-UK-Pos-/251616434485?epid=1460675676&hash=item3a95821935:g:7JAAAOSwv9hW5NNV
p246
aVhttp://www.ebay.com/itm/Bitter-Orange-Citrus-aurantium-Non-Alcoholic-Tincture-50ml-FREE-UK-Post-/391038290612?hash=item5b0bb2cab4:g:9rIAAOSwYlJW5LEI
p247
aVhttp://www.ebay.com/itm/Olive-Leaves-Olea-europaea-Liquid-Extract-Tincture-50ml-/201587020688?hash=item2eef85d390:g:2Q4AAOSwNphWYioY
p248
aVhttp://www.ebay.com/itm/Hops-Liquid-Extract-Herbal-Tincture-50ml-/201394090079?hash=item2ee405f05f:g:ObIAAOSwstxVRL4s
p249
aVhttp://www.ebay.com/itm/Witch-Hazel-Liquid-Extract-Herbal-Tincture-50ml-/191637836236?hash=item2c9e8151cc:g:-HcAAOSw-7RVF~RL
p250
aVhttp://www.ebay.com/itm/Olive-Leaves-Olea-europaea-Liquid-Extract-Tincture-100ml-/191875516514?hash=item2cacac0862:g:va0AAOSwAKxWYion
p251
aVhttp://www.ebay.com/itm/Garlic-Liquid-Extract-Herbal-Tincture-50ml-/201401377431?hash=item2ee4752297:g:OwgAAOSwqu9VRJ5O
p252
aVhttp://www.ebay.com/itm/Dong-Quai-Liquid-Extract-Herbal-Tincture-50ml-/191941344437?hash=item2cb0987cb5:g:2QkAAOSwstxVRJ43
p253
aVhttp://www.ebay.com/itm/Eyebright-Liquid-Extract-Herbal-Tincture-Euphrasia-50ml-/201421386437?hash=item2ee5a672c5:g:qgUAAOSwpDdVRJ59
p254
aVhttp://www.ebay.com/itm/Lemon-Balm-Liquid-Extract-Herbal-Tincture-100ml-/201606563337?hash=item2ef0b00609:g:gmAAAOSwrklVRL5K
p255
aVhttp://www.ebay.com/itm/Horsetail-Liquid-Extract-Herbal-Tincture-Equisetum-arvense-50ml-/191653781073?hash=item2c9f749e51:g:kR0AAOSwBahVRL5E
p256
aVhttp://www.ebay.com/itm/Elecampane-Inula-helenium-Liquid-Extract-Tincture-50ml-/201606563346?hash=item2ef0b00612:g:HcAAAOSwcBhWYiP5
p257
aVhttp://www.ebay.com/itm/Small-Flowering-Willow-Herb-Liquid-Extract-Tincture-100ml-/201641185689?hash=item2ef2c05199:g:wrUAAOSwnipWYipS
p258
aVhttp://www.ebay.com/itm/Liquorice-Liquid-Extract-Herbal-Tincture-Glycyrrhiza-Glabra-100ml-/191675278034?hash=item2ca0bca2d2:g:PW4AAOSwstxVRL5P
p259
aVhttp://www.ebay.com/itm/Red-Clover-Liquid-Extract-Herbal-Tincture-Trifolium-pratense-50ml-/191571460275?hash=item2c9a8c80b3:g:FtsAAOSwEeFVRMI-
p260
aVhttp://www.ebay.com/itm/Pau-DArco-Liquid-Extract-Herbal-Tincture-Hydrocotyle-Asiatica-50ml-/191546930540?hash=item2c9916356c:g:2dkAAOSwrklVF~Bs
p261
aVhttp://www.ebay.com/itm/Frankincense-Boswellia-carterii-Non-Alcoholic-Tincture-200ml-FREE-UK-Post-/390909090607?epid=1661312868&hash=item5b03ff5b2f:g:Bl0AAOSwq7JT60M7
p262
aVhttp://www.ebay.com/itm/Rosehip-Rosa-Canina-Non-Alcoholic-Tincture-100ml-FREE-UK-Post-/390909151511?hash=item5b04004917:g:WwsAAOSwoudW5Kis
p263
aVhttp://www.ebay.com/itm/Organic-Gynostemma-Concentrated-Max-Strength-1-1-50ml-Non-Alcoholic-Tincture-/391265407840?epid=1260737529&hash=item5b193c5360:g:FXMAAOSwmmxW5LN8
p264
aVhttp://www.ebay.com/itm/Tansy-Herb-Tanacetum-vulgare-Non-Alcoholic-Tincture-100ml-FREE-UK-Post-/251616454471?epid=1560710724&hash=item3a95826747:g:UbIAAOSwmmxW5NS-
p265
aVhttp://www.ebay.com/itm/Astragalus-Liquid-Extract-Herbal-Tincture-100ml-/191652696894?epid=1740303989&hash=item2c9f64133e:g:qf0AAOSwrklVFY1w
p266
aVhttp://www.ebay.com/itm/Organic-Gotu-Kola-Concentrated-Max-Strength-1-1-50ml-Non-Alcoholic-Tincture-/252056079162?epid=1460314372&hash=item3aafb68b3a:g:HD0AAOSwoBtW5NHK
p267
aVhttp://www.ebay.com/itm/Ladies-Mantle-Alchemilla-vulgaris-Non-Alcoholic-Tincture-100ml-FREE-UK-Post-/390909110813?epid=1760779201&hash=item5b03ffaa1d:g:1ZEAAOSwwpdW5LWG
p268
aVhttp://www.ebay.com/itm/Wheat-Grass-Non-Alcoholic-Tincture-50ml-FREE-UK-Post-/391038672757?epid=1460671447&hash=item5b0bb89f75:g:DxgAAOSwh-1W5Kko
p269
aVhttp://www.ebay.com/itm/Watercress-Herb-Nasturtium-officinale-Non-Alcoholic-Tincture-300ml-FREE-UK-Post-/390909215811?epid=1168098109&hash=item5b04014443:g:V8oAAOSwDk5T63sX
p270
aVhttp://www.ebay.com/itm/Organic-Clivers-Herb-Cleavers-Max-Strength-1-1-100ml-Non-Alcoholic-Tincture-/252085044565?hash=item3ab1708555:g:39oAAOSwwpdW5NUS
p271
aVhttp://www.ebay.com/itm/Huang-Qi-Concentrated-Max-Strength-1-1-100ml-Non-Alcoholic-Tincture-/391254257241?epid=1460678181&hash=item5b18922e59:g:GOIAAOSwv9hW5Lnn
p272
aVhttp://www.ebay.com/itm/Cayenne-Pepper-Concentrated-Max-Strength-1-1-50ml-Non-Alcoholic-Tincture-/391224865964?epid=1343518699&hash=item5b16d1b4ac:g:9fMAAOSwYlJW5LD7
p273
aVhttp://www.ebay.com/itm/Chinese-Wild-Yam-Dioscorea-opposita-Non-Alcoholic-Tincture-50ml-FREE-UK-Post-/251807549924?epid=1760780537&hash=item3aa0e649e4:g:FT0AAOSwYlJW5NJ-
p274
aVhttp://www.ebay.com/itm/Andrographis-Herb-Andrographis-paniculata-Non-Alcoholic-Tincture-100ml-FREE-UK-/251616237506?hash=item3a957f17c2:g:nYIAAOSwZ8ZW5M9-
p275
aVhttp://www.ebay.com/itm/Eyebright-Euphrasia-Non-Alcoholic-Tincture-50ml-FREE-UK-Post-/251807584697?epid=1960603633&hash=item3aa0e6d1b9:g:LCMAAOSwoBtW5OHj
p276
aVhttp://www.ebay.com/itm/Sea-Buckthorn-Concentrated-Max-Strength-1-1-100ml-Non-Alcoholic-Tincture-/391254274645?epid=1660706208&hash=item5b18927255:g:HscAAOSwYlJW5LN7
p277
aVhttp://www.ebay.com/itm/Green-Tea-Extract-98-Concentrated-Max-Strength-1-1-50ml-Non-Alcoholic-Tincture-/252056080449?epid=1760783683&hash=item3aafb69041:g:zh8AAOSwZQxW5Npd
p278
aVhttp://www.ebay.com/itm/Stinging-Nettle-Root-Non-Alcoholic-Tincture-400ml-FREE-UK-Post-/390909183035?epid=1061298056&hash=item5b0400c43b:g:UGkAAOSwQItT63Sm
p279
aVhttp://www.ebay.com/itm/Organic-Motherwort-Leonurus-cardiaca-Non-Alcoholic-Tincture-100ml-FREE-UK-Post-/251616383917?epid=1660372461&hash=item3a958153ad:g:2rYAAOSwv9hW5OHi
p280
aVhttp://www.ebay.com/itm/Olive-Leaves-Olea-europaea-Liquid-Extract-Tincture-50ml-/201587020688?hash=item2eef85d390:g:2Q4AAOSwNphWYioY
p281
aVhttp://www.ebay.com/itm/Wild-Yam-Liquid-Extract-Herbal-Tincture-50ml-/201475815610?hash=item2ee8e4f8ba:g:P8kAAOSweW5VRMWo
p282
aVhttp://www.ebay.com/itm/Hops-Liquid-Extract-Herbal-Tincture-50ml-/201394090079?hash=item2ee405f05f:g:ObIAAOSwstxVRL4s
p283
aVhttp://www.ebay.com/itm/Witch-Hazel-Liquid-Extract-Herbal-Tincture-50ml-/191637836236?hash=item2c9e8151cc:g:-HcAAOSw-7RVF~RL
p284
aVhttp://www.ebay.com/itm/Garlic-Liquid-Extract-Herbal-Tincture-50ml-/201401377431?hash=item2ee4752297:g:OwgAAOSwqu9VRJ5O
p285
aVhttp://www.ebay.com/itm/Dong-Quai-Liquid-Extract-Herbal-Tincture-50ml-/191941344437?hash=item2cb0987cb5:g:2QkAAOSwstxVRJ43
p286
aVhttp://www.ebay.com/itm/Horsetail-Liquid-Extract-Herbal-Tincture-Equisetum-arvense-50ml-/191653781073?hash=item2c9f749e51:g:kR0AAOSwBahVRL5E
p287
aVhttp://www.ebay.com/itm/Lemon-Balm-Liquid-Extract-Herbal-Tincture-100ml-/201606563337?hash=item2ef0b00609:g:gmAAAOSwrklVRL5K
p288
aVhttp://www.ebay.com/itm/Elecampane-Inula-helenium-Liquid-Extract-Tincture-50ml-/201606563346?hash=item2ef0b00612:g:HcAAAOSwcBhWYiP5
p289
aVhttp://www.ebay.com/itm/Small-Flowering-Willow-Herb-Liquid-Extract-Tincture-100ml-/201641185689?hash=item2ef2c05199:g:wrUAAOSwnipWYipS
p290
aVhttp://www.ebay.com/itm/Liquorice-Liquid-Extract-Herbal-Tincture-Glycyrrhiza-Glabra-100ml-/191675278034?hash=item2ca0bca2d2:g:PW4AAOSwstxVRL5P
p291
aVhttp://www.ebay.com/itm/Pau-DArco-Liquid-Extract-Herbal-Tincture-Hydrocotyle-Asiatica-50ml-/191546930540?hash=item2c9916356c:g:2dkAAOSwrklVF~Bs
p292
aVhttp://www.ebay.com/itm/Red-Clover-Liquid-Extract-Herbal-Tincture-Trifolium-pratense-50ml-/191571460275?hash=item2c9a8c80b3:g:FtsAAOSwEeFVRMI-
p293
aVhttp://www.ebay.com/itm/Walnut-Liquid-Extract-Herbal-Tincture-Juglans-regia-100ml-/201342326392?hash=item2ee0f01678:g:NQgAAOSwrklVRMWH
p294
aVhttp://www.ebay.com/itm/Muira-Puama-Liquid-Extract-Herbal-Tincture-50ml-/191639954412?hash=item2c9ea1a3ec:g:KEgAAOSwrklVF-rb
p295
aVhttp://www.ebay.com/itm/Myrrh-Liquid-Extract-Herbal-Tincture-Commiphora-Molmol-100ml-/191619252908?hash=item2c9d65c2ac:g:GogAAOSwEeFVF-Rn
p296
aVhttp://www.ebay.com/itm/Eyebright-Liquid-Extract-Herbal-Tincture-Euphrasia-50ml-/201421386437?hash=item2ee5a672c5:g:qgUAAOSwpDdVRJ59
p297
aVhttp://www.ebay.com/itm/Ladys-Mantle-Liquid-Extract-Herbal-Tincture-Alcchemilla-arvensis-100ml-/191594006528?hash=item2c9be48800:g:XDgAAOSwNSxVRL4k
p298
aVhttp://www.ebay.com/itm/Clove-Liquid-Extract-Herbal-Tincture-50ml-/201342247304?hash=item2ee0eee188:g:9soAAOSwEeFVRJdk
p299
aVhttp://www.ebay.com/itm/White-Willow-Liquid-Extract-Herbal-Tincture-Salix-Alba-100ml-/191546939641?hash=item2c991658f9:g:8bkAAOSwBLlVF~RE
p300
aVhttp://www.ebay.com/itm/Horse-Chestnut-Liquid-Extract-Herbal-Tincture-Aesculus-hippocastanum-50ml-/201607812983?hash=item2ef0c31777:g:Fz8AAOSw-7RVF-Qx
p301
aVhttp://www.ebay.com/itm/Muira-Puama-Liquid-Extract-Herbal-Tincture-100ml-/201410195393?hash=item2ee4fbafc1:g:wRYAAOSwEeFVF-rV
p302
aVhttp://www.ebay.com/itm/Burdock-Root-Liquid-Extract-Tincture-Arctium-Lappa-100ml-/191900329019?hash=item2cae26a43b:g:9OgAAOSwEeFVRJdM
p303
aVhttp://www.ebay.com/itm/Bladderwrack-Liquid-Extract-Tincture-Fucus-vesiculosus-50ml-/191747431033?hash=item2ca5099a79:g:HpEAAOSwcBhWWDm6
p304
aVhttp://www.ebay.com/itm/Green-Tea-Liquid-Extract-Herbal-Tincture-100ml-/191571451761?hash=item2c9a8c5f71:g:VmEAAOSwBLlVRL4L
p305
aVhttp://www.ebay.com/itm/Devils-Claw-Liquid-Extract-Herbal-Tincture-100ml-/201606563330?hash=item2ef0b00602:g:QGAAAOSwNSxVRJ4f
p306
aVhttp://www.ebay.com/itm/Baikal-Skullcap-Concentrated-Max-Strength-1-1-50ml-Non-Alcoholic-Tincture-/252056060174?epid=1240885765&hash=item3aafb6410e:g:iVcAAOSwYlJW5RDF
p307
aVhttp://www.ebay.com/itm/Organic-Motherwort-Concentrated-Max-Strength-1-1-50ml-Non-Alcoholic-Tincture-/252056088628?epid=1060350435&hash=item3aafb6b034:g:u7EAAOSwoBtW5Nqs
p308
aVhttp://www.ebay.com/itm/Dandelion-Root-Concentrated-Max-Strength-1-1-100ml-Non-Alcoholic-Tincture-/391254249153?epid=1860645986&hash=item5b18920ec1:g:8H0AAOSwh-1W5LVk
p309
aVhttp://www.ebay.com/itm/Organic-Comfrey-Root-Concentrated-Max-Strength-1-1-50ml-Non-Alcoholic-Tincture-/391224870099?epid=1240887250&hash=item5b16d1c4d3:g:UnkAAOSwwpdW5L0o
p310
aVhttp://www.ebay.com/itm/Raspberry-Leaf-Rubus-Idaeus-Non-Alcoholic-Tincture-100ml-FREE-UK-Post-/390909149064?epid=1660695462&hash=item5b04003f88:m:mNKV_UCZB5M9dgTY64AXfyA
p311
aVhttp://www.ebay.com/itm/Organic-Mugwort-Artemisia-vulgaris-Non-Alcoholic-Tincture-100ml-FREE-UK-Post-/251616385993?epid=1860311360&hash=item3a95815bc9:g:t-kAAOSwv9hW5N~A
p312
aVhttp://www.ebay.com/itm/Organic-Rhodiola-Rosea-Hong-Jing-Tian-Non-Alcoholic-Tincture-100ml-FREE-UK-Post-/391178357515?epid=1960595955&hash=item5b140c0b0b:g:WFkAAOSwr7ZW5Kma
p313
aVhttp://www.ebay.com/itm/Chaga-Concentrated-Max-Strength-1-1-100ml-Non-Alcoholic-Tincture-/252085042720?epid=1360680213&hash=item3ab1707e20:g:EWgAAOSwP~tW5N0s
p314
aVhttp://www.ebay.com/itm/Siberian-Ginseng-Eleutherococcus-senticosus-Non-Alcoholic-Tincture-400ml-/390909164360?epid=1161285338&hash=item5b04007b48:g:VjUAAOSw7NNT63BF
p315
aVhttp://www.ebay.com/itm/Ginger-Concentrated-Max-Strength-1-1-50ml-Non-Alcoholic-Tincture-/391224877853?epid=1160674550&hash=item5b16d1e31d:g:mrMAAOSwv9hW5LN6
p316
aVhttp://www.ebay.com/itm/Sage-Salvia-officinalis-Non-Alcoholic-Tincture-100ml-FREE-UK-Post-/251616425620?epid=1560712146&hash=item3a9581f694:g:zkAAAOSwwpdW5NQG
p317
aVhttp://www.ebay.com/itm/Turmeric-Root-Curcuma-longa-100ml-Organic-Tincture-/371454419910?hash=item567c68a3c6:g:N6MAAOSw4HVWDmMI
p318
aVhttp://www.ebay.com/itm/Organic-Horsetail-Equisetum-arvense-Non-Alcoholic-Tincture-50ml-FREE-UK-Post-/391038343132?hash=item5b0bb397dc:g:njEAAOSwAuNW5LVO
p319
aVhttp://www.ebay.com/itm/Organic-Chamomile-Matricaria-Recutita-Non-Alcoholic-Tincture-100ml-FREE-UK-Post-/251616290589?hash=item3a957fe71d:g:TgMAAOSwZQxW5OHr
p320
aVhttp://www.ebay.com/itm/Stone-Root-Collinsonia-canadensis-Non-Alcoholic-Tincture-100ml-FREE-UK-Post-/251616450947?epid=1160668878&hash=item3a95825983:g:rxYAAOSwxp9W5NDx
p321
aVhttp://www.ebay.com/itm/Chicory-Root-Cichorium-intybus-Non-Alcoholic-Tincture-200ml-FREE-UK-Post-/390909067033?epid=1661318480&hash=item5b03feff19:g:3UQAAOSwnDZT6zSK
p322
aVhttp://www.ebay.com/itm/Guaicum-Wood-Guaiacum-officinale-Non-Alcoholic-Tincture-100ml-FREE-UK-Post-/390909098650?epid=1560710297&hash=item5b03ff7a9a:g:ioQAAOSwmmxW5Ktm
p323
aVhttp://www.ebay.com/itm/Siberian-Ginseng-Concentrated-Max-Strength-1-1-50ml-Non-Alcoholic-Tincture-/391224908835?epid=1460674057&hash=item5b16d25c23:g:NIYAAOSwAuNW5LAL
p324
aVhttp://www.ebay.com/itm/A-Vogel-Echinaforce-Tincture-50ml-/361806653089?hash=item543d5b66a1:g:SgUAAOSwB09YGLSl
p325
aVhttp://www.ebay.com/itm/Devils-Claw-Root-Concentrated-Max-Strength-1-1-100ml-Non-Alcoholic-Tincture-/252085048973?epid=1960597286&hash=item3ab170968d:g:MOgAAOSwvgdW5NQ5
p326
aVhttp://www.ebay.com/itm/Garlic-Allium-sativum-Non-Alcoholic-Tincture-100ml-FREE-UK-Post-/251616333934?epid=1460674385&hash=item3a9580906e:g:au8AAOSwr7ZW5NII
p327
aVhttp://www.ebay.com/itm/Elderberry-Sambucus-nigra-Non-Alcoholic-Tincture-50ml-FREE-UK-Post-/251807582312?epid=1960604255&hash=item3aa0e6c868:g:Mq0AAOSwr7ZW5N1v
p328
aVhttp://www.ebay.com/itm/Red-Clover-Trifolium-pratense-1-2-Ratio-500ml-Organic-Tincture-/371665166343?epid=2012429630&hash=item5688f86007:g:RDcAAOSwHnFVlkmD
p329
aVhttp://www.ebay.com/itm/Andrographis-Herb-Andrographis-paniculata-Non-Alcoholic-Tincture-50ml-FREE-UK-/391038283496?hash=item5b0bb2aee8:g:mukAAOSwxp9W5LKT
p330
aVhttp://www.ebay.com/itm/Propolis-Tincture-20ml-Alcohol-Free-Undiluted-Direct-from-Yorkshire-Beekeeper-/142430473379?hash=item2129848ca3:g:Hp8AAOSw4CFYnNsy
p331
aVhttp://www.ebay.com/itm/Triphala-Concentrated-Max-Strength-1-1-50ml-Non-Alcoholic-Tincture-/252056102437?epid=1060688229&hash=item3aafb6e625:g:zIkAAOSwAuNW5QFO
p332
aVhttp://www.ebay.com/itm/Acerola-Concentrated-Max-Strength-1-1-100ml-Non-Alcoholic-Tincture-/391254227102?epid=1144648324&hash=item5b1891b89e:m:mwJgKuJ3YqHVH40hX2tUwLg
p333
aVhttp://www.ebay.com/itm/Cloves-Syzygium-Aromaticum-Non-Alcoholic-Tincture-100ml-FREE-UK-Post-/390909071755?epid=1060689052&hash=item5b03ff118b:g:2wcAAOSwZ8ZW5LQF
p334
aVhttp://www.ebay.com/itm/Swedish-Bitters-Non-Alcoholic-Tincture-200ml-FREE-UK-Post-/390909189669?epid=1461595308&hash=item5b0400de25:g:WN0AAOSwxCxT63Z5
p335
aVhttp://www.ebay.com/itm/Organic-Burdock-Root-Arctium-Lappa-Non-Alcoholic-Tincture-100ml-FREE-UK-Post-/251616275517?epid=1960215450&hash=item3a957fac3d:g:wsUAAOSwvgdW5M3x
p336
aVhttp://www.ebay.com/itm/Dandelion-Root-Taraxacum-Officinale-Non-Alcoholic-Tincture-100ml-FREE-UK-Post-/251616314771?epid=1460669927&hash=item3a95804593:g:w1kAAOSwvgdW5M33
p337
aVhttp://www.ebay.com/itm/Stevia-Concentrated-Max-Strength-1-1-50ml-Non-Alcoholic-Tincture-/252056100405?epid=1160672472&hash=item3aafb6de35:g:67wAAOSwZ8ZW5NQW
p338
aVhttp://www.ebay.com/itm/Thuja-Herb-Thuja-occidentalis-Non-Alcoholic-Tincture-Trade-1Ltr-1000ml-/251808276083?hash=item3aa0f15e73:g:adwAAOSwa39UxdAn
p339
aVhttp://www.ebay.com/itm/Sarsaparilla-Smilax-regelii-Non-Alcoholic-Tincture-50ml-FREE-UK-Post-/251807695209?epid=1660696317&hash=item3aa0e88169:g:jKAAAOSwh-1W5Mzg
p340
aVhttp://www.ebay.com/itm/Sea-Buckthorn-Concentrated-Max-Strength-1-1-100ml-Non-Alcoholic-Tincture-/391254274645?epid=1660706208&hash=item5b18927255:g:HscAAOSwYlJW5LN7
p341
aVhttp://www.ebay.com/itm/Spirulina-Concentrated-Max-Strength-1-1-50ml-Non-Alcoholic-Tincture-/252056100137?epid=1960596980&hash=item3aafb6dd29:g:~0cAAOSwYlJW5ND3
p342
aVhttp://www.ebay.com/itm/Organic-Mugwort-Concentrated-Max-Strength-1-1-50ml-Non-Alcoholic-Tincture-/252056089015?epid=1660374838&hash=item3aafb6b1b7:g:lJMAAOSwr7ZW5QFO
p343
aVhttp://www.ebay.com/itm/Shu-Di-Huang-Concentrated-Max-Strength-1-1-50ml-Non-Alcoholic-Tincture-/252056099178?epid=1060688366&hash=item3aafb6d96a:g:moIAAOSwoBtW5OiU
p344
aVhttp://www.ebay.com/itm/Elderflower-Concentrated-Max-Strength-1-1-50ml-Non-Alcoholic-Tincture-/391224875598?epid=1660700371&hash=item5b16d1da4e:g:TCQAAOSwvgdW5Kq9
p345
aVhttp://www.ebay.com/itm/Golden-Rod-Herb-Concentrated-Max-Strength-1-1-50ml-Non-Alcoholic-Tincture-/391224878808?epid=1360669235&hash=item5b16d1e6d8:g:QYUAAOSwYlJW5KZ5
p346
aVhttp://www.ebay.com/itm/Green-Coffee-Bean-Concentrated-Max-Strength-1-1-50ml-Non-Alcoholic-Tincture-/391224880247?epid=1260731230&hash=item5b16d1ec77:g:XpMAAOSwoudW5Kjb
p347
aVhttp://www.ebay.com/itm/Jamaican-Dogwood-Concentrated-Max-Strength-1-1-50ml-Non-Alcoholic-Tincture-/391224883451?epid=1260735312&hash=item5b16d1f8fb:g:5qkAAOSwr7ZW5LCh
p348
aVhttp://www.ebay.com/itm/Wheat-Grass-Non-Alcoholic-Tincture-100ml-FREE-UK-Post-/390909216203?epid=1760774075&hash=item5b040145cb:g:3lwAAOSwZ8ZW5KXu
p349
aVhttp://www.ebay.com/itm/Yarrow-Achillea-millefolium-Non-Alcoholic-Tincture-100ml-FREE-UK-Post-/390909248996?epid=1461082303&hash=item5b0401c5e4:g:b2sAAOSwP~tW5KZ4
p350
aVhttp://www.ebay.com/itm/Muira-Puama-Ptychopetalum-olacoides-Non-Alcoholic-Tincture-Trade-1Ltr-1000ml-/391038373862?hash=item5b0bb40fe6:g:C8oAAOSwYGFUxUCE
p351
aVhttp://www.ebay.com/itm/Damiana-Liquid-Extract-Herbal-Tincture-Turnera-diffusa-100ml-/201438818260?epid=880935315&hash=item2ee6b06fd4:g:6uEAAOSwBahVRJu6
p352
aVhttp://www.ebay.com/itm/Violet-Herb-Heartsease-Viola-tricolor-Non-Alcoholic-Tincture-100ml-FREE-UK-Post-/251616463200?hash=item3a95828960:g:9rAAAOSwwpdW5NaZ
p353
aVhttp://www.ebay.com/itm/Stinging-Nettle-Root-Non-Alcoholic-Tincture-200ml-FREE-UK-Post-/251616448996?epid=1461294630&hash=item3a958251e4:g:ANAAAOSwnDZT63SO
p354
aVhttp://www.ebay.com/itm/Pau-DArco-Tabebuia-avellanedae-Non-Alcoholic-Tincture-100ml-FREE-UK-Post-/251616405902?epid=1660708428&hash=item3a9581a98e:g:MucAAOSwr7ZW5N1y
p355
aVhttp://www.ebay.com/itm/2X-A-Vogel-Solidago-Complex-Drops-Fresh-Herb-Tincture-50ml-/262851202766?epid=1404313242&hash=item3d33270ece:g:a6AAAOSwdGFYoeEA
p356
aVhttp://www.ebay.com/itm/Pau-Darco-Concentrated-Max-Strength-1-1-50ml-Non-Alcoholic-Tincture-/391224892924?hash=item5b16d21dfc:g:XvkAAOSwv9hW5LBf
p357
aVhttp://www.ebay.com/itm/Hops-Liquid-Extract-Herbal-Tincture-50ml-/201394090079?hash=item2ee405f05f:g:ObIAAOSwstxVRL4s
p358
aVhttp://www.ebay.com/itm/Chickweed-Stellaria-media-Non-Alcoholic-Tincture-50ml-FREE-UK-Post-/251807545517?epid=1360678670&hash=item3aa0e638ad:g:jx0AAOSwu1VW5OCP
p359
aVhttp://www.ebay.com/itm/Witch-Hazel-Liquid-Extract-Herbal-Tincture-50ml-/191637836236?hash=item2c9e8151cc:g:-HcAAOSw-7RVF~RL
p360
aVhttp://www.ebay.com/itm/Garlic-Liquid-Extract-Herbal-Tincture-50ml-/201401377431?hash=item2ee4752297:g:OwgAAOSwqu9VRJ5O
p361
aVhttp://www.ebay.com/itm/Dong-Quai-Liquid-Extract-Herbal-Tincture-50ml-/191941344437?hash=item2cb0987cb5:g:2QkAAOSwstxVRJ43
p362
aVhttp://www.ebay.com/itm/Eyebright-Liquid-Extract-Herbal-Tincture-Euphrasia-50ml-/201421386437?hash=item2ee5a672c5:g:qgUAAOSwpDdVRJ59
p363
aVhttp://www.ebay.com/itm/Horsetail-Liquid-Extract-Herbal-Tincture-Equisetum-arvense-50ml-/191653781073?hash=item2c9f749e51:g:kR0AAOSwBahVRL5E
p364
aVhttp://www.ebay.com/itm/Lemon-Balm-Liquid-Extract-Herbal-Tincture-100ml-/201606563337?hash=item2ef0b00609:g:gmAAAOSwrklVRL5K
p365
aVhttp://www.ebay.com/itm/Elecampane-Inula-helenium-Liquid-Extract-Tincture-50ml-/201606563346?hash=item2ef0b00612:g:HcAAAOSwcBhWYiP5
p366
aVhttp://www.ebay.com/itm/Small-Flowering-Willow-Herb-Liquid-Extract-Tincture-100ml-/201641185689?hash=item2ef2c05199:g:wrUAAOSwnipWYipS
p367
aVhttp://www.ebay.com/itm/Liquorice-Liquid-Extract-Herbal-Tincture-Glycyrrhiza-Glabra-100ml-/191675278034?hash=item2ca0bca2d2:g:PW4AAOSwstxVRL5P
p368
aVhttp://www.ebay.com/itm/Red-Clover-Liquid-Extract-Herbal-Tincture-Trifolium-pratense-50ml-/191571460275?hash=item2c9a8c80b3:g:FtsAAOSwEeFVRMI-
p369
aVhttp://www.ebay.com/itm/Pau-DArco-Liquid-Extract-Herbal-Tincture-Hydrocotyle-Asiatica-50ml-/191546930540?hash=item2c9916356c:g:2dkAAOSwrklVF~Bs
p370
aVhttp://www.ebay.com/itm/Walnut-Liquid-Extract-Herbal-Tincture-Juglans-regia-100ml-/201342326392?hash=item2ee0f01678:g:NQgAAOSwrklVRMWH
p371
aVhttp://www.ebay.com/itm/Ladys-Mantle-Liquid-Extract-Herbal-Tincture-Alcchemilla-arvensis-100ml-/191594006528?hash=item2c9be48800:g:XDgAAOSwNSxVRL4k
p372
aVhttp://www.ebay.com/itm/Clove-Liquid-Extract-Herbal-Tincture-50ml-/201342247304?hash=item2ee0eee188:g:9soAAOSwEeFVRJdk
p373
aVhttp://www.ebay.com/itm/White-Willow-Liquid-Extract-Herbal-Tincture-Salix-Alba-100ml-/191546939641?hash=item2c991658f9:g:8bkAAOSwBLlVF~RE
p374
aVhttp://www.ebay.com/itm/Muira-Puama-Liquid-Extract-Herbal-Tincture-100ml-/201410195393?hash=item2ee4fbafc1:g:wRYAAOSwEeFVF-rV
p375
aVhttp://www.ebay.com/itm/Horse-Chestnut-Liquid-Extract-Herbal-Tincture-Aesculus-hippocastanum-50ml-/201607812983?hash=item2ef0c31777:g:Fz8AAOSw-7RVF-Qx
p376
aVhttp://www.ebay.com/itm/Burdock-Root-Liquid-Extract-Tincture-Arctium-Lappa-100ml-/191900329019?hash=item2cae26a43b:g:9OgAAOSwEeFVRJdM
p377
aVhttp://www.ebay.com/itm/Bladderwrack-Liquid-Extract-Tincture-Fucus-vesiculosus-50ml-/191747431033?hash=item2ca5099a79:g:HpEAAOSwcBhWWDm6
p378
aVhttp://www.ebay.com/itm/Damiana-Liquid-Extract-Herbal-Tincture-Turnera-diffusa-50ml-/191571387197?hash=item2c9a8b633d:g:nQoAAOSwstxVRJvA
p379
aVhttp://www.ebay.com/itm/Devils-Claw-Liquid-Extract-Herbal-Tincture-100ml-/201606563330?hash=item2ef0b00602:g:QGAAAOSwNSxVRJ4f
p380
aVhttp://www.ebay.com/itm/Milk-Thistle-Liquid-Extract-Herbal-Tincture-Silybum-marianum-100ml-/201407690086?hash=item2ee4d57566:g:G8YAAOSwqu9VFZQj
p381
aVhttp://www.ebay.com/itm/Green-Tea-Liquid-Extract-Herbal-Tincture-100ml-/191571451761?hash=item2c9a8c5f71:g:VmEAAOSwBLlVRL4L
p382
aVhttp://www.ebay.com/itm/Bilberry-Leaf-Liquid-Extract-Herbal-Tincture-50ml-/201641185702?hash=item2ef2c051a6:g:UtsAAOSwqu9VRJQK
p383
aVhttp://www.ebay.com/itm/Dandelion-Liquid-Extract-Herbal-Tincture-Taraxacum-officinale-50ml-/201641185696?hash=item2ef2c051a0:g:1NcAAOSwstxVRJ4N
p384
aVhttp://www.ebay.com/itm/Cinnamon-cinnamomum-verum-Liquid-Extract-Tincture-50ml-/201606569620?hash=item2ef0b01e94:g:IUAAAOSwHQ9WYiPn
p385
aVhttp://www.ebay.com/itm/Horse-Chestnut-Liquid-Extract-Herbal-Tincture-Aesculus-hippocastanum-100ml-/191901962650?hash=item2cae3f919a:g:Fz8AAOSw-7RVF-Qx
p386
aVhttp://www.ebay.com/itm/Comfrey-Liquid-Extract-Tincture-Herbal-50ml-/201342252824?hash=item2ee0eef718:g:ZmAAAOSwpDdVRJuy
p387
aVhttp://www.ebay.com/itm/Mullein-Liquid-Extract-Herbal-Tincture-50ml-/201342317602?hash=item2ee0eff422:g:CxUAAOSwPhdVRL~T
p388
aVhttp://www.ebay.com/itm/Milk-Thistle-Liquid-Extract-Herbal-Tincture-Silybum-marianum-50ml-/201381504687?hash=item2ee345e6af:g:m3oAAOSwrklVFZQp
p389
aVhttp://www.ebay.com/itm/Calendula-Marigold-Liquid-Extract-Herbal-Tincture-100ml-/201381504688?hash=item2ee345e6b0:g:cUQAAOSwv0tVRJrQ
p390
aVhttp://www.ebay.com/itm/Eyebright-Liquid-Extract-Herbal-Tincture-Euphrasia-100ml-/191571390899?hash=item2c9a8b71b3:g:jMoAAOSwEeFVRJ4y
p391
aVhttp://www.ebay.com/itm/Barberry-Liquid-Extract-Herbal-Tincture-50ml-/191545748379?hash=item2c99042b9b:g:qQkAAOSwrklVFY1q
p392
aVhttp://www.ebay.com/itm/Calendula-Marigold-Liquid-Extract-Herbal-Tincture-50ml-/191571379965?hash=item2c9a8b46fd:g:iEgAAOSwBahVRJeE
p393
aVhttp://www.ebay.com/itm/Shepherds-Purse-Capsella-bursa-pastoris-Liquid-Extract-Tincture-100ml-/191941344448?hash=item2cb0987cc0:g:kmkAAOSwnH1WYipE
p394
aVhttp://www.ebay.com/itm/Hawthorn-Berry-Liquid-Extract-Herbal-Tincture-Crataegus-species-100ml-/191571442522?hash=item2c9a8c3b5a:g:m0wAAOSw34FVFZSv
p395
aVhttp://www.ebay.com/itm/Stinging-Nettle-Liquid-Extract-Herbal-Tincture-Urtica-dioica-50ml-/191638975125?hash=item2c9e92b295:g:AWYAAOSwstxVF~Q9
p396
a.