(lp1
Vhttp://www.ebay.com/itm/Shakespeare-New-Sigma-Supra-Coarse-30-Rear-Drag-Spin-Spinning-Fishing-Reel-/162229872835?epid=1453311339&hash=item25c5a768c3:g:ZV0AAOSwOyJX9mBF
p2
aVhttp://www.ebay.com/itm/New-Shakespeare-Ugly-Stik-ELITE-Spinning-Rods-All-Models-Available-/292036489347?var=&epid=20000773772&hash=item43febb3083:m:mMTOdxP7OiQReniR1wlDMIQ
p3
aVhttp://www.ebay.com/itm/ILLUSTRATED-SHAKESPEARE-25-Vintage-Books-on-CD-Rom-Rackham-Dulac-Crane-Rhead-/162305429122?hash=item25ca284e82:m:m-N6beV_tUO8Za5B36VymOA
p4
aVhttp://www.ebay.com/itm/Shakespeare-Sigma-Supra-Match-Float-Fishing-Reel-035-RD-Carp-Match-/120994156142?epid=1746509985&hash=item1c2bd04e6e:g:9U8AAOSwl9BWHWbl
p5
aVhttp://www.ebay.com/itm/Shakespeare-Agility-2-Spin-7000-LC-1381129-/152545057198?epid=861412058&hash=item238464d9ae:g:jMQAAOSw3YJZWpd~
p6
aVhttp://www.ebay.com/itm/Shakespeare-Ugly-Stik-GX2-Spin-and-Casting-6ft-9ft-10ft-2-Piece-Spinning-Rods-/252772042969?var=&hash=item3ada6348d9:m:m9PHUwN_ouNFXp7pvkRXhDw
p7
aVhttp://www.ebay.com/itm/Shakespeare-Agility-2-Spin-8000-LC-1381130-/122490502698?hash=item1c8500be2a:g:lPUAAOSwvflZWpeD
p8
aVhttp://www.ebay.com/itm/Shakespeare-Ugly-Stik-GX2-spinning-rod-/401299787589?var=&epid=1328100335&hash=item5d6f54cf45:m:m9X7bMFDLSkGaWH02JgIdQw
p9
aVhttp://www.ebay.com/itm/Shakespeare-Agility-60-SW-Large-Spin-Fishing-Reel-Pier-Surf-Rock-Spinning-1058-/201669857205?epid=1985227650&hash=item2ef475cfb5:g:1QwAAOSw8w1X2ziu
p10
aVhttp://www.ebay.com/itm/Shakespeare-Ugly-Stik-GX2-Boat-Fishing-Rod-Sea-Saltwater-Fishing-/332126247496?var=&epid=1341925494&hash=item4d54445a48:m:mDaPymbfbQtA7oKOpENDQZg
p11
aVhttp://www.ebay.com/itm/Shakespeare-Omni-Multiplier-Right-Hand-Left-Hand-Sea-Fishing-Reels-/332098003374?var=&hash=item4d529561ae:m:mCeohteYZrWLDnCJVZin2SQ
p12
aVhttp://www.ebay.com/itm/Shakespeare-Omni-Trout-Salmon-Spinning-Spin-Rods-8ft-9ft-10ft-Available-/252721180766?var=&hash=item3ad75b305e:m:mk99yc-yBNk4Laikg8qq55A
p13
aVhttp://www.ebay.com/itm/Shakespeare-Agility-2-LC-Long-Cast-4000-7000-8000-Spinning-Sea-Fishing-Reels-/252732905128?var=&epid=507841871&hash=item3ad80e16a8:m:m9ihtUJ5SP_oxMehw2M8ghg
p14
aVhttp://www.ebay.com/itm/Shakespeare-Agility-Match-Feeder-Spin-Spinning-Fishing-Reel-40-Rear-Drag-/142157430589?epid=1846667916&hash=item21193e3f3d:g:2skAAOSwn7JYC7xX
p15
aVhttp://www.ebay.com/itm/Shakespeare-Sigma-8ft-10ft-3-Piece-Spinning-Coarse-Sea-Fishing-Rod-/332127516167?var=&epid=1906244723&hash=item4d5457b607:m:mtovN_F2ENUtxZ1_wBBqWCg
p16
aVhttp://www.ebay.com/itm/West-Midlands-Wales-inc-Shakespeare-country-350-public-domain-pics-on-DVD-/331968313420?epid=1293798609&hash=item4d4ada784c:g:bDwAAOSw-kdX1udl
p17
aVhttp://www.ebay.com/itm/Shakespeare-Agility-LRF-Spin-Spinning-Fishing-Reel-20-FD-/142372690291?epid=1952544312&hash=item212612d973:g:JnIAAOSwtGlZC7kX
p18
aVhttp://www.ebay.com/itm/Shakespeare-Omni-Spin-Rods-8ft-9ft-10ft-Trout-Salmon-Spinning-Fishing-Rods-/172026270960?var=&epid=1808011451&hash=item280d9094f0:m:mk99yc-yBNk4Laikg8qq55A
p19
aVhttp://www.ebay.com/itm/Shakespeare-Agility-2-Salt-Water-20FD-40FD-60FD-Spinning-Sea-Fishing-Reels-/252732780874?var=&epid=2009908372&hash=item3ad80c314a:m:mk55kf5ZQIfVLMihC23X1TA
p20
aVhttp://www.ebay.com/itm/Shakespeare-Agility-20-FD-Fishing-Reel-LRF-1355802-/361490410324?hash=item542a81eb54:g:jl0AAOSwPc9WwK1a
p21
a.