(lp1
Vhttp://www.ebay.com/itm/NEW-GENUINE-DELL-XPS-15-9530-9550-PRECISION-M3800-130W-AC-POWER-SUPPLY-6TTY6-/201610629910?epid=1061426100&hash=item2ef0ee1316:g:~4wAAOSwOVpXYs1F
p2
aVhttp://www.ebay.com/itm/New-Genuine-Dell-XPS-15-9530-9550-Precision-M3800-130W-AC-Adapter-6TTY6-/322016928126?epid=1061426100&hash=item4af9b4617e:g:nGIAAOSwG-1WzIrg
p3
aVhttp://www.ebay.com/itm/TTY-Ervin-Girls-Pink-Leather-Shoes-Various-Sizes-BNIB-/281049388497?var=&hash=item416fd955d1:m:mulwR6keI1lsGOR1SvdYVGA
p4
aVhttp://www.ebay.com/itm/ORIGINAL-DELL-XPS-15-9530-PRECISION-M3800-130W-AC-ADAPTER-UK-CORD-6TTY6-492-BBIP-/380903268783?epid=1148876316&hash=item58af9aa1af:g:FA8AAOxyYANTcJrS
p5
aVhttp://www.ebay.com/itm/AJP-For-Dell-Precision-M3800-130W-AC-Adapter-Charger-332-1829-TX73F-6TTY6-6-67A-/322458992551?hash=item4b140dbfa7:g:0GwAAOSwYXVY0UJr
p6
aVhttp://www.ebay.com/itm/New-Genuine-AJP-130W-Laptop-Adapter-For-6TTY6-Dell-XPS-15-9530-Precision-M3800-/152480429162?epid=698097822&hash=item23808ab46a:g:70QAAOSwTM5Y0ktr
p7
aVhttp://www.ebay.com/itm/Spaceform-You-Me-Glass-Romantic-Love-Gift-Ideas-for-Her-Him-1749-/291350288794?hash=item43d5d4999a:g:8NcAAOSw2s1UsDyI
p8
aVhttp://www.ebay.com/itm/DMC-Top-This-Kids-Hat-Knitting-Kits-Characters-Christmas-Wool-/291876537333?var=&epid=1383524353&hash=item43f53283f5:m:m7m2xzme6LOCH9mJ9AEZmaA
p9
aVhttp://www.ebay.com/itm/TTY-Girls-Elona-Leather-Shoes-Various-sizes-Colours-BNIB-/281049388577?var=&hash=item416fd95621:m:mxm1_mf0oVe-M2wpI94Cz-A
p10
aVhttp://www.ebay.com/itm/New-TTY-BABYBOTTE-XTREME-SNOW-BOOTS-WELLIES-SIZE-7-5-25-/252734119139?hash=item3ad8209ce3:g:0mwAAOSwjDZYg0V5
p11
aVhttp://www.ebay.com/itm/Shooting-in-Sh-tty-Light-PB-Lindsay-Adler-NEW-/122501207245?epid=117409547&hash=item1c85a414cd:g:uWkAAOSwn-tZHGNJ
p12
aVhttp://www.ebay.com/itm/GENUINE-19-5V-6-67A-ADAPTER-CHARGER-FOR-DELL-XPS-15-9530-PRECISION-M3800-6TTY6-/291577731818?epid=1749075597&hash=item43e3631aea:g:CCcAAOSwKIpWC-Tx
p13
aVhttp://www.ebay.com/itm/Genuine-130W-19-5V-AC-Adapter-for-Dell-Precision-M3800-DA130PM130-6TTY6-332-1829-/291801628942?hash=item43f0bb810e:g:rO8AAOSwmtJXbUHV
p14
aVhttp://www.ebay.com/itm/Genuine-DELL-XPS-15-9530-PRECISION-M3800-130W-POWER-CHARGER-6TTY6-SLIM-/272284835244?hash=item3f6570ddac:g:SDIAAOSwM4xXbUG-
p15
aVhttp://www.ebay.com/itm/Genuine-DELL-PRECISION-M3800-M4800-XPS-15-9530-130W-AC-ADAPTER-RN7NW-6TTY6-/361614098507?hash=item5431e1404b:g:rnMAAOSwmtJXbUHf
p16
aVhttp://www.ebay.com/itm/New-Genuine-Dell-06TTY6-332-1829-Laptop-Notebook-Ac-Power-Cord-Battery-Charger-/201674941743?hash=item2ef4c3652f:g:qN0AAOSwmLlX5UFz
p17
aVhttp://www.ebay.com/itm/Apico-Alloy-Trials-Throttle-Tube-With-End-Float-Bearing-/222309709177?var=&hash=item33c2b0f579:m:mJCbiZK47Iw6Re1lD_6-KLw
p18
aVhttp://www.ebay.com/itm/Genuine-Dell-XPS-15-9530-9550-Precision-M3800-130W-AC-Adapter-6TTY6-/361614098637?epid=1674948022&hash=item5431e140cd:g:e5oAAOSwc1FXbUHm
p19
aVhttp://www.ebay.com/itm/New-Replacement-AJP-Adapter-For-06TTY6-332-1829-Dell-Laptop-130W-Power-Supply-/201861455647?hash=item2effe15f1f:g:JHsAAOSwOgdY0jrK
p20
aVhttp://www.ebay.com/itm/ALL-I-GOT-WAS-THIS-SH-TTY-MUG-SECRET-SANTA-PRESENT-NOVELTY-GIFT-OFFICE-CUP-WORK-/311754849579?hash=item4896097d2b:g:Pf0AAOSw-0xYSrJ5
p21
aVhttp://www.ebay.com/itm/NEW-GENUINE-DELL-XPS-15-9530-9550-PRECISION-M3800-130W-AC-ADAPTER-CHARGER-6TTY6-/311621201161?epid=1061426100&hash=item488e122d09:g:E6wAAOSwMHdXSCLd
p22
aVhttp://www.ebay.com/itm/ORIGINAL-DELL-XPS-15-9530-PRECISION-M3800-130W-AC-ADAPTER-UK-CORD-6TTY6-492-BBIP-/291577732008?hash=item43e3631ba8:g:mNgAAOSwFnFWC-UH
p23
aVhttp://www.ebay.com/itm/New-PC-TTY-PCTTY-Programming-Cable-For-Siemens-S5-PLC-PC-RS232-Series-Port-/382167263118?epid=883842747&hash=item58faf1a78e:g:hfIAAOSwmoBZbLjp
p24
aVhttp://www.ebay.com/itm/New-TTY-BABYBOTTE-XTREME-SNOW-BOOTS-WELLIES-SIZE-7-24-/252734116580?hash=item3ad82092e4:g:0mwAAOSwjDZYg0V5
p25
aVhttp://www.ebay.com/itm/AJP-For-DELL-PRECISION-M3800-M4800-XPS-15-9530-130W-AC-ADAPTER-P-N-6TTY6-RN7NW-/322458992607?hash=item4b140dbfdf:g:0gsAAOSwXYtY0UJv
p26
aVhttp://www.ebay.com/itm/For-DELL-PRECISION-M3801-06TTY6-Mains-Power-Unit-Charger-Adapter-130w-/272001872196?epid=1649042335&hash=item3f54933144:g:b4QAAOSw42JWC-T0
p27
aVhttp://www.ebay.com/itm/Genuine-AC-Adapter-for-Dell-XPS-15-9530-7CWK7-6TTY6-PRECISION-M3800-Charger-/361614098789?hash=item5431e14165:g:jGoAAOSwGIRXbUHB
p28
aVhttp://www.ebay.com/itm/DELL-XPS-15-9530-PRECISION-M4800-130w-Adapter-6TTY6-492-BBIN-Power-Charger-/291577731843?hash=item43e3631b03:g:7KUAAOSw0HVWC-T4
p29
aVhttp://www.ebay.com/itm/For-DELL-PRECISION-M3801-06TTY6-Mains-Power-Unit-Charger-Adapter-130w-/272001872196?epid=1649042335&hash=item3f54933144:g:b4QAAOSw42JWC-T0
p30
aVhttp://www.ebay.com/itm/DELL-XPS-15-9535-6TTY8-19-5v-6-67a-Laptop-Adapter-Charger-130w-/291577731876?epid=1848958678&hash=item43e3631b24:g:zZ0AAOSwVL1WC-T8
p31
aVhttp://www.ebay.com/itm/New-Laptop-Adapter-Charger-for-Dell-6TTY6-3XC39-492-BBIP-06TTY6-19-5v-6-67a-130w-/272001872217?hash=item3f54933159:g:dQsAAOSwdvpWC-T2
p32
aVhttp://www.ebay.com/itm/New-TTY-BABYBOTTE-XTREME-SNOW-BOOTS-WELLIES-SIZE-7-5-25-/252734121083?hash=item3ad820a47b:g:7h4AAOSwUKxYg0a6
p33
aVhttp://www.ebay.com/itm/New-Genuine-Dell-XPS-15-9530-9550-Precision-M3800-130W-AC-Adapter-6TTY6-/311621201132?epid=1061426100&hash=item488e122cec:g:NfAAAOSwBPNXSCLc
p34
aVhttp://www.ebay.com/itm/NEW-DELL-PRECISION-M3800-M4800-XPS-15-9530-130W-AC-ADAPTER-P-N-6TTY6-RN7NW-/291577731820?hash=item43e3631aec:g:SoMAAOSw4HVWC-Ty
p35
aVhttp://www.ebay.com/itm/GENUINE-19-5V-6-67A-ADAPTER-CHARGER-FOR-DELL-XPS-15-9530-PRECISION-M3800-6TTY6-/122468832137?hash=item1c83b61389:g:EdkAAOSww9xZA38O
p36
aVhttp://www.ebay.com/itm/New-Genuine-For-Dell-6TTY6-Laptop-Notebook-Ac-Power-Cord-Battery-Charger-/201674941762?hash=item2ef4c36542:g:mMQAAOSwLnBX5UF2
p37
aVhttp://www.ebay.com/itm/New-Mains-Power-Unit-Charger-Adapter-19-5V-6-67a-for-DELL-XPS-15-9530-6TTY6-/291577731893?epid=1749075288&hash=item43e3631b35:g:cJYAAOSw42JWC-T-
p38
aVhttp://www.ebay.com/itm/Brand-New-Dell-Precision-M3800-130W-AC-Adapter-Charger-332-1829-TX73F-6TTY6-/291577731867?hash=item43e3631b1b:g:lCEAAOSw37tWC-T6
p39
aVhttp://www.ebay.com/itm/AC-Power-Adapter-for-DELL-6TTY6-3XC39-492-BBIP-130w-19-5V-6-67A-Charger-/361399325281?hash=item5425141261:g:zVgAAOSwVL1WC-T6
p40
aVhttp://www.ebay.com/itm/130w-for-DELL-XPS-15-9534-06TTY7-Power-Unit-130w-19-5v-6-67a-Adapter-Charger-/272001872197?epid=1948934852&hash=item3f54933145:g:SrcAAOSw4HVWC-Tz
p41
aVhttp://www.ebay.com/itm/GENUINE-KDF-LIFAN-PIT-BIKE140CC-150CC-140-150-TTY140-TTY150-GEAR-COUNTER-GEARS-/281621646062?epid=2105633810&hash=item4191f54aee:g:ZCoAAOSwcUBYUR9T&vxp=mtr
p42
aVhttp://www.ebay.com/itm/Genuine-Dell-Precision-M3800-130W-AC-Adapter-Charger-19-5V-332-1829-TX73F-6TTY6-/272284834979?hash=item3f6570dca3:g:aLMAAOSwNuxXbUG8
p43
aVhttp://www.ebay.com/itm/DMC-Top-This-Knitted-Hat-Kit-various-styles-/191731507804?var=&epid=1342337489&hash=item2ca416a25c:m:myHcYhHY6Sh8X0ZVXtVow9Q
p44
aVhttp://www.ebay.com/itm/NEW-DELL-PRECISION-M3800-M4800-XPS-15-9530-130W-AC-ADAPTER-P-N-6TTY6-RN7NW-/311621201227?hash=item488e122d4b:g:N3IAAOSwBPNXSCLp
p45
aVhttp://www.ebay.com/itm/New-Genuine-For-Dell-PRECISION-M3800-6TTY6-Laptop-Ac-Power-Cord-Battery-Charger-/191978359847?hash=item2cb2cd4c27:g:9HMAAOSwTA9X5UF2
p46
aVhttp://www.ebay.com/itm/New-For-Dell-6TTY6-Original-Notebook-PC-Mains-Power-Supply-130W-19-5V-6-67A-/152106558793?hash=item236a41e549:g:hrcAAOSw4GVYOAmY
p47
aVhttp://www.ebay.com/itm/GENUINE-19-5V-6-67A-ADAPTER-CHARGER-FOR-DELL-XPS-15-9530-PRECISION-M3800-6TTY6-/331866160106?hash=item4d44c3bbea:g:vSkAAOSw6btXSCLY
p48
aVhttp://www.ebay.com/itm/REACT-Catalytic-Converter-Type-Approved-For-Toyota-Yaris-/400680529596?hash=item5d4a6baebc:g:bHAAAOSwjL5ZOF3X&vxp=mtr
p49
aVhttp://www.ebay.com/itm/ARMY-TACTICAL-UNIVERSAL-PLCE-WEBBING-YOKE-COMBAT-BRITISH-ARMY-DPM-CAMO-/152408585515?hash=item237c42752b:g:pX4AAOSwopRYh0~P
p50
aVhttp://www.ebay.com/itm/ARMY-TACTICAL-UNIVERSAL-PLCE-WEBBING-YOKE-COMBAT-BRITISH-ARMY-PRO-FORCE-DPM-CAMO-/280753091947?hash=item415e30356b:g:LmIAAOxyaURTiGAI
p51
aVhttp://www.ebay.com/itm/Programming-Cable-Line-For-Siemens-S5-PLC-PC-TTY-Brand-New-/201743090128?hash=item2ef8d341d0:g:LBwAAOSw7ThUo72t
p52
aVhttp://www.ebay.com/itm/DMC-Top-Dieses-Hut-Strickset-Auswahl-an-design-Katzchen-Fusball-Kaninchen-/272147121789?var=&hash=item3f5d3b867d:m:meP4eSGlPyBqAPu6i1dZutQ
p53
aVhttp://www.ebay.com/itm/DMC-Top-This-Hat-Knitting-Kit-Choice-of-design-Kitten-Football-Rabbit-etc-/271991066975?var=&epid=1142241358&hash=item3f53ee515f:m:meP4eSGlPyBqAPu6i1dZutQ
p54
a.