(lp0
Vhttp://www.ebay.com/itm/fow-Force-of-will-TMS-055-R-Foment-of-the-World-Tree-Full-Art-foil-/352015127460?hash=item51f5bc93a4:g:fNwAAOSwuxFY2FRT
p1
aVhttp://www.ebay.com/itm/Herb-Heat-Pad-hot-cold-Pack-Foment-Bag-Aroma-therapy-Organic-herbal-seeds-/142405134833?hash=item212801e9f1:g:2OkAAOSwtGlZNMsR
p2
aVhttp://www.ebay.com/itm/Force-of-Will-TCG-x-1-Foment-of-the-World-Tree-TMS-055-R-Full-Art-English-/201535493003?hash=item2eec73938b:g:RuoAAOSwAuNW2qJu
p3
aVhttp://www.ebay.com/itm/FOW-Force-of-Will-TMS-055-Foment-of-the-World-Tree-/371660454268?hash=item5688b0797c:g:5i8AAOSwzJ5XZm1M
p4
aVhttp://www.ebay.com/itm/Foment-of-the-World-Tree-TMS-055-R-FoW-M-NM-Force-of-Will-Mint-/162004488456?hash=item25b8385108:g:3UsAAOSwv9hW443Q
p5
aVhttp://www.ebay.com/itm/Foment-of-the-World-Tree-TMS-055-R-/311621880369?hash=item488e1c8a31:g:pU4AAOSwn8FXSWM2
p6
aVhttp://www.ebay.com/itm/FOW-Force-of-Will-FOIL-TMS-055-Foment-of-the-World-Tree-/371660454523?hash=item5688b07a7b:g:BusAAOSwbYZXZm14
p7
aVhttp://www.ebay.com/itm/1-x-FOIL-Foment-of-the-World-Tree-TMS-055-R-FoW-M-NM-Force-of-Will-Mint-/172130990705?hash=item2813ce7a71:g:3UsAAOSwv9hW443Q
p8
aVhttp://www.ebay.com/itm/x1-Foment-of-the-World-Tree-TMS-055-R-FoW-M-NM-Force-of-Will-/301895364273?hash=item464a5daeb1:g:YG8AAOSwZQxW4zPO
p9
a.