(lp1
Vhttp://www.ebay.com/itm/Arabian-Dagger-With-Scabbard-Plastic-Toy-Arab-Prince-Fancy-Dress-Accessory-3970A-/401363776627?hash=item5d73253473:g:2moAAOSwLF1X9lKK
p2
aVhttp://www.ebay.com/itm/2-Batteries-Oil-OREGONCS300-4-0ah-36V-Cordless-Chainsaw-573019-5400182213956-V-/132256831893?epid=1547132487&hash=item1ecb1f1995:g:cSoAAOSwaB5Xq3~4
p3
aVhttp://www.ebay.com/itm/Britains-Herald-DSG-Metal-Sword-scabbards-New-ACW-Swoppet-5-2-/322585192089?hash=item4b1b936699:g:Zy0AAOxyK~hRHVQX
p4
aVhttp://www.ebay.com/itm/Leather-Drop-Dagger-Holder-Frog-Part-Scabbard-Weapon-Loop-Larp-Cosplay-/272755056400?var=&hash=item3f8177df10:m:mszR_bfL52KTlKShI5JYiHw
p5
aVhttp://www.ebay.com/itm/new-Bosch-AKE-35S-Mains-Corded-Electric-Chainsaw-0600834570-3165140465410-V-/132253613559?epid=1504173715&hash=item1ecaedfdf7:g:OF0AAOSwawpXuYS-
p6
aVhttp://www.ebay.com/itm/16-40cm-18-45cm-GENUINE-STIHL-Scabbard-Guide-Bar-Cover-See-List-For-Models-/332295893506?epid=1722978098&hash=item4d5e60f202:g:c1gAAOSwT4lWSzqf
p7
aVhttp://www.ebay.com/itm/McCulloch-CS-360T-Petrol-Chainsaws-Black-BRAND-NEW-/122585355761?epid=1309321654&hash=item1c8aa815f1:g:N28AAOSw~e5ZXr8T
p8
aVhttp://www.ebay.com/itm/12-ONLY-Bosch-AKE-35S-Mains-Corded-Electric-Chainsaw-0600834570-3165140465410-V-/112472139898?epid=1504173715&hash=item1a2fdca87a:g:OF0AAOSwawpXuYS-
p9
aVhttp://www.ebay.com/itm/FREE-OIL-new16-OREGON-CS300-4-0ah-36V-Cordless-Chainsaw-573019-5400182213956V-/112470814363?epid=2084488323&hash=item1a2fc86e9b:g:dNAAAOSwImpXpa8Y
p10
aVhttp://www.ebay.com/itm/Ceremonial-Masonic-Sword-Scabbard-/272749385353?hash=item3f81215689:g:d-YAAOxyyeNSMCYs
p11
aVhttp://www.ebay.com/itm/Double-Back-Scabbard-Sword-Holder-Harness-for-Cosplay-Larp-Deadpool-in-black-/272748538934?hash=item3f81146c36:g:fikAAOSwNSxVafCu
p12
aVhttp://www.ebay.com/itm/Ninjago-lego-minifigure-accessory-GOLD-SCABBARD-2X-SWORDS-armour-/311909281824?hash=item489f3df020:g:N-MAAOSwgQ9V2gkC
p13
aVhttp://www.ebay.com/itm/Husqvarna-chainsaw-scabbard-/302371827988?hash=item4666c3f114:g:yyAAAOSwXY5ZWnC0
p14
aVhttp://www.ebay.com/itm/20-50cm-22-55cm-GENUINE-STIHL-Scabbard-Guide-Bar-Cover-Fits-STIHL-Chainsaw-/332289511660?epid=1256126146&hash=item4d5dff90ec:g:cpsAAOSwZVhWSzrj
p15
aVhttp://www.ebay.com/itm/Bayonet-Lee-Enfield-Armorer-Drawings-Schematics-Pattern-07-Swords-And-Scabbards-/391827525363?hash=item5b3abd8ef3:g:nZoAAOSwAL9UgNqi
p16
aVhttp://www.ebay.com/itm/BRAND-NEW-REPLACEMENT-CHAINSAW-16-18-20-Guide-RailBar-Protection-Scabbard-Cover-/263060140111?epid=913610961&hash=item3d3f9b304f:g:WCAAAOSwVJhZUtxc
p17
aVhttp://www.ebay.com/itm/Universal-Chainsaw-Black-Guide-Bar-Protective-Cover-Scabbard-Fits-16-18-20-/253015337293?hash=item3ae8e3a94d:g:KPUAAOSwbiFZUtxZ
p18
aVhttp://www.ebay.com/itm/NEW-BRITISH-ARMY-SURPLUS-ISSUE-PLCE-IRR-OLIVE-GREEN-58-PATT-FROG-SCABBARD-SHEATH-/192229123816?hash=item2cc1bfa6e8:g:ZC8AAOSw1~JZUQYb
p19
aVhttp://www.ebay.com/itm/Machete-Scabbard-To-Fit-50cm-Long-Blade-With-Belt-Attachment-Olive-Green-/201965589992?hash=item2f061655e8:g:~YQAAOSw6btXR0YR
p20
aVhttp://www.ebay.com/itm/Gardenline-41cc-16-Toolless-Petrol-Chainsaw-Made-by-Einhell-INC-WARRANTY-/263051060995?epid=15003785844&hash=item3d3f10a703:g:zVYAAOSw8GtZS9J9
p21
aVhttp://www.ebay.com/itm/Einhell-41cc-Toolless-Petrol-Chainsaw-GH-PC-1535-TC-WARRANTY-RRP-119-99-/263047732690?epid=1629837940&hash=item3d3eddddd2:g:rDsAAOSw7s5XhJA0
p22
aVhttp://www.ebay.com/itm/DAGGER-W-CAMOUFLAGE-SCABBARD-Accessory-for-Toy-Knife-Weapon-Ceasar-Roman-Plasti-/401347816681?epid=1538114869&hash=item5d7231ace9:g:UsIAAOSwqu9VCumz
p23
aVhttp://www.ebay.com/itm/Stihl-Chainsaw-Bar-Scabbard-Cover-14-35cm-Part-No-0000-792-9172-/332260443399?epid=628667674&hash=item4d5c440507:g:jCcAAOSw4CFYnY~N
p24
aVhttp://www.ebay.com/itm/Stihl-Chainsaw-Bar-Scabbard-Cover-18-45cm-Part-No-0000-792-9175-/332260443361?epid=628650621&hash=item4d5c4404e1:g:jCcAAOSw4CFYnY~N
p25
aVhttp://www.ebay.com/itm/Stihl-Chainsaw-Bar-Scabbard-Cover-15-38cm-Part-No-0000-792-9174-/222542707732?epid=628676712&hash=item33d0943c14:g:jCcAAOSw4CFYnY~N
p26
aVhttp://www.ebay.com/itm/5-11-Tactical-Rush-Tier-Rifle-Scabbard-Unisex-Bag-Gun-Case-Sandstone-One-Size-/332257157728?var=&epid=1510986153&hash=item4d5c11e260:m:mGrJBydAsvfJDv2MerdiP0A
p27
aVhttp://www.ebay.com/itm/Royal-Sword-and-Scabbard-Novelty-Prop-for-16th-17th-Century-Musketeer-Cavalier-/222536821625?epid=1942206123&hash=item33d03a6b79:g:BXEAAOSwYlRZNqXs
p28
aVhttp://www.ebay.com/itm/40CM-SILVER-ROMAN-SWORD-IN-SCABBARD-TOY-SET-GLADIATOR-WARRIOR-FANCY-DRESS-/302340747305?var=&hash=item4664e9b029:m:mBOda08DcNg_gtp3t8H4h3g
p29
aVhttp://www.ebay.com/itm/20-22-50cm-55cm-GENUINE-STIHL-Scabbard-Guide-Bar-Cover-Fits-STIHL-Chainsaw-/391803003301?hash=item5b394761a5:g:cpsAAOSwZVhWSzrj
p30
aVhttp://www.ebay.com/itm/Boland-BV-Arabian-Dragon-Gold-Dagger-Sword-With-Scabbard-Fancy-Dress-Accessory-/252959175384?epid=703182212&hash=item3ae58ab2d8:g:VNgAAOSw-3FZKDOE
p31
aVhttp://www.ebay.com/itm/Sword-with-Scabbard-66cm-long-Fancy-Dress-Accessory-/302321775768?epid=1973700223&hash=item4663c83498:g:uUkAAOSw-K9ZHu0j
p32
aVhttp://www.ebay.com/itm/US-Army-Model-1840-NCO-Officers-Sword-with-Steel-Scabbard-and-EN45-Blade-/272677887317?hash=item3f7cde5d55:g:gEwAAOSwZJBYB5Jc
p33
aVhttp://www.ebay.com/itm/Snowbee-Landing-Net-Scabbards-2-Size-Options-/122498388019?var=&hash=item1c85791033:m:mX3Flfg9ryOzXOkKurhgLaQ
p34
aVhttp://www.ebay.com/itm/Original-British-Army-SA80-Simple-Bayonet-Scabbard-Infantry-dpm-mtp-Frog-/332218242692?epid=871652445&hash=item4d59c01684:g:tsMAAOSwxu5ZFf2u
p35
aVhttp://www.ebay.com/itm/NAPOLE0NIC-SWORD-LETTER-OPENER-SCABBARD-QUALITY-STEEL-BY-DENIX-NEW-F3029-/232316564590?hash=item361725746e:g:7gEAAOSwCQZZAzs1
p36
aVhttp://www.ebay.com/itm/DENIX-CIVIL-WAR-M1860-CAVALRY-LETTER-OPENER-SWORD-SCABBARD-BRAND-NEW-F3059-/292099038606?hash=item4402759d8e:g:tEYAAOSw42JZAkVt
p37
aVhttp://www.ebay.com/itm/1pc-Brass-Micro-Pave-Cubic-Zirconia-Pendants-Scabbard-Rose-Gold-Color-18x9x3mm-/332185820330?hash=item4d57d15caa:g:d78AAOSwcdRY9HER
p38
aVhttp://www.ebay.com/itm/OREGON-CS300-2-4ah-36V-Cordless-Chainsaw-1-Battery-charger-Oil-/112359955448?epid=1850635915&hash=item1a292cdbf8:g:BUYAAOSw03lY5PHA
p39
aVhttp://www.ebay.com/itm/MEDIEVAL-CLAYMORE-LETTER-OPENER-SWORD-SCABBARD-STEEL-BRAND-NEW-F-3047-/232289028844?hash=item3615814aec:g:YicAAOSwDmBY3q3e
p40
aVhttp://www.ebay.com/itm/Dagger-with-Camouflage-Scabbard-Daggers-Novelty-Toy-Weapons-Armour-for-Fancy-D-/152489825008?hash=item23811a12f0:g:L~4AAOSwax5Y25B1
p41
aVhttp://www.ebay.com/itm/Bosch-AKE-35-SDS-1800W-Electric-Chainsaw-240V-/292064927866?epid=1504173715&hash=item44006d207a:g:V9AAAOSwDKtY08dS
p42
aVhttp://www.ebay.com/itm/BRAND-NEW-IN-STOCK-DEWALT-DCM575X1-54V-FLEXVOLT-40CM-CHAINSAW-1-X-9-AH-LI-ION-/401295568417?epid=698873679&hash=item5d6f146e21:g:FQwAAOSwzgBY0o7~
p43
aVhttp://www.ebay.com/itm/BRAND-NEW-DEWALT-DCM575-54V-FLEXVOLT-40CM-CHAINSAW-BARE-UNIT-FREE-DCL040-LIGHT-/401295566321?hash=item5d6f1465f1:g:5toAAOSw4CFY0oqZ
p44
aVhttp://www.ebay.com/itm/Saya-Wakizashi-Scabbard-for-katana-Iaito-iaido-Japanese-Short-Sword-Gloss-Yellow-/122403781489?hash=item1c7fd57b71:g:DyoAAOSwCU1YzZGo
p45
aVhttp://www.ebay.com/itm/Saya-Wakizashi-Scabbard-for-katana-Iaito-iaido-Japanese-Short-Sword-Gloss-Brown-/112339569115?hash=item1a27f5c9db:g:ZK8AAOSw4A5YzY~F
p46
aVhttp://www.ebay.com/itm/Saya-Wakizashi-Scabbard-sheath-for-katana-Iaito-iaido-Japanese-Short-Sword-Black-/112339558974?hash=item1a27f5a23e:g:g4gAAOSwB-1YzYuG
p47
aVhttp://www.ebay.com/itm/Original-British-Army-SA80-Bayonet-Infantry-Scabbard-Saw-Sharpening-Stone-New-/232271304771?hash=item361472d843:g:2zMAAOSwpdpVb~8g
p48
aVhttp://www.ebay.com/itm/Sword-Toledos-with-Scabbard-Novelty-Toy-Weapon-/371892500305?hash=item5696853751:g:x2sAAOSwnHZYQYuk
p49
aVhttp://www.ebay.com/itm/Sword-Precious-with-Scabbard-Novelty-Toy-Weapon-/371892500207?epid=1973700223&hash=item56968536ef:g:FDYAAOSwB09YQYuh
p50
aVhttp://www.ebay.com/itm/Dagger-with-Camouflage-Scabbard-Commando-Military-Fancy-Dress-/182486308101?epid=1538114869&hash=item2a7d081505:g:AzgAAOSwdjNZGFqa
p51
aVhttp://www.ebay.com/itm/31-Black-Scabbard-sheath-saya-for-katana-Iaito-iaido-Japanese-Martial-arts-/112327359963?hash=item1a273b7ddb:g:KeQAAOSwXYtYvxAq
p52
aVhttp://www.ebay.com/itm/Lego-Dark-Brown-Scabbard-Katana-Holder-x-1-Ref-88290-/142303395167?hash=item2121f17d5f:g:EMsAAOSwWxNYvWlI
p53
aVhttp://www.ebay.com/itm/Makita-UC3541A-Electric-Chainsaw-240V-/232262131486?epid=1037613333&hash=item3613e6df1e:g:OeIAAOSwol5YvVBQ
p54
aVhttp://www.ebay.com/itm/Lego-Dark-Brown-Scabbard-Sword-Holder-x-1-Ref-95348-/132117071751?hash=item1ec2ca8787:g:drEAAOSwol5YvSKh
p55
aVhttp://www.ebay.com/itm/LEGO-NINJAGO-Minifig-Armor-Shoulder-Pads-w-Scabbard-Flat-Silver-/152458780040?hash=item237f405d88:g:fDkAAOSwdGFYud1w
p56
aVhttp://www.ebay.com/itm/Sgian-Dubh-Scabbard-Celtic-Knot-Black-/351995663128?hash=item51f4939318:g:~jIAAOSwdGFYuH8C
p57
aVhttp://www.ebay.com/itm/Lego-Ninjago-Titanium-Zane-Minifigure-x-1-with-Scabbard-Swords-/381981163717?hash=item58efda00c5:g:Tb8AAOSwr~lYsXis
p58
aVhttp://www.ebay.com/itm/HUSQVARNA-CHAINSAW-PLASTIC-BAR-COVER-SCABBARD-18-22-/201826221191?epid=1523778932&hash=item2efdc7bc87:g:QEAAAOSwX61ZMYH9
p59
aVhttp://www.ebay.com/itm/NEW-Lego-Ninjago-KAI-Skybound-with-Scabbard-Minifigure-Split-from-70591-/122356304549?hash=item1c7d010aa5:g:7qcAAOSw32lYo35G
p60
aVhttp://www.ebay.com/itm/ASPIRE-VAPE-Leather-Mod-SCABBARD-BLACK-Made-of-100-Genuine-leather-/172531479257?hash=item282bad72d9:g:BYEAAOSwCU1Yow09
p61
aVhttp://www.ebay.com/itm/ASPIRE-VAPE-Leather-Mod-SCABBARD-BROWN-Made-of-100-Genuine-leather-/172531478652?hash=item282bad707c:g:BYEAAOSwCU1Yow09
p62
aVhttp://www.ebay.com/itm/5-11-Tactical-Rush-Tier-Rifle-Scabbard-Unisex-Bag-Gun-Case-Black-One-Size-/311801844893?var=&hash=item4898d6949d:m:mDAVeN5rxGsToxr4dCEyPlw
p63
aVhttp://www.ebay.com/itm/ALL-TYPE-OF-ASPIRE-ACCESSORIES-ADAPTER-KIT-PYREX-GLASS-PRE-BUILT-COILS-SCABBARD-/262851124374?var=&hash=item3d3325dc96:m:mRg1YtlOUMNESCyy_cKMEkQ
p64
aVhttp://www.ebay.com/itm/Silver-Plated-Letter-Opener-with-scabbard-XX121353-/302220382405?epid=1912688027&hash=item465dbd10c5:g:YQoAAOSwtfhYnPvX
p65
aVhttp://www.ebay.com/itm/Wooden-Sword-and-scabbard-curved-toy-fancy-dress-theatre-role-play-LARN-/172509135904?hash=item282a588420:g:018AAOSwzJ5XZmxR
p66
aVhttp://www.ebay.com/itm/Borr-Plain-Sword-Scabbard-Brown-Larp-/272528084559?hash=item3f73f08e4f:g:ClUAAOSw44BYgRZn
p67
aVhttp://www.ebay.com/itm/Borr-Plain-Sword-Scabbard-Black-Larp-/272528084411?hash=item3f73f08dbb:g:moIAAOSwImRYgRZh
p68
aVhttp://www.ebay.com/itm/TIMBERPRO-Professional-Series-62cc-20-Petrol-Chainsaw-Kit-with-2-20-saw-chains-/302200766400?epid=504862476&hash=item465c91bfc0:g:Ia4AAOSw5cNYgO0M
p69
aVhttp://www.ebay.com/itm/Makita-Electric-UC3541A-35cm-Chainsaw-1800w-13-240v-10m-Cable-EX-UC3520A-/311783481447?epid=1037613333&hash=item4897be6067:g:NBQAAOSwlMFZNwUc
p70
aVhttp://www.ebay.com/itm/HUSQVARNA-CHAINSAW-PLASTIC-BAR-COVER-SCABBARD-24-28-/401260876714?epid=1423751321&hash=item5d6d0313aa:g:bEoAAOSwfRdZMYJA
p71
aVhttp://www.ebay.com/itm/Husqvarna-236-Chainsaw-fitted-with-10-Carving-Kit-Dime-Bar-1-4-Chain-Sprocket-/142247568226?hash=item211e9da362:g:LwcAAOSw9NdXwDvH
p72
aVhttp://www.ebay.com/itm/Lego-Scabbard-x-10-Dark-Brown-for-Minifigure-/112269255093?hash=item1a23c4e1b5:g:gRgAAOSwo4pYepHZ
p73
aVhttp://www.ebay.com/itm/Lego-Scabbard-Shoulder-Pads-x-10-Flat-Silver-for-Minifigure-/381924403061?hash=item58ec77e775:g:NOEAAOSw44BYepHI
p74
aVhttp://www.ebay.com/itm/Lego-Scabbard-Shoulder-Pads-x-10-Black-for-Minifigure-/381924402401?hash=item58ec77e4e1:g:dukAAOSwo4pYepGQ
p75
aVhttp://www.ebay.com/itm/Lego-Scabbard-Shoulder-Pads-x-10-Pearl-Gold-for-Minifigure-/112269254170?hash=item1a23c4de1a:g:468AAOSwEzxYepF9
p76
aVhttp://www.ebay.com/itm/Roman-Fancy-Dress-Sword-Scabbard-Gladiator-Boys-Toy-New-by-Smiffys-/351948739369?epid=1106274222&hash=item51f1c79329:g:fG8AAMXQC-tTBlQG
p77
aVhttp://www.ebay.com/itm/BLACK-POLYPROPYLENE-MARTIAL-ARTS-CONTACT-BOKKEN-WITH-SCABBARD-Training-/282297239724?hash=item41ba3a08ac:g:iAoAAOSwZVlXpR6-
p78
aVhttp://www.ebay.com/itm/Lego-4x-Scabbard-Cutlasses-Weapon-Pirates-Caribbean-Castle-Soldier-Cavalry-/401240226830?hash=item5d6bc7fc0e:g:p-0AAOSwJ7RYSpTp
p79
aVhttp://www.ebay.com/itm/Authentic-Long-Sword-Scabbard-Suitable-For-Re-enactment-Stage-And-LARP-/282280818853?var=&hash=item41b93f78a5:m:mdZmFEChABygsoeFxM8YyKw
p80
aVhttp://www.ebay.com/itm/Quality-Leather-Dagger-Scabbard-Perfect-For-Stage-Costume-Or-LARP-Black-Brown-/272454341871?var=&hash=item3f6f8b54ef:m:mfKdQf6PGtb8wsYStCu0-lw
p81
aVhttp://www.ebay.com/itm/Stanley-Tools-STA220556-FatMax-Jab-Saw-Scabbard-/182355606519?epid=1205082124&hash=item2a753dbbf7:g:kaMAAOSwImRYK-eO
p82
aVhttp://www.ebay.com/itm/SMLE-Enfield-1907-Bay-scabbard-laces-x8-/272451192069?hash=item3f6f5b4505:g:fDYAAOSwB09YK7Cj
p83
aVhttp://www.ebay.com/itm/Timberpro-10-Top-Handle-CS-2500-Genuine-Oregon-Saw-Chain-TOP-QUALITY-91P40E-/142176892552?epid=3003304178&hash=item211a673688:g:mUYAAOSwBw5XRAfb
p84
aVhttp://www.ebay.com/itm/Lego-Ninja-Samurai-Scabbards-x-4-Black-for-Minifigure-/381844102301?hash=item58e7ae9c9d:g:EEoAAOSw4GVYI5xG
p85
aVhttp://www.ebay.com/itm/Lego-Ninja-Samurai-Scabbards-x-4-Flat-Silver-for-Minifigure-/391619336960?epid=863152516&hash=item5b2e54db00:g:WA4AAOSwx2dYI5wv
p86
aVhttp://www.ebay.com/itm/Lego-Ninja-Samurai-Scabbards-x-4-Pearl-Gold-for-Minifigure-/381844101991?hash=item58e7ae9b67:g:2AQAAOSwNRlYI5wW
p87
aVhttp://www.ebay.com/itm/Lego-Ninja-Samurai-Swords-x-4-Scabbards-x-2-Flat-Silver-for-Minifigure-/391619335147?epid=2016151507&hash=item5b2e54d3eb:g:Gr0AAOSwcLxYI5vf
p88
aVhttp://www.ebay.com/itm/Lego-Ninja-Samurai-Swords-x-4-Scabbards-x-2-Pearl-Gold-for-Minifigure-/381844099317?hash=item58e7ae90f5:g:A~sAAOSwB09YI5vK
p89
aVhttp://www.ebay.com/itm/The-Hobbit-Official-Orcrist-Scabbard-/262700273590?hash=item3d2a280fb6:g:SisAAOSwjMJXBZj8
p90
aVhttp://www.ebay.com/itm/GENUINE-STIHL-CHAINSAW-16-GUIDE-BAR-CHAIN-AND-SCABBARD-/222295942662?hash=item33c1dee606:g:DIQAAOSwImRYEn4B
p91
aVhttp://www.ebay.com/itm/OLD-TIME-KNIGHT-SWORD-WITH-SCABBARD-75cm-Accessory-for-Elderly-Nan-Nanny-Grandmo-/401207889216?epid=1794812946&hash=item5d69da8d40:g:egMAAOSwxKtX~4YS
p92
aVhttp://www.ebay.com/itm/STANLEY-STA220556-FatMax-Jab-Saw-Scabbard-CLEARANCE-/272408286847?epid=1205082124&hash=item3f6ccc967f:g:BbsAAOSwZJBX-5qy
p93
aVhttp://www.ebay.com/itm/Knives-and-Scabbards-J-Cowgill-M-de-Neergaard-N-Griffiths-Paperback-New-Book-/322284103773?epid=89004715&hash=item4b09a1285d:g:bA4AAOSwzaJX9X1R
p94
aVhttp://www.ebay.com/itm/50cm-Roman-Centurion-Prop-Short-Sword-Scabbard-Fancy-Dress-Costume-Accessory-/302090714773?epid=1106274222&hash=item4656027e95:g:kg4AAOSwzaJX7Top
p95
aVhttp://www.ebay.com/itm/Sword-And-Scabbard-Plastic-Ninja-Fighter-Martial-Arts-Fancy-Dress-Accessory-/311708260849?epid=1405078471&hash=item48934299f1:g:9VcAAOSwzaJX65RM
p96
aVhttp://www.ebay.com/itm/Copper-Foil-Conductive-Tape-EMI-Shielding-Adhesive-Barrier-50mm-20M-/222257998768?epid=1742216223&hash=item33bf9bebb0:g:UwkAAOSwcLxYGYKJ
p97
aVhttp://www.ebay.com/itm/ROMAN-SWORD-IN-SCABBARD-HOLDER-TOY-PROP-FANCY-DRESS-SOLIDER-GLADIATOR-SPARTAN-/381756816059?hash=item58e27ababb:g:O~QAAOSw9IpXyYEN
p98
aVhttp://www.ebay.com/itm/Stihl-MS170-Chainsaw-fitted-with-10-Carving-Kit-Dime-Bar-1-4-Chain-Sprocket-/142098476275?hash=item2115baacf3:g:iH8AAOSwMtxXwEcp
p99
aVhttp://www.ebay.com/itm/Husqvarna-236-Chainsaw-fitted-with-12-Carving-Kit-Dime-Bar-1-4-Chain-Sprocket-/142098446369?hash=item2115ba3821:g:LwcAAOSw9NdXwDvH
p100
aVhttp://www.ebay.com/itm/Rapier-Sword-Scabbard-Black-Eyemask-Fancy-Dress-Costume-Bandit-/182244712679?epid=1806248847&hash=item2a6ea1a0e7:g:05oAAOSwawpXsiyA
p101
aVhttp://www.ebay.com/itm/Wooden-Sword-and-scabbard-curved-toy-fancy-dress-theatre-role-play-LARP-/172304772139?hash=item281e2a2c2b:g:~fcAAOSwnNBXZmxK
p102
aVhttp://www.ebay.com/itm/Bolt-Action-28mm-British-Army-Infantry-Respirator-bag-bayonet-scabbard-/172300084037?hash=item281de2a345:g:YZIAAOSw65FXqfRs
p103
aVhttp://www.ebay.com/itm/Black-Condor-Shotgun-Scabbard-Designed-for-Tactical-Use-and-Hunting-/361668965986?epid=1688072078&hash=item5435267662:g:sL4AAOSwARZXndhU
p104
aVhttp://www.ebay.com/itm/Stanley-Titan-Holster-Scabbard-ONLY-Trimming-Knife-Fixed-Blade-Handle-No-Blade-/142056248505?hash=item21133654b9:g:AJkAAOSwtnpXiiOm
p105
aVhttp://www.ebay.com/itm/STIHL-MS231-Chainsaw-16-bar-40-cm-MS-231-/222185617005?epid=1277446634&hash=item33bb4b766d:g:Pf4AAOSwzLlXhpKx
p106
aVhttp://www.ebay.com/itm/STIHL-MS-170-Chainsaw-12-bar-30-cm-/222185582520?epid=1333403196&hash=item33bb4aefb8:g:q0YAAOSw2zlXhobW
p107
aVhttp://www.ebay.com/itm/Husqvarna-Chainsaw-16-Bar-Chain-Model-236-/142049030780?epid=1353884463&hash=item2112c8327c:g:~-0AAOSwgY9Xf9Co
p108
aVhttp://www.ebay.com/itm/Ex-Police-ASP-SideBreak-Scabbard-21-Baton-Holder-Monadnock-Duty-Belt-Airsoft-/311652273858?hash=item488fec4ec2:g:OyoAAOSw9r1WC~Nm
p109
aVhttp://www.ebay.com/itm/Condor-Shotgun-Scabbard-Shotty-Holster-Molle-Sling-Free-UK-Delivery-148-/301998921231?var=&hash=item465089d60f:m:m-K9_2foJnKNj54ZODyUBuA
p110
aVhttp://www.ebay.com/itm/STANLEY-FATMAX-JAB-SAW-PAD-SAW-AND-SCABBARD-PLASTERBOARD-SAW-2-20-556-/191903209503?epid=1205082124&hash=item2cae52981f:g:5BUAAOSwc1FXaluB
p111
aVhttp://www.ebay.com/itm/HUSQVARNA-135-PETROL-CHAINSAW-14-BAR-40-9cc-/201607968284?epid=1712731076&hash=item2ef0c5761c:g:CKcAAOSwPe1T-glT
p112
aVhttp://www.ebay.com/itm/Stanley-2-20-556-Fatmax-Drywall-Plasterboard-Jab-Saw-7tpi-150mm-6-Scabbard-/252418989352?epid=1205082124&hash=item3ac5581d28:g:T68AAOSwmtJXWUj2
p113
aVhttp://www.ebay.com/itm/Sovereign-Corded-Chainsaw-1800w-Free-90-Day-Guarantee-/361589311618?epid=1443025437&hash=item5430670882:g:f8YAAOSwAPVZH~fW
p114
aVhttp://www.ebay.com/itm/Mens-72cm-Ninja-Sword-Sheath-Scabbard-Fancy-Dress-Plastic-Samurai-Warrior-/262470203933?hash=item3d1c717a1d:g:3oUAAOSwnNBXVDPh
p115
aVhttp://www.ebay.com/itm/Authentic-Hand-Made-Decorative-Naval-Cutlass-with-Ornate-Scabbard-/252409273332?hash=item3ac4c3dbf4:g:6FMAAOSwZG9WjlDg
p116
aVhttp://www.ebay.com/itm/Makita-UC4041A-400mm-1800w-240v-Electric-Chainsaw-/331863919305?epid=1530203253&hash=item4d44a18ac9:g:Is8AAOSw7ehXRGWE
p117
aVhttp://www.ebay.com/itm/Ryobi-RCS2340-2300w-Electric-Lightweight-Anti-Vib-Chainsaw-40cm-Oregon-Bar-/131820853075?epid=1639960211&hash=item1eb1229753:g:XQEAAOSwfpVZN0ZX
p118
aVhttp://www.ebay.com/itm/58cc-20-Petrol-Chainsaw-Oregon-Bar-Saw-Chains-Easy-Start-NGK-Spark-Plug-/182139350587?hash=item2a6859ee3b:g:vuUAAOSw9k5XPrmK
p119
aVhttp://www.ebay.com/itm/24-60cm-Genuine-Stihl-Hedgetrimmer-Trimmer-Scabbard-HS46-HS56-4237-790-9208-/231950498726?hash=item360153bba6:g:QDwAAOxyLm9TEkKo
p120
aVhttp://www.ebay.com/itm/British-Military-58P-1958-Pattern-Webbing-Machete-Scabbard-/322114177922?hash=item4aff804b82:g:nTAAAOSw74FXPchm
p121
aVhttp://www.ebay.com/itm/Ryobi-RCS4240B-2-Stroke-Petrol-Anti-Vib-Chainsaw-40cm-Bar-42cc-Tool-less-Tension-/131809596127?epid=1613513900&hash=item1eb076d2df:g:rUQAAOSwH09ZN0eU
p122
aVhttp://www.ebay.com/itm/Genuine-British-Military-Police-Black-Leather-Shotgun-Scabbard-Harness-Rig-/131804784351?var=&hash=item1eb02d66df:m:mQJPrGjn495yjg49fHwvc3w
p123
aVhttp://www.ebay.com/itm/Stanley-FatMax-150mm-Plasterboard-Jab-Saw-Scabbard-Drywall-Jabsaw-720-556-New-/272225022308?epid=1105434003&hash=item3f61e03164:g:r4gAAOSw2GlXH8iT
p124
aVhttp://www.ebay.com/itm/Spikes-bumper-felling-dogs-set-x-2-fits-STIHL-070-090-chainsaw-new-1106-664-0510-/172175463008?epid=702015552&hash=item2816751260:g:oPgAAOSwKtlWlRx9
p125
aVhttp://www.ebay.com/itm/Stanley-220556-FatMax-Jabsaw-Scabbard-Plasterboard-Dry-Wall-Saw-150mm-6in-7tpi-/182097883753?epid=1051197486&hash=item2a65e13269:g:XgMAAOSwZVhWTeq6
p126
aVhttp://www.ebay.com/itm/NEW-Army-Issue-MTP-Multicam-PLCE-Bayonet-Frog-Scabbard-/391428618022?epid=856096693&hash=item5b22f6b726:g:e5MAAOSwSzdXBp1y
p127
aVhttp://www.ebay.com/itm/Stanley-FatMax-160mm-Plasterboard-Jab-Saw-Scabbard-Drywall-Jabsaw-2-20-556-/331824904427?epid=1205082124&hash=item4d424e38eb:g:3soAAOSw7GRZLzPb
p128
aVhttp://www.ebay.com/itm/DAMTOYS-Royal-Marines-Commando-British-L85-Bayonet-Scabbard-loose-1-6th-scale-/121939677553?hash=item1c642bd171:g:GsQAAOSwAvJW-tl7
p129
aVhttp://www.ebay.com/itm/FAKE-PLASTIC-Sword-and-Scabbard-Around-The-World-Fancy-Dress-/121936598490?epid=1405078471&hash=item1c63fcd5da:g:-GoAAOSwc-tY298z
p130
aVhttp://www.ebay.com/itm/STANLEY-FATMAX-PLASTERBOARD-JAB-SAW-SCABBARD-HOLSTER-2-20-556-MARKER-PENS-/391411355428?epid=1604187068&hash=item5b21ef4f24:g:QnwAAOxy0aBRnkMI
p131
aVhttp://www.ebay.com/itm/Leather-Back-Scabbard-Baldric-Perfect-for-Stage-Costume-Re-enactment-or-LARP-/252326635487?var=&hash=item3abfd6e7df:m:mjuaA3d8oTlNvGjnie5VVuw
p132
aVhttp://www.ebay.com/itm/British-Military-Army-Olive-Green-PLCE-Webbing-Set-Pouches-Yoke-Belt-Scabbard-/322044135967?hash=item4afb538a1f:g:pO8AAOSw2ENW7BQb
p133
aVhttp://www.ebay.com/itm/Details-about-Chainsaw-Black-Guide-Bar-Cover-Scabbard-Fits-14-16-18-/201532122241?hash=item2eec402481:g:fxEAAOSwLsBZPzg2
p134
aVhttp://www.ebay.com/itm/British-Military-Issue-Army-DPM-Jungle-Knife-Scabbard-Cover-/322012176630?hash=item4af96be0f6:g:Gl0AAOSwx-9WxbZm
p135
aVhttp://www.ebay.com/itm/Steam-Punk-Pirate-Sword-with-Scabbard-Accessory-Weapon-Toy-Pirate-Cutlass-Sheath-/361492327911?hash=item542a9f2de7:g:aaMAAOSwHLNZXLCN
p136
aVhttp://www.ebay.com/itm/Original-Post-War-US-Army-Canvas-and-Fiberglass-M8-Bayonet-Scabbard-/121884279949?epid=874809869&hash=item1c60de848d:g:QjkAAOSwL7VWshW0
p137
aVhttp://www.ebay.com/itm/PACK-OF-24-Plastic-Broad-Sword-and-Scabbard-Assorted-Colours-Great-fun-for-Kids-/351643009157?epid=1356432611&hash=item51df8e8085:g:srQAAOSwL7VWrbu1
p138
aVhttp://www.ebay.com/itm/Leather-Wear-Reenactment-Gaming-LEATHER-BAHCO-SAW-SCABBARD-/321992731098?var=&hash=item4af84329da:m:mtJKDsTuahoRb31ZC_CGbAw
p139
aVhttp://www.ebay.com/itm/26cc-10-TIMBERPRO-Petrol-Top-Handle-Chainsaw-Topping-Chain-Saw-with-2-Chains-/281916200734?hash=item41a383d71e:g:GGoAAOxyDEVScQkc
p140
aVhttp://www.ebay.com/itm/Scabbards-Song-Red-Pavilions-By-Kim-Hunter-/172045746624?epid=96831331&hash=item280eb9c1c0:g:dLEAAOSw3KFWg5an
p141
aVhttp://www.ebay.com/itm/Stanley-7-FatMax-Plasterboard-Jab-Saw-Scabbard-Set-with-7TPI-180mm-STA220556-/262195029003?epid=1205082124&hash=item3d0c0aa40b:g:-VQAAOSwJcZWcZuU
p142
aVhttp://www.ebay.com/itm/Lego-Ninjago-Lloyd-Deepstone-minifigure-x-1-Scabbard-Swords-from-set-70751-/391340555100?epid=685924511&hash=item5b1db6fb5c:g:0WgAAOSwwE5Wax4E
p143
aVhttp://www.ebay.com/itm/Lego-Ninjago-Lloyd-Deepstone-minifigure-x-1-Scabbard-Swords-from-set-70751-/381489211280?epid=685924511&hash=item58d2876790:g:K~kAAOSwo0JWJzwF
p144
aVhttp://www.ebay.com/itm/26cc-10-TIMBERPRO-Petrol-Top-Handle-Chainsaw-Topping-Chain-Saw-with-2-Chains-/272064829695?hash=item3f5853d8ff:g:GGoAAOxyDEVScQkc
p145
aVhttp://www.ebay.com/itm/Adult-Roman-Gladiator-Plastic-Sword-With-Scabbard-Medieval-Fancy-Dress-Accessory-/201472639247?hash=item2ee8b4810f:g:fs8AAOSwHnFVm55l
p146
aVhttp://www.ebay.com/itm/LARP-Cosplay-Roleplaying-BROWN-LEATHER-FOAM-WEAPON-MEDIUM-DROP-SCABBARD-BELT-/272054347253?hash=item3f57b3e5f5:g:kFYAAOSwAKxWUwtz
p147
aVhttp://www.ebay.com/itm/LARP-SCA-Cosplay-Roleplaying-BROWN-LEATHER-FOAM-WEAPON-HANGING-SCABBARD-/272054327347?hash=item3f57b39833:g:8uQAAOSwnipWUwGC
p148
aVhttp://www.ebay.com/itm/LARP-SCA-Cosplay-Roleplaying-BROWN-LEATHER-FOAM-WEAPON-LARGE-DROP-SCABBARD-/281864905557?hash=item41a0752355:g:FIMAAOSw8-tWUv9P
p149
aVhttp://www.ebay.com/itm/LARP-SCA-Cosplay-Roleplaying-BROWN-LEATHER-FOAM-WEAPON-SMALL-DROP-SCABBARD-/272054305990?hash=item3f57b344c6:g:TeEAAOSwgyxWUvnD
p150
aVhttp://www.ebay.com/itm/LARP-SCA-Cosplay-Roleplaying-BROWN-LEATHER-FOAM-WEAPON-FROG-HANGING-SCABBARD-/272054301058?hash=item3f57b33182:g:eA4AAOSw8-tWUvK~
p151
aVhttp://www.ebay.com/itm/Ninja-Plastic-Dagger-Oriental-Sword-Scabbard-Weapon-Warrior-Pirate-Fancy-Dress-/331714038086?epid=1723207797&hash=item4d3bb28946:g:oQwAAOSwHQ9WUK2b
p152
aVhttp://www.ebay.com/itm/LARP-Cosplay-Roleplaying-BROWN-LEATHER-FOAM-WEAPON-MEDIUM-DROP-SCABBARD-BELT-/321925165277?var=&hash=item4af43c30dd:m:mmsvkVl5FfrOCVne4R_JMUQ
p153
aVhttp://www.ebay.com/itm/LARP-Cosplay-Roleplaying-BROWN-LEATHER-FOAM-WEAPON-SMALL-DROP-SCABBARD-BELT-/321925163649?var=&hash=item4af43c2a81:m:mqnVRCepV7wUCOsxGFRQ_xQ
p154
aVhttp://www.ebay.com/itm/LARP-SCA-Cosplay-Roleplaying-BROWN-LEATHER-FOAM-WEAPON-LARGE-DROP-SCABBARD-/221945260953?var=&hash=item33acf7eb99:m:m9nfLxPkhVl8K2n8JngqSVQ
p155
aVhttp://www.ebay.com/itm/LARP-SCA-Cosplay-Roleplaying-BROWN-LEATHER-FOAM-WEAPON-SMALL-DROP-SCABBARD-/221945256209?var=&hash=item33acf7d911:m:mLCR98mIS2GkhV6hLXpSoBw
p156
aVhttp://www.ebay.com/itm/LARP-SCA-Cosplay-Roleplaying-BROWN-LEATHER-FOAM-WEAPON-FROG-HANGING-SCABBARD-/221945251453?var=&hash=item33acf7c67d:m:mQwHe9M1NEsW_1Mmd-W4lBg
p157
aVhttp://www.ebay.com/itm/HUSQVARNA-CHAINSAW-PLASTIC-BAR-COVER-SCABBARD-13-16-/131650529433?epid=1223772762&hash=item1ea6fba899:g:Wg4AAOSw8HBZMZNq
p158
aVhttp://www.ebay.com/itm/Lego-Ninjago-Jay-Deepstone-Minifigure-x-1-Scabbard-Swords-from-set-70751-/381463178337?hash=item58d0fa2c61:g:TIEAAOSw5ZBWQbVT
p159
aVhttp://www.ebay.com/itm/Husqvarna-Chainsaw-Plastic-Bar-Cover-Scabbard-Various-Sizes-/131639265495?var=&hash=item1ea64fc8d7:m:mmfmsMOVCNX3cnfOfGoVxZw
p160
aVhttp://www.ebay.com/itm/Wooden-Bokken-With-Scabbard-/281832854468?hash=item419e8c13c4:g:fhcAAOSwUEVYDyVw
p161
aVhttp://www.ebay.com/itm/US-M1-Garand-Leather-Holster-M1938-Scabbards-BROWN-LEATHER-WW2-Repro-/181895708203?hash=item2a59d43e2b:g:~YUAAOSwunJWFPmH
p162
aVhttp://www.ebay.com/itm/Shotgun-Scabbard-Tan-/171960155300?hash=item28099fbca4:g:LoMAAOSwR29ZJray
p163
aVhttp://www.ebay.com/itm/ROMAN-SWORD-MENS-LADIES-GLADIATOR-FANCY-DRESS-ACCESSORY-SCABBARD-50CM-/301756809239?epid=1106274222&hash=item46421b8017:g:iP0AAOSw-0xYdjBl
p164
aVhttp://www.ebay.com/itm/Lego-Scabbard-Shoulder-Pads-x-1-Swords-x-2-Black-for-Minifigure-/381423123482?hash=item58ce96fc1a:g:So0AAOSwN81WDM4v
p165
aVhttp://www.ebay.com/itm/Einhell-GH-PC-1535-TC-41cc-petrol-chainsaw-35cm-chain-bar-EINGHPC1535T-/262068415685?epid=1629837940&hash=item3d047eacc5:g:ZMwAAOSwuTxWCHH0
p166
aVhttp://www.ebay.com/itm/Lego-Scabbard-Shoulder-Pads-x-1-Black-for-Minifigure-/111778852827?hash=item1a0689efdb:g:7QIAAOSwFnFWAXl4
p167
aVhttp://www.ebay.com/itm/Lego-Ninjago-Jay-Deepstone-minifigure-x-1-Scabbard-Swords-from-set-70751-/111778849592?hash=item1a0689e338:g:uX0AAOSwEetWAXi7
p168
aVhttp://www.ebay.com/itm/Bosch-AKE-30-LI-36v-Cordless-Chainsaw-AKE30LI-0600837102-Bare-Unit-/361384355530?epid=1912572606&hash=item54242fa6ca:g:ZKkAAOSwaEhZNx05
p169
aVhttp://www.ebay.com/itm/WW2-Brown-Leather-US-M1-Carbine-Rifle-SCABBARD-HOLSTER-American-Army-/121748713195?hash=item1c58c9eeeb:g:UjMAAOSwDNdV5rgm
p170
aVhttp://www.ebay.com/itm/Stanley-Tools-FatMax-Jab-Saw-Scabbard-220556-/121741046523?epid=1205082124&hash=item1c5854f2fb:g:HdEAAOSwT6pV3Cp1
p171
aVhttp://www.ebay.com/itm/Tamiya-1-35-Jeep-Willys-MB-1-4-ton-4x4-Truck-M1-Rifle-w-Scabbard-/171905460282?hash=item28065d283a:g:fv4AAOSw~gRVsp2Q
p172
aVhttp://www.ebay.com/itm/Lego-Golden-Lloyd-Ninjago-Ninja-Minifigure-with-Scabbard-Swords-/391224686550?epid=1588841452&hash=item5b16cef7d6:g:SxQAAOSw3ydVzK-W
p173
aVhttp://www.ebay.com/itm/Lego-Scabbard-Shoulder-Pads-x-1-Swords-x-2-Pearl-Gold-for-Minifigure-/381359663100?hash=item58cacea7fc:g:ilsAAOSwHnFVyllz
p174
aVhttp://www.ebay.com/itm/Lego-Scabbard-Shoulder-Pads-x-1-Swords-x-2-Pearl-Gold-for-Minifigure-/381359663100?hash=item58cacea7fc:g:ilsAAOSwHnFVyllz
p175
aVhttp://www.ebay.com/itm/Lego-Scabbard-Shoulder-Pads-x-1-Pearl-Gold-for-Minifigure-/381359661263?hash=item58cacea0cf:g:HmUAAOSwDNdVylhq
p176
aVhttp://www.ebay.com/itm/Ryobi-RCS5145B-45cm-Bar-51cc-2-Stroke-Petrol-Chainsaw-Anti-Vib-Auto-Lubrication-/311418391292?epid=1212667961&hash=item4881fb8afc:g:L~4AAOSw9OFZNyoH
p177
aVhttp://www.ebay.com/itm/Husqvarna-550XP-15-Chainsaw-/181817513408?epid=1344283936&hash=item2a552b15c0:g:QZ4AAOSwyQtVuRN9
p178
aVhttp://www.ebay.com/itm/BRITISH-ARMY-JUNGLE-KNIFE-SHEATH-DPM-SUPERGRADE-scabbard-machete-PLCE-bag-/261982525601?hash=item3cff6018a1:g:dcMAAOSwX~dWmkTX
p179
aVhttp://www.ebay.com/itm/Sword-and-Scabbard-Adult-Unisex-Smiffys-Fancy-Dress-Costume-Accessory-/381330245453?epid=1405078471&hash=item58c90dc74d:g:nHUAAOSwX61ZCwa3
p180
aVhttp://www.ebay.com/itm/Husqvarna-135-14-Chainsaw-/181797997094?epid=1705349999&hash=item2a54014a26:g:bJIAAOSwvzRXyX2x
p181
aVhttp://www.ebay.com/itm/Husqvarna-435-15-Chainsaw-/181797996912?epid=1340068831&hash=item2a54014970:g:ar8AAOSw8oFXyX21
p182
aVhttp://www.ebay.com/itm/New-Sealed-Original-British-Army-SA80-Simple-Bayonet-Scabbard-Infantry-/331597157364?epid=906756471&hash=item4d34bb13f4:g:~usAAOSwgQ9Vloiw
p183
aVhttp://www.ebay.com/itm/Ninja-Sword-and-Scabbard-Fancy-Dress-Accessory-Weapon-Kids-Adults-Costume-/171835383918?epid=1519969080&hash=item28022fe06e:g:gBAAAOSwfZ1WX6EV
p184
aVhttp://www.ebay.com/itm/Plastic-Broad-Sword-and-Scabbard-Assorted-Colours-Single-/331577548852?hash=item4d338fe034:g:pVoAAOSwrklVddXm
p185
aVhttp://www.ebay.com/itm/Makita-EA3201S35B-2-Stroke-32cc-35cm-Bar-Chainsaw-/151658651758?epid=1017242602&hash=item234f8f606e:g:Y1MAAOSwEeFVOLeo
p186
aVhttp://www.ebay.com/itm/BRAND-NEW-HUSQVARNA-236-PETROL-CHAINSAW-14-/161661456270?epid=1353884463&hash=item25a3c60f8e:g:aL8AAOSw-7RVHpwA
p187
aVhttp://www.ebay.com/itm/Mens-Boy-Roman-Scabbard-Sword-Clash-Of-Titans-Gladiator-Movie-Fancy-Dress-/191549270565?hash=item2c9939ea25:g:EVwAAOSw2gxYpvO6
p188
aVhttp://www.ebay.com/itm/Fancy-Dress-Sword-Knife-Dagger-Weapon-Pirates-Persia-Cosplay-Steampunk-Toy-Game-/231520931552?var=&hash=item35e7b90ee0:m:muJRV6uTREdtVxJH3V6uf9w
p189
aVhttp://www.ebay.com/itm/Mens-Boys-72cm-Ninja-Sword-Sheath-Scabbard-Fancy-Dress-Plastic-Samurai-Warrior-/171732358068?epid=1488690887&hash=item27fc0bd3b4:g:XUEAAOSwPcVVi~yi
p190
aVhttp://www.ebay.com/itm/TIMBERPRO-58cc-62cc-Genuine-Spare-Replacement-Chainsaw-Guide-Bar-20-Chain-Saw-/301554090635?epid=10003302251&hash=item463606428b:g:y2YAAMXQWzNSekba
p191
aVhttp://www.ebay.com/itm/LEGO-SPARES-PARTS-98132-MINIFIG-ARMOUR-WITH-SCABBARD-FOR-2-KATANAS-FLAT-SILVER-/131425813445?hash=item1e9996c3c5:g:BwAAAOSwEeFU2c5O
p192
aVhttp://www.ebay.com/itm/KING-ARTHURS-EXCALIBUR-LARGE-LETTER-OPENER-WITH-STAND-AND-SCABBARD-PAPER-KNIFE-/291375377213?hash=item43d7536b3d:g:2VAAAOSwqu9U1RGh
p193
aVhttp://www.ebay.com/itm/WOODEN-MEDIEVAL-TOY-SWORD-AND-SCABBARD-KNIGHT-ROMANS-HISTORICAL-FANCY-DRESS-NEW-/201248412800?hash=item2edb571480:g:oyoAAOSwg3FUmZ3b
p194
aVhttp://www.ebay.com/itm/STANLEY-FATMAX-JAB-SAW-PAD-SAW-AND-SCABBARD-PLASTERBOARD-SAW-2-20-556-/161489132153?epid=1205082124&hash=item2599809a79:g:1UgAAOSwA4dWLmHO
p195
aVhttp://www.ebay.com/itm/Bosch-AKE-40-Electric-16-40cm-Chainsaw-1800w-AKE40-Bar-Chain-4m-Cable-/361113136663?epid=1205176410&hash=item5414052e17:g:vzUAAOSwfpVZOADQ
p196
aVhttp://www.ebay.com/itm/25cc-TOP-HANDLE-10-CHAINSAW-OREGON-BAR-CHAIN-2-YEAR-GUARANTEE-925-25cs-/181567174694?hash=item2a463f3826:g:F4MAAOSwy4hUSPz9
p197
aVhttp://www.ebay.com/itm/MTP-MULTICAM-MOLLE-BRITISH-ARMY-SURVIVAL-KNIFE-SHEATH-JUNGLE-SCABBARD-/121464536319?epid=1088569806&hash=item1c47d9bcff:g:ga4AAOSwU9xUQ7aL
p198
aVhttp://www.ebay.com/itm/MTP-MULTICAM-MOLLE-BRITISH-ARMY-MACHETE-SHEATH-JUNGLE-SCABBARD-/301359566960?epid=1988556851&hash=item462a6e1070:g:YDAAAOSwR0JUQ7X-
p199
aVhttp://www.ebay.com/itm/STANLEY-FATMAX-PLASTERBOARD-JAB-SAW-PAD-SAW-WITH-HOLDER-SCABBARD-STA720556-/251661908642?hash=item3a9837faa2:g:9iIAAMXQVERSsC47
p200
aVhttp://www.ebay.com/itm/British-Army-SA80-Infantry-Bayonet-Scabbard-Saw-Wire-Cutter-Stone-Free-Frog-/231337780251?hash=item35dcce641b:g:niUAAOSwZd1VcAUR
p201
aVhttp://www.ebay.com/itm/UTV-Expedition-Gun-Case-Scabbard-And-Storage-In-Black-/141395249527?epid=1627556733&hash=item20ebd04977:g:NXAAAOSw9mFWKS1p
p202
aVhttp://www.ebay.com/itm/CONDOR-TACTICAL-SHOTGUN-CASE-COMBAT-PADDED-SCABBARD-MOLLE-BAG-AIRSOFT-COYOTE-TAN-/301296353245?epid=1556470835&hash=item4626a97fdd:g:q5IAAOxy6MBSTUhL
p203
aVhttp://www.ebay.com/itm/Husqvarna-Jonsered-Ignition-Coil-340-345-346-xp-350-351-357-365-372-575-338-/251609139746?hash=item3a9512ca22:g:JhYAAOxydUJTNFqj
p204
aVhttp://www.ebay.com/itm/Condor-Padded-Shotgun-Case-US-Tactical-Scabbard-MOLLE-Bag-Airsoft-Shooting-Black-/301224973881?epid=1519428635&hash=item4622685639:g:n8AAAOxyT7NR7UvJ
p205
aVhttp://www.ebay.com/itm/Lego-Scabbard-Shoulder-Pads-x-1-Swords-x-2-Flat-Silver-for-Minifigure-/111380483117?epid=1088526332&hash=item19eecb4c2d:g:hz0AAOSws65Tmq~l
p206
aVhttp://www.ebay.com/itm/Lego-Scabbard-Shoulder-Pads-x-1-Flat-Silver-for-Minifigure-/380927315295?epid=1788617297&hash=item58b1098d5f:g:5nQAAOSw7PBTmq~c
p207
aVhttp://www.ebay.com/itm/TIMBERPRO-CS-2500-10-Top-Handle-Chainsaw-Genuine-Replacement-Spare-Chain-CS2500-/281354726634?epid=3003304178&hash=item41820c6cea:g:YqQAAOxyiklTkZhF
p208
aVhttp://www.ebay.com/itm/DAGGER-WITH-FAKE-JEWELS-IN-SCABBARD-INDIAN-PLASTIC-WEAPON-FANCY-DRESS-ACCESSORY-/261498938569?epid=1406255625&hash=item3ce28d24c9:g:s0QAAOxyAbxTkY~1
p209
aVhttp://www.ebay.com/itm/CONDOR-PADDED-SHOTGUN-HUNTING-SCABBARD-COMBAT-MOLLE-GUN-CASE-SHOOTING-BAG-OLIVE-/271443540707?epid=1855208271&hash=item3f334bbae3:g:6KMAAMXQLw1R5VXY
p210
aVhttp://www.ebay.com/itm/Roman-Sword-and-Scabbard-Toy-Set-Soldier-Fancy-Dress-Accessory-Smiffys-22466-/111311695394?epid=1106274222&hash=item19eab1ae22:g:4f0AAOxyVaBS1Voo
p211
aVhttp://www.ebay.com/itm/Lego-Scabbard-x-1-Dark-Brown-for-Minifigure-/111300129643?epid=1888369555&hash=item19ea01336b:g:q~MAAMXQrhdTWn2v
p212
aVhttp://www.ebay.com/itm/30-75cm-Genuine-Stihl-Hedgecutter-Cutter-Cover-Scabbard-HS81-HS86-4237-790-9207-/291092146821?hash=item43c671aa85:g:QDwAAOxyLm9TEkKo
p213
aVhttp://www.ebay.com/itm/30-75cm-OEM-Stihl-Hedgecutter-Blade-Cover-Scabbard-HS75-HS80-HS85-4226-790-9203-/291092044653?epid=1954524737&hash=item43c6701b6d:g:94IAAOxywh1TEiLT
p214
aVhttp://www.ebay.com/itm/PLASTIC-ROMAN-SWORD-17INCH-LONG-SILVER-IN-GOLD-SCABBARD-/201043479468?hash=item2ecf200bac:g:8rUAAOxyni9TDhts
p215
aVhttp://www.ebay.com/itm/NEMESIS-NOW-WOODEN-SWORDS-TOY-DAGGER-BOOK-WEEK-MEDIEVAL-KNIGHT-LARP-SWORD-NEW-/350972292906?var=&epid=1465918147&hash=item51b7942f2a:m:mf_Fd1UnZBwRLFOipXt2Z9A
p216
aVhttp://www.ebay.com/itm/British-Army-SA80-PLCE-Frog-Bayonet-Knife-Sheath-Scabbard-Olive-Green-NSN-NEW-/221326116904?hash=item3388108828:g:1RYAAOxy3NBSllKk
p217
aVhttp://www.ebay.com/itm/KNIGHTS-Fancy-Dress-Kids-Dress-Up-Assorted-Weapons-Accessory-Sets-NEW-/181197769936?var=&hash=item2a303a8cd0:m:mejp3CGZkTs3UWta2RyM2lw
p218
aVhttp://www.ebay.com/itm/Genuine-Stihl-MS201T-Chainsaw-Guide-Bar-Scabbard-12-Stihl-Chain-Tracked-Post-/231027568302?hash=item35ca50eeae:g:L4UAAOxynLhR~fcs
p219
aVhttp://www.ebay.com/itm/45cm-18-Kettensagen-Leitstange-Abdeckung-Scabbard-fur-STIHL-/400532314493?hash=item5d4196197d:g:GuYAAOSwQItUHphj
p220
aVhttp://www.ebay.com/itm/NEW-UK-BRITISH-ARMY-SURPLUS-TROPICAL-ISSUE-DPM-PLCE-JUNGLE-KNIFE-SCABBARD-STRAP-/200935572007?hash=item2ec8b18227:m:mpb2kWmEA3BsyOjyb7_2znQ
p221
aVhttp://www.ebay.com/itm/ACTION-MAN-40th-LIFE-GUARD-BLUES-ROYALS-HUSSAR-SCABBARD-FACTORY-SAMPLE-/310657188033?hash=item48549c80c1:g:jf4AAMXQsmFRdnze
p222
aVhttp://www.ebay.com/itm/STANLEY-FATMAX-JAB-SAW-PADSAW-AND-SCABBARD-PLASTERBOARD-SAW-WITH-FOC-CLASSIC-99E-/221199743506?epid=1051197486&hash=item3380883a12:g:h3UAAMXQMmJRPKUk
p223
aVhttp://www.ebay.com/itm/Original-Delphin-Dolphin-Knife-Holster-Scabbard-ONLY-Carpet-Fitter-Knives-Holder-/140920478612?epid=1188312552&hash=item20cf83db94:g:2EcAAMXQDnpTY3gM
p224
aVhttp://www.ebay.com/itm/Boys-Roman-Soldier-Gladiator-Fancy-Dress-Costume-Plastic-Toy-Sword-with-Scabbard-/190795880428?epid=1908057228&hash=item2c6c5217ec:g:EXsAAOSwQupXUBYM
p225
aVhttp://www.ebay.com/itm/CONDOR-PADDED-SHOTGUN-SCABBARD-ARMY-TACTICAL-GUN-BAG-MOLLE-SYSTEM-A-TACS-AU-CAMO-/271136766370?epid=1556470840&hash=item3f2102b9a2:g:jjgAAOxyx9VSUn5e
p226
aVhttp://www.ebay.com/itm/NEW-STANLEY-FATMAX-JAB-SAW-PAD-SAW-AND-SCABBARD-PLASTERBOARD-SAW-2-20-556-GREAT-/221152857489?epid=1106231188&hash=item337dbccd91:g:GmAAAOSwwE5WUd0J
p227
aVhttp://www.ebay.com/itm/AMERICAN-ARMY-M8-SCABBARD-WW2-REPRO-/360491763169?hash=item53eefbc5e1:g:HjYAAOSwd3dZZOMa
p228
aVhttp://www.ebay.com/itm/stanley-titan-knife-handle-holster-scabbard-1-10-550-brand-new-heavy-duty-/320989850366?epid=1123026117&hash=item4abc7c6afe:g:yIoAAOSwys5WUd4J
p229
aVhttp://www.ebay.com/itm/Stanley-Plasterboard-Jab-Saw-with-Scabbard-150mm-6in-7tpi-STA720556-STA020556-/150860057832?epid=1604187068&hash=item231ff5cce8:g:rcMAAOSwIQdZNwwu
p230
aVhttp://www.ebay.com/itm/45cm-18-Chainsaw-Guide-Bar-Cover-Scabbard-Fits-STIHL-/270826427841?hash=item3f0e8355c1:g:GuYAAOSwQItUHphj
p231
aVhttp://www.ebay.com/itm/40cm-16-Chainsaw-Guide-Bar-Cover-Scabbard-/390351664236?epid=918834327&hash=item5ae2c5b46c:g:C~wAAOSwGvhUHphG
p232
aVhttp://www.ebay.com/itm/50cm-20-Chainsaw-Guide-Bar-Cover-Scabbard-Fits-STIHL-/270823225689?epid=1764052955&hash=item3f0e527959:g:14AAAOSwDuJWysSR
p233
aVhttp://www.ebay.com/itm/12-30cm-Chainsaw-Guide-Bar-Cover-Scabbard-/390349692856?epid=706548744&hash=item5ae2a79fb8:g:kOkAAOSwcaFZHrw4
p234
aVhttp://www.ebay.com/itm/SCABBARD-for-WILKINSON-SWORD-DARTMOOR-SURVIVAL-KNIFE-SPARE-PART-ACCESSORIES-NEW-/130504335899?hash=item1e62aa221b:g:zAYAAOSw3xJVauAR
p235
a.