(lp1
Vhttp://www.ebay.com/itm/Schoolmate-A4-Plain-Gridded-Double-Sided-Magnetic-Dry-Wipe-Framed-Whiteboard-/122401359458?epid=847044732&hash=item1c7fb08662:g:hlsAAOSwuLZYy4w8
p2
aVhttp://www.ebay.com/itm/BIAS-BINDER-FOOT-FITS-JANOME-CAT-B-C-SEWING-MACHINES-200313005-/172454121554?epid=697635156&hash=item2827111052:g:M0AAAOSw6DtYWsKS
p3
aVhttp://www.ebay.com/itm/INVISIBLE-CONCEALED-ZIPPER-FOOT-FITS-JANOME-CAT-B-C-SEWING-MACHINES-200333001-/172454110268?epid=735799080&hash=item282710e43c:g:zwAAAOSwZQRYWr9N
p4
a.