(lp0
Vhttp://www.ebay.com/itm/NEW-Gardner-Attx-Version-2-Carp-Fishing-Transmitting-System-3-Rod-3-5mm-/282514055862?epid=1312712414&hash=item41c72662b6:m:mxM4yvMQ5vJNELERjL5rhbQ
p1
aVhttp://www.ebay.com/itm/RC-FPV-Antenna-Straight-For-Transmitting-Clover-Leaf-Style-SMA-Male-Plug-RC206-/252787084525?hash=item3adb48cced:g:LZ4AAOSwCQZZEbzC
p2
aVhttp://www.ebay.com/itm/Winter-Hill-transmitting-station-mast-Winter-1955-56-Zr-39-/142108647617?hash=item211655e0c1:g:NxgAAOSwFV9XzaDu
p3
aVhttp://www.ebay.com/itm/LATEST-3G-CELLULAR-REMOTE-BUTTON-SURVEILLANCE-CAMERA-AND-TRANSMITTING-MODULE-/161246988337?epid=885103437&hash=item258b11c831:g:6VsAAOxyj4hTH5YZ
p4
aVhttp://www.ebay.com/itm/35mm-IR-Transmitting-Board-Lens-For-Bullet-Cameras-5MP-1-2-Image-Format-/121565055066?epid=1139757213&hash=item1c4dd7885a:g:MKgAAOSwYGFU1zV9
p5
aVhttp://www.ebay.com/itm/RC-FPV-Antenna-Straight-For-Transmitting-Clover-Leaf-Style-RP-SMA-Plug-RC205-/282374266675?hash=item41bed15f33:g:ev0AAOSwZKBZEbvs
p6
aVhttp://www.ebay.com/itm/GARDNER-ATTs-ATTx-Alarms-Receiver-Accessories-Complete-Range-Available-/110837521213?var=&hash=item19ce6e5b3d:m:mlvdhkw5F_kiMMaiba24sYw
p7
aVhttp://www.ebay.com/itm/270pF-6-7KV-CERAMIC-TRANSMITTING-CAPACITOR-LCC-WA04U-NOS-/152612430207?hash=item238868e17f:g:7GAAAOxyaTxRVWw2
p8
aVhttp://www.ebay.com/itm/Vishay-TSAL6100-IR-LED-Infrared-Emitting-Transmitting-Diode-950nm-GaAlAs-Z266-/322330253619?var=&hash=item4b0c615933:m:m63mEw6Li4t_zDwOnV1Aexg
p9
aVhttp://www.ebay.com/itm/47pF-5KV-CERAMIC-TRANSMITTING-CAPACITOR-LCC-WA04A-NOS-/380451098300?epid=1017213856&hash=item5894a70ebc:g:aLwAAMXQhuVRVWoM
p10
aVhttp://www.ebay.com/itm/Transmitting-station-building-by-Marconi-Chelmsford-Essex-Zr-43-/142108655776?hash=item21165600a0:g:MDgAAOSwvzRXzaOS
p11
aVhttp://www.ebay.com/itm/Emax-5-8G-Clover-3-Blade-Transmitting-w-4-Blade-Receiving-Antenna-21222-/251990695744?hash=item3aabd0df40:g:yQcAAOSwpDdVeEk5
p12
aVhttp://www.ebay.com/itm/Infrared-IR-Sound-Transmitting-DIY-Kit-Solder-Transfer-Sound-UK-/262338902412?hash=item3d149df98c:g:bjoAAOSwP~tW6drU
p13
aVhttp://www.ebay.com/itm/RSGB-Transmitting-Logbook-Paperback-Na-9781872309781-/352040458801?hash=item51f73f1a31:g:jZoAAOSwI-BWH4Zv
p14
aVhttp://www.ebay.com/itm/Runrig-Live-Transmitting-Live-CD-ALBUM-/400805128457?hash=item5d51d8e909:g:uNQAAOSwoydWpk48
p15
aVhttp://www.ebay.com/itm/Vishay-TSAL6200-IR-LED-Infrared-Emitting-Transmitting-Diode-940nm-GaAlAs-Z248-/321712476917?var=&hash=item4ae78ed2f5:m:mn1mXbVswS8olKuy_ri8wQw
p16
aVhttp://www.ebay.com/itm/Runrig-Transmitting-Live-CD-NEW-/282308372631?epid=4012400&hash=item41bae3e897:g:OM0AAOSwEzxYZmyV
p17
aVhttp://www.ebay.com/itm/Bluetooth-Pen-With-Earpiece-Spy-50-60cm-Long-Transmitting-Distance-/141715492569?epid=1140048175&hash=item20fee6ced9:g:zpkAAOSwh2xYBkO3
p18
aVhttp://www.ebay.com/itm/BLACK-962-INFRARED-TRANSMITTING-PERSPEX-CAST-ACRYLIC-PLASTIC-SHEET-3MM-5MM-/231787983493?var=&hash=item35f7a3f285:m:mGjJfrLpN0OyluHa_Hva-iw
p19
aVhttp://www.ebay.com/itm/Dipole-Aerial-Suitable-For-Transmitting-fast-delivery-/401144041831?hash=item5d660c5167:g:OT4AAOSw4HVWDpjk
p20
aVhttp://www.ebay.com/itm/RS232-Serial-Port-To-TTL-Converter-Module-Transmitting-Receiving-light-CHIP-128-/371366577291?hash=item56772c448b:g:O3oAAOSwMmBVkRIG
p21
aVhttp://www.ebay.com/itm/Runrig-Transmitting-Live-CD-1999-/291644062568?epid=4012400&hash=item43e7573b68:g:uacAAOSwopRYkMhz
p22
aVhttp://www.ebay.com/itm/Cell-Talk-Transmitting-Mind-into-DNA-Paperback-NEW-Upledger-John-2010-08-01-/311797529698?epid=93239167&hash=item489894bc62:g:rcUAAOSw4DJYme3h
p23
aVhttp://www.ebay.com/itm/Sikth-Let-the-Transmitting-Begin-CD-/381499165732?hash=item58d31f4c24:g:~xoAAOSwl8NVboqk
p24
aVhttp://www.ebay.com/itm/Intek-RP-800T-UHF-FM-Proffessional-Transmitting-Paging-System-/172211507347?hash=item28189b1093:g:YJMAAOSw74FXPKRJ
p25
aVhttp://www.ebay.com/itm/2-4-GHz-4-CH-Wireless-FM-Stereo-Audio-Video-Transmitting-Module-A-V-Transmi-/272446539403?hash=item3f6f14468b:g:NCoAAOSwo4pYJmLc
p26
aVhttp://www.ebay.com/itm/RSGB-Transmitting-Logbook-Paperback-Na-9781872309781-/352040458801?hash=item51f73f1a31:g:jZoAAOSwI-BWH4Zv
p27
aVhttp://www.ebay.com/itm/Runrig-Transmitting-Live-CD-NEW-/282308372631?epid=4012400&hash=item41bae3e897:g:OM0AAOSwEzxYZmyV
p28
aVhttp://www.ebay.com/itm/Bluetooth-Pen-With-Earpiece-Spy-50-60cm-Long-Transmitting-Distance-/141715492569?epid=1140048175&hash=item20fee6ced9:g:zpkAAOSwh2xYBkO3
p29
aVhttp://www.ebay.com/itm/BLACK-962-INFRARED-TRANSMITTING-PERSPEX-CAST-ACRYLIC-PLASTIC-SHEET-3MM-5MM-/231787983493?var=&hash=item35f7a3f285:m:mGjJfrLpN0OyluHa_Hva-iw
p30
aVhttp://www.ebay.com/itm/Runrig-Live-Transmitting-Live-CD-ALBUM-/400805128457?hash=item5d51d8e909:g:uNQAAOSwoydWpk48
p31
aVhttp://www.ebay.com/itm/Dipole-Aerial-Suitable-For-Transmitting-fast-delivery-/401144041831?hash=item5d660c5167:g:OT4AAOSw4HVWDpjk
p32
aVhttp://www.ebay.com/itm/RS232-Serial-Port-To-TTL-Converter-Module-Transmitting-Receiving-light-CHIP-128-/371366577291?hash=item56772c448b:g:O3oAAOSwMmBVkRIG
p33
aVhttp://www.ebay.com/itm/Runrig-Transmitting-Live-CD-1999-/291644062568?epid=4012400&hash=item43e7573b68:g:uacAAOSwopRYkMhz
p34
aVhttp://www.ebay.com/itm/Cell-Talk-Transmitting-Mind-into-DNA-Paperback-NEW-Upledger-John-2010-08-01-/311797529698?epid=93239167&hash=item489894bc62:g:rcUAAOSw4DJYme3h
p35
aVhttp://www.ebay.com/itm/Sikth-Let-the-Transmitting-Begin-CD-/381499165732?hash=item58d31f4c24:g:~xoAAOSwl8NVboqk
p36
aVhttp://www.ebay.com/itm/Intek-RP-800T-UHF-FM-Proffessional-Transmitting-Paging-System-/172211507347?hash=item28189b1093:g:YJMAAOSw74FXPKRJ
p37
aVhttp://www.ebay.com/itm/2-4-GHz-4-CH-Wireless-FM-Stereo-Audio-Video-Transmitting-Module-A-V-Transmi-/272446539403?hash=item3f6f14468b:g:NCoAAOSwo4pYJmLc
p38
a.