(lp1
Vhttp://www.ebay.com/itm/VANCE-HINES-QUIET-BAFFLES-FOR-BIG-RADIUS-2-2-EXHAUST-23081-SOLD-AS-A-PAIR-/222577899561?epid=942524607&hash=item33d2ad3829:g:NMUAAOSwfJJZZNe5&vxp=mtr
p2
aVhttp://www.ebay.com/itm/Vance-Hines-Leise-dB-Killer-21869-21301-Paar-Big-Shots-Straightshots-/371453671856?epid=1449988069&hash=item567c5d39b0:g:XZgAAOSw9r1WDR9G&vxp=mtr
p3
aVhttp://www.ebay.com/itm/Vance-Hines-Leise-dB-Killer-21301-Paar-fur-V-H-Shortshots-Sideshots-/371320706587?epid=1625394735&hash=item567470561b:g:6bQAAOSwqu9VSNHh&vxp=mtr
p4
aVhttp://www.ebay.com/itm/TRIUMPH-STREET-CUP-STREET-TWIN-PAIR-OF-SILENCERS-VANCE-HINES-A9600518-/122409802049?epid=523627712&hash=item1c80315941:g:9OgAAOSw4GVYQY0s&vxp=mtr
p5
aVhttp://www.ebay.com/itm/Smart-Partz-Quiet-Baffle-Vance-Hines-Harley-Davidson-Twin-Slash-3-Slip-ons-/302004706200?epid=829615154&hash=item4650e21b98:g:UpcAAOxyOypSVQAO&vxp=mtr
p6
aVhttp://www.ebay.com/itm/Vance-Hines-Quiet-Exhaust-Baffles-21869-21301-for-Big-Straight-Shots-Pair-/272002932885?epid=1063679825&hash=item3f54a36095:g:HYMAAOSwwbdWPMl5&vxp=mtr
p7
aVhttp://www.ebay.com/itm/Smart-Partz-Quiet-Baffle-Vance-Hines-Big-Radius-2-1-Harley-Davidson-SPZVHBR2N1-/232355041793?hash=item3619709201:g:4rkAAOSwFqJWpiHE&vxp=mtr
p8
aVhttp://www.ebay.com/itm/Vance-Hines-Exhaust-Baffle-Fibreglass-Packing-Kit-/252918385819?epid=1425300404&hash=item3ae31c4c9b:g:6MUAAOSwuMZZCkvM&vxp=mtr
p9
aVhttp://www.ebay.com/itm/Suzuki-GSX1100-Vance-Hines-Baffle-for-Drag-Race-Megaphone-Systems-/252012154134?hash=item3aad184d16:g:uOkAAOSw91NTtoHM&vxp=mtr
p10
aVhttp://www.ebay.com/itm/Vance-Hines-Quiet-Exhaust-Baffles-21301-for-Sideshots-Shortshots-Pair-/271860747857?epid=1504313030&hash=item3f4c29ce51:g:GA4AAOSwwbdWGRFh&vxp=mtr
p11
aVhttp://www.ebay.com/itm/Vance-Hines-Bafle-de-Escape-Silencioso-Par-21869-Big-Shots-Straightshots-/271901721609?hash=item3f4e9b0409:g:3qgAAOSw2VJVfatx&vxp=mtr
p12
aVhttp://www.ebay.com/itm/Kawasaki-Z900-Vance-Hines-Baffle-for-Drag-Race-Megaphone-Systems-/271916032547?hash=item3f4f756223:g:uOkAAOSw91NTtoHM&vxp=mtr
p13
aVhttp://www.ebay.com/itm/A9600527-TRIUMPH-BONNEVILLE-T120-VANCE-HINES-SLIP-ON-SILENCERS-EXHAUSTS-/332041574411?epid=1881093022&hash=item4d4f38580b:g:GC4AAOSwHMJYNXu1&vxp=mtr
p14
aVhttp://www.ebay.com/itm/Kawasaki-Z1000-Vance-Hines-Baffle-for-Drag-Race-Megaphone-Systems-/252011229629?hash=item3aad0a31bd:g:uOkAAOSw91NTtoHM&vxp=mtr
p15
aVhttp://www.ebay.com/itm/Kawasaki-Z900-Vance-Hines-Baffle-for-Drag-Race-Megaphone-Systems-/271916032547?hash=item3f4f756223:g:uOkAAOSw91NTtoHM&vxp=mtr
p16
aVhttp://www.ebay.com/itm/Smart-Partz-Quiet-Baffle-Vance-Hines-Harley-Davidson-Longshots-/371054708264?hash=item5664958628:g:cm0AAOxy63FSsVO~&vxp=mtr
p17
aVhttp://www.ebay.com/itm/Bring-Up-the-Bodies-Audio-CD-Mantel-Hilary-Vance-Simon-9781471203091-/352110107539?epid=116026703&hash=item51fb65db93:g:N20AAOSwTapV4uO8
p18
aVhttp://www.ebay.com/itm/The-Legend-Of-Bagger-Vance-DVD-2002-/152355757994?epid=3948397&hash=item23791c5faa:m:mC6qnxc4mLxpunq4z0FpILQ
p19
aVhttp://www.ebay.com/itm/Dawn-Featuring-FOY-VANCE-Amazing-Grace-RARE-original-collectable-CD-from-2001-/222352847043?hash=item33c54330c3:g:-gAAAOSwhdRYWmCE
p20
aVhttp://www.ebay.com/itm/Hillbilly-Elegy-A-Memoir-of-a-Family-and-Culture-in-Crisis-J-D-Vance-/282500626001?epid=235163493&hash=item41c6597651:g:RxoAAOSwR29ZLWYc
p21
aVhttp://www.ebay.com/itm/Vance-And-Hines-Quiet-Baffles-2-x-21301-/222368317000?epid=1504313030&hash=item33c62f3e48:g:v2UAAOSwo4pYbjQt&vxp=mtr
p22
aVhttp://www.ebay.com/itm/Harley-FXCW-FLSTB-Rocker-Crossbones-Vance-and-Hines-Fuelpak-V61011-New-G19-/162115586571?epid=1274928747&hash=item25bed78a0b:g:pLgAAOSweWVXdLIQ&vxp=mtr
p23
aVhttp://www.ebay.com/itm/Hillbilly-Elegy-A-Memoir-of-a-Family-and-Culture-in-Crisis-J-D-Vance-/272445741147?epid=228339516&hash=item3f6f08185b:g:yMAAAOSwXyVYJZS2
p24
aVhttp://www.ebay.com/itm/Suzuki-Vance-Hines-Supersport-Exhaust-nameplate-and-rivets-/361576490401?epid=0&hash=item542fa365a1:g:iVIAAOxyOlhSzsWg
p25
a.