(lp1
Vhttp://www.ebay.com/itm/Cure-Anxiety-Fast-Turnkey-Website-For-Sale-Ready-To-Run-Online-Business-/262146614554?hash=item3d0927e51a:g:D8cAAOSw4UtWSbnN
p2
aVhttp://www.ebay.com/itm/Remove-Stretch-Marks-Turnkey-Website-For-Sale-Ready-To-Run-Online-Business-/252172872754?hash=item3ab6acac32:g:jc8AAOSweuxWSYcK
p3
aVhttp://www.ebay.com/itm/Treating-Your-Rosacea-Turnkey-Website-For-Sale-Ready-To-Run-Online-Business-/262146475154?hash=item3d0925c492:g:LQcAAOSwkZhWSYBN
p4
aVhttp://www.ebay.com/itm/Green-Tea-Weight-Loss-Turnkey-Website-For-Sale-Ready-To-Run-Online-Business-/252172783760?hash=item3ab6ab5090:g:lt4AAOSwFGNWSXVc
p5
aVhttp://www.ebay.com/itm/Breast-Enhancement-Tips-Turnkey-Website-For-Sale-Ready-To-Run-Online-Business-/262144143680?hash=item3d09023140:g:398AAOSwMTZWR0UQ
p6
aVhttp://www.ebay.com/itm/Get-Rid-Of-Acne-Scars-Turnkey-Website-For-Sale-Ready-To-Run-Online-Business-/252170578663?hash=item3ab689aae7:g:QckAAOSwEgVWR0Rb
p7
aVhttp://www.ebay.com/itm/Get-Rid-Of-Your-Warts-Turnkey-Website-For-Sale-Ready-To-Run-Online-Business-/252170577050?hash=item3ab689a49a:g:lmgAAOSweuxWR0N9
p8
aVhttp://www.ebay.com/itm/Chocolate-Lovers-Guide-Turnkey-Website-For-Sale-Ready-To-Run-Online-Business-/252170536708?hash=item3ab6890704:g:C-UAAOSwZVhWRzeO
p9
aVhttp://www.ebay.com/itm/Learn-To-Play-Piano-Turnkey-Website-For-Sale-Ready-To-Run-Online-Business-/252170522661?hash=item3ab688d025:g:uuoAAOSwZVhWRzXV
p10
aVhttp://www.ebay.com/itm/Debt-Elimination-Strategy-Turnkey-Website-For-Sale-Ready-To-Run-Online-Business-/252170515159?hash=item3ab688b2d7:g:-RsAAOSwMTZWRzQc
p11
aVhttp://www.ebay.com/itm/Hair-Loss-Solutions-Complete-Turnkey-Website-For-Sale-Ready-To-Run-Business-/262144097837?hash=item3d09017e2d:g:9Z4AAOSw4UtWRzSL
p12
aVhttp://www.ebay.com/itm/Blood-Pressure-Help-Turnkey-Website-For-Sale-Ready-To-Run-Online-Business-/262144097062?hash=item3d09017b26:g:7i0AAOSwMTZWRzPg
p13
aVhttp://www.ebay.com/itm/Easy-Xbox-360-Repairs-Turnkey-Website-For-Sale-Ready-To-Run-Online-Business-/262144091308?hash=item3d090164ac:g:pRcAAOSw4UtWRzLL
p14
aVhttp://www.ebay.com/itm/Explode-Your-Vertical-Jump-Turnkey-Website-For-Sale-Ready-To-Run-Business-/252170509955?hash=item3ab6889e83:g:ZIYAAOSweuxWRzI-
p15
aVhttp://www.ebay.com/itm/How-To-Cure-Tinittus-Turnkey-Website-For-Sale-Ready-To-Run-Online-Business-/252170509920?hash=item3ab6889e60:g:DlcAAOSwZVhWRzH7
p16
aVhttp://www.ebay.com/itm/Treat-Your-Eczema-Turnkey-Website-For-Sale-Ready-To-Run-Online-Business-/262144000322?hash=item3d09000142:g:gMwAAOSwsFpWRxAE
p17
aVhttp://www.ebay.com/itm/Best-Registry-Cleaners-Turnkey-Website-For-Sale-Ready-To-Run-Online-Business-/252170426512?hash=item3ab6875890:g:F-sAAOSwZVhWRwvE
p18
aVhttp://www.ebay.com/itm/Autoresponder-Tips-Turnkey-Website-For-Sale-Ready-To-Run-Online-Business-/262143980269?hash=item3d08ffb2ed:g:WPgAAOSwEgVWRvtD
p19
aVhttp://www.ebay.com/itm/Copywriting-Blog-Turnkey-Website-For-Sale-Ready-To-Run-Online-Business-/262143977175?hash=item3d08ffa6d7:g:gWcAAOSwMTZWRvkw
p20
aVhttp://www.ebay.com/itm/Save-My-Marriage-Complete-Turnkey-Website-For-Sale-Ready-To-Run-Online-Business-/252170411466?hash=item3ab6871dca:g:5rsAAOSwIwhWRvkO
p21
aVhttp://www.ebay.com/itm/Cure-Anxiety-Turnkey-Website-For-Sale-Ready-To-Run-Online-Business-/262143953534?hash=item3d08ff4a7e:g:pCIAAOSwEgVWRuMd
p22
aVhttp://www.ebay.com/itm/Wedding-Plans-Complete-Turnkey-Website-For-Sale-Ready-To-Run-Online-Business-/262142290189?hash=item3d08e5e90d:g:0-0AAOSwMTZWRX9~
p23
aVhttp://www.ebay.com/itm/100-Automated-Celeb-NEWS-Turnkey-Wordpress-Website-Celebrity-Gossip-News-Blog-/151878301457?hash=item235ca6f711:g:gi8AAOSwo0JWPokO
p24
aVhttp://www.ebay.com/itm/Mental-Help-Anxiety-Turnkey-Website-For-Sale-Ready-To-Run-Online-Business-/252156347869?hash=item3ab5b085dd:g:w64AAOSw14xWIND2
p25
aVhttp://www.ebay.com/itm/Asthma-Tips-Complete-Turnkey-Website-For-Sale-Ready-To-Run-Online-Business-/262127218600?hash=item3d07ffefa8:g:2EYAAOSwI-BWH2rS
p26
aVhttp://www.ebay.com/itm/Books-Amazon-Affiliated-Website-Business-Turnkey-Website-for-sale-/262126026848?hash=item3d07edc060:g:6bEAAOSwo0JWHlzA
p27
aVhttp://www.ebay.com/itm/Computer-Amazon-Website-Business-Turnkey-Ready-To-Run-Online-Business-/262125996323?hash=item3d07ed4923:g:cg0AAOSwl9BWHQRF
p28
aVhttp://www.ebay.com/itm/Perfume-Amazon-Affiliate-Website-Business-Turnkey-Ready-To-Go-Online-Business-/262125965210?hash=item3d07eccf9a:g:NPUAAOSwT5tWHNbR
p29
aVhttp://www.ebay.com/itm/Video-Game-Amazon-Website-Business-Turnkey-Ready-To-Go-Online-Business-/262125907547?hash=item3d07ebee5b:g:cmsAAOSwA4dWFmdo
p30
aVhttp://www.ebay.com/itm/Music-Album-Amazon-Website-Business-Turnkey-Ready-To-Go-Online-Business-/262125901592?hash=item3d07ebd718:g:240AAOSwhcJWF7RM
p31
aVhttp://www.ebay.com/itm/Manga-Anime-Amazon-Website-Business-Turnkey-Ready-To-Go-Online-Business-/262125885573?hash=item3d07eb9885:g:JVgAAOSw14xWFmZM
p32
aVhttp://www.ebay.com/itm/Software-Amazon-Affiliate-Website-Business-Turnkey-Ready-To-Go-Online-Business-/262125459797?hash=item3d07e51955:g:P0sAAOSwo6lWFmYF
p33
aVhttp://www.ebay.com/itm/Wind-Solar-Blog-Complete-Turnkey-Website-For-Sale-Ready-To-Run-Online-Business-/252148780197?hash=item3ab53d0ca5:g:R2AAAOSwhcJWM2SP
p34
aVhttp://www.ebay.com/itm/Weight-Loss-Acai-Berries-Complete-Turnkey-Website-For-Sale-Ready-To-Run-Business-/252148750523?hash=item3ab53c98bb:g:5PEAAOSw5VFWIPvg
p35
aVhttp://www.ebay.com/itm/How-To-Play-Tennis-Turnkey-Website-For-Sale-Ready-To-Run-Online-Business-/262119169048?hash=item3d07851c18:g:DIMAAOSwA4dWIPuh
p36
aVhttp://www.ebay.com/itm/Paid-Surveys-Turnkey-Website-For-Sale-Ready-To-Run-Online-Business-/262119163708?hash=item3d0785073c:g:ZZkAAOSwT5tWIPeq
p37
aVhttp://www.ebay.com/itm/Teeth-Whitening-Tips-Turnkey-Website-For-Sale-Ready-To-Run-Online-Business-/262119163188?epid=1788961264&hash=item3d07850534:g:RDEAAOSwo6lWIPfQ
p38
aVhttp://www.ebay.com/itm/Real-Estate-Info-Turnkey-Website-For-Sale-Ready-To-Run-Online-Business-/262119110490?hash=item3d0784375a:g:ZUUAAOSwI-BWIM1S
p39
aVhttp://www.ebay.com/itm/Mobile-Phone-Info-Turnkey-Website-For-Sale-Ready-To-Run-Online-Business-/252148644679?hash=item3ab53afb47:g:ppQAAOSwI-BWIM~B
p40
aVhttp://www.ebay.com/itm/Make-Up-Tips-Complete-Turnkey-Website-For-Sale-Ready-To-Run-Online-Business-/262119028812?hash=item3d0782f84c:g:2dYAAOSwo0JWINJL
p41
aVhttp://www.ebay.com/itm/Magic-Tricks-Complete-Turnkey-Website-For-Sale-Ready-To-Run-Business-/262119011831?hash=item3d0782b5f7:g:3YwAAOSwA4dWIJ5B
p42
aVhttp://www.ebay.com/itm/Home-Theater-Turnkey-Website-For-Sale-Ready-To-Run-Online-Business-/262118851443?hash=item3d07804373:g:REgAAOSw~bFWIJ39
p43
aVhttp://www.ebay.com/itm/Go-Green-Turnkey-Website-For-Sale-Ready-To-Run-Online-Business-/252148438517?hash=item3ab537d5f5:g:DzwAAOSwI-BWIJ3b
p44
aVhttp://www.ebay.com/itm/Golf-Tips-Turnkey-Website-For-Sale-Ready-To-Run-Online-Business-/252148399806?hash=item3ab5373ebe:g:YYYAAOSwwbdWIJ2-
p45
aVhttp://www.ebay.com/itm/Forex-Profit-Tips-Turnkey-Website-For-Sale-Ready-To-Run-Online-Business-/262118777887?hash=item3d077f241f:g:390AAOSwl9BWH5wI
p46
aVhttp://www.ebay.com/itm/Dropshipping-Guide-Complete-Turnkey-Website-Ready-To-Run-Dropship-Business-/262118770673?hash=item3d077f07f1:g:XfIAAOSw14xWH5vl
p47
aVhttp://www.ebay.com/itm/Dog-Training-Blog-Complete-Turnkey-Website-For-Sale-Ready-To-Run-Online-Business-/262118760659?epid=1088437755&hash=item3d077ee0d3:g:dBwAAOSw~bFWH5u6
p48
aVhttp://www.ebay.com/itm/CPA-Marketing-Complete-Turnkey-Website-For-Sale-Ready-To-Run-Business-/262117349025?hash=item3d076956a1:g:MosAAOSwI-BWH5tT
p49
aVhttp://www.ebay.com/itm/Stop-Smoking-Now-Turnkey-Website-For-Sale-Ready-To-Run-Online-Business-/252144060452?hash=item3ab4f50824:g:SQsAAOSwwbdWIPSa
p50
aVhttp://www.ebay.com/itm/Search-Engine-Complete-Turnkey-Website-For-Sale-Ready-To-Run-Online-Business-/262114297417?hash=item3d073ac649:g:4B0AAOSwunJWFLzc
p51
aVhttp://www.ebay.com/itm/Beauty-Amazon-Affiliated-Website-Business-Turnkey-Ready-To-Run-Online-Business-/252136676585?hash=item3ab4845ce9:g:-n4AAOSwvc9WFifF
p52
aVhttp://www.ebay.com/itm/Lingerie-Amazon-Website-Business-Turnkey-Ready-To-Go-Online-Business-/252136622471?hash=item3ab4838987:g:PIIAAOSw~bFWKNZF
p53
aVhttp://www.ebay.com/itm/Six-Pack-Abs-Complete-Turnkey-Website-For-Sale-Ready-To-Run-Online-Business-/252136594781?hash=item3ab4831d5d:g:VfYAAOSwhcJWKNBe
p54
aVhttp://www.ebay.com/itm/Christmas-Blog-Complete-Turnkey-Website-For-Sale-Ready-To-Run-Online-Business-/262106632631?hash=item3d06c5d1b7:g:UHUAAOSwWnFV98Be
p55
aVhttp://www.ebay.com/itm/Everything-About-Cars-Blog-Turnkey-Website-For-Sale-Ready-To-Run-Online-Business-/252135194953?epid=1288962240&hash=item3ab46dc149:g:pE4AAOSwhcJWJ4XF
p56
aVhttp://www.ebay.com/itm/Disney-Toy-Store-Amazon-Website-Business-Turnkey-Website-for-sale-/262103003022?hash=item3d068e6f8e:g:lwoAAOSwo0JWJgS1
p57
aVhttp://www.ebay.com/itm/Christian-Media-Amazon-Website-Business-Turnkey-Ready-To-Run-Online-Business-/262101557965?hash=item3d067862cd:g:dzYAAOSwAYtWJNnX
p58
aVhttp://www.ebay.com/itm/Jewelry-Amazon-Website-Business-Turnkey-Ready-To-Go-Online-Business-/252131978176?hash=item3ab43cabc0:g:SSwAAOSwwbdWJJ9z
p59
aVhttp://www.ebay.com/itm/RACK-BOLT-THUMB-TURN-Key-Door-Bolt-Lock-Security-Spline-Twist-Star-BRASS-CHROME-/201443186267?var=&hash=item2ee6f3165b:m:mJHLiFh5L0OQLKoO_xC5c9g
p60
aVhttp://www.ebay.com/itm/IPhone-Amazon-Affiliated-Website-Business-Turnkey-Website-for-sale-/252100137640?hash=item3ab256d2a8:g:~T8AAOSwvc9WFifZ
p61
aVhttp://www.ebay.com/itm/Laptop-Amazon-Affiliated-Website-Business-Turnkey-Ready-To-Run-Online-Business-/262060488313?hash=item3d0405b679:g:JgIAAOSwFnFWFSBV
p62
aVhttp://www.ebay.com/itm/Save-The-Trees-Complete-Turnkey-Website-For-Sale-Ready-To-Run-Online-Business-/262054278784?hash=item3d03a6f680:g:yTEAAOSw5VFWH2lb
p63
aVhttp://www.ebay.com/itm/Basketball-Blog-Complete-Turnkey-Website-For-Sale-Ready-To-Run-Online-Business-/262054268470?hash=item3d03a6ce36:g:sskAAOSwI-BWH2mW
p64
aVhttp://www.ebay.com/itm/SEO-Tips-Tricks-Complete-Turnkey-Website-For-Sale-Ready-To-Run-Online-Business-/252091125077?hash=item3ab1cd4d55:g:xLYAAOSw~bFWIPMw
p65
aVhttp://www.ebay.com/itm/Baby-Care-Blog-Complete-Turnkey-Website-For-Sale-Ready-To-Run-Online-Business-/262042851895?hash=item3d02f89a37:g:a6EAAOSwT5tWH2mz
p66
aVhttp://www.ebay.com/itm/TURNKEY-WEBSITE-MARKETPLACE-FULLY-DEVELOPED-AUTOMATED-BUSINESS-FOR-SALE-/400970937386?hash=item5d5bbaf42a:g:ztAAAOSw9N1Vv000
p67
aVhttp://www.ebay.com/itm/Turnkey-Celeb-News-100-Automated-Wordpress-Website-Celebrity-Gossip-News-Blog-/151746655277?hash=item2354ce342d:g:9P0AAOSwjVVVpVwB
p68
aVhttp://www.ebay.com/itm/Massive-Ebooks-Reseller-with-Resell-Rights-and-Turnkey-Website-for-Sale-/381229450599?hash=item58c30bc567:g:FVEAAOSwv0tVMNNB
p69
aVhttp://www.ebay.com/itm/Profitable-CREDIT-REPAIR-Turnkey-Niche-Website-Business-For-Sale-/381223338808?hash=item58c2ae8338:g:CG4AAOSwBLlVKYgr
p70
aVhttp://www.ebay.com/itm/Established-Auto-Car-Classifieds-Turnkey-Online-Internet-Business-Website-Sale-/381222357538?hash=item58c29f8a22:g:mOYAAOSwcwhVKCTF
p71
aVhttp://www.ebay.com/itm/FREE-Auction-Software-Turnkey-Website-For-Sale-Ready-To-Run-Online-Business-/381220788181?hash=item58c28797d5:g:cjAAAOSwymxVJk8e
p72
aVhttp://www.ebay.com/itm/HEALTH-CARE-STORE-Turnkey-Affiliate-Website-Dropship-FREE-Domain-Name-/381219175189?hash=item58c26efb15:g:Z0YAAOSwYS9ZaOa8
p73
aVhttp://www.ebay.com/itm/Dog-Care-Guide-Turnkey-Store-Website-Adsense-Clickbank-Amazon-eBay-/381217726996?hash=item58c258e214:g:YPgAAOSwymxVInqw
p74
aVhttp://www.ebay.com/itm/SOFTWARE-STORE-WEBSITE-TURNKEY-ONLINE-BUSINESS-/381217721203?hash=item58c258cb73:g:H-YAAOSwkl5Xdlzo
p75
aVhttp://www.ebay.com/itm/SOFTWARE-STORE-WEBSITE-TURNKEY-ONLINE-BUSINESS-/381215679281?hash=item58c239a331:g:BG0AAOSw-89ZR8J0
p76
aVhttp://www.ebay.com/itm/Printer-Cartridges-Printer-Parts-Store-Turnkey-Online-Business-Website-For-Sale-/381215673864?hash=item58c2398e08:g:kqAAAOSwbfZVH6Xs
p77
aVhttp://www.ebay.com/itm/BOOK-STORE-Complete-Turnkey-Website-Amazon-Google-Ebay-Clickbank-Affiliate-/381210709322?hash=item58c1edcd4a:g:Tv0AAOSwZ1BXdnQc
p78
aVhttp://www.ebay.com/itm/Easy-Turn-Key-Holder-and-Turner-Ideal-for-Arthritis-sufferers-RRP-11-99-/291398189600?hash=item43d8af8220:g:ehQAAOSwpDdU9zix
p79
aVhttp://www.ebay.com/itm/eREADER-SHOP-Complete-Turnkey-Website-Amazon-Google-Adsense-Clickbank-Ebay-/381161451465?hash=item58befe2fc9:g:YY8AAOSwrklU4v7J
p80
aVhttp://www.ebay.com/itm/177X61MM-TURN-KEY-TO-STOP-PRINTED-STICKER-LEGAL-LETTERING-MINIBUS-TAXI-BUS-/131403415787?hash=item1e984100eb:g:lEMAAOSwqu9U-Ct1
p81
aVhttp://www.ebay.com/itm/Turnkey-Travel-Hotel-Booking-Search-Engine-Website-business-Automated-System-/151540503144?hash=item2348849268:g:-n0AAOSw7ThUqWdK
p82
aVhttp://www.ebay.com/itm/Turnkey-News-Website-100-Automated-Hot-Wordpress-Celebrity-Gossip-Blog-/151523990457?hash=item2347889bb9:g:19AAAOSwQiRUl3ho
p83
aVhttp://www.ebay.com/itm/CT1637-26PC-Hose-Clamp-Clip-With-Turn-Key-Assortment-13mm-25mm-Car-Storage-Box-/351252762735?epid=1061843898&hash=item51c84bd06f:g:11IAAOSwuMZZAfuJ
p84
aVhttp://www.ebay.com/itm/New-WEIGHT-LOSS-Store-Turnkey-Online-Business-Website-For-Sale-Free-Domain-Name-/381071047367?hash=item58b99abac7:g:lEkAAOSwabhUVxl5
p85
aVhttp://www.ebay.com/itm/100-Automated-Turnkey-Flights-Hotel-Car-VACATIONS-TRAVEL-1-4-Per-Lead-/151494246704?hash=item2345c2c130:g:y3QAAOSwj0NUeImL
p86
aVhttp://www.ebay.com/itm/INTERNET-MARKETING-TURNKEY-WEBSITE-BUSINESS-FOR-SALE-LINKS-EXCHANGE-/381063524290?hash=item58b927efc2:g:nBEAAOSwg3FUcfdH
p87
aVhttp://www.ebay.com/itm/JOAN-COLLINS-SALE-Orig-9-x-7-J-ARTHUR-RANK-Photo-TURN-KEY-SOFTLY-53-/171533769094?hash=item27f0359986:g:AUwAAOSwcF9UXSAG
p88
aVhttp://www.ebay.com/itm/New-Premium-Wedding-Dress-Website-for-Sale-Amazon-Automated-Turnkey-Websites-/221546499780?hash=item3395334ec4:g:KM0AAOSwq7JUEbgS
p89
aVhttp://www.ebay.com/itm/Become-A-Reiki-Master-Turnkey-Website-For-Sale-Ready-To-Run-Online-Business-/261552024699?hash=item3ce5b72c7b:g:DNUAAOSwo0JWH0eJ
p90
aVhttp://www.ebay.com/itm/Perfect-Vision-Naturally-Turnkey-Website-For-Sale-Ready-To-Run-Online-Business-/251607659754?hash=item3a94fc34ea:g:tjsAAOSwA4dWH0cV
p91
aVhttp://www.ebay.com/itm/Irritable-Bowel-Syndrome-Turnkey-Website-For-Sale-Ready-To-Run-Online-Business-/251607658007?hash=item3a94fc2e17:g:r7YAAOSwhcJWH0an
p92
aVhttp://www.ebay.com/itm/Cake-Decorating-Techniques-Turnkey-Website-For-Sale-Ready-To-Run-Online-Business-/251607574663?hash=item3a94fae887:g:MNIAAOSw5VFWG6k2
p93
aVhttp://www.ebay.com/itm/Teeth-Whitening-Tips-Turnkey-Website-For-Sale-Ready-To-Run-Online-Business-/261551936913?hash=item3ce5b5d591:g:txIAAOSwwbdWG6jl
p94
aVhttp://www.ebay.com/itm/Photography-Techniques-Turnkey-Website-For-Sale-Ready-To-Run-Online-Business-/251607571069?hash=item3a94fada7d:g:zPcAAOSwA4dWG6hs
p95
aVhttp://www.ebay.com/itm/Cashing-In-On-Paid-Surveys-Turnkey-Website-For-Sale-Ready-To-Run-Online-Business-/251607570040?hash=item3a94fad678:g:lrEAAOSwl9BWG6fV
p96
aVhttp://www.ebay.com/itm/Put-An-End-To-Depression-Turnkey-Website-For-Sale-Ready-To-Run-Online-Business-/251607207379?hash=item3a94f54dd3:g:T1gAAOSw9mFWG472
p97
aVhttp://www.ebay.com/itm/Seized-Car-Auctions-Turnkey-Website-For-Sale-Ready-To-Run-Online-Business-/251606798493?hash=item3a94ef109d:g:ce0AAOSw~bFWG463
p98
aVhttp://www.ebay.com/itm/Search-Public-Records-Turnkey-Website-For-Sale-Ready-To-Run-Online-Business-/261551110673?hash=item3ce5a93a11:g:PS4AAOSw9mFWG46c
p99
aVhttp://www.ebay.com/itm/Extreme-Fishing-Tips-Turnkey-Website-For-Sale-Ready-To-Run-Online-Business-/251606786380?hash=item3a94eee14c:g:IcUAAOSwwbdWG447
p100
aVhttp://www.ebay.com/itm/Build-A-Chicken-Coop-Turnkey-Website-For-Sale-Ready-To-Run-Online-Business-/251606784286?hash=item3a94eed91e:g:WP0AAOSw~bFWG44d
p101
aVhttp://www.ebay.com/itm/Vegetable-Gardening-Turnkey-Website-For-Sale-Ready-To-Run-Online-Business-/261551102207?hash=item3ce5a918ff:g:YR0AAOSwwbdWG3BZ
p102
aVhttp://www.ebay.com/itm/Golf-Swing-Pro-Guide-Turnkey-Website-For-Sale-Ready-To-Run-Online-Business-/251606780628?hash=item3a94eecad4:g:Ax8AAOSwl9BWG3Do
p103
aVhttp://www.ebay.com/itm/Satelite-TV-to-PC-Turnkey-Website-For-Sale-Ready-To-Run-Online-Business-/261551097912?hash=item3ce5a90838:g:tpoAAOSw9mFWG3FN
p104
aVhttp://www.ebay.com/itm/Offline-Marketing-Tactics-Turnkey-Website-For-Sale-Ready-To-Run-Online-Business-/261533008004?hash=item3ce4950084:g:N08AAOSw5ZBWG1tS
p105
aVhttp://www.ebay.com/itm/Traffic-Generation-Turnkey-Website-For-Sale-Ready-To-Run-Online-Business-/251583279979?hash=item3a9388336b:g:Ds4AAOSw4HVWFQl0
p106
aVhttp://www.ebay.com/itm/Six-Pack-Abs-Blog-Turnkey-Website-For-Sale-Ready-To-Run-Online-Business-/261527792256?hash=item3ce4456a80:g:CjIAAOSwAodWFQlN
p107
aVhttp://www.ebay.com/itm/Pregnancy-Blog-Turnkey-Website-For-Sale-Ready-To-Run-Online-Business-/261527792042?hash=item3ce44569aa:g:vjcAAOSwVL1WFQkm
p108
aVhttp://www.ebay.com/itm/Facebook-Marketing-Turnkey-Website-For-Sale-Ready-To-Run-Online-Business-/261527791545?epid=1488483022&hash=item3ce44567b9:g:huoAAOSwFnFWFRwJ
p109
aVhttp://www.ebay.com/itm/Dieting-and-Weight-Loss-Turnkey-Website-For-Sale-Ready-To-Run-Online-Business-/261527791357?hash=item3ce44566fd:g:uxQAAOSwunJWFRw0
p110
aVhttp://www.ebay.com/itm/YOUTUBE-GUIDE-PROFESSIONALLY-DESIGNED-TURNKEY-WEBSITE-WITH-INTEGRATED-STORE-/161355197533?hash=item259184ec5d:g:PpgAAOSwh6xTs~zE
p111
aVhttp://www.ebay.com/itm/TURNKEY-WEBSITE-MARKETPLACE-FULLY-DEVELOPED-AUTOMATED-BUSINESS-FOR-SALE-/161345340776?hash=item2590ee8568:g:Pb8AAOSwFTRTpvmY
p112
aVhttp://www.ebay.com/itm/Law-of-Attraction-Turnkey-Website-For-Sale-Ready-To-Run-Online-Business-/261511976542?hash=item3ce354165e:g:h68AAOSwT5tWG1ro
p113
aVhttp://www.ebay.com/itm/Make-Money-Jobs-Turnkey-Website-For-Sale-Ready-To-Run-Online-Business-/261511972459?hash=item3ce354066b:g:vvkAAOSw9mFWG1qP
p114
aVhttp://www.ebay.com/itm/No-More-Acid-Reflux-Turnkey-Website-For-Sale-Ready-To-Run-Online-Business-/261511965046?hash=item3ce353e976:g:PZQAAOSwwbdWObBd
p115
aVhttp://www.ebay.com/itm/Detox-Diet-Blog-Turnkey-Website-For-Sale-Ready-To-Run-Online-Business-/261511956482?hash=item3ce353c802:g:bMoAAOSwhcJWF7py
p116
aVhttp://www.ebay.com/itm/Forex-Profit-Tips-Turnkey-Website-For-Sale-Ready-To-Run-Online-Business-/251566184628?hash=item3a928358b4:g:XekAAOSwtlhWF7pD
p117
aVhttp://www.ebay.com/itm/Solar-Energy-Blog-Turnkey-Website-For-Sale-Ready-To-Run-Online-Business-/261511941791?hash=item3ce3538e9f:g:h14AAOSw9mFWF7qk
p118
aVhttp://www.ebay.com/itm/Sports-Betting-Tips-Turnkey-Website-For-Sale-Ready-To-Run-Online-Business-/251566168908?hash=item3a92831b4c:g:8lkAAOSw5ZBWF7rT
p119
aVhttp://www.ebay.com/itm/The-Best-Web-Hosts-Turnkey-Website-For-Sale-Ready-To-Run-Online-Business-/251566163461?hash=item3a92830605:g:DpYAAOSw14xWF7sG
p120
aVhttp://www.ebay.com/itm/Bodybuilding-Techniques-Turnkey-Website-For-Sale-Ready-To-Run-Online-Business-/251566153824?hash=item3a9282e060:g:uasAAOSwYHxWF7tO
p121
aVhttp://www.ebay.com/itm/Golf-Tips-And-Tricks-Turnkey-Website-For-Sale-Ready-To-Run-Online-Business-/261511920755?hash=item3ce3533c73:g:60EAAOSw~bFWF6hp
p122
aVhttp://www.ebay.com/itm/Learn-To-Play-Guitar-Turnkey-Website-For-Sale-Ready-To-Run-Online-Business-/261511916800?hash=item3ce3532d00:g:3jwAAOSw5VFWF6fX
p123
aVhttp://www.ebay.com/itm/Online-Dating-Tips-Turnkey-Website-For-Sale-Ready-To-Run-Online-Business-/261511915244?hash=item3ce35326ec:g:ClAAAOSwI-BWF6de
p124
aVhttp://www.ebay.com/itm/Skin-Care-Techniques-Turnkey-Website-For-Sale-Ready-To-Run-Online-Business-/251566142758?hash=item3a9282b526:g:yBUAAOSwo6lWF6al
p125
aVhttp://www.ebay.com/itm/Stop-Smoking-Now-Turnkey-Website-For-Sale-Ready-To-Run-Online-Business-/261511909297?hash=item3ce3530fb1:g:nokAAOSwA4dWF6Yu
p126
aVhttp://www.ebay.com/itm/Adsense-Tips-And-Tricks-Turnkey-Website-For-Sale-Ready-To-Run-Online-Business-/261511906720?hash=item3ce35305a0:g:v5IAAOSwunJWFRxY
p127
aVhttp://www.ebay.com/itm/Twitter-Traffic-Explosion-Turnkey-Website-For-Sale-Ready-To-Run-Online-Business-/251566112265?hash=item3a92823e09:g:E8gAAOSwAodWFQmZ
p128
aVhttp://www.ebay.com/itm/Weight-Loss-Turnkey-Website-For-Sale-Ready-To-Run-Online-Business-/251566110676?hash=item3a928237d4:g:mwsAAOSwVL1WFPYJ
p129
aVhttp://www.ebay.com/itm/Dog-Training-Blog-Complete-Turnkey-Website-For-Sale-Ready-To-Run-Online-Business-/251518259111?hash=item3a8fa80fa7:g:PyIAAOSwAYtWF7t6
p130
aVhttp://www.ebay.com/itm/Weight-Loss-Blog-Complete-Turnkey-Website-For-Sale-Ready-To-Run-Business-/261466620542?hash=item3ce0a0027e:g:ZnIAAOSwuWVWFO2~
p131
aVhttp://www.ebay.com/itm/Healthy-Living-Yoga-Turnkey-Website-For-Sale-Ready-To-Run-Online-Business-/261466619252?hash=item3ce09ffd74:g:xZgAAOSwnOJWFLwO
p132
aVhttp://www.ebay.com/itm/Travel-Tips-Blog-Complete-Turnkey-Website-For-Sale-Ready-To-Run-Online-Business-/251518252316?hash=item3a8fa7f51c:g:1IUAAOSwunJWFLxC
p133
aVhttp://www.ebay.com/itm/Healthy-Eating-Complete-Turnkey-Website-For-Sale-Ready-To-Run-Online-Business-/261466615876?hash=item3ce09ff044:g:2IgAAOSwunJWFLx3
p134
aVhttp://www.ebay.com/itm/Video-Gaming-Blog-Complete-Turnkey-Website-For-Sale-Ready-To-Run-Business-/251518248662?hash=item3a8fa7e6d6:g:ihAAAOSwFnFWFLyZ
p135
aVhttp://www.ebay.com/itm/SEO-Blog-Complete-Turnkey-Website-For-Sale-Ready-To-Run-Online-Business-/261466613144?hash=item3ce09fe598:g:v~4AAOxyBotTX6Tf
p136
aVhttp://www.ebay.com/itm/Graphic-Design-Complete-Turnkey-Website-For-Sale-Ready-To-Run-Online-Business-/251518245929?hash=item3a8fa7dc29:g:0bUAAOSwFnFWE3m~
p137
aVhttp://www.ebay.com/itm/Acne-Info-Complete-Turnkey-Website-For-Sale-Ready-To-Run-Online-Business-/251518244670?hash=item3a8fa7d73e:g:5g8AAOxyeglTX6Pi
p138
aVhttp://www.ebay.com/itm/Internet-Marketing-Turnkey-Website-For-Sale-Ready-To-Run-Online-Business-/251518244075?hash=item3a8fa7d4eb:g:-9kAAOSwFnFWEncP
p139
aVhttp://www.ebay.com/itm/Internet-Business-Complete-Turnkey-Website-For-Sale-Ready-To-Run-Online-Business-/251518242521?hash=item3a8fa7ced9:g:B50AAOSwsB9WEmic
p140
aVhttp://www.ebay.com/itm/Facebook-Marketing-Turnkey-Website-For-Sale-Ready-To-Run-Online-Business-/261466601241?hash=item3ce09fb719:g:5n0AAOSw4HVWEma8
p141
aVhttp://www.ebay.com/itm/Article-Marketing-Complete-Turnkey-Website-For-Sale-Ready-To-Run-Online-Business-/261466592442?hash=item3ce09f94ba:g:LN0AAOSwKIpWE3F9
p142
aVhttp://www.ebay.com/itm/Affiliate-Marketing-Turnkey-Website-For-Sale-Ready-To-Run-Online-Business-/261466589543?hash=item3ce09f8967:g:P30AAOSwKIpWElwO
p143
aVhttp://www.ebay.com/itm/Adsense-TIps-Complete-Turnkey-Website-For-Sale-Ready-To-Run-Online-Business-/261466585297?hash=item3ce09f78d1:g:3b8AAOSwNgxWEln9
p144
aVhttp://www.ebay.com/itm/Credit-Repair-Complete-Turnkey-Website-For-Sale-Ready-To-Run-Online-Business-/261466583215?hash=item3ce09f70af:g:u-oAAOSw37tWEleH
p145
aVhttp://www.ebay.com/itm/Acne-Guide-Blog-Complete-Turnkey-Website-Ready-To-Run-Dropship-Business-/251518147822?hash=item3a8fa65cee:g:h4MAAOSwwbdWH0vK
p146
aVhttp://www.ebay.com/itm/WIND-AND-SOLAR-PROFESSIONALLY-DESIGNED-TURNKEY-WEBSITE-WITH-INTEGRATED-STORE-/390726146365?hash=item5af917d93d:g:ogMAAOSwPcVVo56S
p147
aVhttp://www.ebay.com/itm/1-x-Hoppe-2W153-Upvc-Window-Handle-Key-Tilt-Turn-Key-Free-Postage-/230951621280?hash=item35c5ca12a0:g:O2kAAOSwpzdWsBYr
p148
aVhttp://www.ebay.com/itm/1-x-Roto-1G1-Upvc-Aluminium-Window-Handle-Tilt-Turn-Key-Free-Postage-/230917277920?epid=1188304664&hash=item35c3be08e0:g:hD0AAOSwvUlWqgRh
p149
aVhttp://www.ebay.com/itm/11x16-retro-magazine-advert-1987-TURNKEY-SHOP-d-ya-feel-lucky-punk-/360428494231?hash=item53eb365d97:m:m4pJgHmnApl7bjP4Djs-o1g
p150
aVhttp://www.ebay.com/itm/Teeth-Whitening-Tips-Turnkey-Website-For-Sale-Ready-To-Run-Online-Business-/261551936913?hash=item3ce5b5d591:g:txIAAOSwwbdWG6jl
p151
aVhttp://www.ebay.com/itm/Photography-Techniques-Turnkey-Website-For-Sale-Ready-To-Run-Online-Business-/251607571069?hash=item3a94fada7d:g:zPcAAOSwA4dWG6hs
p152
aVhttp://www.ebay.com/itm/Cashing-In-On-Paid-Surveys-Turnkey-Website-For-Sale-Ready-To-Run-Online-Business-/251607570040?hash=item3a94fad678:g:lrEAAOSwl9BWG6fV
p153
aVhttp://www.ebay.com/itm/Put-An-End-To-Depression-Turnkey-Website-For-Sale-Ready-To-Run-Online-Business-/251607207379?hash=item3a94f54dd3:g:T1gAAOSw9mFWG472
p154
aVhttp://www.ebay.com/itm/Seized-Car-Auctions-Turnkey-Website-For-Sale-Ready-To-Run-Online-Business-/251606798493?hash=item3a94ef109d:g:ce0AAOSw~bFWG463
p155
aVhttp://www.ebay.com/itm/Search-Public-Records-Turnkey-Website-For-Sale-Ready-To-Run-Online-Business-/261551110673?hash=item3ce5a93a11:g:PS4AAOSw9mFWG46c
p156
aVhttp://www.ebay.com/itm/Extreme-Fishing-Tips-Turnkey-Website-For-Sale-Ready-To-Run-Online-Business-/251606786380?hash=item3a94eee14c:g:IcUAAOSwwbdWG447
p157
aVhttp://www.ebay.com/itm/Build-A-Chicken-Coop-Turnkey-Website-For-Sale-Ready-To-Run-Online-Business-/251606784286?hash=item3a94eed91e:g:WP0AAOSw~bFWG44d
p158
aVhttp://www.ebay.com/itm/Vegetable-Gardening-Turnkey-Website-For-Sale-Ready-To-Run-Online-Business-/261551102207?hash=item3ce5a918ff:g:YR0AAOSwwbdWG3BZ
p159
aVhttp://www.ebay.com/itm/Golf-Swing-Pro-Guide-Turnkey-Website-For-Sale-Ready-To-Run-Online-Business-/251606780628?hash=item3a94eecad4:g:Ax8AAOSwl9BWG3Do
p160
aVhttp://www.ebay.com/itm/Satelite-TV-to-PC-Turnkey-Website-For-Sale-Ready-To-Run-Online-Business-/261551097912?hash=item3ce5a90838:g:tpoAAOSw9mFWG3FN
p161
aVhttp://www.ebay.com/itm/Offline-Marketing-Tactics-Turnkey-Website-For-Sale-Ready-To-Run-Online-Business-/261533008004?hash=item3ce4950084:g:N08AAOSw5ZBWG1tS
p162
aVhttp://www.ebay.com/itm/Traffic-Generation-Turnkey-Website-For-Sale-Ready-To-Run-Online-Business-/251583279979?hash=item3a9388336b:g:Ds4AAOSw4HVWFQl0
p163
aVhttp://www.ebay.com/itm/Six-Pack-Abs-Blog-Turnkey-Website-For-Sale-Ready-To-Run-Online-Business-/261527792256?hash=item3ce4456a80:g:CjIAAOSwAodWFQlN
p164
aVhttp://www.ebay.com/itm/Pregnancy-Blog-Turnkey-Website-For-Sale-Ready-To-Run-Online-Business-/261527792042?hash=item3ce44569aa:g:vjcAAOSwVL1WFQkm
p165
aVhttp://www.ebay.com/itm/Facebook-Marketing-Turnkey-Website-For-Sale-Ready-To-Run-Online-Business-/261527791545?epid=1488483022&hash=item3ce44567b9:g:huoAAOSwFnFWFRwJ
p166
aVhttp://www.ebay.com/itm/Dieting-and-Weight-Loss-Turnkey-Website-For-Sale-Ready-To-Run-Online-Business-/261527791357?hash=item3ce44566fd:g:uxQAAOSwunJWFRw0
p167
aVhttp://www.ebay.com/itm/YOUTUBE-GUIDE-PROFESSIONALLY-DESIGNED-TURNKEY-WEBSITE-WITH-INTEGRATED-STORE-/161355197533?hash=item259184ec5d:g:PpgAAOSwh6xTs~zE
p168
aVhttp://www.ebay.com/itm/TURNKEY-WEBSITE-MARKETPLACE-FULLY-DEVELOPED-AUTOMATED-BUSINESS-FOR-SALE-/161345340776?hash=item2590ee8568:g:Pb8AAOSwFTRTpvmY
p169
aVhttp://www.ebay.com/itm/Law-of-Attraction-Turnkey-Website-For-Sale-Ready-To-Run-Online-Business-/261511976542?hash=item3ce354165e:g:h68AAOSwT5tWG1ro
p170
aVhttp://www.ebay.com/itm/Make-Money-Jobs-Turnkey-Website-For-Sale-Ready-To-Run-Online-Business-/261511972459?hash=item3ce354066b:g:vvkAAOSw9mFWG1qP
p171
aVhttp://www.ebay.com/itm/No-More-Acid-Reflux-Turnkey-Website-For-Sale-Ready-To-Run-Online-Business-/261511965046?hash=item3ce353e976:g:PZQAAOSwwbdWObBd
p172
aVhttp://www.ebay.com/itm/Detox-Diet-Blog-Turnkey-Website-For-Sale-Ready-To-Run-Online-Business-/261511956482?hash=item3ce353c802:g:bMoAAOSwhcJWF7py
p173
aVhttp://www.ebay.com/itm/Forex-Profit-Tips-Turnkey-Website-For-Sale-Ready-To-Run-Online-Business-/251566184628?hash=item3a928358b4:g:XekAAOSwtlhWF7pD
p174
aVhttp://www.ebay.com/itm/Solar-Energy-Blog-Turnkey-Website-For-Sale-Ready-To-Run-Online-Business-/261511941791?hash=item3ce3538e9f:g:h14AAOSw9mFWF7qk
p175
aVhttp://www.ebay.com/itm/Sports-Betting-Tips-Turnkey-Website-For-Sale-Ready-To-Run-Online-Business-/251566168908?hash=item3a92831b4c:g:8lkAAOSw5ZBWF7rT
p176
aVhttp://www.ebay.com/itm/The-Best-Web-Hosts-Turnkey-Website-For-Sale-Ready-To-Run-Online-Business-/251566163461?hash=item3a92830605:g:DpYAAOSw14xWF7sG
p177
aVhttp://www.ebay.com/itm/Bodybuilding-Techniques-Turnkey-Website-For-Sale-Ready-To-Run-Online-Business-/251566153824?hash=item3a9282e060:g:uasAAOSwYHxWF7tO
p178
aVhttp://www.ebay.com/itm/Golf-Tips-And-Tricks-Turnkey-Website-For-Sale-Ready-To-Run-Online-Business-/261511920755?hash=item3ce3533c73:g:60EAAOSw~bFWF6hp
p179
aVhttp://www.ebay.com/itm/Learn-To-Play-Guitar-Turnkey-Website-For-Sale-Ready-To-Run-Online-Business-/261511916800?hash=item3ce3532d00:g:3jwAAOSw5VFWF6fX
p180
aVhttp://www.ebay.com/itm/Online-Dating-Tips-Turnkey-Website-For-Sale-Ready-To-Run-Online-Business-/261511915244?hash=item3ce35326ec:g:ClAAAOSwI-BWF6de
p181
aVhttp://www.ebay.com/itm/Skin-Care-Techniques-Turnkey-Website-For-Sale-Ready-To-Run-Online-Business-/251566142758?hash=item3a9282b526:g:yBUAAOSwo6lWF6al
p182
aVhttp://www.ebay.com/itm/Stop-Smoking-Now-Turnkey-Website-For-Sale-Ready-To-Run-Online-Business-/261511909297?hash=item3ce3530fb1:g:nokAAOSwA4dWF6Yu
p183
aVhttp://www.ebay.com/itm/Adsense-Tips-And-Tricks-Turnkey-Website-For-Sale-Ready-To-Run-Online-Business-/261511906720?hash=item3ce35305a0:g:v5IAAOSwunJWFRxY
p184
aVhttp://www.ebay.com/itm/Twitter-Traffic-Explosion-Turnkey-Website-For-Sale-Ready-To-Run-Online-Business-/251566112265?hash=item3a92823e09:g:E8gAAOSwAodWFQmZ
p185
aVhttp://www.ebay.com/itm/Weight-Loss-Turnkey-Website-For-Sale-Ready-To-Run-Online-Business-/251566110676?hash=item3a928237d4:g:mwsAAOSwVL1WFPYJ
p186
aVhttp://www.ebay.com/itm/Dog-Training-Blog-Complete-Turnkey-Website-For-Sale-Ready-To-Run-Online-Business-/251518259111?hash=item3a8fa80fa7:g:PyIAAOSwAYtWF7t6
p187
aVhttp://www.ebay.com/itm/Weight-Loss-Blog-Complete-Turnkey-Website-For-Sale-Ready-To-Run-Business-/261466620542?hash=item3ce0a0027e:g:ZnIAAOSwuWVWFO2~
p188
aVhttp://www.ebay.com/itm/Healthy-Living-Yoga-Turnkey-Website-For-Sale-Ready-To-Run-Online-Business-/261466619252?hash=item3ce09ffd74:g:xZgAAOSwnOJWFLwO
p189
aVhttp://www.ebay.com/itm/Travel-Tips-Blog-Complete-Turnkey-Website-For-Sale-Ready-To-Run-Online-Business-/251518252316?hash=item3a8fa7f51c:g:1IUAAOSwunJWFLxC
p190
aVhttp://www.ebay.com/itm/Healthy-Eating-Complete-Turnkey-Website-For-Sale-Ready-To-Run-Online-Business-/261466615876?hash=item3ce09ff044:g:2IgAAOSwunJWFLx3
p191
aVhttp://www.ebay.com/itm/Video-Gaming-Blog-Complete-Turnkey-Website-For-Sale-Ready-To-Run-Business-/251518248662?hash=item3a8fa7e6d6:g:ihAAAOSwFnFWFLyZ
p192
aVhttp://www.ebay.com/itm/SEO-Blog-Complete-Turnkey-Website-For-Sale-Ready-To-Run-Online-Business-/261466613144?hash=item3ce09fe598:g:v~4AAOxyBotTX6Tf
p193
aVhttp://www.ebay.com/itm/Graphic-Design-Complete-Turnkey-Website-For-Sale-Ready-To-Run-Online-Business-/251518245929?hash=item3a8fa7dc29:g:0bUAAOSwFnFWE3m~
p194
aVhttp://www.ebay.com/itm/Acne-Info-Complete-Turnkey-Website-For-Sale-Ready-To-Run-Online-Business-/251518244670?hash=item3a8fa7d73e:g:5g8AAOxyeglTX6Pi
p195
aVhttp://www.ebay.com/itm/Internet-Marketing-Turnkey-Website-For-Sale-Ready-To-Run-Online-Business-/251518244075?hash=item3a8fa7d4eb:g:-9kAAOSwFnFWEncP
p196
aVhttp://www.ebay.com/itm/Internet-Business-Complete-Turnkey-Website-For-Sale-Ready-To-Run-Online-Business-/251518242521?hash=item3a8fa7ced9:g:B50AAOSwsB9WEmic
p197
aVhttp://www.ebay.com/itm/Facebook-Marketing-Turnkey-Website-For-Sale-Ready-To-Run-Online-Business-/261466601241?hash=item3ce09fb719:g:5n0AAOSw4HVWEma8
p198
aVhttp://www.ebay.com/itm/Article-Marketing-Complete-Turnkey-Website-For-Sale-Ready-To-Run-Online-Business-/261466592442?hash=item3ce09f94ba:g:LN0AAOSwKIpWE3F9
p199
aVhttp://www.ebay.com/itm/Affiliate-Marketing-Turnkey-Website-For-Sale-Ready-To-Run-Online-Business-/261466589543?hash=item3ce09f8967:g:P30AAOSwKIpWElwO
p200
aVhttp://www.ebay.com/itm/Dog-Care-Guide-Turnkey-Store-Website-Adsense-Clickbank-Amazon-eBay-/381217726996?hash=item58c258e214:g:YPgAAOSwymxVInqw
p201
aVhttp://www.ebay.com/itm/SOFTWARE-STORE-WEBSITE-TURNKEY-ONLINE-BUSINESS-/381217721203?hash=item58c258cb73:g:H-YAAOSwkl5Xdlzo
p202
aVhttp://www.ebay.com/itm/SOFTWARE-STORE-WEBSITE-TURNKEY-ONLINE-BUSINESS-/381215679281?hash=item58c239a331:g:BG0AAOSw-89ZR8J0
p203
aVhttp://www.ebay.com/itm/Printer-Cartridges-Printer-Parts-Store-Turnkey-Online-Business-Website-For-Sale-/381215673864?hash=item58c2398e08:g:kqAAAOSwbfZVH6Xs
p204
aVhttp://www.ebay.com/itm/BOOK-STORE-Complete-Turnkey-Website-Amazon-Google-Ebay-Clickbank-Affiliate-/381210709322?hash=item58c1edcd4a:g:Tv0AAOSwZ1BXdnQc
p205
aVhttp://www.ebay.com/itm/Easy-Turn-Key-Holder-and-Turner-Ideal-for-Arthritis-sufferers-RRP-11-99-/291398189600?hash=item43d8af8220:g:ehQAAOSwpDdU9zix
p206
aVhttp://www.ebay.com/itm/eREADER-SHOP-Complete-Turnkey-Website-Amazon-Google-Adsense-Clickbank-Ebay-/381161451465?hash=item58befe2fc9:g:YY8AAOSwrklU4v7J
p207
aVhttp://www.ebay.com/itm/177X61MM-TURN-KEY-TO-STOP-PRINTED-STICKER-LEGAL-LETTERING-MINIBUS-TAXI-BUS-/131403415787?hash=item1e984100eb:g:lEMAAOSwqu9U-Ct1
p208
aVhttp://www.ebay.com/itm/Turnkey-Travel-Hotel-Booking-Search-Engine-Website-business-Automated-System-/151540503144?hash=item2348849268:g:-n0AAOSw7ThUqWdK
p209
aVhttp://www.ebay.com/itm/Turnkey-News-Website-100-Automated-Hot-Wordpress-Celebrity-Gossip-Blog-/151523990457?hash=item2347889bb9:g:19AAAOSwQiRUl3ho
p210
aVhttp://www.ebay.com/itm/CT1637-26PC-Hose-Clamp-Clip-With-Turn-Key-Assortment-13mm-25mm-Car-Storage-Box-/351252762735?epid=1061843898&hash=item51c84bd06f:g:11IAAOSwuMZZAfuJ
p211
aVhttp://www.ebay.com/itm/New-WEIGHT-LOSS-Store-Turnkey-Online-Business-Website-For-Sale-Free-Domain-Name-/381071047367?hash=item58b99abac7:g:lEkAAOSwabhUVxl5
p212
aVhttp://www.ebay.com/itm/100-Automated-Turnkey-Flights-Hotel-Car-VACATIONS-TRAVEL-1-4-Per-Lead-/151494246704?hash=item2345c2c130:g:y3QAAOSwj0NUeImL
p213
aVhttp://www.ebay.com/itm/INTERNET-MARKETING-TURNKEY-WEBSITE-BUSINESS-FOR-SALE-LINKS-EXCHANGE-/381063524290?hash=item58b927efc2:g:nBEAAOSwg3FUcfdH
p214
aVhttp://www.ebay.com/itm/JOAN-COLLINS-SALE-Orig-9-x-7-J-ARTHUR-RANK-Photo-TURN-KEY-SOFTLY-53-/171533769094?hash=item27f0359986:g:AUwAAOSwcF9UXSAG
p215
aVhttp://www.ebay.com/itm/New-Premium-Wedding-Dress-Website-for-Sale-Amazon-Automated-Turnkey-Websites-/221546499780?hash=item3395334ec4:g:KM0AAOSwq7JUEbgS
p216
aVhttp://www.ebay.com/itm/Become-A-Reiki-Master-Turnkey-Website-For-Sale-Ready-To-Run-Online-Business-/261552024699?hash=item3ce5b72c7b:g:DNUAAOSwo0JWH0eJ
p217
aVhttp://www.ebay.com/itm/Perfect-Vision-Naturally-Turnkey-Website-For-Sale-Ready-To-Run-Online-Business-/251607659754?hash=item3a94fc34ea:g:tjsAAOSwA4dWH0cV
p218
aVhttp://www.ebay.com/itm/Irritable-Bowel-Syndrome-Turnkey-Website-For-Sale-Ready-To-Run-Online-Business-/251607658007?hash=item3a94fc2e17:g:r7YAAOSwhcJWH0an
p219
aVhttp://www.ebay.com/itm/Cake-Decorating-Techniques-Turnkey-Website-For-Sale-Ready-To-Run-Online-Business-/251607574663?hash=item3a94fae887:g:MNIAAOSw5VFWG6k2
p220
aVhttp://www.ebay.com/itm/Teeth-Whitening-Tips-Turnkey-Website-For-Sale-Ready-To-Run-Online-Business-/261551936913?hash=item3ce5b5d591:g:txIAAOSwwbdWG6jl
p221
aVhttp://www.ebay.com/itm/Photography-Techniques-Turnkey-Website-For-Sale-Ready-To-Run-Online-Business-/251607571069?hash=item3a94fada7d:g:zPcAAOSwA4dWG6hs
p222
aVhttp://www.ebay.com/itm/Cashing-In-On-Paid-Surveys-Turnkey-Website-For-Sale-Ready-To-Run-Online-Business-/251607570040?hash=item3a94fad678:g:lrEAAOSwl9BWG6fV
p223
aVhttp://www.ebay.com/itm/Put-An-End-To-Depression-Turnkey-Website-For-Sale-Ready-To-Run-Online-Business-/251607207379?hash=item3a94f54dd3:g:T1gAAOSw9mFWG472
p224
aVhttp://www.ebay.com/itm/Seized-Car-Auctions-Turnkey-Website-For-Sale-Ready-To-Run-Online-Business-/251606798493?hash=item3a94ef109d:g:ce0AAOSw~bFWG463
p225
aVhttp://www.ebay.com/itm/Search-Public-Records-Turnkey-Website-For-Sale-Ready-To-Run-Online-Business-/261551110673?hash=item3ce5a93a11:g:PS4AAOSw9mFWG46c
p226
aVhttp://www.ebay.com/itm/Extreme-Fishing-Tips-Turnkey-Website-For-Sale-Ready-To-Run-Online-Business-/251606786380?hash=item3a94eee14c:g:IcUAAOSwwbdWG447
p227
aVhttp://www.ebay.com/itm/Build-A-Chicken-Coop-Turnkey-Website-For-Sale-Ready-To-Run-Online-Business-/251606784286?hash=item3a94eed91e:g:WP0AAOSw~bFWG44d
p228
aVhttp://www.ebay.com/itm/Vegetable-Gardening-Turnkey-Website-For-Sale-Ready-To-Run-Online-Business-/261551102207?hash=item3ce5a918ff:g:YR0AAOSwwbdWG3BZ
p229
aVhttp://www.ebay.com/itm/Golf-Swing-Pro-Guide-Turnkey-Website-For-Sale-Ready-To-Run-Online-Business-/251606780628?hash=item3a94eecad4:g:Ax8AAOSwl9BWG3Do
p230
aVhttp://www.ebay.com/itm/Satelite-TV-to-PC-Turnkey-Website-For-Sale-Ready-To-Run-Online-Business-/261551097912?hash=item3ce5a90838:g:tpoAAOSw9mFWG3FN
p231
aVhttp://www.ebay.com/itm/Offline-Marketing-Tactics-Turnkey-Website-For-Sale-Ready-To-Run-Online-Business-/261533008004?hash=item3ce4950084:g:N08AAOSw5ZBWG1tS
p232
aVhttp://www.ebay.com/itm/Traffic-Generation-Turnkey-Website-For-Sale-Ready-To-Run-Online-Business-/251583279979?hash=item3a9388336b:g:Ds4AAOSw4HVWFQl0
p233
aVhttp://www.ebay.com/itm/Six-Pack-Abs-Blog-Turnkey-Website-For-Sale-Ready-To-Run-Online-Business-/261527792256?hash=item3ce4456a80:g:CjIAAOSwAodWFQlN
p234
aVhttp://www.ebay.com/itm/Pregnancy-Blog-Turnkey-Website-For-Sale-Ready-To-Run-Online-Business-/261527792042?hash=item3ce44569aa:g:vjcAAOSwVL1WFQkm
p235
aVhttp://www.ebay.com/itm/Facebook-Marketing-Turnkey-Website-For-Sale-Ready-To-Run-Online-Business-/261527791545?epid=1488483022&hash=item3ce44567b9:g:huoAAOSwFnFWFRwJ
p236
aVhttp://www.ebay.com/itm/Dieting-and-Weight-Loss-Turnkey-Website-For-Sale-Ready-To-Run-Online-Business-/261527791357?hash=item3ce44566fd:g:uxQAAOSwunJWFRw0
p237
aVhttp://www.ebay.com/itm/YOUTUBE-GUIDE-PROFESSIONALLY-DESIGNED-TURNKEY-WEBSITE-WITH-INTEGRATED-STORE-/161355197533?hash=item259184ec5d:g:PpgAAOSwh6xTs~zE
p238
aVhttp://www.ebay.com/itm/TURNKEY-WEBSITE-MARKETPLACE-FULLY-DEVELOPED-AUTOMATED-BUSINESS-FOR-SALE-/161345340776?hash=item2590ee8568:g:Pb8AAOSwFTRTpvmY
p239
aVhttp://www.ebay.com/itm/Law-of-Attraction-Turnkey-Website-For-Sale-Ready-To-Run-Online-Business-/261511976542?hash=item3ce354165e:g:h68AAOSwT5tWG1ro
p240
aVhttp://www.ebay.com/itm/Make-Money-Jobs-Turnkey-Website-For-Sale-Ready-To-Run-Online-Business-/261511972459?hash=item3ce354066b:g:vvkAAOSw9mFWG1qP
p241
aVhttp://www.ebay.com/itm/No-More-Acid-Reflux-Turnkey-Website-For-Sale-Ready-To-Run-Online-Business-/261511965046?hash=item3ce353e976:g:PZQAAOSwwbdWObBd
p242
aVhttp://www.ebay.com/itm/Detox-Diet-Blog-Turnkey-Website-For-Sale-Ready-To-Run-Online-Business-/261511956482?hash=item3ce353c802:g:bMoAAOSwhcJWF7py
p243
aVhttp://www.ebay.com/itm/Forex-Profit-Tips-Turnkey-Website-For-Sale-Ready-To-Run-Online-Business-/251566184628?hash=item3a928358b4:g:XekAAOSwtlhWF7pD
p244
aVhttp://www.ebay.com/itm/Solar-Energy-Blog-Turnkey-Website-For-Sale-Ready-To-Run-Online-Business-/261511941791?hash=item3ce3538e9f:g:h14AAOSw9mFWF7qk
p245
aVhttp://www.ebay.com/itm/Sports-Betting-Tips-Turnkey-Website-For-Sale-Ready-To-Run-Online-Business-/251566168908?hash=item3a92831b4c:g:8lkAAOSw5ZBWF7rT
p246
aVhttp://www.ebay.com/itm/The-Best-Web-Hosts-Turnkey-Website-For-Sale-Ready-To-Run-Online-Business-/251566163461?hash=item3a92830605:g:DpYAAOSw14xWF7sG
p247
aVhttp://www.ebay.com/itm/Bodybuilding-Techniques-Turnkey-Website-For-Sale-Ready-To-Run-Online-Business-/251566153824?hash=item3a9282e060:g:uasAAOSwYHxWF7tO
p248
aVhttp://www.ebay.com/itm/Golf-Tips-And-Tricks-Turnkey-Website-For-Sale-Ready-To-Run-Online-Business-/261511920755?hash=item3ce3533c73:g:60EAAOSw~bFWF6hp
p249
aVhttp://www.ebay.com/itm/Learn-To-Play-Guitar-Turnkey-Website-For-Sale-Ready-To-Run-Online-Business-/261511916800?hash=item3ce3532d00:g:3jwAAOSw5VFWF6fX
p250
aVhttp://www.ebay.com/itm/Online-Dating-Tips-Turnkey-Website-For-Sale-Ready-To-Run-Online-Business-/261511915244?hash=item3ce35326ec:g:ClAAAOSwI-BWF6de
p251
aVhttp://www.ebay.com/itm/Skin-Care-Techniques-Turnkey-Website-For-Sale-Ready-To-Run-Online-Business-/251566142758?hash=item3a9282b526:g:yBUAAOSwo6lWF6al
p252
aVhttp://www.ebay.com/itm/Stop-Smoking-Now-Turnkey-Website-For-Sale-Ready-To-Run-Online-Business-/261511909297?hash=item3ce3530fb1:g:nokAAOSwA4dWF6Yu
p253
aVhttp://www.ebay.com/itm/Adsense-Tips-And-Tricks-Turnkey-Website-For-Sale-Ready-To-Run-Online-Business-/261511906720?hash=item3ce35305a0:g:v5IAAOSwunJWFRxY
p254
aVhttp://www.ebay.com/itm/Twitter-Traffic-Explosion-Turnkey-Website-For-Sale-Ready-To-Run-Online-Business-/251566112265?hash=item3a92823e09:g:E8gAAOSwAodWFQmZ
p255
aVhttp://www.ebay.com/itm/Weight-Loss-Turnkey-Website-For-Sale-Ready-To-Run-Online-Business-/251566110676?hash=item3a928237d4:g:mwsAAOSwVL1WFPYJ
p256
aVhttp://www.ebay.com/itm/Dog-Training-Blog-Complete-Turnkey-Website-For-Sale-Ready-To-Run-Online-Business-/251518259111?hash=item3a8fa80fa7:g:PyIAAOSwAYtWF7t6
p257
aVhttp://www.ebay.com/itm/Weight-Loss-Blog-Complete-Turnkey-Website-For-Sale-Ready-To-Run-Business-/261466620542?hash=item3ce0a0027e:g:ZnIAAOSwuWVWFO2~
p258
aVhttp://www.ebay.com/itm/Healthy-Living-Yoga-Turnkey-Website-For-Sale-Ready-To-Run-Online-Business-/261466619252?hash=item3ce09ffd74:g:xZgAAOSwnOJWFLwO
p259
aVhttp://www.ebay.com/itm/Travel-Tips-Blog-Complete-Turnkey-Website-For-Sale-Ready-To-Run-Online-Business-/251518252316?hash=item3a8fa7f51c:g:1IUAAOSwunJWFLxC
p260
aVhttp://www.ebay.com/itm/Healthy-Eating-Complete-Turnkey-Website-For-Sale-Ready-To-Run-Online-Business-/261466615876?hash=item3ce09ff044:g:2IgAAOSwunJWFLx3
p261
aVhttp://www.ebay.com/itm/Video-Gaming-Blog-Complete-Turnkey-Website-For-Sale-Ready-To-Run-Business-/251518248662?hash=item3a8fa7e6d6:g:ihAAAOSwFnFWFLyZ
p262
aVhttp://www.ebay.com/itm/SEO-Blog-Complete-Turnkey-Website-For-Sale-Ready-To-Run-Online-Business-/261466613144?hash=item3ce09fe598:g:v~4AAOxyBotTX6Tf
p263
aVhttp://www.ebay.com/itm/Graphic-Design-Complete-Turnkey-Website-For-Sale-Ready-To-Run-Online-Business-/251518245929?hash=item3a8fa7dc29:g:0bUAAOSwFnFWE3m~
p264
aVhttp://www.ebay.com/itm/Acne-Info-Complete-Turnkey-Website-For-Sale-Ready-To-Run-Online-Business-/251518244670?hash=item3a8fa7d73e:g:5g8AAOxyeglTX6Pi
p265
aVhttp://www.ebay.com/itm/Internet-Marketing-Turnkey-Website-For-Sale-Ready-To-Run-Online-Business-/251518244075?hash=item3a8fa7d4eb:g:-9kAAOSwFnFWEncP
p266
aVhttp://www.ebay.com/itm/Internet-Business-Complete-Turnkey-Website-For-Sale-Ready-To-Run-Online-Business-/251518242521?hash=item3a8fa7ced9:g:B50AAOSwsB9WEmic
p267
aVhttp://www.ebay.com/itm/Facebook-Marketing-Turnkey-Website-For-Sale-Ready-To-Run-Online-Business-/261466601241?hash=item3ce09fb719:g:5n0AAOSw4HVWEma8
p268
aVhttp://www.ebay.com/itm/Article-Marketing-Complete-Turnkey-Website-For-Sale-Ready-To-Run-Online-Business-/261466592442?hash=item3ce09f94ba:g:LN0AAOSwKIpWE3F9
p269
aVhttp://www.ebay.com/itm/Affiliate-Marketing-Turnkey-Website-For-Sale-Ready-To-Run-Online-Business-/261466589543?hash=item3ce09f8967:g:P30AAOSwKIpWElwO
p270
aVhttp://www.ebay.com/itm/Adsense-TIps-Complete-Turnkey-Website-For-Sale-Ready-To-Run-Online-Business-/261466585297?hash=item3ce09f78d1:g:3b8AAOSwNgxWEln9
p271
aVhttp://www.ebay.com/itm/Credit-Repair-Complete-Turnkey-Website-For-Sale-Ready-To-Run-Online-Business-/261466583215?hash=item3ce09f70af:g:u-oAAOSw37tWEleH
p272
aVhttp://www.ebay.com/itm/Acne-Guide-Blog-Complete-Turnkey-Website-Ready-To-Run-Dropship-Business-/251518147822?hash=item3a8fa65cee:g:h4MAAOSwwbdWH0vK
p273
aVhttp://www.ebay.com/itm/WIND-AND-SOLAR-PROFESSIONALLY-DESIGNED-TURNKEY-WEBSITE-WITH-INTEGRATED-STORE-/390726146365?hash=item5af917d93d:g:ogMAAOSwPcVVo56S
p274
aVhttp://www.ebay.com/itm/1-x-Hoppe-2W153-Upvc-Window-Handle-Key-Tilt-Turn-Key-Free-Postage-/230951621280?hash=item35c5ca12a0:g:O2kAAOSwpzdWsBYr
p275
aVhttp://www.ebay.com/itm/1-x-Roto-1G1-Upvc-Aluminium-Window-Handle-Tilt-Turn-Key-Free-Postage-/230917277920?epid=1188304664&hash=item35c3be08e0:g:hD0AAOSwvUlWqgRh
p276
aVhttp://www.ebay.com/itm/11x16-retro-magazine-advert-1987-TURNKEY-SHOP-d-ya-feel-lucky-punk-/360428494231?hash=item53eb365d97:m:m4pJgHmnApl7bjP4Djs-o1g
p277
a.