(lp0
Vhttp://www.ebay.com/itm/The-Godfather-Trilogy-Restored-Blu-ray-/281783243930?epid=70140968&hash=item419b97149a:g:VYMAAOSwMmBVnpCB
p1
aVhttp://www.ebay.com/itm/The-Hangover-Part-I-to-III-Trilogy-Boxset-New-Blu-ray-/311733635139?epid=169711429&hash=item4894c5c843:g:OKUAAOSwc-tY3QA9
p2
aVhttp://www.ebay.com/itm/Bronx-Warriors-Trilogy-DVD-NEW-/401310847130?epid=72514144&hash=item5d6ffd909a:g:cqYAAOSwJ4hY929q
p3
aVhttp://www.ebay.com/itm/Doctor-Who-The-Black-Guardian-Trilogy-Box-Set-DVD-/282075026727?epid=73347703&hash=item41acfb5527:g:QfcAAOSwGIRXaWy9
p4
aVhttp://www.ebay.com/itm/Star-Wars-The-Prequel-Trilogy-Episodes-I-III-New-DVD-/311433629317?epid=170380563&hash=item4882e40e85:g:ZKoAAOSw4CFY4BsW
p5
aVhttp://www.ebay.com/itm/The-Lost-Boys-Trilogy-DVD-Box-Set-NEW-/401219890508?epid=102186352&hash=item5d6a91ad4c:g:QHMAAOSwMVdYHIkK
p6
aVhttp://www.ebay.com/itm/Iron-Man-Trilogy-1-2-3-Movie-Complete-Box-Set-Collection-New-Sealed-DVD-/272633373818?epid=172913111&hash=item3f7a37247a:g:PdQAAOSwmCVY822H
p7
aVhttp://www.ebay.com/itm/The-Godfather-Trilogy-Restored-DVD-/281783243800?epid=65606061&hash=item419b971418:g:yk8AAOSwPcVVnoE-
p8
aVhttp://www.ebay.com/itm/BASKET-CASE-TRILOGY-3-DISC-New-Blu-Ray-/172710259980?epid=1361611777&hash=item2836556d0c:g:wMQAAOSwHJhXNR7Y
p9
aVhttp://www.ebay.com/itm/Iron-Man-Trilogy-1-2-and-3-Movie-Complete-Box-Set-New-Sealed-DVD-/132188016199?epid=172913111&hash=item1ec7050e47:g:J2sAAOSwZ4dZE0NQ
p10
aVhttp://www.ebay.com/itm/Middle-Earth-Lord-of-the-Rings-and-Hobbit-Trilogy-Collection-Blu-ray-New-/222483162328?epid=1390628971&hash=item33cd07a4d8:g:HScAAOSw53NY-dKL
p11
aVhttp://www.ebay.com/itm/BORGEN-Trilogy-Seasons-1-2-3-Region-2-UK-Brand-New-Sealed-Nordic-Noir-/232330151079?epid=1922839163&hash=item3617f4c4a7:g:gpgAAOSwaEhZEuTT
p12
aVhttp://www.ebay.com/itm/Iron-Man-Trilogy-1-2-3-Movie-Complete-Box-Set-Collection-New-DVD-/172743595682?epid=172913111&hash=item28385216a2:g:qVYAAOSwjKFZS90c
p13
aVhttp://www.ebay.com/itm/Martin-Ferrero-Susan-Kelle-Matrix-Trilogy-Blu-ray-NEW-/351976754373?epid=1304776523&hash=item51f3730cc5:g:yRIAAOSwImRYmvay
p14
aVhttp://www.ebay.com/itm/MUSIC-LEGENDS-MASTERCUTS-LEGENDS-THE-BEATLES-TRILOGY-3-DVD-BOX-SET-/400647428600?epid=113701994&hash=item5d487299f8:g:sOYAAOxycERRlhLG
p15
aVhttp://www.ebay.com/itm/The-Hannibal-Lecter-Trilogy-Box-Set-Blu-ray-/271968284288?epid=102188725&hash=item3f5292ae80:g:ZwsAAOSwe-FU7gi~
p16
aVhttp://www.ebay.com/itm/House-of-Cards-The-Trilogy-Box-Set-Blu-ray-/272195615995?epid=168210858&hash=item3f601f7cfb:g:VTYAAOSwJQdW~j7o
p17
aVhttp://www.ebay.com/itm/Spider-Man-Trilogy-Box-Set-DVD-/291548981095?epid=113799658&hash=item43e1ac6767:g:NtgAAOSwLVZV3aZ2
p18
aVhttp://www.ebay.com/itm/Captain-America-Trilogy-1-2-3-Movie-Complete-Box-Set-Collection-New-DVD-/361951670367?epid=1680637740&hash=item544600305f:g:q2cAAOSwB-1Y7PGz
p19
aVhttp://www.ebay.com/itm/Robocop-Trilogy-Box-Set-New-Sealed-Blu-Ray-Region-Free-/262945224304?epid=1528632562&hash=item3d38c1b670:g:88YAAOSwWiBY-KMd
p20
aVhttp://www.ebay.com/itm/THE-LITTLE-MERMAID-TRILOGY-BLU-RAY-NEW-SEALED-/121700615243?epid=168631494&hash=item1c55ec044b:g:z0wAAOxy4t1SjIl1
p21
aVhttp://www.ebay.com/itm/Smokey-And-The-Bandit-Trilogy-Burt-Reynolds-Jackie-Gleason-Sally-NEW-UK-R2-DVD-/282180784156?epid=1105018534&hash=item41b349101c:g:PT4AAOSwzaJX3XVN
p22
aVhttp://www.ebay.com/itm/Family-Guy-Trilogy-Laugh-It-Up-Fuzzball-Blu-ray-/231939907651?epid=168203887&hash=item3600b22043:g:JZcAAOSw5ZBWMQlx
p23
aVhttp://www.ebay.com/itm/A-Woman-of-Substance-Trilogy-New-DVD-Box-Set-Jenny-Seagrove-/172710321772?epid=1079921459&hash=item2836565e6c:g:0ZwAAOSwawpXuxIV
p24
aVhttp://www.ebay.com/itm/Bronx-Warriors-Trilogy-Vic-Morrow-NEW-DVD-Steelbook-/182603332469?epid=72514144&hash=item2a8401bb75:g:q60AAOSwknJXzIHN
p25
aVhttp://www.ebay.com/itm/3-Film-Box-Set-Mummy-Trilogy-Lenticular-DVD-New-DVD-Freddie-Boath-Rachel-/382151166727?epid=109982400&hash=item58f9fc0b07:m:mApbLUomAL0d9sqqTJfRVcw
p26
aVhttp://www.ebay.com/itm/The-Butterfly-Effect-Trilogy-Blu-ray-New-Sealed-/262718951096?epid=72944131&hash=item3d2b450eb8:m:mwIjkhu5wDKsBrJdw5UHmdQ
p27
aVhttp://www.ebay.com/itm/Kuno-Becker-GOAL-GOAL-II-2-GOAL-III-3-TRILOGY-Football-Films-UK-DVD-Set-/222191942703?epid=102237667&hash=item33bbabfc2f:g:vFAAAOSw6ShZXiYf
p28
aVhttp://www.ebay.com/itm/Underworld-Trilogy-Blu-ray-2009-3-Disc-Set-/152355761608?epid=72581810&hash=item23791c6dc8:m:mXDXxGkfRvdwRheZAHscZwA
p29
aVhttp://www.ebay.com/itm/THE-HOOD-TRILOGY-DVD-New-/201790149533?epid=2098239549&hash=item2efba1539d:g:-rcAAOSwZQRYbl70
p30
aVhttp://www.ebay.com/itm/Predator-Trilogy-Box-Set-3-Film-Collection-New-Sealed-Blu-Ray-Region-A-B-/262886089793?epid=1807782370&hash=item3d353b6441:g:O~YAAOSwol5Yv-1Y
p31
aVhttp://www.ebay.com/itm/Doctor-Who-The-E-Space-Trilogy-Full-Circle-State-of-Decay-Warriors-Gate-/361894965322?epid=72509234&hash=item54429ef04a:g:hIIAAOSwARZXjgud
p32
aVhttp://www.ebay.com/itm/The-Mummy-Trilogy-Box-Set-New-Sealed-Blu-Ray-Region-Free-/361575581764?epid=1321977869&hash=item542f958844:g:7s8AAOSww5hZNAcp
p33
aVhttp://www.ebay.com/itm/Crash-Bandicoot-N-Sane-Trilogy-Playstation-4-PS4-NEW-SEALED-/142445295003?epid=567454157&hash=item212a66b59b:g:7AcAAOSwlXhZaKTD
p34
aVhttp://www.ebay.com/itm/Back-to-the-Future-Trilogy-Flux-Capacitor-UK-Box-Set-Bluray-Region-Free-New-/162227483800?epid=1341836524&hash=item25c582f498:g:rmUAAOSwTA9X87eR
p35
aVhttp://www.ebay.com/itm/Ice-Age-Trilogy-DVD-/262116315685?epid=1305388039&hash=item3d07599225:g:at4AAOSw5VFWMQ~W
p36
aVhttp://www.ebay.com/itm/The-Dark-Knight-Trilogy-Blu-Ray-Region-Free-/262478153998?hash=item3d1ceac90e:g:TnoAAOSwgZ1XvR4M
p37
aVhttp://www.ebay.com/itm/A-Woman-of-Substance-Trilogy-DVD-5036193033193-Jenny-Seagrove-Deborah-Kerr-/351813505646?epid=1079921459&hash=item51e9b8126e:g:64UAAOSwaB5XtWw8
p38
aVhttp://www.ebay.com/itm/The-Mummy-Trilogy-Limited-Edition-Steelbook-Blu-Ray-/292143478114?hash=item44051bb562:g:kxMAAOSwjL5ZOEmy
p39
aVhttp://www.ebay.com/itm/The-Matrix-Trilogy-Box-Set-Blu-Ray-Region-Free-/361559407336?hash=item542e9ebae8:g:xXgAAOSwqBJXXBlc
p40
aVhttp://www.ebay.com/itm/Lord-of-The-Rings-Trilogy-All-Three-3-Theatrical-Versions-Blu-Ray-Set-/401242814249?epid=1204959319&hash=item5d6bef7729:g:aogAAOSw4GVYUWNY
p41
aVhttp://www.ebay.com/itm/Spider-Man-Trilogy-Blu-ray-2007-Region-Free-Brand-New-and-Sealed-/281716549893?epid=61638569&hash=item41979d6905:g:UOgAAOSwu4BVxF1n
p42
aVhttp://www.ebay.com/itm/Back-To-The-Future-Trilogy-Blu-Ray-/291556136555?epid=1242095536&hash=item43e219966b:g:AHYAAOSwgQ9V6Yd6
p43
aVhttp://www.ebay.com/itm/The-Chocky-Trilogy-Complete-Series-3xDVD-Set-Region-Free-1984-New-Sealed-/222506216696?epid=1164892924&hash=item33ce676cf8:g:LZ0AAOSwlY1ZEzJK
p44
aVhttp://www.ebay.com/itm/The-Worricker-Trilogy-Box-Set-DVD-/291548982029?epid=1326416350&hash=item43e1ac6b0d:g:4tAAAOSwT6pV3aal
p45
aVhttp://www.ebay.com/itm/The-Hobbit-Trilogy-Blu-ray-3D-Blu-ray-2015-Region-Free-5051892188487-/351902422787?epid=1837518244&hash=item51ef04d703:g:ptEAAOSw0fhXjhDc
p46
aVhttp://www.ebay.com/itm/Bradley-Cooper-Heather-Graham-Hangover-Trilogy-Blu-ray-NEW-/301779821102?epid=169711429&hash=item46437aa22e:g:nDYAAOSwI-BWLj~j
p47
aVhttp://www.ebay.com/itm/Star-Wars-The-Original-Trilogy-Blu-Ray-New-Fast-Post-/332148197656?epid=102502374&hash=item4d55934918:g:U0YAAOSwiylXA4uE
p48
aVhttp://www.ebay.com/itm/Zombie-Army-Trilogy-PS4-Game-Brand-New-/352039443328?epid=1141555897&hash=item51f72f9b80:g:IIAAAOSw~y9ZBtU1
p49
aVhttp://www.ebay.com/itm/Tom-Baker-Lalla-Ward-Doctor-Who-E-space-Trilogy-DVD-NEW-/302268843176?epid=72509234&hash=item4660a084a8:g:1ogAAOSwA29Y3iV3
p50
aVhttp://www.ebay.com/itm/Predator-Trilogy-Bluray-Box-Set-NEW-/401220090788?epid=168112451&hash=item5d6a94bba4:g:AVQAAOSwKOJYHPC~
p51
aVhttp://www.ebay.com/itm/The-Hobbit-Trilogy-Steelbook-Bluray-2D-Italian-Edition-Region-B-New-and-Sealed-/162339660303?epid=2112170794&hash=item25cc32a20f:g:EiMAAOSwopRYZvCe
p52
aVhttp://www.ebay.com/itm/Darkman-Trilogy-Blu-ray-NEW-SEALED-Liam-Neeson-/262108681623?hash=item3d06e51597:g:TawAAOSw9mFWKkBK
p53
aVhttp://www.ebay.com/itm/Basket-Case-Trilogy-3-Disc-Blu-Ray-BLU-RAY-NEW-/282422226934?epid=1161596265&hash=item41c1ad2ff6:g:bUUAAOSwmgJY5KOf
p54
aVhttp://www.ebay.com/itm/The-Girl-Trilogy-Extended-Versions-4-Discs-/262487636846?epid=102567704&hash=item3d1d7b7b6e:g:x0UAAOSwAYtWKgWC
p55
aVhttp://www.ebay.com/itm/Elijah-Wood-Sean-Bean-Lord-of-the-Rings-Trilogy-Blu-ray-NEW-/282455042197?epid=1007911244&hash=item41c3a1e895:g:ADYAAOSw42dZBsqX
p56
aVhttp://www.ebay.com/itm/The-Naked-Gun-Trilogy-DVD-/281782210380?epid=73294918&hash=item419b874f4c:g:inIAAOSwPcVV3EPC
p57
aVhttp://www.ebay.com/itm/The-Hannibal-Lecter-Trilogy-Box-Set-DVD-/271968338985?epid=102143394&hash=item3f52938429:g:0fMAAOSwPYZU9Duy
p58
aVhttp://www.ebay.com/itm/Batman-The-Dark-Knight-Trilogy-Complete-Box-Set-Collection-New-DVD-/361847502724?epid=168135981&hash=item543fcab784:g:JG4AAOSwmLlX-pFR
p59
aVhttp://www.ebay.com/itm/Lord-Of-The-Rings-Motion-Picture-Trilogy-Film-Edition-triple-3-DVD-New-Sealed-/370965142505?epid=1804945885&hash=item565f3edbe9:g:ymgAAOSwR0JUT9cW
p60
aVhttp://www.ebay.com/itm/The-Lord-of-the-Rings-Trilogy-DVD-Slimline-Box-Set-NEW-/401360769818?epid=1804945885&hash=item5d72f7531a:g:dacAAOSwq~tZXjw~
p61
aVhttp://www.ebay.com/itm/MEN-IN-BLACK-TRILOGY-BLU-RAY-1-2-AND-3-NEW-SEALED-UK-STOCK-/122423927531?epid=115384936&hash=item1c8108e2eb:g:eg8AAOSwx-9WxH46
p62
aVhttp://www.ebay.com/itm/STAR-WARS-ORIGINAL-TRILOGY-4-6-Theatrical-Remastered-4-5-6-New-UK-6-Discs-DVD-/282336916298?epid=70598216&hash=item41bc97734a:g:z5MAAOSw5cNYh2-a
p63
aVhttp://www.ebay.com/itm/JOHNNY-MCEVOY-TRILOGY-LEGENDS-OF-IRISH-FOLK-3-CD-SET-/121380564633?epid=63104748&hash=item1c42d86e99:g:5KEAAOSwbqpTuqmO
p64
aVhttp://www.ebay.com/itm/HANNIBAL-LECTER-TRILOGY-HANNIBAL-SILENCE-OF-THE-LAMBS-DVD-REGION-2-UK-/162223883347?epid=102143394&hash=item25c54c0453:m:m0agQc2v0Le9aWq1IVoiQTQ
p65
aVhttp://www.ebay.com/itm/Death-Race-Trilogy-1-2-3-Collection-Blu-ray-Boxset-New-Sealed-/262921251107?hash=item3d3753e923:g:51UAAOSwCU1Y4bEH
p66
aVhttp://www.ebay.com/itm/Zeitgeist-TRILOGY-The-Movie-Addendum-Moving-Forward-Conspiracy-Truth-DVD-R-/111804072563?hash=item1a080ac273:g:RewAAOSw5VFWKShY
p67
aVhttp://www.ebay.com/itm/Lord-Of-The-Rings-Motion-Picture-Trilogy-Film-Edition-3-Blu-Ray-DVD-New-Sealed-/351223699241?epid=1204959319&hash=item51c6905729:g:0xIAAOSw6EhUT9cV
p68
aVhttp://www.ebay.com/itm/The-Hannibal-Lecter-Trilogy-Box-Set-New-Sealed-Blu-Ray-Region-Free-/361559282955?epid=1121903233&hash=item542e9cd50b:g:L5wAAOSw~oFXOD3d
p69
aVhttp://www.ebay.com/itm/The-Hobbit-Trilogy-Extended-Edition-Blu-ray-3D-Brand-New-/352039447334?epid=1042095507&hash=item51f72fab26:m:m9LDwQBUORMLu0WioiQeP5w
p70
aVhttp://www.ebay.com/itm/THE-LION-KING-TRILOGY-DISNEY-BLU-RAY-BOXSET-NEW-AND-SEALED-UK-RELEASE-/262589120152?hash=item3d2387fe98:g:BdMAAOSwa39UxPis
p71
aVhttp://www.ebay.com/itm/American-Pie-The-Threesome-Trilogy-Box-Set-DVD-Very-Good-DVD-Alyson-Hanni-/222456608620?epid=30049513&hash=item33cb72776c:m:miheToumWy3P808H2dMHmtg
p72
aVhttp://www.ebay.com/itm/Hobbit-Trilogy-Extended-Edition-DVD-NEW-/351999977926?epid=1842108739&hash=item51f4d569c6:g:UKAAAOSwTM5YwA2D
p73
aVhttp://www.ebay.com/itm/Back-to-the-Future-Trilogy-Box-Set-with-UltraViolet-Copy-Blu-ray-/271968319738?epid=169711449&hash=item3f529338fa:g:mL4AAOSwKtlWpzNf
p74
aVhttp://www.ebay.com/itm/Batman-The-Dark-Knight-Trilogy-Ultimate-Collectors-Edition-Blu-ray-Box-Set-NEW-/201654896369?epid=1317665035&hash=item2ef39186f1:g:0dMAAOSwqu9U8iX9
p75
aVhttp://www.ebay.com/itm/Mass-Effect-Trilogy-PS3-Brand-New-Sealed-/391833757236?epid=1239149727&hash=item5b3b1ca634:g:xeYAAOSwuLZY4~-K
p76
aVhttp://www.ebay.com/itm/Hannibal-Lecter-Trilogy-Red-Dragon-Silence-of-the-Lambs-Blu-Ray-Box-Set-NEW-/141027213920?hash=item20d5e08260:m:mwCFfiTFKlAO2Axb6eFas5Q
p77
aVhttp://www.ebay.com/itm/THE-LIBRARIAN-TRILOGY-1-2-3-Box-Set-DVD-PAL-Region-2-New-/161838918714?hash=item25ae59ec3a:g:~CYAAOSwpDdVcKq5
p78
aVhttp://www.ebay.com/itm/Mission-Impossible-Extreme-Blu-ray-Trilogy-New-and-Sealed-/141949106394?epid=109429397&hash=item210cd378da:g:2yQAAOSwNSxU-NEU
p79
aVhttp://www.ebay.com/itm/Star-Wars-The-Original-Trilogy-Episodes-IV-VI-Blu-ray-1977-503903604669-/391557439278?epid=102502374&hash=item5b2aa45f2e:g:rcEAAOSwIgNXjg6D
p80
aVhttp://www.ebay.com/itm/Batman-The-Dark-Knight-Trilogy-1-2-3-Complete-Blu-ray-Boxset-Boxed-Set-New-/262264924376?hash=item3d103528d8:g:QTsAAOSw5IJWf0tb
p81
aVhttp://www.ebay.com/itm/3-NINJAS-TRILOGY-DVD-High-Noon-At-Mega-Mountain-Kick-Back-Knuckle-Up-Triple-/282219095177?epid=44098979&hash=item41b591a489:g:xCcAAOSw6dNWT3xW
p82
aVhttp://www.ebay.com/itm/Star-Wars-The-Original-Trilogy-Episodes-IV-VI-New-DVD-/400984902723?epid=170085350&hash=item5d5c900c43:g:UiIAAOSwSlBY4NvC
p83
aVhttp://www.ebay.com/itm/Ian-McKellen-Andy-Serkis-Hobbit-Trilogy-Blu-ray-NEW-/352105635279?epid=1237742122&hash=item51fb219dcf:g:P6kAAOSwd~RZW~LE
p84
aVhttp://www.ebay.com/itm/The-Godfather-The-Complete-Trilogy-Box-Set-Collection-New-Sealed-Blu-ray-/271312017595?epid=70140968&hash=item3f2b74d8bb:g:4xsAAOSwud1XAWUS
p85
aVhttp://www.ebay.com/itm/The-Mighty-Ducks-Trilogy-Complete-Collection-1-2-3-Box-Set-New-Sealed-DVD-/361859361157?epid=77425000&hash=item54407fa985:g:3xoAAOSwqu9UzkdN
p86
aVhttp://www.ebay.com/itm/DHOOM-TRILOGY-1-2-3-SPECIAL-BLU-RAY-4-DISC-SET-FREE-POST-/171663263370?hash=item27f7ed868a:g:4MgAAOSwBahUzIsU
p87
aVhttp://www.ebay.com/itm/DHOOM-TRILOGY-1-2-3-SPECIAL-BLU-RAY-4-DISC-SET-FREE-POST-/171663263370?hash=item27f7ed868a:g:4MgAAOSwBahUzIsU
p88
aVhttp://www.ebay.com/itm/The-Ninja-Trilogy-Enter-The-Ninja-Revenge-Of-The-Ninja-Ninja-III-The-Domi-/361922808310?hash=item544447c9f6:g:hFwAAOSwMsVXjhEG
p89
aVhttp://www.ebay.com/itm/The-Mummy-Trilogy-Blu-ray-Complete-3-Film-Collection-Box-Set-Region-B-2-NEW-/122044970284?epid=1021968134&hash=item1c6a72752c:g:yHYAAOSw7XBY8aj9
p90
aVhttp://www.ebay.com/itm/Back-To-The-Future-Trilogy-DVD-/291555552939?epid=1242105595&hash=item43e210aeab:g:p5QAAOSwCypWpzLf
p91
aVhttp://www.ebay.com/itm/The-Little-Mermaid-1-2-3-Movie-Trilogy-Box-Set-Collection-Disney-New-DVD-/361797964443?epid=168626665&hash=item543cd6d29b:g:qVUAAOSweuxWT0yD
p92
aVhttp://www.ebay.com/itm/Spider-Man-Trilogy-DVD-Box-Set-NEW-/401219864499?epid=113799658&hash=item5d6a9147b3:g:j4sAAOSwal5YHHwc
p93
aVhttp://www.ebay.com/itm/The-Red-Riding-Trilogy-DVD-2009-Box-set-Sean-Bean-BRAND-NEW-REGION-2-/112291512465?epid=72561289&hash=item1a25188091:m:mGL8MnBTCbzJ_lGrsdqMmvg
p94
aVhttp://www.ebay.com/itm/RUNAWAY-TRILOGY-1-2-3-Pc-DVD-Rom-3-Point-Click-Adventures-FAST-POST-/172611020420?epid=129346170&hash=item28306b2684:g:-FUAAOSwwPtTwVjT
p95
aVhttp://www.ebay.com/itm/Prince-of-Persia-Trilogy-PS3-Playstation-3-Classics-HD-FREE-UK-POSTAGE-/122409789448?epid=129298899&hash=item1c80312808:g:zTUAAOSwhcJWOm93
p96
aVhttp://www.ebay.com/itm/Red-vs-Blue-The-Chorus-Trilogy-Steelbook-Season-11-13-Blu-ray-50223669502-/391781995491?epid=1374856516&hash=item5b3806d3e3:g:UWwAAOSwdzVXlHWK
p97
aVhttp://www.ebay.com/itm/Batman-The-Dark-Knight-Trilogy-Complete-Box-Set-Collection-New-Blu-ray-/282151363136?epid=1337091820&hash=item41b1882240:g:gOQAAOSwxYxUw5qc
p98
aVhttp://www.ebay.com/itm/DEATH-RACE-TRILOGY-1-2-3-One-Two-Jason-Statham-Violent-Car-Action-DVD-EXC-/272530327262?epid=168122334&hash=item3f7412c6de:g:x0gAAOSw9GhYg73B
p99
aVhttp://www.ebay.com/itm/David-Arquette-Neve-Campbell-Scream-Trilogy-Blu-ray-NEW-/352033750141?epid=1405868883&hash=item51f6d8bc7d:g:9TcAAOSwN6JY9jXi
p100
aVhttp://www.ebay.com/itm/ps3-RATCHET-And-CLANK-TRILOGY-1-2-3-Collection-Playstation-PAL-REGION-FREE-/142378862575?hash=item21267107ef:g:9bAAAOSwDuJWwx2q
p101
aVhttp://www.ebay.com/itm/Middle-Earth-Lord-of-the-Rings-and-Hobbit-Trilogy-Collection-Blu-ray-Used-/222483174405?epid=1390628971&hash=item33cd07d405:g:fFEAAOSwWWxY-dbq
p102
aVhttp://www.ebay.com/itm/The-Hangover-Trilogy-Box-Set-New-Sealed-Bu-Ray-Region-Free-/361909312163?epid=1123591940&hash=item544379daa3:g:aVsAAOSwax5YqvbX
p103
aVhttp://www.ebay.com/itm/House-of-Cards-The-Trilogy-Box-Set-DVD-/281874226492?epid=168235803&hash=item41a1035d3c:g:IysAAOSwfZ1WYBGz
p104
aVhttp://www.ebay.com/itm/Underworld-Trilogy-1-3-Blu-Ray-Brand-New-/292096644687?epid=72581810&hash=item440251164f:g:HQ8AAOSwxu5ZEYmR
p105
aVhttp://www.ebay.com/itm/The-Sly-Trilogy-PS3-Playstation-3-Classics-HD-FREE-UK-POSTAGE-/292128633252?epid=129373198&hash=item44043931a4:g:VrwAAOSwAANY56Yf
p106
aVhttp://www.ebay.com/itm/Ralph-Macchio-KARATE-KID-Trilogy-UK-DVD-Box-Set-1-2-3-with-Ltd-Ed-Slipcover-/231911382646?epid=69934814&hash=item35fefede76:g:YJYAAOSwpINZZ6fi
p107
aVhttp://www.ebay.com/itm/Ratchet-and-Clank-Trilogy-Game-for-PlayStation-Vita-PSVITA-PAL-UK-New-Sealed-/382110714125?epid=1228638781&hash=item58f792c90d:g:7dEAAOSwlY1ZMAIh
p108
aVhttp://www.ebay.com/itm/The-Lord-of-the-Rings-Trilogy-Steelbook-Bluray-Italain-Edition-Region-B-New-/162395890509?hash=item25cf8ca34d:g:U4gAAOSwOgdYozbQ
p109
aVhttp://www.ebay.com/itm/The-Evil-Dead-Trilogy-Bluray-Box-Set-NEW-/401220274939?epid=1708190648&hash=item5d6a978afb:g:PbEAAOSwcUBYHVZE
p110
aVhttp://www.ebay.com/itm/Star-Wars-The-Original-Trilogy-Episodes-IV-VI-Box-Set-New-Sealed-DVD-/361425743356?epid=170085350&hash=item5426a72dfc:g:HqsAAOSwt5hYbB2n
p111
aVhttp://www.ebay.com/itm/3-NINJAS-TRILOGY-DVD-HIGH-NOON-AT-MEGA-MOUNTAIN-KICK-BACK-KNUCKLE-UP-kids-/272547840399?epid=44098979&hash=item3f751e018f:g:lFwAAOSwImRYmJSO
p112
aVhttp://www.ebay.com/itm/The-Godfather-Trilogy-1-2-3-Complete-Collection-Blu-ray-Boxset-Boxed-Set-New-/262270236941?hash=item3d1086390d:g:Wv8AAOSwYaFWgIxd
p113
aVhttp://www.ebay.com/itm/HOBBIT-DVD-FILM-TRILOGY-NEW-BOX-SET-/381519278945?epid=1237594092&hash=item58d4523361:g:LYUAAOSwymxVOhQE
p114
aVhttp://www.ebay.com/itm/MORTAL-KOMBAT-TRILOGY-1-2-3-Annihilation-Conquest-Martial-Arts-Action-DVD-EXC-/281747019095?epid=30588022&hash=item41996e5557:g:0P0AAOSwmLlX~Y2w
p115
aVhttp://www.ebay.com/itm/Jean-Michel-Cousteaus-Film-Trilogy-in-3D-3D-Edition-Blu-ray-/291548998882?epid=102187452&hash=item43e1acace2:g:lC0AAOSwzrxUv2Ui
p116
aVhttp://www.ebay.com/itm/Spider-Man-Trilogy-Box-Set-DVD-/291631447942?epid=1542216298&hash=item43e696bf86:g:mEEAAOSwfZ1WYae3
p117
aVhttp://www.ebay.com/itm/THE-LORD-OF-THE-RINGS-THE-MOTION-PICTURE-TRILOGY-3-Disc-Set-/181778591330?epid=1804945885&hash=item2a52d92e62:g:YUQAAOSwWKtUx3cP
p118
aVhttp://www.ebay.com/itm/HOUSE-OF-CARDS-THE-UK-TRILOGY-1990-DVD-REGION-2-UK-/162223911165?epid=168235803&hash=item25c54c70fd:m:mbxEOSE-ojgWAmVZU3dTqIg
p119
aVhttp://www.ebay.com/itm/THE-CHRONICLES-OF-NARNIA-TRILOGY-BLURAY-NEW-SEALED-/282548669208?epid=1008101643&hash=item41c9368b18:g:dm0AAOSwSzRZVN1j
p120
aVhttp://www.ebay.com/itm/The-Complete-Matrix-Trilogy-New-Sealed-Blu-ray-/281170800361?epid=69611860&hash=item417715eee9:g:LGgAAOSwk5FU1mmQ
p121
aVhttp://www.ebay.com/itm/The-Samurai-Trilogy-The-Criterion-Collection-Restored-Blu-ray-/282128791309?epid=1980721147&hash=item41b02fb70d:g:mzoAAOSwV0RXqZqu
p122
aVhttp://www.ebay.com/itm/PS3-The-Arland-Atelier-Trilogy-3-Game-Collection-/252847355233?epid=210785643&hash=item3adee07561:g:HNsAAOSwc-tY5nAB
p123
aVhttp://www.ebay.com/itm/The-Complete-Matrix-Trilogy-Blu-ray-1999-Region-Free-7321900220453-Kean-/361837258245?epid=69611860&hash=item543f2e6605:g:uEEAAOSwbsBXjguF
p124
aVhttp://www.ebay.com/itm/From-Dusk-Till-Dawn-Trilogy-DVD-2002-4-Disc-Set-/271879547950?epid=3951533&hash=item3f4d48ac2e:m:myxdJ9wkCUG80aqp_rGv-tQ
p125
aVhttp://www.ebay.com/itm/Children-Of-The-Corn-Trilogy-Blu-Ray-NEW-/282137868709?epid=1256858133&hash=item41b0ba39a5:g:350AAOSwV0RXsoJj
p126
aVhttp://www.ebay.com/itm/CARLOS-THE-JACKAL-THE-MOVIE-AND-TRILOGY-BLU-RAY-REGION-B-UK-/162222898273?epid=102194036&hash=item25c53cfc61:g:xBcAAOSwpLNX7oGz
p127
aVhttp://www.ebay.com/itm/Vengeance-Trilogy-Boxset-New-Blu-Ray-/172731545893?epid=171361694&hash=item28379a3925:g:uYIAAOSw2gxYvSjt
p128
aVhttp://www.ebay.com/itm/New-Sealed-Back-to-the-Future-Trilogy-Steelbook-Bluray-UK-Editions-/162168878679?epid=1844700509&hash=item25c204b657:g:D00AAOSwyKxXg~yR
p129
aVhttp://www.ebay.com/itm/Dragonheart-The-Trilogy-DVD-2014-Films-Movies-1-2-3-Box-Set-Collection-NEW-REG2-/122209037306?epid=1837515653&hash=item1c7439ebfa:g:iYgAAOSwImRYGZFX
p130
aVhttp://www.ebay.com/itm/The-Mummy-Trilogy-Box-Set-New-Sealed-4k-Ultra-HD-Blu-Ray-Region-Free-/263019627576?hash=item3d3d310438:g:Ox4AAOSwGJlZNAkF
p131
aVhttp://www.ebay.com/itm/Scream-Trilogy-Box-Set-Blu-Ray-Region-B-Not-US-/361589533434?epid=1405868883&hash=item54306a6afa:g:hggAAOSwMNxXWVsF
p132
aVhttp://www.ebay.com/itm/Lion-King-Trilogy-DVD-NEW-/302288443094?epid=1733373078&hash=item4661cb96d6:g:1CQAAOSwVm5Y9ujr
p133
aVhttp://www.ebay.com/itm/The-Dark-Knight-Trilogy-Blu-ray-5-Disc-Set-NEW-SEALED-/321748884358?hash=item4ae9ba5b86:g:vEYAAOSwa-dWsjFD
p134
aVhttp://www.ebay.com/itm/The-Godfather-trilogy-complete-4-disc-The-Coppola-Restoration-NEW-BLU-RAY-/192040075852?epid=70140968&hash=item2cb67b024c:m:m3ShdIixJFkee0MOnTvkawg
p135
aVhttp://www.ebay.com/itm/House-of-Cards-The-Trilogy-1996-New-DVD-/311442552226?epid=168235803&hash=item48836c35a2:g:e8UAAOSwol5Y48~j
p136
aVhttp://www.ebay.com/itm/The-Hood-Trilogy-DVD-Kidulthood-Adulthood-Brotherhood-New-Sealed-Free-UK-Postage-/112294807121?hash=item1a254ac651:g:D6cAAOSw44BYmKZL
p137
aVhttp://www.ebay.com/itm/Hinterland-Trilogy-The-Complete-Series-Collection-Season-1-2-3-NEW-DVD-SET-/142412541810?epid=826244585&hash=item212872ef72:g:yogAAOSwstJZPoW5
p138
aVhttp://www.ebay.com/itm/Star-Wars-The-Original-Trilogy-DVD-2013-3-Disc-Set-New-Fast-Post-/332148358469?epid=170085350&hash=item4d5595bd45:g:nT0AAOSwYmZXGSs~
p139
aVhttp://www.ebay.com/itm/Darkman-Trilogy-3-Disc-Set-Blu-ray-5030697030740-Liam-Neeson-Frances-McD-/361829056216?epid=1638937932&hash=item543eb13ed8:g:9RcAAOSwIgNXjhEb
p140
aVhttp://www.ebay.com/itm/Goal-1-3-Trilogy-DVD-2010-3-Disc-Set-Box-Set-uk-release-/282107231461?epid=102237667&hash=item41aee6bce5:g:lw4AAOSwnNBXZaTm
p141
aVhttp://www.ebay.com/itm/Complete-Matrix-Trilogy-Region-Free-Keanu-Reeves-New-/282227556972?epid=1942008399&hash=item41b612c26c:g:zFkAAOSw1WJZNsRv
p142
aVhttp://www.ebay.com/itm/Ang-Lee-Trilogy-New-DVD-/182447643452?epid=1241408521&hash=item2a7aba1b3c:g:~9YAAOSwqfNXm65H
p143
aVhttp://www.ebay.com/itm/Tadeusz-Lomnicki-Ursula-Mo-Andrzej-Wajda-War-Trilogy-DVD-NEW-/351961124546?epid=1805856951&hash=item51f2848ec2:g:Rf0AAOSwNnRYgMZ3
p144
aVhttp://www.ebay.com/itm/Divergent-Insurgent-Allegiant-DVD-Region-2-Divergent-Trilogy-New-and-Sealed-/262875632764?epid=1374671961&hash=item3d349bd47c:g:fTkAAOSwdGFYnuPS
p145
aVhttp://www.ebay.com/itm/THE-RING-TRILOGY-Ringu-0-1-2-Hideo-Nakata-Cult-Japanese-Horror-DVD-Set-EXC-/271857549646?epid=30903873&hash=item3f4bf9014e:g:m4EAAOSwpDdVRMQ-
p146
aVhttp://www.ebay.com/itm/HINTERLAND-TRILOGY-COMPLETE-SEASONS-1-2-3-BRAND-NEW-DVD-/152535567533?epid=838973324&hash=item2383d40cad:g:kNcAAOSw-3FZCkbE
p147
aVhttp://www.ebay.com/itm/IP-MAN-1-2-and-3-TRILOGY-BRAND-NEW-SEALED-GENUINE-UK-DVD-SET-/182342896945?epid=1764764598&hash=item2a747bcd31:g:dqUAAOSwA3dYHKcN
p148
aVhttp://www.ebay.com/itm/The-Aladdin-Trilogy-DVD-NEW-/301890144877?epid=65726869&hash=item464a0e0a6d:g:H5gAAOSwB-1Y2i3D
p149
aVhttp://www.ebay.com/itm/Middle-Earth-Lord-of-the-Rings-Hobbit-Trilogy-Collection-Extended-Ed-Blu-ray-New-/262921226683?hash=item3d375389bb:g:O18AAOSwdGFY4asZ
p150
a.