(lp1
Vhttp://www.ebay.com/itm/Such-Workout-Much-Burn-vest-funny-meme-tank-top-gym-exercise-weights-present-/112420656363?var=&hash=item1a2ccb14eb:m:mQcEEyKXA8zgsbRvWGGIdlg
p2
aVhttp://www.ebay.com/itm/The-Precisions-If-This-Is-Love-Such-Misery-Northern-Soul-Vinyl-45-Listen-/142433321038?epid=1543848356&hash=item2129b0004e:g:7jsAAOSwCkZZU27Z
p3
aVhttp://www.ebay.com/itm/WALKERS-NON-SUCH-BANANA-TOFFEE-BARS-50G-3-bars-retro-Sweets-/331931708323?epid=1026818355&hash=item4d48abeba3:g:eGUAAOSwIjJZSWyX
p4
aVhttp://www.ebay.com/itm/Qi-Elves-The-No-Such-Thing-As-A-Fish-Podcas-VINYL-NEW-/351978819121?epid=1345237160&hash=item51f3928e31:g:m8UAAOSwx6pYneuy
p5
aVhttp://www.ebay.com/itm/Such-Workout-Much-Burn-unisex-t-shirt-doge-me-present-4chan-nerd-gift-/112353945466?var=&hash=item1a28d1277a:m:msc_9BR162CILV18iWXbgYw
p6
aVhttp://www.ebay.com/itm/Elvis-Presley-Such-A-Night-In-Pearl-Harbor-NEW-CD-/351113253653?epid=114685858&hash=item51bffb1315:g:br0AAOSwd4tTu7Ip
p7
aVhttp://www.ebay.com/itm/Mirandas-Daily-Dose-of-Such-Fun-by-Miranda-Hart-Comic-Relief-/162438163717?epid=233621264&hash=item25d211ad05:g:PwMAAOSwuxFYz8Lh
p8
aVhttp://www.ebay.com/itm/Mirandas-Daily-Dose-of-Such-Fun-by-Miranda-Hart-Comic-Relief-/162438163717?epid=233621264&hash=item25d211ad05:g:PwMAAOSwuxFYz8Lh
p9
aVhttp://www.ebay.com/itm/Such-Sweet-Sorrow-by-Katie-Flynn-Mass-Market-Paperback-Book-9780099521785-/361914052883?epid=87372547&hash=item5443c23113:g:YIAAAOSwYlRZFb71
p10
aVhttp://www.ebay.com/itm/Such-Sweet-Sorrow-Katie-Flynn-/132251701485?epid=89749488&hash=item1ecad0d0ed:g:pm0AAOSwIjJZXdqv
p11
aVhttp://www.ebay.com/itm/Poems-of-the-First-World-War-Never-Such-Innocence-9780460873505-/252484480120?epid=89065122&hash=item3ac93f6c78:g:E6AAAOSwqfNXn3DM
p12
aVhttp://www.ebay.com/itm/NORTHERN-SOUL-7-45-THE-PRECISIONS-IF-THIS-IS-LOVE-SUCH-MISERY-REISSUE-/142437597253?hash=item2129f14045:g:EUIAAOSw1BlZXllQ
p13
aVhttp://www.ebay.com/itm/Silver-Plated-Charm-Bracelet-Turquoise-Silver-Crystal-Charms-Muranos-Gift-/252993155976?var=&hash=item3ae7913388:m:mOiPQHFiYwKXifujg5CdJKw
p14
aVhttp://www.ebay.com/itm/Suchmaschine-Position-Sensoren-FORD-EVEREST-RANGER-LEMARK-LCS012-/262898348678?hash=item3d35f67286:g:MTIAAOSwa~BYYi1y
p15
aVhttp://www.ebay.com/itm/Heat-Resistant-Gold-Travel-Bag-Case-For-Hair-Straighteners-such-as-GHD-Cloud-9-/251992018946?epid=1739717846&hash=item3aabe51002:g:R0UAAOSwNSxVeafa
p16
aVhttp://www.ebay.com/itm/No-Such-Thing-as-a-Witch-by-Ruth-Chew-9780449815625-Paperback-2013-/252877667169?epid=200850588&hash=item3ae0aefb61:g:5PcAAOSwmCVY9nJj
p17
aVhttp://www.ebay.com/itm/Such-Wow-Doge-Chest-Print-Tee-Skater-Badge-Meme-Illuminati-T-shirt-Hipster-Top-/111772494672?var=&hash=item1a0628eb50:m:mn1EJyG988QVoz9K_bbl8rw
p18
aVhttp://www.ebay.com/itm/Such-Wow-Doge-Chest-Pocket-Skater-Badge-Meme-Illuminati-T-shirt-Hipster-Top-/322343762024?var=&hash=item4b0d2f7868:m:m3mhwSHPuH3wXqNVmQDFhfQ
p19
aVhttp://www.ebay.com/itm/DISNEY-MICKEY-such-a-COOL-little-Mouse-Fleecy-Grey-Sleepsuit-NWT-/141602659249?var=&hash=item20f82d1bb1:m:mQ-ycxOML6bb03s60Vn9Xvg
p20
aVhttp://www.ebay.com/itm/Mirandas-Daily-Dose-of-Such-Fun-365-Joy-Filled-Tasks-to-Make-Your-Life-More-E-/282387607273?epid=233621264&hash=item41bf9ceee9:g:o2MAAOSwuxFYv83L
p21
aVhttp://www.ebay.com/itm/Such-A-Much-R-B-Girls-Of-The-50s-And-60s-Various-Artists-NEW-CD-/351218615246?epid=1333558361&hash=item51c642c3ce:g:l4cAAOSwrx5UXOao
p22
aVhttp://www.ebay.com/itm/925-Silver-Plated-Daisy-Charm-Bracelet-with-B-W-Charms-Murano-Gift-Boxed-/252993156029?var=&hash=item3ae79133bd:m:mW900qL5Cg4VJjh3e5bRSEA
p23
aVhttp://www.ebay.com/itm/Sportsmatch-HTO82-1-suits-CZ-15mm-dovetails-such-as-CZ527-and-FOX-/292040854987?hash=item43fefdcdcb:g:ULwAAOSw~AVYtYzk
p24
aVhttp://www.ebay.com/itm/A-CRAZE-WELLER-SUCH-BLISS-RESPOND-COMPILATION-CD-NEW-/300422880758?epid=79809453&hash=item45f2995df6:g:T9AAAOSwKOJYIz4a
p25
aVhttp://www.ebay.com/itm/Silver-Plated-Charm-Bracelet-Turquoise-Silver-Crystal-Charms-Gift-/263039071609?var=&hash=item3d3e59b579:m:m8uGOsKppIal9J_Uten5Zug
p26
aVhttp://www.ebay.com/itm/Heat-Resistant-Silver-Travel-Bag-Case-For-Hair-Straighteners-such-as-GHD-Cloud-9-/261925602561?epid=1839599297&hash=item3cfbfb8501:g:JaEAAOSw~OdVeagW
p27
aVhttp://www.ebay.com/itm/Good-Such-a-Pretty-Girl-Wiess-Laura-Book-/382023333291?epid=91481397&hash=item58f25d75ab:g:fVsAAOSwfVpYuUgd
p28
aVhttp://www.ebay.com/itm/Such-a-Good-Feeling-90s-House-Dance-Anthems-3-X-CD-/152310617321?epid=170322455&hash=item23766b94e9:g:~qUAAOxyaTxTUBuW
p29
aVhttp://www.ebay.com/itm/Shabby-Chic-Vintage-VW-Camper-Van-Fabric-Welcome-Door-Mat-Such-a-Perfect-Day-/232219858089?epid=1864708538&hash=item361161d4a9:g:QPIAAOSw-0xYi8ZJ
p30
aVhttp://www.ebay.com/itm/DU331-Devendra-Banhart-Never-Seen-Such-Good-Things-2013-DJ-CD-/360814222615?hash=item5402341d17:g:jdQAAOxyNo9Sq6Fk
p31
aVhttp://www.ebay.com/itm/Rose-Gold-Silver-Plated-Charm-Bracelet-Rose-Pink-Silver-Charms-Gift-Boxed-/252993156055?var=&hash=item3ae79133d7:m:mCZLrCHOvcqAiJx8a2D3kQw
p32
aVhttp://www.ebay.com/itm/Family-Guy-Stewie-Damn-you-and-such-Mens-Unisex-Character-T-Shirt-/231174254898?var=&hash=item35d30f3132:m:miv8v61r7nLeDe-RqQv91iA
p33
aVhttp://www.ebay.com/itm/Neewer-Two-I-TTL-Flash-Speedlite-for-Nikon-DSLR-Camera-Such-as-D7200-D7100-D70-/401306095193?hash=item5d6fb50e59:g:MbcAAOSwhQhY63Sg
p34
aVhttp://www.ebay.com/itm/Silver-Plated-Two-tone-Charm-Bracelet-Gold-Silver-Gold-Charms-Gift-Boxed-/263039071654?var=&hash=item3d3e59b5a6:m:maU7Vbmo4zcDJS8_RNz-DgQ
p35
aVhttp://www.ebay.com/itm/Shabby-Chic-Vintage-VW-Camper-Van-Fabric-Welcome-Door-Mat-Such-a-Perfect-Day-/232219858089?epid=1864708538&hash=item361161d4a9:g:QPIAAOSw-0xYi8ZJ
p36
aVhttp://www.ebay.com/itm/CONTROL-CABLE-SADDLE-CLAMP-SHIM-FOR-CABLES-SUCH-AS-MORSE-33C-RED-TYPES-/302018406590?epid=880312985&hash=item4651b328be:g:Po8AAOSwVFlUAFQC
p37
aVhttp://www.ebay.com/itm/Victorias-Secret-Body-Mist-Spray-250ml-/271813086211?var=&hash=item3f49528c03:m:mQPX0Z2KwQCXcve1T8Xuk8g
p38
aVhttp://www.ebay.com/itm/MENS-OFFICIAL-FAMILY-GUY-DAMN-YOU-AND-SUCH-BLACK-STEWIE-T-SHIRT-TOP-SIZE-S-L-XL-/122377579284?var=&hash=item1c7e45ab14:m:mTJuXW3hsbvBUtsOw1rOZNA
p39
aVhttp://www.ebay.com/itm/Victorias-Secret-Fragrance-Mist-Body-Spray-NEW-PACKAGING-250ml-/272423117754?var=&hash=item3f6daee3ba:m:mViqhSaeHIRQ_6hT1XkcdzA
p40
aVhttp://www.ebay.com/itm/Sera-Raffy-P-Staple-food-for-carnivorous-reptiles-such-as-terrapins-/222059896037?var=&hash=item33b3cd1ce5:m:ms5Q1u1EYuFp83ckvQLe2sw
p41
aVhttp://www.ebay.com/itm/Gold-Plated-Charm-Bracelet-Two-tone-Gold-Silver-Dazzling-Charms-Gift-boxed-/252993155971?hash=item3ae7913383:g:c9oAAOSw5UZZAJzj
p42
aVhttp://www.ebay.com/itm/Make-a-Wish-Bracelet-Charm-Bracelet-Thank-You-For-BEE-ing-such-a-great-teacher-/222580797304?hash=item33d2d96f78:g:39IAAOSwBw5XRAE7
p43
aVhttp://www.ebay.com/itm/Assorted-Teacher-Keyrings-Multi-Gifts-Thank-You-Presents-Christmas-End-of-Year-/332275964366?var=&hash=item4d5d30d9ce:m:mXPx6CcY6CQ1Osr_-VSyJQw
p44
a.