(lp1
Vhttp://www.ebay.com/itm/2-x-Wilson-Federer-110-Tennis-Rackets-3-Tennis-Balls-RRP-90-/300788498544?epid=1213521797&hash=item4608644070:g:61EAAOSwU-pXrc6d
p2
aVhttp://www.ebay.com/itm/2017-WILSON-Pro-Staff-97LS-Tennis-Racket-STRUNG-grip-2-/252974343257?epid=1584524714&hash=item3ae6722459:g:v3YAAOSw4A5Yspmt
p3
aVhttp://www.ebay.com/itm/NEW-2017-WILSON-HARMONIZED-BLACK-CHROME-SPIN-GROOVE-GOLF-WEDGES-ALL-LOFTS-/332154147366?var=&hash=item4d55ee1226:m:mQe4cFrc9yZ9tmEBPxM5SrA
p4
aVhttp://www.ebay.com/itm/Wilson-Replica-NCAA-Basketball-Composite-Leather-Match-Ball-Official-Size-/262879553776?epid=1347638226&hash=item3d34d7a8f0:g:NfoAAOSw4CFYuapw
p5
aVhttp://www.ebay.com/itm/NEW-WILSON-STAFF-FG-TOUR-F5-FAIRWAY-WOOD-CHOOSE-OPTIONS-/292119515140?var=&epid=2087044829&hash=item4403ae1004:m:mJIoYoJkztpyim9chxsgwlg
p6
aVhttp://www.ebay.com/itm/Wilson-Harmonized-M3-Toe-Heavy-Putter-/132210609811?var=&epid=1725127493&hash=item1ec85dce93:m:mfe80BQFKVx6R9AhbzRYp7g
p7
aVhttp://www.ebay.com/itm/NEW-2017-WILSON-PROSTAFF-PROFILE-VF-MENS-COMPLETE-GOLF-SET-GOLF-STAND-BAG-/251958531388?hash=item3aa9e6153c:g:lCoAAOSwTM5YzCVX
p8
aVhttp://www.ebay.com/itm/NEW-2017-WILSON-PROSTAFF-HDX-LADIES-GOLF-CHIPPER-PUTTER-AMAZING-CHIPPING-/253012786153?epid=1675187967&hash=item3ae8bcbbe9:g:LM8AAOSw32lYtEVf
p9
aVhttp://www.ebay.com/itm/Wilson-Milos-Raonic-Tour-100-Tennis-Racket-Carbon-Composite-Play-Court-Sports-/352059277809?var=&hash=item51f85e41f1:m:mYsFqz1eCNuOrXG3R0FWxOg
p10
aVhttp://www.ebay.com/itm/Wilson-US-Open-Junior-Tennis-Racket-Red-Green-Jr-19-Jr-21-Jr-23-/301962002265?var=&epid=1744726270&hash=item464e567f59:m:m4JBVlpEVbwnRbu2xVHaJ9A
p11
aVhttp://www.ebay.com/itm/NEW-2017-WILSON-PROSTAFF-HDX-COMPLETE-JUNIOR-GOLF-SET-AGE-5-8-FREE-GIFTS-/252912110724?var=&hash=item3ae2bc8c84:m:mus-1ssuewEAeLZUu1ip3zg
p12
aVhttp://www.ebay.com/itm/SALE-NEW-WILSON-STAFF-FG-TOUR-F5-DRIVER-CHOOSE-OPTIONS-/292119505659?var=&epid=884492396&hash=item4403adeafb:m:mgrg48GZwf9Ti5h1TnrIycg
p13
aVhttp://www.ebay.com/itm/NEW-2017-WILSON-PROSTAFF-HDX-LADIES-RIGHT-HAND-DRIVER-14-DEGREE-HEADCOVER-/252832153745?epid=850303473&hash=item3addf88091:g:sa4AAOSwSlBY2NWh
p14
aVhttp://www.ebay.com/itm/2017-WILSON-BURN-100-CV-Spin-Tennis-Racket-STRUNG-grip-3-NEW-MODEL-/262870852979?epid=587732871&hash=item3d3452e573:g:RNoAAOSwtfhYspsY
p15
aVhttp://www.ebay.com/itm/NEW-2017-WILSON-FG-TOUR-PMP-FORGED-GOLF-WEDGES-ALL-LOFTS-/332108617377?var=&epid=1780716803&hash=item4d533756a1:m:meQutljThpmWooyaLk9Vshw
p16
aVhttp://www.ebay.com/itm/Wilson-Envy-100L-BLX-Tennis-Racket-RRP-160-P-/111869033421?var=&hash=item1a0be9fbcd:m:mq9DfSO3wWlJA22H-HQX9Rw
p17
aVhttp://www.ebay.com/itm/NEW-2017-WILSON-PROSTAFF-HDX-ANTI-SHANK-GOLF-CHIPPER-JIGGER-AMAZING-CHIPPING-/252747191551?epid=1452066170&hash=item3ad8e814ff:g:yVsAAOSw241YjxeT
p18
aVhttp://www.ebay.com/itm/Wilson-1200-XV-Golf-Package-Set-Graphite-Shaft-/282148066502?var=&epid=1681481194&hash=item41b155d4c6:m:m0pcb4G8mu0SAXRLgWGUNbw
p19
aVhttp://www.ebay.com/itm/Wilson-Steam-99-Tennis-Racket-racquet-Sports-Equipment-Accessories-/351938278817?epid=1353885293&hash=item51f127f5a1:g:L80AAOSwKoRZZQJ9
p20
aVhttp://www.ebay.com/itm/NEW-2017-WILSON-PROFILE-XLS-MENS-COMPLETE-GOLF-SET-GOLF-CARRY-STAND-BAG-/332310321252?hash=item4d5f3d1864:g:EzoAAOSwsMVZb0HN
p21
aVhttp://www.ebay.com/itm/Wilson-Kids-Girls-Tour-Junior-Tennis-Racket-Sports-Equipment-Accessory-Brand-/351741664329?var=&hash=item51e56fdc49:m:m1ketaZEMxqmWgmwxJ0c0Dw
p22
aVhttp://www.ebay.com/itm/2017-WILSON-BLADE-98-18-20-Tennis-Racket-STRUNG-grip-3-NEW-MODEL-/252965670008?epid=2098826786&hash=item3ae5edcc78:g:kJcAAOSwtpZYSGVZ
p23
aVhttp://www.ebay.com/itm/NEW-2017-WILSON-PROSTAFF-HDX-MENS-RIGHT-HAND-3-WOOD-15-DEGREE-HEADCOVER-/232222889741?hash=item361190170d:g:KMgAAOSwnHZYj4NS
p24
aVhttp://www.ebay.com/itm/WILSON-PROFESSIONAL-BASEBALL-BAT-34-A1435-/111036526620?epid=1961931858&hash=item19da4af01c:m:mGtmZayCPKkrR1UmBd3dGHA
p25
aVhttp://www.ebay.com/itm/2017-Wilson-Blade-104-CV-SW-Autograph-Racket-STRUNG-grip-3-SERENA-WILLIAMS-/252924388190?epid=845399338&hash=item3ae377e35e:g:TeYAAOSwKytZDr6a
p26
aVhttp://www.ebay.com/itm/Wilson-Hammer-H6-103-Tennis-Racket-Full-Cover-RRP-180-/292136927989?var=&hash=item4404b7c2f5:m:mNvcjWpWcQraBP97fEyxJVw
p27
aVhttp://www.ebay.com/itm/1-LONGER-WILSON-PROFILE-VF-MENS-COMPLETE-GOLF-SET-DELUXE-GOLF-STAND-BAG-/252804772839?hash=item3adc56b3e7:g:RL4AAOSwWxNYzCPY
p28
aVhttp://www.ebay.com/itm/NEW-2017-WILSON-PROFILE-VF-MENS-5-HYBRID-6-SW-IRONS-GOLF-IRONS-COMBO-SET-/232263396407?hash=item3613fa2c37:g:TwgAAOSwCU1YzCgv
p29
aVhttp://www.ebay.com/itm/Wilson-STAFF-D200-FAIRWAY-WOODS-/132126523575?var=&epid=1237892596&hash=item1ec35ac0b7:m:m1fVS3uNLjMP6M6FfU_Gidw
p30
aVhttp://www.ebay.com/itm/LTD-EDITION-WILSON-HOPE-LADIES-COMPLETE-GOLF-SET-DELUXE-CART-BAG-FREE-GIFT-/252771715667?epid=2011089495&hash=item3ada5e4a53:g:fk4AAOSwfVpYpASA
p31
aVhttp://www.ebay.com/itm/LEFT-HANDED-WILSON-PROFILE-VF-MENS-COMPLETE-GOLF-SET-DELUXE-GOLF-STAND-BAG-/332149125943?hash=item4d55a17337:g:CAQAAOSw4YdYzB6p
p32
aVhttp://www.ebay.com/itm/Wilson-Pro-Staff-Classic-6-1-Six-One-25th-Anniversary-Edition-Tennis-Racket-/182481889332?var=&epid=2115174608&hash=item2a7cc4a834:m:mlR9jHZmLfxUACgBV58w_dw
p33
aVhttp://www.ebay.com/itm/Wilson-Burn-Junior-Tennis-Racket-PINK-Jr-25-Jr-23-Jr-21-/301961925565?var=&epid=1466986699&hash=item464e5553bd:m:mhJ4OBoA7ibipUtAgrlqGUg
p34
aVhttp://www.ebay.com/itm/NEW-WILSON-STAFF-FG-TOUR-F5-HYBRID-RESCUE-WOOD-CHOOSE-OPTIONS-/292119525706?var=&epid=720313131&hash=item4403ae394a:m:mJVXxa1i3_HZqPbt2Hc8lfg
p35
aVhttp://www.ebay.com/itm/Wilson-Pro-Staff-90-BLX-Tennis-Schlager-Grip-L3-Andere-grosen-auf-anfrage-/291936446277?hash=item43f8c4a745:g:l9gAAOSwxYxUsAUk
p36
aVhttp://www.ebay.com/itm/Wilson-Pro-Staff-90-BLX-Tennis-Racket-L2-RRP-190-/301480547926?epid=1788694552&hash=item4631a41656:g:xvoAAOSwWKtUsAY3
p37
aVhttp://www.ebay.com/itm/WILSON-Burn-95-Tennis-Racket-STRUNG-grip-3-Kei-Nishikori-/262772777942?epid=1062559504&hash=item3d2e7a63d6:g:DVYAAOSwa~BYWvNd
p38
aVhttp://www.ebay.com/itm/Wilson-Six-Two-Adults-Tennis-Racket-racquet-Sports-Equipment-Accessories-/351685686901?var=&epid=1853835801&hash=item51e219b675:m:mxUaA6T74Uv1kT3Q3ogovIw
p39
aVhttp://www.ebay.com/itm/2017-WILSON-BLADE-101L-Tennis-Racket-STRUNG-grip-2-NEW-MODEL-/262923748854?epid=2105002510&hash=item3d377a05f6:g:ncEAAOSwU8hY5AGH
p40
aVhttp://www.ebay.com/itm/Wilson-Burn-FST-99-Tennis-Racket-/291745377127?var=&epid=1664058543&hash=item43ed612b67:m:mxiaxf6K1n2Gw0eo5FXpeCw
p41
aVhttp://www.ebay.com/itm/Wilson-Exclusive-Red-Tennis-Racket-RRP-140-/290917622331?var=&hash=item43bc0aa23b:m:mTLpfPDH43ImHZOdxlEZ--g
p42
aVhttp://www.ebay.com/itm/NEW-2017-WILSON-HARMONIZED-MENS-RIGHT-HAND-M-SERIES-GOLF-PUTTERS-ALL-MODELS-/252747360285?var=&hash=item3ad8eaa81d:m:mXap1gWLpeyEkRaI27lrHqg
p43
aVhttp://www.ebay.com/itm/Wilson-Ultra-100-Tennis-Racket-2016-/111976786930?var=&epid=1266815372&hash=item1a12562bf2:m:mt27NBnFcBh_-pfJyT6DXzA
p44
aVhttp://www.ebay.com/itm/NEW-2017-WILSON-X31-MENS-COMPLETE-GOLF-SET-DELUXE-GOLF-STAND-BAG-1-LONGER-/252647983215?epid=2076522948&hash=item3ad2fe486f:g:8e8AAOSw4GVYNCJr
p45
aVhttp://www.ebay.com/itm/WILSON-Pro-Staff-97ULS-Tennis-Racket-STRUNG-grip-3-/262772761224?epid=1646181738&hash=item3d2e7a2288:g:T2oAAOSw44BYWu66
p46
aVhttp://www.ebay.com/itm/Wilson-Golf-Harmonized-Wedges-Mens-Steel-Shaft-/132184531499?var=&epid=1057268273&hash=item1ec6cfe22b:m:mpYThYDwNH63hmlVdBaAOOw
p47
aVhttp://www.ebay.com/itm/NEW-2017-WILSON-PROSTAFF-MENS-RIGHT-HAND-HDX-IRONS-5-SW-REGULAR-STEEL-SHAFTS-/252747652491?hash=item3ad8ef1d8b:g:t70AAOSw4DJYj3o9
p48
aVhttp://www.ebay.com/itm/Wilson-Enforcer-100-Tennis-Racket-Carry-Case-3-Tennis-Balls-RRP-80-L3-/291354174389?epid=883764887&hash=item43d60fe3b5:g:cnQAAOSw-W5Utmg1
p49
aVhttp://www.ebay.com/itm/Wilson-Tour-Junior-21-Tennis-Racket-Red-White-Black-/352036255483?epid=526612795&hash=item51f6fef6fb:g:cyIAAOSwwzhZUZ9v
p50
aVhttp://www.ebay.com/itm/Wilson-Surge-Power-108-Graphite-Tennis-Racket-Full-Length-Cover-RRP-140-L3-/292071519437?hash=item4400d1b4cd:g:qWYAAOSwhQhY3RVf
p51
aVhttp://www.ebay.com/itm/Wilson-Tour-Junior-21-Tennis-Racket-Red-White-Black-/352036255483?epid=526612795&hash=item51f6fef6fb:g:cyIAAOSwwzhZUZ9v
p52
aVhttp://www.ebay.com/itm/Wilson-Pro-Staff-90-BLX-Tennis-Racket-L3-RRP-190-/301480543043?epid=1088418663&hash=item4631a40343:g:l9gAAOSwxYxUsAUk
p53
aVhttp://www.ebay.com/itm/Wilson-Roger-Federer-Junior-Tennis-Racket-Jr-19-Jr-21-Jr-23-Jr-25-Jr-26-/112003167257?var=&epid=1038096769&hash=item1a13e8b419:m:mPbPuVYEIHljgdoy192Vt0Q
p54
aVhttp://www.ebay.com/itm/2017-WILSON-BLADE-101L-Tennis-Racket-STRUNG-grip-3-NEW-MODEL-/262923750266?epid=2104991844&hash=item3d377a0b7a:g:ncEAAOSwU8hY5AGH
p55
aVhttp://www.ebay.com/itm/Wilson-Bat-Case-For-Tennis-Racket-Tennis-Bag-/132232460693?epid=630135865&hash=item1ec9ab3995:g:WmAAAOSw9~5ZR~it
p56
aVhttp://www.ebay.com/itm/Wilson-Surge-Power-108-Graphite-Tennis-Racket-Full-Length-Cover-RRP-140-L3-/292071519437?hash=item4400d1b4cd:g:qWYAAOSwhQhY3RVf
p57
aVhttp://www.ebay.com/itm/2-x-Wilson-Adult-YouthTennis-Racket-Set-3-Tennis-Balls-RRP-100-/290917642652?epid=1988292193&hash=item43bc0af19c:g:mRkAAOSwvjdZWhiE
p58
aVhttp://www.ebay.com/itm/Wilson-Roger-Federer-27-inch-adult-110-Tennis-Racket-RRP-60-/291030124311?var=&hash=item43c2bf4717:m:mjPJ3mXRqZwoa0jOj0VwJCQ
p59
aVhttp://www.ebay.com/itm/NEW-2017-WILSON-PROSTAFF-HDX-MENS-RIGHT-HAND-5-WOOD-21-DEGREE-HEADCOVER-/232222890947?hash=item3611901bc3:g:KMgAAOSwnHZYj4NS
p60
aVhttp://www.ebay.com/itm/WILSON-LEFT-HANDED-LCG-LADIES-PACKAGE-SET-/152382719376?var=&hash=item237ab7c590:m:mScOhb97ysSmF6Yx0_0Q1uw
p61
aVhttp://www.ebay.com/itm/NEW-2017-WILSON-PROSTAFF-MENS-RIGHT-HAND-HDX-IRONS-5-SW-REGULAR-STEEL-SHAFTS-/252747652491?hash=item3ad8ef1d8b:g:t70AAOSw4DJYj3o9
p62
aVhttp://www.ebay.com/itm/Wilson-ProStaff-HDX-Golf-Package-Set-Steel-Graphite-2017-/252812841038?var=&hash=item3adcd1d04e:m:m6vaxbukt5Rzp6MwLfOlhMw
p63
aVhttp://www.ebay.com/itm/Wilson-Prostaff-Complete-Junior-Golf-Box-Sets-All-Variations-Available-New-2015-/170747510439?var=&hash=item27c1583ea7:m:mXa_GWLXkO1U1dIr_7FM3Vg
p64
aVhttp://www.ebay.com/itm/Wilson-Golf-Prostaff-17-3-Hybrid-Mens-Regular-Flex-Graphite-LEFT-HANDED-/112210592419?hash=item1a2045c2a3:g:jEUAAOSwcUBYMcyX
p65
aVhttp://www.ebay.com/itm/2017-WILSON-Pro-Staff-97-Tennis-Racket-STRUNG-grip-2-NEW-MODEL-/262752895900?epid=525945719&hash=item3d2d4b039c:g:97gAAOSwcUBYSF8E
p66
aVhttp://www.ebay.com/itm/Wilson-K-Brave-105-Tennis-Racket-RRP-150-/290777384920?var=&hash=item43b3aec7d8:m:mDatZOk48hspRPUGNTzwITA
p67
aVhttp://www.ebay.com/itm/Wilson-Coral-Wave-BLX-Tennis-Racket-RRP-160-/290988688881?var=&hash=item43c04705f1:m:mTWhqpaFNVw1qly7fSmtHEg
p68
aVhttp://www.ebay.com/itm/NEW-2017-WILSON-PROSTAFF-HDX-MENS-RIGHT-HAND-3-HYBRID-RESCUE-CLUB-HEADCOVER-/332180285216?hash=item4d577ce720:g:e0IAAOSwLEtYj4Rd
p69
aVhttp://www.ebay.com/itm/Wilson-Pro-Staff-90-BLX-Tennis-Racket-L4-RRP-190-/291350114108?epid=1888561633&hash=item43d5d1ef3c:g:aWgAAOSwYGFUsAcU
p70
aVhttp://www.ebay.com/itm/Wilson-Golf-Prostaff-LCG-Sand-Wedge-Mens-Flex-Graphite-LEFT-HANDED-/132008370617?hash=item1ebc4fe1b9:g:9dkAAOSwHMJYMHCq
p71
aVhttp://www.ebay.com/itm/Wilson-Pro-Staff-95S-BLX-Tennis-Racket-RRP-190-Grip-L3-Any-size-on-request-/291282892549?epid=1288667350&hash=item43d1d03705:g:XuAAAOSw1XdUU7c0
p72
aVhttp://www.ebay.com/itm/Wilson-Childrens-Kids-Starter-Tennis-Balls-/222389615794?epid=1704169022&hash=item33c7743cb2:g:~3YAAOSwLEtYifIk
p73
aVhttp://www.ebay.com/itm/Wilson-Energy-XL-Tennis-Racket-RRP-35-/290764698497?var=&hash=item43b2ed3381:m:mi-vsGP_2QaKzmCW7tdgpGA
p74
aVhttp://www.ebay.com/itm/Wilson-Envy-100L-BLX-Tennis-Racket-Cover-3-Balls-RRP-180-P-/291655511233?var=&hash=item43e805ecc1:m:mE_h0wzRfUKvCVly-IN6fAg
p75
aVhttp://www.ebay.com/itm/2017-WILSON-Pro-Staff-97-Tennis-Racket-STRUNG-grip-3-NEW-MODEL-/252942081342?epid=2073790427&hash=item3ae485dd3e:g:42QAAOSw4GVYSF8G
p76
a.