(lp0
Vhttp://www.ebay.com/itm/Pharma-Test-Freak-Testosterone-Booster-28-120-240-Capsules-Extreme-Anabolic-/141509512261?var=&epid=1523905188&hash=item20f29fcc45:m:mx4opujb5BwtKlaKYpHB-Og
p1
aVhttp://www.ebay.com/itm/ActivLab-BCAA-1000-XXL-Branched-Chain-Amino-Acid-120-tablets-free-shipping-/281555764330?epid=1838289828&hash=item418e08046a:g:LQ8AAOSwO~hXIPDe
p2
aVhttp://www.ebay.com/itm/MUSCLETECH-AMINO-BUILD-NEXT-GEN-30-SERVINGS-bcaa-glutamine-acids-energized-/222120216359?var=&epid=1103933347&hash=item33b7658727:m:mE1R9btnAT91IxUBDShjSGQ
p3
aVhttp://www.ebay.com/itm/Scitec-Nutrition-BCAA-XPRESS-Essential-BCAA-Amino-Acid-Drink-/271724664575?var=&epid=1604159605&hash=item3f440d56ff:m:mAc32u0TrEiS-iKki9Z5fUA
p4
aVhttp://www.ebay.com/itm/Activlab-Protein-Amino-Acids-Complex-240-Capsules-Muscle-Mass-Gain-Hydrolysate-/131601863590?epid=1538282632&hash=item1ea41513a6:g:CbIAAOSw~bFWQ2y8
p5
aVhttp://www.ebay.com/itm/Optimum-Nutrition-Amino-Energy-Recovery-Focus-30-Servings-Pick-Your-Flavor-/301884950244?var=&epid=1105496798&hash=item4649bec6e4:m:mUPJFv_DbScd1MHUL7GIJlA
p6
aVhttp://www.ebay.com/itm/Ostrovit-BCAA-L-Glutamine-500g-Branched-Chain-Amino-Acids-leucine-recovery-/222123454454?var=&epid=1549490609&hash=item33b796eff6:m:m5nWnQ1KG5VWgIeclQHJSAA
p7
aVhttp://www.ebay.com/itm/Optimum-Nutrition-Amino-Energy-Recovery-Focus-30-Servings-Pick-Your-Flavor-/152208334239?var=&epid=1900137664&hash=item237052dd9f:m:mUPJFv_DbScd1MHUL7GIJlA
p8
aVhttp://www.ebay.com/itm/Optimum-Nutrition-Glutamine-1-000mg-Minimize-Muscle-Breakdown-120-Capsules-/121968627182?epid=1305219632&hash=item1c65e58dee:g:wDAAAOSwiYFXH8Y~
p9
aVhttp://www.ebay.com/itm/ActivLab-Pure-BCAA-1000mg-120-Tablets-Branched-Chain-Amino-Acids-Pills-/141151672746?epid=1838289828&hash=item20dd4b99aa:g:mB0AAOSwneRXRVwb
p10
aVhttp://www.ebay.com/itm/PVL-MUTANT-BCAA-9-7-amino-acids-protein-supplement-muscle-growth-/371494367840?var=&epid=1711983792&hash=item567eca3260:m:mG4mAPfpmev17SiZUnpe5UA
p11
aVhttp://www.ebay.com/itm/NEW-Meiji-Amino-Collagen-Premium-214g-Refill-JAPAN-/332285833130?epid=710116991&hash=item4d5dc76faa:g:l4UAAOSwAoRXFena
p12
aVhttp://www.ebay.com/itm/Cellucor-Alpha-Amino-Lemon-Lime-30-Servings-/192174820301?epid=691392123&hash=item2cbe830bcd:g:qH8AAOSwCQZZB6W-
p13
aVhttp://www.ebay.com/itm/SCITEC-BCAA-XPRESS-700G-POWDER-ESSENTIAL-AMINO-ACID-FLAVORED-DRINK-100-SERVINGS-/161260309399?var=&epid=1454865066&hash=item258bdd0b97:m:masAFXodgr5XS-V7QVtx5cg
p14
aVhttp://www.ebay.com/itm/Scitec-Nutrition-BCAA-X-Essencial-BCAA-Amino-Acids-120-330-Caps-/291306747195?var=&epid=1740316128&hash=item43d33c353b:m:m0n4kzAEd77tRDn_c_TeNIA
p15
aVhttp://www.ebay.com/itm/OLIMP-BETA-ALANINE-Carno-Rush-Amino-Acid-Formula-Vit-B6-L-Histidine-Caps-Boxed-/151915224981?epid=1937550647&hash=item235eda5f95:g:-eUAAOSwcLxYC~eT
p16
aVhttp://www.ebay.com/itm/BPI-Best-BCAA-30sv-All-flavors-FAST-FREE-SHIPPING-BPI-Sports-Amino-Acids-/331510272848?var=&epid=1537938980&hash=item4d2f8d5350:m:mCpc251Zcc4Sw2sbR8y-ZNQ
p17
aVhttp://www.ebay.com/itm/Optimum-Nutrition-ON-Amino-Energy-65-Servings-BCAAS-Essential-Amino-Acids-/152589126235?var=&epid=691227737&hash=item2387054a5b:m:m2SEEyVVjFIfTDvY_4674Cg
p18
aVhttp://www.ebay.com/itm/Ostrovit-BCAA-200-500g-Branched-Chain-Amino-Acids-leucine-recovery-/222333632304?var=&epid=1045547694&hash=item33c41dff30:m:mskKQTGVx9ze0ffjPT0_mqw
p19
aVhttp://www.ebay.com/itm/SCITEC-NUTRITION-BCAA-GLUTAMINE-XPRESS-essential-amino-acids-taurine-/351916136979?var=&epid=1484369608&hash=item51efd61a13:m:mbiBHF1i6eOgumvNraKP6Dw
p20
aVhttp://www.ebay.com/itm/SCIVATION-XTEND-30-SERVINGS-7g-bcaa-amino-glutamine-citrulline-recovery-extend-/322368744083?var=&epid=1928906490&hash=item4b0eacaa93:m:mSYKtv84IUOrqLkHPuN8jOA
p21
aVhttp://www.ebay.com/itm/Activlab-Glutamine-Matrix-128-Capsule-MEGA-STRONG-Amino-Acid-Nutrition-/141826469121?epid=1140261523&hash=item2105842d01:g:ppEAAOSwHoFXvWSC
p22
aVhttp://www.ebay.com/itm/Asahi-Dear-Natura29-Amino-Multi-Vitamin-Mineral-150-Tablets-/111910455594?epid=1040074897&hash=item1a0e62092a:g:XnUAAOSwzgRWx6hJ
p23
aVhttp://www.ebay.com/itm/L-Glutamine-500mg-x-90-Capsules-Vital-Amino-Acid-for-Anabolic-Support-Lindens-/191902675287?epid=1251500726&hash=item2cae4a7157:g:BdwAAOSw3YNXaXE-
p24
aVhttp://www.ebay.com/itm/Olimp-Glutamine-1400mg-Mega-Caps-Anabolic-Anticatabolic-Amino-Acids-Glutamine-/271391970182?var=&epid=1005522790&hash=item3f3038d386:m:mFuJdXVPHh1-hy46WROwVGw
p25
aVhttp://www.ebay.com/itm/Megabol-PLASSMEX-100-Strong-Animal-Amino-Acids-350-Caps-BCAA-Branch-Chain-/140906391810?epid=1612756485&hash=item20ceace902:g:rV8AAOSwTM5YykfZ
p26
aVhttp://www.ebay.com/itm/Plasmex-350-Caps-Amino-Acids-BCAA-Bodybuilding-Muscle-Growth-Recovery-Anabolic-/282281895326?epid=1612756485&hash=item41b94fe59e:g:RiQAAOSw6DtYRtRH
p27
aVhttp://www.ebay.com/itm/UNIVERSAL-NUTRITION-100-Beef-Aminos-200-400-Tabs-Amino-Acid-Complex-Strength-/122415100189?var=&epid=1104149372&hash=item1c8082311d:m:mX-ClEzfouoxqlMro6wDLzA
p28
aVhttp://www.ebay.com/itm/OLIMP-Pure-Whey-Protein-Isolate-95-Powder-Pure-WPI-Isolate-Amino-Acid-Vit-B6-D-C-/151752682527?var=&epid=1939967863&hash=item23552a2c1f:m:mjfYpZ0yi0gVy0lGxDJwFsg
p29
aVhttp://www.ebay.com/itm/Olimp-Anabolic-AMINO-5500-mega-caps-BCAA-Taurine-vit-B6-Amino-Acids-/281294341897?var=&epid=1305265907&hash=item417e730709:m:mi06f1mIrH0vt15hQcTsuWw
p30
aVhttp://www.ebay.com/itm/NUTRABIO-TAURINE-1000mg-150caps-Free-Form-Amino-Acid-100-Pure-/201664269493?epid=1100186110&hash=item2ef4208cb5:g:HQkAAOSw-kdX0grh
p31
aVhttp://www.ebay.com/itm/Amino-1900-110-Tablets-Whey-Protein-Pills-BCAA-EAAs-Amino-Acids-Free-P-P-/321623801796?epid=1400088955&hash=item4ae245bfc4:g:93cAAOSwuMFUmE7L
p32
aVhttp://www.ebay.com/itm/Olimp-BCAA-XPLODE-Amino-Acids-L-Glutamine-Vit-B6-Taurine-600mg-BEST-PRICE-SALE-/151749441742?var=&epid=1017249844&hash=item2354f8b8ce:m:m1D1EtBJ0wMfxnMTG4zfXsQ
p33
aVhttp://www.ebay.com/itm/BioTech-USA-100-Pure-BCAA-Amino-Acid-Strong-Formula-2-1-1-Ratio-400g-Powder-/152087649105?var=&epid=1638412811&hash=item2369215b51:m:mGeJnbCfAgJ7IzIwo6FzR6A
p34
aVhttp://www.ebay.com/itm/Optimum-Nutrition-Glutamine-1kg-Bcaa-on-Energy-L-Glutamine-Amino-Acid-Recovery-/121956258181?epid=1638191714&hash=item1c6528d185:g:i9sAAOSwubRXHNaC
p35
aVhttp://www.ebay.com/itm/Scitec-Nutrition-BCAA-6400-Essential-Amino-Acids-Energy-Strength-Pillbox-/152527554681?var=&epid=1023159938&hash=item238359c879:m:mNGgx6t8wmueK3VEy88cr6A
p36
aVhttp://www.ebay.com/itm/BSN-AMINO-X-bcaa-amino-acids-/351570808604?var=&epid=1237228914&hash=item51db40cf1c:m:mu4Yic9Wk4pekoOAlzYhUrg
p37
aVhttp://www.ebay.com/itm/Activlab-BCAA-XTRA-500g-800g-Amino-Acids-Powder-L-Glutamine-protein-/222058772544?var=&epid=1238247916&hash=item33b3bbf840:m:mgEksA1pokrw4skgxKKRjNg
p38
aVhttp://www.ebay.com/itm/UNIVERSAL-NUTRITION-100-Beef-Aminos-Amino-Acid-Complex-Strength-Lean-Muscles-/151820761058?var=&epid=1104149372&hash=item235938f7e2:m:maeAuZboPVRznGnSNdgP27Q
p39
aVhttp://www.ebay.com/itm/Cellucor-Alpha-Amino-30-servings-Pick-Flavor-Free-Fast-Shipping-/172303885936?var=&epid=1338690819&hash=item281e1ca670:m:m5fCBGb96eW3Cn2thuOupsg
p40
aVhttp://www.ebay.com/itm/OLIMP-HMB-625mg-Anticatabolic-Amino-Acid-Formula-450-Caps-Whey-Protein-Complex-/151752668963?epid=1905488918&hash=item235529f723:g:L1cAAOSwfRdZMtcv
p41
aVhttp://www.ebay.com/itm/Trec-Nutrition-Amino-4500-Performance-Strength-And-Mass-125-335-tab-/261693181509?var=&epid=1608098330&hash=item3cee210e45:m:mXHYDErF02iUF2HPJAjbwMw
p42
aVhttp://www.ebay.com/itm/OPTIMUM-NUTRITION-ESSENTIAL-AMINO-ENERGY-NEW-FLAVOURS-270g-30-SERVES-BCAA-/301865403332?var=&epid=1254220712&hash=item46489483c4:m:mek4ElWP2bR9MDlsngx93bw
p43
aVhttp://www.ebay.com/itm/Activlab-Bcaa-Xtra-Powder-Drink-Amino-Acids-L-glutamine-LEUCINE-BCAA-EAA-/272283570222?var=&epid=529244119&hash=item3f655d902e:m:mXK-3iD1VUlCqtu4JM-NJ3g
p44
aVhttp://www.ebay.com/itm/ACTIVLAB-BCAA-XTRA-Branched-Amino-Acids-Glutamine-Leucine-NEW-FLAVOURS-/151769356394?var=&epid=1041375155&hash=item235628986a:m:m9QScsLYwqytXtAKNNz_D2Q
p45
aVhttp://www.ebay.com/itm/SCITEC-NUTRITION-AMINO-5600-ESSENTIAL-BRANCHED-CHAIN-AMINO-ACIDS-200-500-1000-/161260156163?var=&epid=1704159191&hash=item258bdab503:m:mITjey_BPXzyPgMP6_Tlt-g
p46
aVhttp://www.ebay.com/itm/BCAA-Branch-Chain-Amino-Acids-Tablets-Pills-Hardcore-Formula-Protein-Absorber-/181662855042?var=&epid=1348850345&hash=item2a4bf32f82:m:mxXr4ww6nhhpd2ecL2IGFDw
p47
aVhttp://www.ebay.com/itm/Redcon1-Breach-30-serving-BCAA-Amino-Acid-Pick-a-Flavor-FREE-SHIPPING-/252957163981?var=&epid=2069353794&hash=item3ae56c01cd:m:m2x2E4AIq0LOyD7LoA7aMMQ
p48
aVhttp://www.ebay.com/itm/Universal-Animal-Pak-Vitamin-Mineral-BCAA-Amino-Acid-Antioxidant-Complex-44-pack-/152418419498?var=&epid=1240454536&hash=item237cd8832a:m:moBG4RVog92sfB5KWzS9UHQ
p49
aVhttp://www.ebay.com/itm/2-2-lb-BRANCHED-CHAIN-AMINO-ACIDS-BCAA-FREE-FORM-1000g-PURE-KOSHER-POWDER-/260920916983?hash=item3cc0193bf7:g:~IcAAOxyqKVRhCte
p50
aVhttp://www.ebay.com/itm/ON-OPTIMUM-NUTRITION-MEGA-SIZE-BCAA-1000-400-capsules-branched-chain-amino-acids-/131885057924?epid=1053420201&hash=item1eb4f64784:g:IyYAAOSwqfNXkUFa
p51
aVhttp://www.ebay.com/itm/Biotech-BCAA-400g-verzweigtkettige-Aminosauren-/121901435460?hash=item1c61e44a44:g:AVsAAOSw-ldZaT3b
p52
aVhttp://www.ebay.com/itm/MuscleTech-PLATINUM-MULTIVITAMIN-Amino-Acid-90-Caps-/201248566969?var=&epid=691328224&hash=item2edb596eb9:m:moqzLqYlyYkcqZ16DtqKzgg
p53
aVhttp://www.ebay.com/itm/DYMATIZE-NUTRITION-BCAA-COMPLEX-2200-400-CAPLETS-branch-chained-amino-acids-/331840810048?epid=1900535957&hash=item4d4340ec40:g:jmIAAOSwMVFXHuSr
p54
aVhttp://www.ebay.com/itm/MuscleTech-Amino-Build-Fruit-Punch-BCAA-Post-Workout-Powder-30-Servings-/271608763402?hash=item3f3d24d40a:g:xPMAAOSwQItUGFnf
p55
aVhttp://www.ebay.com/itm/BCAA-High-Speed-130g-Branched-Chain-Amino-Acids-Lean-Muscle-Development-Anabolic-/321687716627?epid=1849993844&hash=item4ae6150313:g:DLUAAOSwZjJU-KZB
p56
aVhttp://www.ebay.com/itm/Optimum-Nutrition-Glutamine-1000-Amino-Acids-60-120-or-240-Capsules-/111710928084?var=&epid=710143509&hash=item1a027d7cd4:m:ma-ZHeTa73KQ967bBtIpvHg
p57
aVhttp://www.ebay.com/itm/OLIMP-Anabolic-Amino-5500-400-MEGA-CAPS-BCAA-TAURINE-vit-B6-l-arginine-acids-/222035807965?var=&epid=1305265907&hash=item33b25d8edd:m:mdeBAhGlOEnLSmZIDkkrNXg
p58
aVhttp://www.ebay.com/itm/Lifeplan-Amino-Acid-Complex-50-Tablets-Maintain-Muscle-Mass-/282257907645?epid=1205273339&hash=item41b7e1dfbd:g:W5sAAOSw-itXtaW7
p59
aVhttp://www.ebay.com/itm/Activlab-Protein-Amino-Acids-Complex-120-Caps-Muscle-Mass-/131441222462?epid=1640645574&hash=item1e9a81e33e:g:10oAAOSwVFlT9w3r
p60
aVhttp://www.ebay.com/itm/Scivation-Xtend-GO-Energy-BCAAs-30-Servings-Amino-Acids-Choose-a-Flavor-/152357910948?var=&epid=2108948942&hash=item23793d39a4:m:m7cdSTMgZfnkFfzwQyUHmkg
p61
aVhttp://www.ebay.com/itm/Real-Pharm-Amino-Rest-300-Tabs-60-Servings-BCAA-Glutamine-Maximum-Recorvery-/142431267350?hash=item212990aa16:g:3ZAAAOSwFJBZVng5
p62
aVhttp://www.ebay.com/itm/Scitec-Nutrition-BCAA-X-Essencial-BCAA-Amino-Acids-/291693365719?var=&epid=1740316128&hash=item43ea4789d7:m:m0n4kzAEd77tRDn_c_TeNIA
p63
aVhttp://www.ebay.com/itm/ON-OPTIMUM-NUTRITION-INSTANTISED-BCAA-5000-POWDER-345G-UNFLAVOURED-AMINO-ACIDS-/352054026365?epid=1138244568&hash=item51f80e207d:g:kuYAAOSw5cRZE4K8
p64
aVhttp://www.ebay.com/itm/COCKTAIL-CREATINE-AKG-ZMA-HMB-AMINO-ACIDS-STRONGEST-MUSCLE-FORMULA-/310952437410?epid=1046947566&hash=item486635a6a2:g:3bEAAOSwmLlX~fDJ
p65
aVhttp://www.ebay.com/itm/MuscleTech-Amino-Build-Next-Gen-Energised-30-Serve-BCAA-Energy-FREE-TRACKED-/122258323134?var=&epid=1062706413&hash=item1c7729f6be:m:mP1vbMCTdMOEqDYkv-qMagA
p66
aVhttp://www.ebay.com/itm/Amino-Energy-Optimum-Nutrition-30-65-Servings-ALL-FLAVORS-/111874207657?var=&hash=item1a0c38efa9:m:mVVBu9Md5avGnI-RwsnLnPA
p67
aVhttp://www.ebay.com/itm/OLIMP-BCAA-1100-MEGA-CAPS-120-CAPS-amino-acids-/351655832084?epid=1912680696&hash=item51e0522a14:g:-FAAAOSwA3dYHMML
p68
aVhttp://www.ebay.com/itm/MyProtein-BCAA-Berry-Blast-Flavour-Branch-Amino-Muscle-Strength-Power-500g-/182358404364?epid=0&hash=item2a75686d0c:g:FhIAAOSw4GVYLzFx
p69
aVhttp://www.ebay.com/itm/PhD-Nutrition-Amino-Support-/272724394628?epid=1937746925&hash=item3f7fa40284:g:thQAAOSw8GtZRurP
p70
aVhttp://www.ebay.com/itm/EVL-Nutrition-BCAA-ENERGY-Muscle-Building-Branch-Chain-Amino-Acid-Supplement-/381065161079?var=&epid=1641970477&hash=item58b940e977:m:m6RGOSTNIJQDInZwXh7YFeQ
p71
aVhttp://www.ebay.com/itm/DYMATIZE-BCAAS-COMPLEX-2200-400-capsules-Branched-Chain-Amino-Acids-/261791437178?epid=1305069640&hash=item3cf3fc517a:g:SnwAAOSwHLNZStkq
p72
aVhttp://www.ebay.com/itm/BCAA-L-Glutamine-200g-Amino-Acids-Muscle-Development-Anti-Catabolic-Recovery-/262031234769?epid=1178422769&hash=item3d024756d1:g:WHAAAOSwt7ZXo3JT
p73
aVhttp://www.ebay.com/itm/Pro-Supps-Amino-Linx-30sv-ALL-Flavors-with-fast-free-shipping-/331632981345?var=&epid=1428636336&hash=item4d36ddb561:m:mIY3S4HFb0-5CFfMY_r7NqQ
p74
aVhttp://www.ebay.com/itm/75-18-l-Weider-Amino-Blast-Mega-Forte-20-Ampullen-Aminosauren-/352023908310?epid=1305070511&hash=item51f6428fd6:g:FkcAAOSwi0RXzlei
p75
aVhttp://www.ebay.com/itm/Optimum-Nutrition-Essential-Amino-Energy-Acids-All-Sizes-Flavours-90g-270g-/122228153974?var=&epid=1576650172&hash=item1c755d9e76:m:mVRw91Z5Fet6W3WdIFrGprQ
p76
aVhttp://www.ebay.com/itm/SCITEC-NUTRITION-BCAA-XPRESS-essential-amino-acids-/351520319008?var=&epid=1275303205&hash=item51d83e6620:m:m2n1_cJEfrItL8LYgfUb1Aw
p77
aVhttp://www.ebay.com/itm/BiotechUSA-Beef-Amino-120-Tabletten-Rindfleischprotein-Aminosauren-/111915505369?epid=1234638761&hash=item1a0eaf16d9:g:5bIAAOSwJq1ZaT9U
p78
aVhttp://www.ebay.com/itm/Muscle-Pharm-BCAA-3-1-2-Amino-Acid-Complex-Lean-Muscle-240-Capsules-NEW-/281555611829?epid=710118022&hash=item418e05b0b5:g:dtMAAOxyZwpSVLiR
p79
aVhttp://www.ebay.com/itm/Cellucor-Alpha-Amino-Acids-Powder-FRUIT-PUNCH-for-Endurance-Recovery-/281897003917?epid=1453201262&hash=item41a25eeb8d:g:pPQAAOSwk1JWgzp0
p80
aVhttp://www.ebay.com/itm/Biotech-USA-BEEF-AMINO-120-Tablets-BEEF-PROTEIN-ISOLATE-HIGH-QUALITY-/272440057533?epid=1642006347&hash=item3f6eb15ebd:g:gBgAAOSwx2dYHw45
p81
aVhttp://www.ebay.com/itm/MUSCLEPHARM-BCAA-3-2-1-Amino-Acid-Formula-Leucine-3g-serv-Lean-Muscle-120caps-/152307359734?epid=1911968652&hash=item237639dff6:g:8UUAAOSwo4pYHnEf
p82
a.