(lp1
Vhttp://www.ebay.com/itm/Flowers-How-to-Draw-How-to-Draw-Janet-Whittle-Paperback-Book-9781844483-/381927815538?epid=87880891&hash=item58ecabf972:g:slcAAOSwdzVXkv3x
p2
aVhttp://www.ebay.com/itm/Exotic-Flowers-How-to-Draw-by-Janet-Whittle-Paperback-Book-9781844486366-/132187190518?epid=109129734&hash=item1ec6f874f6:g:gQ0AAOSwY3BZEk-y
p3
aVhttp://www.ebay.com/itm/AMERICAN-GODS-PP-SIGNED-12-X8-A4-PHOTO-POSTER-RICKY-WHITTLE-IAN-MCSHANE-/262976052149?epid=850185689&hash=item3d3a981bb5:g:w6gAAOSw1WJZEdNn
p4
aVhttp://www.ebay.com/itm/Jet-Frank-Whittle-and-the-Invention-of-the-Jet-Engine-Paperback-9781907472008-/351928920006?epid=87164553&hash=item51f09927c6:g:uuYAAOSwBahVKDk7
p5
aVhttp://www.ebay.com/itm/Prescription-for-Murder-The-True-Story-of-Harold-Shipman-Brian-Whittle-Jean-/361903414959?epid=86634765&hash=item54431fdeaf:g:py8AAOSwfVpYwbWY
p6
aVhttp://www.ebay.com/itm/Heyland-Whittle-Citronella-Outdoor-Candle-Bug-Repellent-Insect-Flies-Garden-/332206385465?hash=item4d590b2939:g:fF8AAOSw-3FZCwRw
p7
aVhttp://www.ebay.com/itm/Alien-Covenant-MICHAEL-FASSBENDER-Ricky-Whittle-UK-SHORTLIST-MAGAZINE-May-2017-/371939975009?hash=item5699599f61:g:ZP0AAOSwT-FZC6wP
p8
aVhttp://www.ebay.com/itm/Red-Tape-Whittle-Mens-Smart-Dress-Designer-Leather-Slip-On-Shoes-Black-/282323768627?var=&epid=2134240053&hash=item41bbced533:m:mwNLJ6QG_VEl_GhsR4HvL7g
p9
aVhttp://www.ebay.com/itm/RICKY-WHITTLE-Original-Art-Coaster-04-/321870076495?hash=item4af0f39a4f:g:JKsAAOSwFnFV~U-K
p10
aVhttp://www.ebay.com/itm/A-BC-FOOTBALL-1971-PURPLE-BACK-DYK-074-EVERTON-ALAN-WHITTLE-/332143891558?hash=item4d55519466:g:zm0AAOSwdGFYuT1d
p11
aVhttp://www.ebay.com/itm/Le-Tour-A-Century-of-the-Tour-de-France-Jeremy-Whittle-Greg-Lemond-/132249626344?hash=item1ecab126e8:g:LhsAAOSwXetZW1zl
p12
aVhttp://www.ebay.com/itm/Heyland-and-Whittle-Clementine-and-Prosecco-Soy-Candle-in-a-Tin-/262945528120?hash=item3d38c65938:g:O3gAAOSwJ4hY-OaU
p13
aVhttp://www.ebay.com/itm/Red-Tape-Whittle-Mens-Leather-Slip-On-Loafers-Shoes-Black-/401229778639?var=&hash=item5d6b288ecf:m:my3bao7YDkR5AKEFHsIhHRA
p14
aVhttp://www.ebay.com/itm/Soap-Book-to-Beard-or-Not-To-Beard-Grooming-Mens-Shaving-Heyland-Whittle-/232125622874?hash=item360bc3ea5a:g:c~4AAOSwImRYEMRT
p15
aVhttp://www.ebay.com/itm/CRYSTAL-PALACE-F-C-TEAM-PRINT-1975-TAYLOR-KEMP-SANSOM-WHITTLE-/271662124504?hash=item3f40530dd8:g:UWgAAOSwmUdUXmfm
p16
aVhttp://www.ebay.com/itm/Heyland-Whittle-Home-Candle-Earl-Grey-Soy-Candle-in-a-Tin-/262974818217?hash=item3d3a8547a9:g:-icAAOSw9OFZEP5y
p17
aVhttp://www.ebay.com/itm/FKS-1972-73-WONDERFUL-WORLD-OF-SOCCER-STARS-105-EVERTON-ALAN-WHITTLE-/181422197259?hash=item2a3d9b0a0b:g:~nEAAOxy3cJTg6SP
p18
aVhttp://www.ebay.com/itm/Ricky-Whittle-Hollyoaks-The-100-Keyring-Bag-Tag-Great-Gift-/231949613432?epid=1389313532&hash=item3601463978:g:9IMAAOSwcl1XPXip
p19
aVhttp://www.ebay.com/itm/Heyland-Whittle-Zitronengras-Ausenbereich-Kerze-Kafer-Abwehr-Insekt-Fliegen-/332206997085?hash=item4d59147e5d:g:fF8AAOSw-3FZCwRw
p20
aVhttp://www.ebay.com/itm/Ricky-Whittle-Mug-custom-printed-with-your-name-unique-unusual-gift-id2330P-/180423915330?epid=1931137828&hash=item2a021a7742:g:zNgAAOSw32lYsXLN
p21
aVhttp://www.ebay.com/itm/WHITTLE-TY-BEANIE-BABY-Style-40096-approx-7-/271894126215?hash=item3f4e271e87:g:0Y8AAOSwNSxVdIKW
p22
a.