(lp1
Vhttp://www.ebay.com/itm/Slush-N-Slurp-Slushy-Maker-/231874329333?epid=1750884688&hash=item35fcc97af5:g:PqsAAOSwv9hW4vQJ
p2
aVhttp://www.ebay.com/itm/Trabucco-Slurp-Fat-worm-Ultra-light-senko-soft-plastic-lure-50mm10-pk-free-post-/252242590026?var=&epid=1954385577&hash=item3abad4794a:m:msFcKCabRWHrAcnjrGtVH0Q
p3
aVhttp://www.ebay.com/itm/Trabucco-slurp-T-shad-Ultralight-paddletail-lures-for-perch-and-zander-/262230377711?var=&hash=item3d0e2604ef:m:m-oyDYjBgzR-9NRRYzKoRdw
p4
aVhttp://www.ebay.com/itm/Boogily-Bunnies-Slurp-Pink-8-Collectors-Plush-Gus-Fink-Rocket-USA-/291495414929?hash=item43de7b0c91:g:0uYAAOSwT6pVgs6P
p5
aVhttp://www.ebay.com/itm/Slide-and-Slurp-Scratch-and-Burp-by-Cleary-Brian-P-/310875772881?epid=92718315&hash=item4861a3d7d1:g:bq8AAOSwQJhUmFs2
p6
aVhttp://www.ebay.com/itm/Slush-N-Slurp-Slushy-Maker-/231874329333?epid=1750884688&hash=item35fcc97af5:g:PqsAAOSwv9hW4vQJ
p7
aVhttp://www.ebay.com/itm/Trabucco-Slurp-Fat-worm-Ultra-light-senko-soft-plastic-lure-50mm10-pk-free-post-/252242590026?var=&epid=1954385577&hash=item3abad4794a:m:msFcKCabRWHrAcnjrGtVH0Q
p8
aVhttp://www.ebay.com/itm/Trabucco-slurp-T-shad-Ultralight-paddletail-lures-for-perch-and-zander-/262230377711?var=&hash=item3d0e2604ef:m:m-oyDYjBgzR-9NRRYzKoRdw
p9
aVhttp://www.ebay.com/itm/Boogily-Bunnies-Slurp-Pink-8-Collectors-Plush-Gus-Fink-Rocket-USA-/291495414929?hash=item43de7b0c91:g:0uYAAOSwT6pVgs6P
p10
aVhttp://www.ebay.com/itm/Slide-and-Slurp-Scratch-and-Burp-by-Cleary-Brian-P-/310875772881?epid=92718315&hash=item4861a3d7d1:g:bq8AAOSwQJhUmFs2
p11
aVhttp://www.ebay.com/itm/Slush-N-Slurp-Slushy-Maker-/231874329333?epid=1750884688&hash=item35fcc97af5:g:PqsAAOSwv9hW4vQJ
p12
aVhttp://www.ebay.com/itm/Trabucco-Slurp-Fat-worm-Ultra-light-senko-soft-plastic-lure-50mm10-pk-free-post-/252242590026?var=&epid=1954385577&hash=item3abad4794a:m:msFcKCabRWHrAcnjrGtVH0Q
p13
aVhttp://www.ebay.com/itm/Trabucco-slurp-T-shad-Ultralight-paddletail-lures-for-perch-and-zander-/262230377711?var=&hash=item3d0e2604ef:m:m-oyDYjBgzR-9NRRYzKoRdw
p14
aVhttp://www.ebay.com/itm/Boogily-Bunnies-Slurp-Pink-8-Collectors-Plush-Gus-Fink-Rocket-USA-/291495414929?hash=item43de7b0c91:g:0uYAAOSwT6pVgs6P
p15
aVhttp://www.ebay.com/itm/Slide-and-Slurp-Scratch-and-Burp-by-Cleary-Brian-P-/310875772881?epid=92718315&hash=item4861a3d7d1:g:bq8AAOSwQJhUmFs2
p16
aVhttp://www.ebay.com/itm/Slush-N-Slurp-Slushy-Maker-/231874329333?epid=1750884688&hash=item35fcc97af5:g:PqsAAOSwv9hW4vQJ
p17
aVhttp://www.ebay.com/itm/Trabucco-Slurp-Fat-worm-Ultra-light-senko-soft-plastic-lure-50mm10-pk-free-post-/252242590026?var=&epid=1954385577&hash=item3abad4794a:m:msFcKCabRWHrAcnjrGtVH0Q
p18
aVhttp://www.ebay.com/itm/Trabucco-slurp-T-shad-Ultralight-paddletail-lures-for-perch-and-zander-/262230377711?var=&hash=item3d0e2604ef:m:m-oyDYjBgzR-9NRRYzKoRdw
p19
aVhttp://www.ebay.com/itm/Boogily-Bunnies-Slurp-Pink-8-Collectors-Plush-Gus-Fink-Rocket-USA-/291495414929?hash=item43de7b0c91:g:0uYAAOSwT6pVgs6P
p20
aVhttp://www.ebay.com/itm/Slide-and-Slurp-Scratch-and-Burp-by-Cleary-Brian-P-/310875772881?epid=92718315&hash=item4861a3d7d1:g:bq8AAOSwQJhUmFs2
p21
aVhttp://www.ebay.com/itm/Slush-N-Slurp-Slushy-Maker-/231874329333?epid=1750884688&hash=item35fcc97af5:g:PqsAAOSwv9hW4vQJ
p22
aVhttp://www.ebay.com/itm/Trabucco-Slurp-Fat-worm-Ultra-light-senko-soft-plastic-lure-50mm10-pk-free-post-/252242590026?var=&epid=1954385577&hash=item3abad4794a:m:msFcKCabRWHrAcnjrGtVH0Q
p23
aVhttp://www.ebay.com/itm/Trabucco-slurp-T-shad-Ultralight-paddletail-lures-for-perch-and-zander-/262230377711?var=&hash=item3d0e2604ef:m:m-oyDYjBgzR-9NRRYzKoRdw
p24
aVhttp://www.ebay.com/itm/Boogily-Bunnies-Slurp-Pink-8-Collectors-Plush-Gus-Fink-Rocket-USA-/291495414929?hash=item43de7b0c91:g:0uYAAOSwT6pVgs6P
p25
aVhttp://www.ebay.com/itm/Slide-and-Slurp-Scratch-and-Burp-by-Cleary-Brian-P-/310875772881?epid=92718315&hash=item4861a3d7d1:g:bq8AAOSwQJhUmFs2
p26
a.