(lp1
Vhttp://www.ebay.com/itm/TAPPA-ZUKIE-In-Dub-NEW-VINYL-LP-10-99-/391409647741?epid=1405880276&hash=item5b21d5407d:g:mwMAAOxylpNTVg3S
p2
aVhttp://www.ebay.com/itm/HORACE-ANDY-TAPPA-ZUKIE-NATTY-DREAD-A-WEH-SHE-WANT-NEW-UK12-REGGAE-/232205487334?hash=item3610868ce6:g:P6cAAOSwEK9UGboE
p3
aVhttp://www.ebay.com/itm/Tappa-Zukie-M-P-L-A-LTD-7-NEW-4-99-/391337098826?hash=item5b1d823e4a:g:xA8AAOSwuMFUl1Dl
p4
aVhttp://www.ebay.com/itm/Tappa-Zukie-M-P-L-A-2013-NEW-180-GRAM-VINYL-LP-10-99-/172162389955?hash=item2815ad97c3:g:oRcAAMXQJWZRBvFV
p5
aVhttp://www.ebay.com/itm/VARIOUS-ARTISTS-TAPPA-ZUKIE-PRODUCTIONS-ROOTSMAN-CONNECTION-NEW-VINYL-LP-10-99-/172227670856?epid=1908178170&hash=item281991b348:g:CvUAAOSwmtJXUCvY
p6
aVhttp://www.ebay.com/itm/MEDIC-BROWN-PVC-Airsoft-Paintball-tappa-/111365202311?hash=item19ede22187:g:JSQAAOxycD9TW9mI
p7
aVhttp://www.ebay.com/itm/TAPPA-ZUKIE-RAGGY-JOEY-BOY-NEW-VINYL-LP-10-99-/391472645243?epid=1307814312&hash=item5b2596847b:g:qlAAAOSw9eVXUCaZ
p8
aVhttp://www.ebay.com/itm/XADO-1-Tappa-Olio-Motore-Additivo-Trattamento-Restauro-Consente-Di-Risparmiare-/221852604907?epid=1178567227&hash=item33a77219eb:m:m5KnUfxud5sm45wuIe9pH9w
p9
aVhttp://www.ebay.com/itm/Ellesse-Barasson-Track-Bottoms-in-Navy-Blue-track-pants-tracksuit-tappa-hood-/172620945121?var=&epid=1581417992&hash=item28310296e1:m:mPGaVwHeQ58YPKNm3S8_61w
p10
aVhttp://www.ebay.com/itm/TAPPA-ZUKKIE-DUB-EM-ZUKIE-Rare-Dubs-1976-1976-NEW-VINYL-LP-10-99-/391474435621?epid=1108784562&hash=item5b25b1d625:g:WcYAAOSwLnBXUrTb
p11
a.