(lp1
Vhttp://www.ebay.com/itm/Nyssa-sylvatica-Black-Gum-or-Tupelo-superb-tree-grown-peat-free-in-5L-pot-4ft-/272593649571?hash=item3f77d8ffa3:g:DOkAAOSw4GVYTup3
p2
aVhttp://www.ebay.com/itm/Uncle-Tupelo-March-16-20-1992-1LP-VINYL-NEW-/302180879616?epid=223559312&hash=item465b624d00:g:2cUAAOSw2xRYZWCm
p3
aVhttp://www.ebay.com/itm/Railroad-station-at-Tupelo-Mississippi-MS-Arthur-Rothstein-August-1935-FSA-1-/272469299327?hash=item3f706f907f:g:zTkAAOSwo4pYPyFG
p4
aVhttp://www.ebay.com/itm/WHISKEYTOWN-T-SHIRT-Ryan-Adams-Uncle-Tupelo-Steve-Earle-Wilco-Faithess-Street-/302118013650?var=&hash=item4657a30ad2:m:mLYr22VQkl_xs3YPwtgLiUg
p5
aVhttp://www.ebay.com/itm/Seeland-Tupelo-Lady-Skeet-Vest-Waistcoat-Black-Shooting-Hunting-/172381409811?var=&epid=1456205950&hash=item2822bb9213:m:mZh_D2tWiK30EYe13nU00Fw
p6
aVhttp://www.ebay.com/itm/Liberia-2016-MNH-Elvis-Presley-His-Life-in-Stamps-Tupelo-1v-S-S-III-Celebrities-/282160314772?hash=item41b210b994:g:SEwAAOSwMgdXyu~L
p7
aVhttp://www.ebay.com/itm/Uncle-Tupelo-Uncle-Tupelo-89-93-An-Anthology-CD-New-Sealed-/322177193319?epid=1205017608&hash=item4b0341d567:g:mP4AAOSwzJ5XdlxK
p8
aVhttp://www.ebay.com/itm/ELVIS-PRESLEY-CONCERT-TUPELOS-OWN-USA-METAL-SIGN-40X30cm-ROCK-n-ROLL-KING-/371649201445?hash=item568804c525:g:H8wAAOSwQupXVfJI
p9
aVhttp://www.ebay.com/itm/MINIATURE-1-12th-Non-Playable-RECORD-ALBUM-LP-VAN-MORRISON-VARIOUS-TITLES-/301857920505?var=&hash=item46482255f9:m:m1GIdDmmAwiObC1iHg4VtFg
p10
aVhttp://www.ebay.com/itm/UNCLE-TUPELO-No-Depression-LP-NEW-180g-Vinyl-2012-Reissue-1990-Jay-Farrar-/381523312988?epid=1307814596&hash=item58d48fc15c:g:wWYAAMXQVT9TGERm
p11
aVhttp://www.ebay.com/itm/UNCLE-TUPELO-Anodyne-CD-/381497165006?epid=30653011&hash=item58d300c4ce:g:AlYAAOSweW5VcUj7
p12
aVhttp://www.ebay.com/itm/Uncle-Tupelo-March-CD-/291643508039?epid=3966615&hash=item43e74ec547:g:o1cAAOSwKIpWAgWT
p13
aVhttp://www.ebay.com/itm/JOHNNY-DEPP-DRINKS-COASTERS-FRIDGE-MAGNETS-KEYRINGS-/191762524321?var=&hash=item2ca5efe8a1:m:myQaLPLZa-5ifOkhxT25rCg
p14
aVhttp://www.ebay.com/itm/Tupelo-Honey-CD-1990-/381489089625?epid=1104969982&hash=item58d2858c59:g:VHkAAOSwtExVgw8D
p15
aVhttp://www.ebay.com/itm/Uncle-Tupelo-89-93-AN-ANTHOLOGY-CD-NEW-/351594665358?epid=1607916272&hash=item51dcacd58e:g:EvkAAOSwnH1WXyMC
p16
aVhttp://www.ebay.com/itm/Uncle-Tupelo-89-93-AN-ANTHOLOGY-CD-NEW-/301814222333?epid=1205017608&hash=item4645878dfd:g:R3kAAOSwNphWXxt1
p17
aVhttp://www.ebay.com/itm/UNCLE-TUPELO-Live-In-Chicago-94-New-CD-sealed-NEW-/161833432415?epid=1842156852&hash=item25ae06355f:g:SqkAAOSw9r1WABcu
p18
aVhttp://www.ebay.com/itm/Uncle-Tupelo-No-Depression-Legacy-Edition-NEW-2CD-/390903152878?epid=1030098129&hash=item5b03a4c0ee:g:uW4AAOSwQItT4PJz
p19
aVhttp://www.ebay.com/itm/Elvis-Presley-The-Tupelo-Mississippi-Flash-NEW-4-x-CD-/311016135567?epid=66120263&hash=item486a019b8f:g:ksAAAOSwQItTyXJ9
p20
aVhttp://www.ebay.com/itm/Genuine-Toyota-Tupelo-Alloy-Wheel-Centre-Cap-PZ406-B0670-1C-X4-/281376885358?epid=651796634&hash=item41835e8a6e:g:2OAAAOSw4CFY2PAD
p21
aVhttp://www.ebay.com/itm/Wilco-sticker-War-On-War-jeff-tweedy-Yankee-Hotel-Foxtrot-Uncle-Tupelo-/231255333818?hash=item35d7e45bba:g:LuoAAOSw1DtXKHgY
p22
aVhttp://www.ebay.com/itm/Genuine-Toyota-Tupelo-Alloy-Wheel-Centre-Cap-PZ406-B0670-1C-/360634286060?epid=652622029&hash=item53f77a7fec:g:qt0AAOSwuLZY2O~s
p23
aVhttp://www.ebay.com/itm/Jay-Farrar-Will-Johnson-Anders-Parker-Lets-Multiply-10-EP-NEW-UNCLE-TUPELO-/370783257594?hash=item56546783fa:g:PzEAAMXQ9qpRXDjd
p24
aVhttp://www.ebay.com/itm/WILCO-T-SHIRT-Uncle-Tupelo-Ryan-Adams-My-Morning-Jacket-Billy-Bragg-Pavement-/290806568839?var=&hash=item43b56c1787:m:mZtEigV21nVaRhd-Z5NAoKw
p25
aVhttp://www.ebay.com/itm/Photo-Print-Reproduction-Houses-Negro-Quarter-Of-Tupelo-Mississippi-Walker-/200833586402?var=&hash=item2ec29d54e2:m:mA6PajtRYgivF2ds9Dj5bvQ
p26
aVhttp://www.ebay.com/itm/UNCLE-TUPELO-Anodyne-CD-/381497165006?epid=30653011&hash=item58d300c4ce:g:AlYAAOSweW5VcUj7
p27
aVhttp://www.ebay.com/itm/Uncle-Tupelo-March-CD-/291643508039?epid=3966615&hash=item43e74ec547:g:o1cAAOSwKIpWAgWT
p28
aVhttp://www.ebay.com/itm/JOHNNY-DEPP-DRINKS-COASTERS-FRIDGE-MAGNETS-KEYRINGS-/191762524321?var=&hash=item2ca5efe8a1:m:myQaLPLZa-5ifOkhxT25rCg
p29
aVhttp://www.ebay.com/itm/Tupelo-Honey-CD-1990-/381489089625?epid=1104969982&hash=item58d2858c59:g:VHkAAOSwtExVgw8D
p30
aVhttp://www.ebay.com/itm/Uncle-Tupelo-89-93-AN-ANTHOLOGY-CD-NEW-/351594665358?epid=1607916272&hash=item51dcacd58e:g:EvkAAOSwnH1WXyMC
p31
aVhttp://www.ebay.com/itm/Uncle-Tupelo-89-93-AN-ANTHOLOGY-CD-NEW-/301814222333?epid=1205017608&hash=item4645878dfd:g:R3kAAOSwNphWXxt1
p32
aVhttp://www.ebay.com/itm/UNCLE-TUPELO-Live-In-Chicago-94-New-CD-sealed-NEW-/161833432415?epid=1842156852&hash=item25ae06355f:g:SqkAAOSw9r1WABcu
p33
aVhttp://www.ebay.com/itm/Uncle-Tupelo-No-Depression-Legacy-Edition-NEW-2CD-/390903152878?epid=1030098129&hash=item5b03a4c0ee:g:uW4AAOSwQItT4PJz
p34
aVhttp://www.ebay.com/itm/Elvis-Presley-The-Tupelo-Mississippi-Flash-NEW-4-x-CD-/311016135567?epid=66120263&hash=item486a019b8f:g:ksAAAOSwQItTyXJ9
p35
aVhttp://www.ebay.com/itm/Genuine-Toyota-Tupelo-Alloy-Wheel-Centre-Cap-PZ406-B0670-1C-X4-/281376885358?epid=651796634&hash=item41835e8a6e:g:2OAAAOSw4CFY2PAD
p36
aVhttp://www.ebay.com/itm/Wilco-sticker-War-On-War-jeff-tweedy-Yankee-Hotel-Foxtrot-Uncle-Tupelo-/231255333818?hash=item35d7e45bba:g:LuoAAOSw1DtXKHgY
p37
aVhttp://www.ebay.com/itm/Genuine-Toyota-Tupelo-Alloy-Wheel-Centre-Cap-PZ406-B0670-1C-/360634286060?epid=652622029&hash=item53f77a7fec:g:qt0AAOSwuLZY2O~s
p38
aVhttp://www.ebay.com/itm/Jay-Farrar-Will-Johnson-Anders-Parker-Lets-Multiply-10-EP-NEW-UNCLE-TUPELO-/370783257594?hash=item56546783fa:g:PzEAAMXQ9qpRXDjd
p39
aVhttp://www.ebay.com/itm/WILCO-T-SHIRT-Uncle-Tupelo-Ryan-Adams-My-Morning-Jacket-Billy-Bragg-Pavement-/290806568839?var=&hash=item43b56c1787:m:mZtEigV21nVaRhd-Z5NAoKw
p40
aVhttp://www.ebay.com/itm/Photo-Print-Reproduction-Houses-Negro-Quarter-Of-Tupelo-Mississippi-Walker-/200833586402?var=&hash=item2ec29d54e2:m:mA6PajtRYgivF2ds9Dj5bvQ
p41
aVhttp://www.ebay.com/itm/UNCLE-TUPELO-Anodyne-CD-/381497165006?epid=30653011&hash=item58d300c4ce:g:AlYAAOSweW5VcUj7
p42
aVhttp://www.ebay.com/itm/Uncle-Tupelo-March-CD-/291643508039?epid=3966615&hash=item43e74ec547:g:o1cAAOSwKIpWAgWT
p43
aVhttp://www.ebay.com/itm/JOHNNY-DEPP-DRINKS-COASTERS-FRIDGE-MAGNETS-KEYRINGS-/191762524321?var=&hash=item2ca5efe8a1:m:myQaLPLZa-5ifOkhxT25rCg
p44
aVhttp://www.ebay.com/itm/Tupelo-Honey-CD-1990-/381489089625?epid=1104969982&hash=item58d2858c59:g:VHkAAOSwtExVgw8D
p45
aVhttp://www.ebay.com/itm/Uncle-Tupelo-89-93-AN-ANTHOLOGY-CD-NEW-/351594665358?epid=1607916272&hash=item51dcacd58e:g:EvkAAOSwnH1WXyMC
p46
aVhttp://www.ebay.com/itm/Uncle-Tupelo-89-93-AN-ANTHOLOGY-CD-NEW-/301814222333?epid=1205017608&hash=item4645878dfd:g:R3kAAOSwNphWXxt1
p47
aVhttp://www.ebay.com/itm/UNCLE-TUPELO-Live-In-Chicago-94-New-CD-sealed-NEW-/161833432415?epid=1842156852&hash=item25ae06355f:g:SqkAAOSw9r1WABcu
p48
aVhttp://www.ebay.com/itm/Uncle-Tupelo-No-Depression-Legacy-Edition-NEW-2CD-/390903152878?epid=1030098129&hash=item5b03a4c0ee:g:uW4AAOSwQItT4PJz
p49
aVhttp://www.ebay.com/itm/Elvis-Presley-The-Tupelo-Mississippi-Flash-NEW-4-x-CD-/311016135567?epid=66120263&hash=item486a019b8f:g:ksAAAOSwQItTyXJ9
p50
aVhttp://www.ebay.com/itm/Genuine-Toyota-Tupelo-Alloy-Wheel-Centre-Cap-PZ406-B0670-1C-X4-/281376885358?epid=651796634&hash=item41835e8a6e:g:2OAAAOSw4CFY2PAD
p51
aVhttp://www.ebay.com/itm/Wilco-sticker-War-On-War-jeff-tweedy-Yankee-Hotel-Foxtrot-Uncle-Tupelo-/231255333818?hash=item35d7e45bba:g:LuoAAOSw1DtXKHgY
p52
aVhttp://www.ebay.com/itm/Genuine-Toyota-Tupelo-Alloy-Wheel-Centre-Cap-PZ406-B0670-1C-/360634286060?epid=652622029&hash=item53f77a7fec:g:qt0AAOSwuLZY2O~s
p53
aVhttp://www.ebay.com/itm/Jay-Farrar-Will-Johnson-Anders-Parker-Lets-Multiply-10-EP-NEW-UNCLE-TUPELO-/370783257594?hash=item56546783fa:g:PzEAAMXQ9qpRXDjd
p54
aVhttp://www.ebay.com/itm/WILCO-T-SHIRT-Uncle-Tupelo-Ryan-Adams-My-Morning-Jacket-Billy-Bragg-Pavement-/290806568839?var=&hash=item43b56c1787:m:mZtEigV21nVaRhd-Z5NAoKw
p55
aVhttp://www.ebay.com/itm/Photo-Print-Reproduction-Houses-Negro-Quarter-Of-Tupelo-Mississippi-Walker-/200833586402?var=&hash=item2ec29d54e2:m:mA6PajtRYgivF2ds9Dj5bvQ
p56
aVhttp://www.ebay.com/itm/UNCLE-TUPELO-Anodyne-CD-/381497165006?epid=30653011&hash=item58d300c4ce:g:AlYAAOSweW5VcUj7
p57
aVhttp://www.ebay.com/itm/Uncle-Tupelo-March-CD-/291643508039?epid=3966615&hash=item43e74ec547:g:o1cAAOSwKIpWAgWT
p58
aVhttp://www.ebay.com/itm/JOHNNY-DEPP-DRINKS-COASTERS-FRIDGE-MAGNETS-KEYRINGS-/191762524321?var=&hash=item2ca5efe8a1:m:myQaLPLZa-5ifOkhxT25rCg
p59
aVhttp://www.ebay.com/itm/Tupelo-Honey-CD-1990-/381489089625?epid=1104969982&hash=item58d2858c59:g:VHkAAOSwtExVgw8D
p60
aVhttp://www.ebay.com/itm/Uncle-Tupelo-89-93-AN-ANTHOLOGY-CD-NEW-/351594665358?epid=1607916272&hash=item51dcacd58e:g:EvkAAOSwnH1WXyMC
p61
aVhttp://www.ebay.com/itm/Uncle-Tupelo-89-93-AN-ANTHOLOGY-CD-NEW-/301814222333?epid=1205017608&hash=item4645878dfd:g:R3kAAOSwNphWXxt1
p62
aVhttp://www.ebay.com/itm/UNCLE-TUPELO-Live-In-Chicago-94-New-CD-sealed-NEW-/161833432415?epid=1842156852&hash=item25ae06355f:g:SqkAAOSw9r1WABcu
p63
aVhttp://www.ebay.com/itm/Uncle-Tupelo-No-Depression-Legacy-Edition-NEW-2CD-/390903152878?epid=1030098129&hash=item5b03a4c0ee:g:uW4AAOSwQItT4PJz
p64
aVhttp://www.ebay.com/itm/Elvis-Presley-The-Tupelo-Mississippi-Flash-NEW-4-x-CD-/311016135567?epid=66120263&hash=item486a019b8f:g:ksAAAOSwQItTyXJ9
p65
aVhttp://www.ebay.com/itm/Genuine-Toyota-Tupelo-Alloy-Wheel-Centre-Cap-PZ406-B0670-1C-X4-/281376885358?epid=651796634&hash=item41835e8a6e:g:2OAAAOSw4CFY2PAD
p66
aVhttp://www.ebay.com/itm/Wilco-sticker-War-On-War-jeff-tweedy-Yankee-Hotel-Foxtrot-Uncle-Tupelo-/231255333818?hash=item35d7e45bba:g:LuoAAOSw1DtXKHgY
p67
aVhttp://www.ebay.com/itm/Genuine-Toyota-Tupelo-Alloy-Wheel-Centre-Cap-PZ406-B0670-1C-/360634286060?epid=652622029&hash=item53f77a7fec:g:qt0AAOSwuLZY2O~s
p68
aVhttp://www.ebay.com/itm/Jay-Farrar-Will-Johnson-Anders-Parker-Lets-Multiply-10-EP-NEW-UNCLE-TUPELO-/370783257594?hash=item56546783fa:g:PzEAAMXQ9qpRXDjd
p69
aVhttp://www.ebay.com/itm/WILCO-T-SHIRT-Uncle-Tupelo-Ryan-Adams-My-Morning-Jacket-Billy-Bragg-Pavement-/290806568839?var=&hash=item43b56c1787:m:mZtEigV21nVaRhd-Z5NAoKw
p70
aVhttp://www.ebay.com/itm/Photo-Print-Reproduction-Houses-Negro-Quarter-Of-Tupelo-Mississippi-Walker-/200833586402?var=&hash=item2ec29d54e2:m:mA6PajtRYgivF2ds9Dj5bvQ
p71
aVhttp://www.ebay.com/itm/UNCLE-TUPELO-Anodyne-CD-/381497165006?epid=30653011&hash=item58d300c4ce:g:AlYAAOSweW5VcUj7
p72
aVhttp://www.ebay.com/itm/Uncle-Tupelo-March-CD-/291643508039?epid=3966615&hash=item43e74ec547:g:o1cAAOSwKIpWAgWT
p73
aVhttp://www.ebay.com/itm/JOHNNY-DEPP-DRINKS-COASTERS-FRIDGE-MAGNETS-KEYRINGS-/191762524321?var=&hash=item2ca5efe8a1:m:myQaLPLZa-5ifOkhxT25rCg
p74
aVhttp://www.ebay.com/itm/Tupelo-Honey-CD-1990-/381489089625?epid=1104969982&hash=item58d2858c59:g:VHkAAOSwtExVgw8D
p75
aVhttp://www.ebay.com/itm/Uncle-Tupelo-89-93-AN-ANTHOLOGY-CD-NEW-/351594665358?epid=1607916272&hash=item51dcacd58e:g:EvkAAOSwnH1WXyMC
p76
aVhttp://www.ebay.com/itm/Uncle-Tupelo-89-93-AN-ANTHOLOGY-CD-NEW-/301814222333?epid=1205017608&hash=item4645878dfd:g:R3kAAOSwNphWXxt1
p77
aVhttp://www.ebay.com/itm/UNCLE-TUPELO-Live-In-Chicago-94-New-CD-sealed-NEW-/161833432415?epid=1842156852&hash=item25ae06355f:g:SqkAAOSw9r1WABcu
p78
aVhttp://www.ebay.com/itm/Uncle-Tupelo-No-Depression-Legacy-Edition-NEW-2CD-/390903152878?epid=1030098129&hash=item5b03a4c0ee:g:uW4AAOSwQItT4PJz
p79
aVhttp://www.ebay.com/itm/Elvis-Presley-The-Tupelo-Mississippi-Flash-NEW-4-x-CD-/311016135567?epid=66120263&hash=item486a019b8f:g:ksAAAOSwQItTyXJ9
p80
aVhttp://www.ebay.com/itm/Genuine-Toyota-Tupelo-Alloy-Wheel-Centre-Cap-PZ406-B0670-1C-X4-/281376885358?epid=651796634&hash=item41835e8a6e:g:2OAAAOSw4CFY2PAD
p81
aVhttp://www.ebay.com/itm/Wilco-sticker-War-On-War-jeff-tweedy-Yankee-Hotel-Foxtrot-Uncle-Tupelo-/231255333818?hash=item35d7e45bba:g:LuoAAOSw1DtXKHgY
p82
aVhttp://www.ebay.com/itm/Genuine-Toyota-Tupelo-Alloy-Wheel-Centre-Cap-PZ406-B0670-1C-/360634286060?epid=652622029&hash=item53f77a7fec:g:qt0AAOSwuLZY2O~s
p83
aVhttp://www.ebay.com/itm/Jay-Farrar-Will-Johnson-Anders-Parker-Lets-Multiply-10-EP-NEW-UNCLE-TUPELO-/370783257594?hash=item56546783fa:g:PzEAAMXQ9qpRXDjd
p84
aVhttp://www.ebay.com/itm/WILCO-T-SHIRT-Uncle-Tupelo-Ryan-Adams-My-Morning-Jacket-Billy-Bragg-Pavement-/290806568839?var=&hash=item43b56c1787:m:mZtEigV21nVaRhd-Z5NAoKw
p85
aVhttp://www.ebay.com/itm/Photo-Print-Reproduction-Houses-Negro-Quarter-Of-Tupelo-Mississippi-Walker-/200833586402?var=&hash=item2ec29d54e2:m:mA6PajtRYgivF2ds9Dj5bvQ
p86
aVhttp://www.ebay.com/itm/UNCLE-TUPELO-Anodyne-CD-/381497165006?epid=30653011&hash=item58d300c4ce:g:AlYAAOSweW5VcUj7
p87
aVhttp://www.ebay.com/itm/Uncle-Tupelo-March-CD-/291643508039?epid=3966615&hash=item43e74ec547:g:o1cAAOSwKIpWAgWT
p88
aVhttp://www.ebay.com/itm/JOHNNY-DEPP-DRINKS-COASTERS-FRIDGE-MAGNETS-KEYRINGS-/191762524321?var=&hash=item2ca5efe8a1:m:myQaLPLZa-5ifOkhxT25rCg
p89
aVhttp://www.ebay.com/itm/Tupelo-Honey-CD-1990-/381489089625?epid=1104969982&hash=item58d2858c59:g:VHkAAOSwtExVgw8D
p90
aVhttp://www.ebay.com/itm/Uncle-Tupelo-89-93-AN-ANTHOLOGY-CD-NEW-/351594665358?epid=1607916272&hash=item51dcacd58e:g:EvkAAOSwnH1WXyMC
p91
aVhttp://www.ebay.com/itm/Uncle-Tupelo-89-93-AN-ANTHOLOGY-CD-NEW-/301814222333?epid=1205017608&hash=item4645878dfd:g:R3kAAOSwNphWXxt1
p92
aVhttp://www.ebay.com/itm/UNCLE-TUPELO-Live-In-Chicago-94-New-CD-sealed-NEW-/161833432415?epid=1842156852&hash=item25ae06355f:g:SqkAAOSw9r1WABcu
p93
aVhttp://www.ebay.com/itm/Uncle-Tupelo-No-Depression-Legacy-Edition-NEW-2CD-/390903152878?epid=1030098129&hash=item5b03a4c0ee:g:uW4AAOSwQItT4PJz
p94
aVhttp://www.ebay.com/itm/Elvis-Presley-The-Tupelo-Mississippi-Flash-NEW-4-x-CD-/311016135567?epid=66120263&hash=item486a019b8f:g:ksAAAOSwQItTyXJ9
p95
aVhttp://www.ebay.com/itm/Genuine-Toyota-Tupelo-Alloy-Wheel-Centre-Cap-PZ406-B0670-1C-X4-/281376885358?epid=651796634&hash=item41835e8a6e:g:2OAAAOSw4CFY2PAD
p96
aVhttp://www.ebay.com/itm/Wilco-sticker-War-On-War-jeff-tweedy-Yankee-Hotel-Foxtrot-Uncle-Tupelo-/231255333818?hash=item35d7e45bba:g:LuoAAOSw1DtXKHgY
p97
aVhttp://www.ebay.com/itm/Genuine-Toyota-Tupelo-Alloy-Wheel-Centre-Cap-PZ406-B0670-1C-/360634286060?epid=652622029&hash=item53f77a7fec:g:qt0AAOSwuLZY2O~s
p98
aVhttp://www.ebay.com/itm/Jay-Farrar-Will-Johnson-Anders-Parker-Lets-Multiply-10-EP-NEW-UNCLE-TUPELO-/370783257594?hash=item56546783fa:g:PzEAAMXQ9qpRXDjd
p99
aVhttp://www.ebay.com/itm/WILCO-T-SHIRT-Uncle-Tupelo-Ryan-Adams-My-Morning-Jacket-Billy-Bragg-Pavement-/290806568839?var=&hash=item43b56c1787:m:mZtEigV21nVaRhd-Z5NAoKw
p100
aVhttp://www.ebay.com/itm/Photo-Print-Reproduction-Houses-Negro-Quarter-Of-Tupelo-Mississippi-Walker-/200833586402?var=&hash=item2ec29d54e2:m:mA6PajtRYgivF2ds9Dj5bvQ
p101
aVhttp://www.ebay.com/itm/Uncle-Tupelo-March-CD-/291643508039?epid=3966615&hash=item43e74ec547:g:o1cAAOSwKIpWAgWT
p102
aVhttp://www.ebay.com/itm/JOHNNY-DEPP-DRINKS-COASTERS-FRIDGE-MAGNETS-KEYRINGS-/191762524321?var=&hash=item2ca5efe8a1:m:myQaLPLZa-5ifOkhxT25rCg
p103
aVhttp://www.ebay.com/itm/Tupelo-Honey-CD-1990-/381489089625?epid=1104969982&hash=item58d2858c59:g:VHkAAOSwtExVgw8D
p104
aVhttp://www.ebay.com/itm/Uncle-Tupelo-89-93-AN-ANTHOLOGY-CD-NEW-/351594665358?epid=1607916272&hash=item51dcacd58e:g:EvkAAOSwnH1WXyMC
p105
aVhttp://www.ebay.com/itm/Uncle-Tupelo-89-93-AN-ANTHOLOGY-CD-NEW-/301814222333?epid=1205017608&hash=item4645878dfd:g:R3kAAOSwNphWXxt1
p106
aVhttp://www.ebay.com/itm/UNCLE-TUPELO-Live-In-Chicago-94-New-CD-sealed-NEW-/161833432415?epid=1842156852&hash=item25ae06355f:g:SqkAAOSw9r1WABcu
p107
aVhttp://www.ebay.com/itm/Uncle-Tupelo-No-Depression-Legacy-Edition-NEW-2CD-/390903152878?epid=1030098129&hash=item5b03a4c0ee:g:uW4AAOSwQItT4PJz
p108
aVhttp://www.ebay.com/itm/Elvis-Presley-The-Tupelo-Mississippi-Flash-NEW-4-x-CD-/311016135567?epid=66120263&hash=item486a019b8f:g:ksAAAOSwQItTyXJ9
p109
aVhttp://www.ebay.com/itm/Genuine-Toyota-Tupelo-Alloy-Wheel-Centre-Cap-PZ406-B0670-1C-X4-/281376885358?epid=651796634&hash=item41835e8a6e:g:2OAAAOSw4CFY2PAD
p110
aVhttp://www.ebay.com/itm/Wilco-sticker-War-On-War-jeff-tweedy-Yankee-Hotel-Foxtrot-Uncle-Tupelo-/231255333818?hash=item35d7e45bba:g:LuoAAOSw1DtXKHgY
p111
aVhttp://www.ebay.com/itm/Genuine-Toyota-Tupelo-Alloy-Wheel-Centre-Cap-PZ406-B0670-1C-/360634286060?epid=652622029&hash=item53f77a7fec:g:qt0AAOSwuLZY2O~s
p112
aVhttp://www.ebay.com/itm/Jay-Farrar-Will-Johnson-Anders-Parker-Lets-Multiply-10-EP-NEW-UNCLE-TUPELO-/370783257594?hash=item56546783fa:g:PzEAAMXQ9qpRXDjd
p113
aVhttp://www.ebay.com/itm/WILCO-T-SHIRT-Uncle-Tupelo-Ryan-Adams-My-Morning-Jacket-Billy-Bragg-Pavement-/290806568839?var=&hash=item43b56c1787:m:mZtEigV21nVaRhd-Z5NAoKw
p114
aVhttp://www.ebay.com/itm/Photo-Print-Reproduction-Houses-Negro-Quarter-Of-Tupelo-Mississippi-Walker-/200833586402?var=&hash=item2ec29d54e2:m:mA6PajtRYgivF2ds9Dj5bvQ
p115
a.