(lp1
Vhttp://www.ebay.com/itm/The-Dedalus-Book-of-the-1960s-Turn-Off-Your-Mind-by-Gary-Lachman-9781903517703-/332062147485?epid=89534677&hash=item4d5072439d:g:8uwAAOSwo4pYUO1S
p2
aVhttp://www.ebay.com/itm/FORD-Tyre-Pressure-Control-Valve-Sensors-Bypass-Disable-Turn-Off-TPMS-Dash-Light-/152488721820?epid=863822252&hash=item2381093d9c:g:h2QAAOSwOMdZUSCJ
p3
aVhttp://www.ebay.com/itm/IT-Support-Turn-Off-And-On-Again-Funny-T-Shirt-100-Premium-Cotton-Gift-PC-/272162462974?var=&hash=item3f5e259cfe:m:m9-2U8S3Nx8YK-1HU8AWAxA
p4
aVhttp://www.ebay.com/itm/AUTEL-AL301-OBD2-CAN-Code-Reader-Diagnostic-Scan-Tool-Turn-off-warning-Light-MIL-/322503095478?hash=item4b16aeb4b6:g:1hcAAOSwkShY9Y2i
p5
aVhttp://www.ebay.com/itm/Dr-Gundrys-Diet-Evolution-Turn-Off-the-Genes-That-Are-Killing-9780307352125-/332185995188?epid=200740517&hash=item4d57d407b4:g:MGoAAOSwRUhY9LMF
p6
aVhttp://www.ebay.com/itm/Lever-Outside-Garden-Tap-1-2-Inch-Easy-Quarter-Turn-Off-On-/121719953079?hash=item1c571316b7:g:hjIAAOxy3cJTfRoo
p7
aVhttp://www.ebay.com/itm/x10-DO-NOT-TURN-OFF-Decals-safety-stickers-self-adhesive-/141838873738?epid=1188921832&hash=item210641748a:g:HBMAAOSwwE5WWIwf
p8
aVhttp://www.ebay.com/itm/Hot-12V-DC-Delay-Relay-Delay-Turn-on-Delay-Turn-off-Switch-Module-with-Timer-/322502740074?hash=item4b16a9486a:g:wTsAAOSwhRxXKy5l
p9
aVhttp://www.ebay.com/itm/Lagoon-Turn-Off-The-TV-Make-Your-Own-Cardboard-Speakers-DIY-Easy-Steps-Kids-Gift-/351685684965?epid=1363046029&hash=item51e219aee5:g:9VAAAOSwAvJW8~BH
p10
aVhttp://www.ebay.com/itm/Larry-Young-Turn-Off-The-Lights-Fuel-For-The-Fire-7-/351611831362?hash=item51ddb2c442:g:~KYAAOSwSHZWfBCm
p11
aVhttp://www.ebay.com/itm/5-x-Save-Energy-Turn-Off-Lights-Light-Switch-Stickers-Decals-7cm-x-2cm-/141659089777?epid=1162786465&hash=item20fb8a2b71:g:~JcAAOSwEeFVSkOq
p12
aVhttp://www.ebay.com/itm/Zero-Belly-The-Revolutionary-New-Plan-to-Turn-off-Your-Fat-Gene-9780345547958-/232218992356?epid=209549018&hash=item3611549ee4:g:UtUAAOSw9GhYiuDU
p13
aVhttp://www.ebay.com/itm/422-LIGHT-SWITCH-COVER-VINYL-STICKER-SKIN-PLATE-ROOM-KEEP-CALM-TURN-OFF-LIGHTS-/282448734156?hash=item41c341a7cc:g:6NcAAOSw53NZAPDk
p14
aVhttp://www.ebay.com/itm/Turn-Off-Your-Straighteners-Door-Mats-Non-Slip-Machine-Washable-Small-Rug-Cheap-/252334553364?var=&hash=item3ac04fb914:m:mxIrXLwrbRoYM0Hs4PdHglA
p15
aVhttp://www.ebay.com/itm/Floss-Rock-Star-Sweet-Dreams-LED-Kids-Night-Light-Auto-Turn-Off-Bedroom-Lamp-/371731062373?epid=1143965682&hash=item568ce5de65:g:R78AAOSwYmZXLHLb
p16
aVhttp://www.ebay.com/itm/12x-Do-Not-Turn-Off-Switch-Socket-Plug-Vinyl-Printed-Sticker-Label-/321450128306?epid=1359771427&hash=item4ad7ebb3b2:g:Pm8AAOSwwNVTs7-k
p17
aVhttp://www.ebay.com/itm/Dr-Gundrys-Diet-Evolution-Turn-Off-The-Genes-That-Are-Killing-You-And-Your-/192178689788?epid=200740517&hash=item2cbebe16fc:g:s4YAAOSwjqVZDLvl
p18
aVhttp://www.ebay.com/itm/100x200mm-TURN-OFF-ALL-MOBILE-PHONES-Stickers-/261628490225?hash=item3cea45f1f1:g:xgEAAOSw1x1UP8AO
p19
aVhttp://www.ebay.com/itm/10-x-DO-NOT-TURN-OFF-Safety-Stickers-Decals-Electrician-Electrical-Service-/282248784469?epid=2005524383&hash=item41b756aa55:g:TKEAAOSwcUBYIfCG
p20
aVhttp://www.ebay.com/itm/Lagoon-Turn-Off-The-TV-101-Things-To-Do-Fun-Activity-Game-Suggestion-Book-Gift-/371575600856?epid=1961302477&hash=item5683a1b6d8:g:DUMAAOSwP~tW6DVL
p21
aVhttp://www.ebay.com/itm/ECS-Ltd-CU71A-Alarm-Unit-4890-Lights-Controller-15-120min-Auto-Turn-Off-OM0647-/390266084667?hash=item5addabdd3b:g:-eQAAOSw0gdXTCKK
p22
aVhttp://www.ebay.com/itm/BUSINESS-SIGNS-POSTERS-A4-FIRE-HEALTH-SAFETY-COSHH-WORK-SHOP-OFFICE-FACTORY-/151033240529?var=&hash=item232a485bd1:m:mXA762RICfiJGKOvyzUIOVQ
p23
aVhttp://www.ebay.com/itm/Lagoon-Turn-Off-The-TV-Make-Your-Own-Caricature-Kit-Activity-Set-Guide-Book-Gift-/331803841692?epid=1261397617&hash=item4d410cd49c:g:zZ8AAOSwP~tW6Du7
p24
aVhttp://www.ebay.com/itm/Never-Fear-Cancer-Again-The-Revolutionary-Holistic-Solution-to-Turn-Off-Cancer-/371748771258?epid=109271526&hash=item568df415ba:g:j4kAAOSwzaJX6~nG
p25
aVhttp://www.ebay.com/itm/HEALTH-AND-SAFETY-COSHH-A4-LAMINATED-BUSINESS-SIGNS-WORK-SHOP-OFFICE-FACTORY-/151033652411?var=&hash=item232a4ea4bb:m:mHVI3-ZxI7uVOT7TFwdXuUw
p26
aVhttp://www.ebay.com/itm/4x-Please-remember-turn-off-this-light-Sticker-Vinyl-Label-Business-Factory-Home-/321450104940?epid=1859141371&hash=item4ad7eb586c:g:lAQAAOSwGzlTs7Qi
p27
aVhttp://www.ebay.com/itm/Please-Turn-Off-Tap-After-Use-Sticker-Sign-/282545733689?hash=item41c909c039:g:sMwAAOSwBLlU~u2r
p28
aVhttp://www.ebay.com/itm/Do-not-switch-off-turn-off-Stickers-x-10-Self-Adhesive-Printed-Vinyl-/142171088912?hash=item211a0ea810:g:T0IAAOSwubRXMkUj
p29
aVhttp://www.ebay.com/itm/Dr-Gundrys-Diet-Evolution-Turn-Off-the-Genes-That-Are-Killing-You-and-Your-Wa-/322425588257?epid=95869287&hash=item4b12100a21:g:y5gAAOSwdGFYpemf
p30
aVhttp://www.ebay.com/itm/HOUSEWORK-THEMED-SMILEY-SIGN-New-Wall-Hanging-Plaque-SENT-1ST-CLASS-Funny-Gift-/201050101846?var=&hash=item2ecf851856:m:mygpohf39G4l-FAFngcNvkw
p31
aVhttp://www.ebay.com/itm/100x200mm-TURN-OFF-ALL-MOBILE-PHONES-Stickers-/261628490225?hash=item3cea45f1f1:g:xgEAAOSw1x1UP8AO
p32
aVhttp://www.ebay.com/itm/DO-NOT-TURN-OFF-SIGN-IN-RIGID-PVC-WATERPROOF-/181403271510?hash=item2a3c7a4156:g:1Z8AAOxyi-ZTaj8d
p33
aVhttp://www.ebay.com/itm/The-Rosedale-Diet-Turn-off-Your-Hunger-Switch-by-Ron-Rosedale-/252656638194?epid=45591867&hash=item3ad38258f2:g:l~IAAOSwLF1X10kU
p34
aVhttp://www.ebay.com/itm/VINNINGE-AA-AAA-Battery-Charger-2-Channel-With-USB-Easy-to-Carry-Auto-Turn-Off-/252411262043?hash=item3ac4e2345b:g:3wIAAOSwmtJXUCpw
p35
aVhttp://www.ebay.com/itm/Do-not-switch-off-turn-off-Stickers-x-10-Self-Adhesive-Printed-Vinyl-/230765970191?hash=item35bab9430f:g:1lgAAOSw4GVYNsvk
p36
aVhttp://www.ebay.com/itm/Turn-Off-At-The-End-Of-The-Day-Sign-/152193592709?var=&hash=item236f71ed85:m:m9r5XcF1bzrehpWGHtgk-vA
p37
aVhttp://www.ebay.com/itm/Zero-Belly-Diet-The-Revolutionary-New-Plan-to-Turn-off-Your-Fat-Genes-and-Keep-/371378740529?epid=209549018&hash=item5677e5dd31:g:GzAAAOSw~gRVnu0Z
p38
aVhttp://www.ebay.com/itm/SIGNS-4-BUSINESS-PREMISES-HEALTH-SAFETY-FIRE-HYGIENE-WARNING-CAUTION-NO-SMOKING-/151603423998?var=&hash=item234c44aafe:m:mUJjayCJ21higSr1YItlZbw
p39
aVhttp://www.ebay.com/itm/Never-Fear-Cancer-Again-The-Revolutionary-Holistic-Solution-to-Turn-Off-Cancer-/371748771258?epid=109271526&hash=item568df415ba:g:j4kAAOSwzaJX6~nG
p40
aVhttp://www.ebay.com/itm/Turn-Off-When-Not-In-Use-health-and-safety-205-x-290mm-/262533512149?hash=item3d20377bd5:g:jpwAAOSwbsBXjgpP
p41
aVhttp://www.ebay.com/itm/Goodnight-Mind-Turn-Off-Your-Noisy-Thoughts-and-Get-a-Good-Nights-Sleep-Collee-/380729213938?epid=154739750&hash=item58a53ac3f2:g:EAgAAOxy-W9SQwr-
p42
aVhttp://www.ebay.com/itm/Turn-off-the-lights-sign-Light-Bulb-Shaped-Sign-Office-Sign-Turn-Lights-off-Sign-/162156407195?hash=item25c146699b:g:c~AAAOSw3xJXoKf1
p43
aVhttp://www.ebay.com/itm/The-Insulin-resistance-Diet-How-to-Turn-Off-Your-Bodys-Fat-making-Machine-Cher-/380579343899?epid=92007495&hash=item589c4bee1b:g:zPoAAMXQZdFRHnLT
p44
aVhttp://www.ebay.com/itm/3-4-screw-Double-Garden-Hose-Pipe-Splitter-Connector-Adaptor-Quick-Turn-Off-Tap-/290878417424?hash=item43b9b46a10:g:LbMAAOxyRhBSzX-O
p45
aVhttp://www.ebay.com/itm/porter-school-caretaker-secret-emergency-light-switch-key-brand-new-locksmith-MK-/161469184075?hash=item259850384b:g:5~gAAOxyYSdTDnv8
p46
aVhttp://www.ebay.com/itm/12-x-DO-NOT-TURN-OFF-VINYL-PRINTED-STICKERS-LABELS-FOR-SOCKET-PLUG-LIGHT-SWITCH-/371280562270?hash=item56720bc85e:g:vQQAAOSweW5VAZdj
p47
aVhttp://www.ebay.com/itm/TURN-OFF-WHEN-NOT-IN-USE-SIGN-IN-RIGID-PVC-WATERPROOF-/171478571049?hash=item27eceb5829:g:c30AAOSw7NNUKErH
p48
aVhttp://www.ebay.com/itm/Turn-Off-Mobile-Phones-Sign-150x200mm-Rigid-Plastic-Self-Adhesive-/172072416726?var=&hash=item281050b5d6:m:mWFe5N7tk0TXriTQ6FP6rIQ
p49
aVhttp://www.ebay.com/itm/BUSINESS-WORK-SHOP-PREMISES-FACTORY-ECONOMY-SIGNS-CHOOSE-FROM-60-DESIGNS-3-SIZES-/111811277208?var=&hash=item1a0878b198:m:mgRaobAE0C7VZCDoRsV8RFA
p50
aVhttp://www.ebay.com/itm/ECONOMY-SIGNS-HEALTH-SAFETY-FIRE-HYGIENE-WARNING-CAUTION-NO-SMOKING-FLATS-SHOPS-/151145583988?var=&hash=item2330fa9574:m:maZELeoVhBxFrEIBBvcQIUQ
p51
aVhttp://www.ebay.com/itm/iPad-iPhone-iCloud-Removal-Unlock-Apple-ID-info-ACTIVATION-FMI-Turn-OFF-Service-/201974766726?hash=item2f06a25c86:g:PsoAAOSw3h1ZTUCx
p52
a.