(lp1
Vhttp://www.ebay.com/itm/Simply-Sound-Lighting-Truss-Gantry-1500mm-Rigging-DJ-Disco-Lighting-Stand-/182586875528?hash=item2a83069e88:g:9d0AAOSwuMZZItW1
p2
aVhttp://www.ebay.com/itm/DuraTruss-DT-ARC-1-2-5-M-x-3-M-Truss-Archway-DT-ARC-1-Truss-/322386424436?hash=item4b0fba7274:g:ZXUAAOSwK6RZE5fT
p3
aVhttp://www.ebay.com/itm/GlobalTruss-812s-Narrow-Half-Coupler-Truss-Clamps-tc50s-aluminium-50kg-silv-/221589412733?epid=1740885245&hash=item3397c21b7d:g:CMAAAOSwrhBZBwvi
p4
aVhttp://www.ebay.com/itm/Trilite-Truss-2-Metre-Lengths-/252941817266?hash=item3ae481d5b2:g:F4sAAOSwsXFZGywV
p5
aVhttp://www.ebay.com/itm/Double-Ended-Swivel-Truss-DJ-Coupler-Light-Clamp-Silver-35mm-Tube-Max-Load-250KG-/152422308526?epid=539639562&hash=item237d13daae:g:lscAAOSw2xRYlJ4m
p6
aVhttp://www.ebay.com/itm/Mini-Cader-Clamp-Kader-MINICADER-MINICADER-kader-truss-marquee-/221803497112?hash=item33a484c698:g:L0MAAOSwHHFY~eLB
p7
aVhttp://www.ebay.com/itm/Double-Ended-Swivel-Truss-DJ-Light-Coupler-Clamp-Black-50mm-Tube-Max-Load-150KG-/162382322963?epid=539663541&hash=item25cebd9d13:g:YUAAAOSw-0xYlJ5S
p8
aVhttp://www.ebay.com/itm/Global-Truss-F24-Half-Conical-5015-for-Base-Plates-GL24BASECON-Truss-/322010198134?hash=item4af94db076:g:8AsAAOSw5UZY9La9
p9
aVhttp://www.ebay.com/itm/GlobalTruss-8x-812s-Narrow-Half-Coupler-Truss-Clamps-812S-8-Clamps-50mm-/221652962084?epid=1740885245&hash=item339b8bcb24:g:ZPoAAOSw42dZBwvv
p10
aVhttp://www.ebay.com/itm/GlobalTruss-4x-812s-Narrow-Half-Coupler-Truss-Clamps-CLAM04-Clamps-50mm-/221588495709?epid=1740885245&hash=item3397b41d5d:g:NvQAAOSwhvFZBwvm
p11
a.