(lp0
Vhttps://www.amazon.co.uk/Stipulate/dp/B01HIF8UZ6/ref=sr_1_1/261-9751601-5259257?ie=UTF8&qid=1500121695&sr=8-1&keywords=stipulate
p1
aVhttps://www.amazon.co.uk/approva-convenzioni-stipulate-Governo-Oneglia/dp/B005X5BMM2/ref=sr_1_2/261-9751601-5259257?ie=UTF8&qid=1500121695&sr=8-2&keywords=stipulate
p2
aVhttps://www.amazon.co.uk/Stipulate/dp/B0174LATXK/ref=sr_1_3/261-9751601-5259257?ie=UTF8&qid=1500121695&sr=8-3&keywords=stipulate
p3
aVhttps://www.amazon.co.uk/Zus-Zo-Paula-Van-Oest/dp/B01FYCUZU8/ref=sr_1_4/261-9751601-5259257?ie=UTF8&qid=1500121695&sr=8-4&keywords=stipulate
p4
aVhttps://www.amazon.co.uk/Buddhist-scriptures-Books-stipulates-stresses/dp/7807529571/ref=sr_1_5/261-9751601-5259257?ie=UTF8&qid=1500121695&sr=8-5&keywords=stipulate
p5
aVhttps://www.amazon.co.uk/d/Books/explain-physical-started-Mahayana-hundred-stipulates-interpretation/7807527242/ref=sr_1_6/261-9751601-5259257?ie=UTF8&qid=1500121695&sr=8-6&keywords=stipulate
p6
aVhttps://www.amazon.co.uk/state-owned-enterprises-responsibility-implementing-interpretation/dp/751192123X/ref=sr_1_7/261-9751601-5259257?ie=UTF8&qid=1500121695&sr=8-7&keywords=stipulate
p7
aVhttps://www.amazon.co.uk/SoChlor-Chlorine-Disinfectant-Tablets-NaDCC/dp/B00DEEAQ1W/ref=sr_1_8_a_it/261-9751601-5259257?ie=UTF8&qid=1500121695&sr=8-8&keywords=stipulate
p8
aVhttps://www.amazon.co.uk/Mahayana-stipulates-hundred-paperback-Chinese/dp/7309066839/ref=sr_1_9/261-9751601-5259257?ie=UTF8&qid=1500121695&sr=8-9&keywords=stipulate
p9
aVhttps://www.amazon.co.uk/Know-all-men-these-presents/dp/B0008B908O/ref=sr_1_10/261-9751601-5259257?ie=UTF8&qid=1500121695&sr=8-10&keywords=stipulate
p10
aVhttps://www.amazon.co.uk/d/Books/Guida-alle-convenzioni-internazionali-contro-doppie-imposizioni/8814073317/ref=sr_1_11/261-9751601-5259257?ie=UTF8&qid=1500121695&sr=8-11&keywords=stipulate
p11
aVhttps://www.amazon.co.uk/convenzioni-internazionali-contro-doppie-imposizioni/dp/8814049203/ref=sr_1_12/261-9751601-5259257?ie=UTF8&qid=1500121695&sr=8-12&keywords=stipulate
p12
aVhttps://www.amazon.co.uk/Everythings-Connected/dp/B072FJJRDD/ref=sr_1_13/261-9751601-5259257?ie=UTF8&qid=1500121695&sr=8-13&keywords=stipulate
p13
aVhttps://www.amazon.co.uk/d/7k/Liqui-Moly-Racing-1688-4-Stroke-Engine-W-30/B00D91Q1GO/ref=sr_1_14/261-9751601-5259257?ie=UTF8&qid=1500121695&sr=8-14&keywords=stipulate
p14
aVhttps://www.amazon.co.uk/XJLED-Spectrum-85%7E265V-Hydroponic-Lighting/dp/B016F2BN20/ref=sr_1_15/261-9751601-5259257?ie=UTF8&qid=1500121695&sr=8-15&keywords=stipulate
p15
aVhttps://www.amazon.co.uk/stipulates-Lecture-Analysis-Paperback-Chinese/dp/7806599207/ref=sr_1_16/261-9751601-5259257?ie=UTF8&qid=1500121695&sr=8-16&keywords=stipulate
p16
aVhttps://www.amazon.co.uk/OUEVA-Plant-Strip-Adapter-Spectrum/dp/B06X1F86V3/ref=sr_1_17/261-9751601-5259257?ie=UTF8&qid=1500121697&sr=8-17&keywords=stipulate
p17
aVhttps://www.amazon.co.uk/Bonlux-4-Packs-Waterproof-Flexible-Strip/dp/B019C7V5NC/ref=sr_1_18/261-9751601-5259257?ie=UTF8&qid=1500121697&sr=8-18&keywords=stipulate
p18
aVhttps://www.amazon.co.uk/XJLED-Led-Grow-Light-Corn/dp/B0166OY3YM/ref=sr_1_19/261-9751601-5259257?ie=UTF8&qid=1500121697&sr=8-19&keywords=stipulate
p19
aVhttps://www.amazon.co.uk/mountaineering-telescopic-climbing-crutches-ultra-light/dp/B06XR6J6WY/ref=sr_1_20/261-9751601-5259257?ie=UTF8&qid=1500121697&sr=8-20&keywords=stipulate
p20
aVhttps://www.amazon.co.uk/SoChlor-Chlorine-Disinfectant-Tablets-NaDCC/dp/B00SV8ODY2/ref=sr_1_21_a_it/261-9751601-5259257?ie=UTF8&qid=1500121697&sr=8-21&keywords=stipulate
p21
aVhttps://www.amazon.co.uk/d/hlm/Autobahn88-Silicone-Heater-1993-2001-Nissan-Skyline-RB25DET/B01HFUJZMG/ref=sr_1_22/261-9751601-5259257?ie=UTF8&qid=1500121697&sr=8-22&keywords=stipulate
p22
aVhttps://www.amazon.co.uk/Bavaria-BARM210-Battery-Detector-Lithium/dp/B0056HM72G/ref=sr_1_23/261-9751601-5259257?ie=UTF8&qid=1500121697&sr=8-23&keywords=stipulate
p23
aVhttps://www.amazon.co.uk/Pathonor-Spectrum-Efficient-Hydroponic-Greenhouse/dp/B06Y25HKWZ/ref=sr_1_24/261-9751601-5259257?ie=UTF8&qid=1500121697&sr=8-24&keywords=stipulate
p24
aVhttps://www.amazon.co.uk/d/7k/Liqui-Moly-Racing-1685-Synthetic-4-Stroke-Engine/B00D91Q1DM/ref=sr_1_25/261-9751601-5259257?ie=UTF8&qid=1500121697&sr=8-25&keywords=stipulate
p25
aVhttps://www.amazon.co.uk/XJLED-Generation-Waterproof-Brightness-Hydroponics/dp/B019F9LLG8/ref=sr_1_26/261-9751601-5259257?ie=UTF8&qid=1500121697&sr=8-26&keywords=stipulate
p26
aVhttps://www.amazon.co.uk/dp/B01MTO6NAJ/ref=sr_1_27/261-9751601-5259257?ie=UTF8&qid=1500121697&sr=8-27&keywords=stipulate
p27
aVhttps://www.amazon.co.uk/Derlight-Specreum-lighting-Greenhouse-Hydroponic/dp/B01BTW5TMG/ref=sr_1_28/261-9751601-5259257?ie=UTF8&qid=1500121697&sr=8-28&keywords=stipulate
p28
aVhttps://www.amazon.co.uk/XJLED-Led-Grow-Light-Greenhouses/dp/B017X4OKTW/ref=sr_1_29/261-9751601-5259257?ie=UTF8&qid=1500121697&sr=8-29&keywords=stipulate
p29
aVhttps://www.amazon.co.uk/Derlight-Vegetable-Horticulture-Greenhouse-Hydroponic/dp/B018VTD9TA/ref=sr_1_30/261-9751601-5259257?ie=UTF8&qid=1500121697&sr=8-30&keywords=stipulate
p30
aVhttps://www.amazon.co.uk/Spectrum-Hydroponic-Vegetable-Greenhouses-Lighting-x/dp/B01EHVDK2M/ref=sr_1_31/261-9751601-5259257?ie=UTF8&qid=1500121697&sr=8-31&keywords=stipulate
p31
aVhttps://www.amazon.co.uk/Bavaria-BARM230-Linkable-Detector-Battery/dp/B004YK2S5M/ref=sr_1_32/261-9751601-5259257?ie=UTF8&qid=1500121697&sr=8-32&keywords=stipulate
p32
a.