(lp0
Vhttp://www.ebay.com/itm/Magic-Tricks-Seance-book-Scott-Davis-Halloween-Themed-/151030341144?hash=item232a1c1e18:g:H7wAAOSwrddY7uUx
p1
aVhttp://www.ebay.com/itm/TRIUMPH-TRI-ACTION-Seance-dentrainement-N-SANS-ARMATURES-SOUTIEN-GORGE-SPORT-/401277681365?var=&hash=item5d6e037ed5:m:m9GCyHuiT_EZ1DCofkdyTgQ
p2
aVhttp://www.ebay.com/itm/Seance-book-Scott-Davis-/231622217237?hash=item35edc28e15:g:-oAAAOSw-CpX~N6y
p3
aVhttp://www.ebay.com/itm/Gliding-Disc-Maison-Exercice-Seance-Dentrainement-Fessier-Jambe-Bas-Gym-Fitness-/252171327801?var=&hash=item3ab6951939:m:mjL4Xq1ziIP3iNPGw1vmj7g
p4
aVhttp://www.ebay.com/itm/GYM-DE-MMA-MUSCULATION-MOTIVATION-Haut-T-Shirt-MEILLEUR-SEANCE-DENTRAINEMENT-/291836922044?var=&hash=item43f2d608bc:m:mVlvoFj3Vef1b-4Z5NmbTbw
p5
aVhttp://www.ebay.com/itm/Seance-on-a-Wet-Afternoon-Special-Edition-DVD-/282323823971?epid=53016972&hash=item41bbcfad63:g:RsUAAOSw-0xYd7c5
p6
aVhttp://www.ebay.com/itm/fonce-Samourai-HOMMES-MUSCULATION-GYM-T-Shirt-MMA-SEANCE-DENTRAINEMENT-/302261646878?var=&hash=item466032b61e:m:mcf6Vn2xMSAbZLFTw9YraOw
p7
aVhttp://www.ebay.com/itm/NORITAKE-SEANCE-16cm-TEA-PLATES-/391628383689?hash=item5b2edee5c9:g:BIgAAOSwuMZZAupQ
p8
aVhttp://www.ebay.com/itm/ALCHEMY-PLANCHETTE-OUIJA-SPIRIT-BOARD-EARRINGS-EYE-SEANCE-GOTHIC-FREE-GIFT-BOX-/172649610424?hash=item2832b7fcb8:g:xbIAAOSw~AVYwBgr
p9
aVhttp://www.ebay.com/itm/PUNKY-PINS-GOLD-OUIJA-PLANCHETTE-ENAMEL-PIN-HALLOWEEN-SEANCE-SPIRIT-BOARD-/162550788596?hash=item25d8c831f4:g:6y8AAOSwyWZZPmw4
p10
aVhttp://www.ebay.com/itm/PUNKY-PINS-GOLD-OUIJA-PLANCHETTE-ENAMEL-PIN-HALLOWEEN-SEANCE-SPIRIT-BOARD-/162550788596?hash=item25d8c831f4:g:6y8AAOSwyWZZPmw4
p11
aVhttp://www.ebay.com/itm/jamais-Give-Up-MMA-Combat-seance-dentrainement-Motivation-T-shirt-pour-hommes-/302356938507?var=&hash=item4665e0bf0b:m:mXG-y3NKefdqT0QByvsFwOA
p12
aVhttp://www.ebay.com/itm/Gym-Sport-t-Shirt-BODYBUILDING-Gym-Decontracte-seance-dentrainement-/351321183554?var=&hash=item51cc5fd542:m:mbmqrNrzru-avbs6_bQvX8g
p13
aVhttp://www.ebay.com/itm/A-Seance-at-Syds-An-Anthology-of-Modern-Acid-Folk-Haunt-Psych-9781512048674-/232083164652?epid=213390825&hash=item36093c0dec:g:dpwAAOSwNRdX2l05
p14
aVhttp://www.ebay.com/itm/Ouija-Fortune-Board-game-Planchette-Old-Bizarre-Spirit-Seance-Oracle-EVP-Ghost-/192145783421?epid=800622771&hash=item2cbcc7fa7d:g:lP8AAOSw5UZY~IbM
p15
aVhttp://www.ebay.com/itm/Ouija-Board-Necklace-Purple-Glass-Cameo-Spooky-Seance-Gothic-Gift-Idea-/252445550140?var=&hash=item3ac6ed663c:m:maSKsPVcALfd8b1HZrqsHdA
p16
aVhttp://www.ebay.com/itm/Vintage-sliver-Ouija-Board-Necklace-Antique-Style-Spirit-World-Seance-Jeweller-/272725618343?hash=item3f7fb6aea7:g:8IEAAOSwv0tVM4tg
p17
a.