(lp0
Vhttps://www.amazon.co.uk/Tideland-DVD-Jeff-Bridges/dp/B000KCHW8Q/ref=sr_1_1/259-7221246-2585813?ie=UTF8&qid=1500121206&sr=8-1&keywords=tideland
p1
aVhttps://www.amazon.co.uk/d/Amazon-Video/Tideland-Jodelle-Ferland/B00W41SR5S/ref=sr_1_2/259-7221246-2585813?ie=UTF8&qid=1500121206&sr=8-2&keywords=tideland
p2
aVhttps://www.amazon.co.uk/Tideland-Mitch-Cullin/dp/080231340X/ref=sr_1_3/259-7221246-2585813?ie=UTF8&qid=1500121206&sr=8-3&keywords=tideland
p3
aVhttps://www.amazon.co.uk/Timberland-Tidelands-Eye-REDWOOD-Size-x/dp/B01MEHXJD8/ref=sr_1_4/259-7221246-2585813?ie=UTF8&qid=1500121206&sr=8-4&keywords=tideland
p4
aVhttps://www.amazon.co.uk/Timberland-Rubber-Hammer-Tidelands-shoes-UK/dp/B06VWLZQNX/ref=sr_1_5/259-7221246-2585813?ie=UTF8&qid=1500121206&sr=8-5&keywords=tideland
p5
aVhttps://www.amazon.co.uk/d/Digital-Music/Tideland-Circa-Paleo/B005O2VGAM/ref=sr_1_6/259-7221246-2585813?ie=UTF8&qid=1500121206&sr=8-6&keywords=tideland
p6
aVhttps://www.amazon.co.uk/Erik-Viking-DVD-Tim-Robbins/dp/B00004VVSP/ref=sr_1_7/259-7221246-2585813?ie=UTF8&qid=1500121206&sr=8-7&keywords=tideland
p7
aVhttps://www.amazon.co.uk/Tidelands-Moondoggies/dp/B003WR9N8I/ref=sr_1_8/259-7221246-2585813?ie=UTF8&qid=1500121206&sr=8-8&keywords=tideland
p8
aVhttps://www.amazon.co.uk/Tideland/dp/B000V2SGKS/ref=sr_1_9/259-7221246-2585813?ie=UTF8&qid=1500121206&sr=8-9&keywords=tideland
p9
aVhttps://www.amazon.co.uk/Tidelands-Oil-Controversy-Historical-Analysis-ebook/dp/B00R1PWSBQ/ref=sr_1_10/259-7221246-2585813?ie=UTF8&qid=1500121206&sr=8-10&keywords=tideland
p10
aVhttps://www.amazon.co.uk/tideland-mondo-capovolto-dvd-Italian/dp/B00LI7UOBE/ref=sr_1_11/259-7221246-2585813?ie=UTF8&qid=1500121206&sr=8-11&keywords=tideland
p11
aVhttps://www.amazon.co.uk/Tideland-Movie-Poster-27-94-43-18/dp/B01BAEWE3K/ref=sr_1_12/259-7221246-2585813?ie=UTF8&qid=1500121206&sr=8-12&keywords=tideland
p12
aVhttps://www.amazon.co.uk/Timberland-Tidelands-STEEPLE-GREY-Size/dp/B06WLNN2GT/ref=sr_1_13/259-7221246-2585813?ie=UTF8&qid=1500121206&sr=8-13&keywords=tideland
p13
aVhttps://www.amazon.co.uk/Painting-Tidelands-Coronado-Mouse-Rectangle/dp/B00KCBWP9G/ref=sr_1_14/259-7221246-2585813?ie=UTF8&qid=1500121206&sr=8-14&keywords=tideland
p14
aVhttps://www.amazon.co.uk/TouchUpDirect-Toyota-Exact-Match-Automotive-Touch-Up/dp/B010RVY3SG/ref=sr_1_15/259-7221246-2585813?ie=UTF8&qid=1500121206&sr=8-15&keywords=tideland
p15
aVhttps://www.amazon.co.uk/Das-Panoptikum-Terry-Gilliam-Version/dp/B00KL45CQ2/ref=sr_1_16/259-7221246-2585813?ie=UTF8&qid=1500121206&sr=8-16&keywords=tideland
p16
aVhttps://www.amazon.co.uk/d/cka/David-Batchelder-Tideland-Campany/9053308563/ref=sr_1_17/259-7221246-2585813?ie=UTF8&qid=1500121209&sr=8-17&keywords=tideland
p17
aVhttps://www.amazon.co.uk/Tideland/dp/B01937MTEA/ref=sr_1_18/259-7221246-2585813?ie=UTF8&qid=1500121209&sr=8-18&keywords=tideland
p18
aVhttps://www.amazon.co.uk/Island-Brek-Taylor/dp/B00IK9B3GS/ref=sr_1_19/259-7221246-2585813?ie=UTF8&qid=1500121209&sr=8-19&keywords=tideland
p19
aVhttps://www.amazon.co.uk/Timberland-Tidelands-Eye-BLACK-Size/dp/B06XDTS2MV/ref=sr_1_20/259-7221246-2585813?ie=UTF8&qid=1500121209&sr=8-20&keywords=tideland
p20
aVhttps://www.amazon.co.uk/Terry-Gilliam-Collection-Imaginarium-Parnassus/dp/B00ZHI280A/ref=sr_1_21/259-7221246-2585813?ie=UTF8&qid=1500121209&sr=8-21&keywords=tideland
p21
aVhttps://www.amazon.co.uk/Timberland-Tidelands-Ranger-Leather-Redwood-Red-11/dp/B06X6DJKT9/ref=sr_1_22/259-7221246-2585813?ie=UTF8&qid=1500121209&sr=8-22&keywords=tideland
p22
aVhttps://www.amazon.co.uk/d/Posters/Corp-Tideland-Movie-68-58-101-60/B00V0QP8PU/ref=sr_1_23/259-7221246-2585813?ie=UTF8&qid=1500121209&sr=8-23&keywords=tideland
p23
aVhttps://www.amazon.co.uk/iiSport-Elastic-Modern-Tideland-Wetsuit/dp/B01FHHXX5O/ref=sr_1_24/259-7221246-2585813?ie=UTF8&qid=1500121209&sr=8-24&keywords=tideland
p24
aVhttps://www.amazon.co.uk/Tideland/dp/B005O2VJ4A/ref=sr_1_25/259-7221246-2585813?ie=UTF8&qid=1500121209&sr=8-25&keywords=tideland
p25
aVhttps://www.amazon.co.uk/TouchUpDirect-Toyota-Exact-Match-Automotive-Touch-Up/dp/B010RNG0TY/ref=sr_1_26/259-7221246-2585813?ie=UTF8&qid=1500121209&sr=8-26&keywords=tideland
p26
aVhttps://www.amazon.co.uk/Starman-Blu-ray-Region-Karen-Allen/dp/B073PXS1LR/ref=sr_1_27/259-7221246-2585813?ie=UTF8&qid=1500121209&sr=8-27&keywords=tideland
p27
aVhttps://www.amazon.co.uk/Delivery-Girl-Tony-McAndrew-ebook/dp/B00YHLME20/ref=sr_1_28/259-7221246-2585813?ie=UTF8&qid=1500121209&sr=8-28&keywords=tideland
p28
aVhttps://www.amazon.co.uk/Tideland-Treasure-Expanded-Mar-2013-Paperback/dp/B01B18QY5O/ref=sr_1_29/259-7221246-2585813?ie=UTF8&qid=1500121209&sr=8-29&keywords=tideland
p29
aVhttps://www.amazon.co.uk/Tideland-Original-Motion-Picture-Soundtrack/dp/B000G1TDE2/ref=sr_1_30/259-7221246-2585813?ie=UTF8&qid=1500121209&sr=8-30&keywords=tideland
p30
aVhttps://www.amazon.co.uk/Timberland-Tidelands-Eye-REDWOOD-Size/dp/B06XDV4W42/ref=sr_1_31/259-7221246-2585813?ie=UTF8&qid=1500121209&sr=8-31&keywords=tideland
p31
aVhttps://www.amazon.co.uk/Tideland-Rita-Eriksen-Dolores-Keane/dp/B001ERMKHY/ref=sr_1_32/259-7221246-2585813?ie=UTF8&qid=1500121209&sr=8-32&keywords=tideland
p32
a.