(lp0
Vhttps://www.amazon.co.uk/d/Digital-Music/Shades-Black-Kovacs/B00X3MK1MO/ref=sr_1_1/259-6377121-4613856?ie=UTF8&qid=1500121244&sr=8-1&keywords=Kovacs
p1
aVhttps://www.amazon.co.uk/Bitter-Season-Kovac-Liska-ebook/dp/B010RIJGJU/ref=sr_1_2/259-6377121-4613856?ie=UTF8&qid=1500121244&sr=8-2&keywords=Kovacs
p2
aVhttps://www.amazon.co.uk/Woken-Furies-Takeshi-Kovacs-Book-ebook/dp/B002VHI8PE/ref=sr_1_3/259-6377121-4613856?ie=UTF8&qid=1500121244&sr=8-3&keywords=Kovacs
p3
aVhttps://www.amazon.co.uk/Broken-Angels-Takeshi-Kovacs-Book-ebook/dp/B002U3CCRE/ref=sr_1_4/259-6377121-4613856?ie=UTF8&qid=1500121244&sr=8-4&keywords=Kovacs
p4
aVhttps://www.amazon.co.uk/Ashes-Kovac-Liska-Tami-Hoag-ebook/dp/B004KKXJ1S/ref=sr_1_5/259-6377121-4613856?ie=UTF8&qid=1500121244&sr=8-5&keywords=Kovacs
p5
aVhttps://www.amazon.co.uk/9th-Girl-Kovac-Liska/dp/1409109720/ref=sr_1_6/259-6377121-4613856?ie=UTF8&qid=1500121244&sr=8-6&keywords=Kovacs
p6
aVhttps://www.amazon.co.uk/Orchestral-Choral-Works-ZEMPLENI-soprano/dp/B000059QI8/ref=sr_1_7/259-6377121-4613856?ie=UTF8&qid=1500121244&sr=8-7&keywords=Kovacs
p7
aVhttps://www.amazon.co.uk/Shades-Black-Kovacs-2015-05-04/dp/B01G7O8ME8/ref=sr_1_8/259-6377121-4613856?ie=UTF8&qid=1500121244&sr=8-8&keywords=Kovacs
p8
aVhttps://www.amazon.co.uk/My-Love/dp/B00X3MK8PO/ref=sr_1_9/259-6377121-4613856?ie=UTF8&qid=1500121244&sr=8-9&keywords=Kovacs
p9
aVhttps://www.amazon.co.uk/Eastern-David-Yengibarian-Boris-Kovac/dp/B00LKRP1EM/ref=sr_1_10/259-6377121-4613856?ie=UTF8&qid=1500121244&sr=8-10&keywords=Kovacs
p10
aVhttps://www.amazon.co.uk/World-After-History-Boris-Campanella/dp/B007TOEIM6/ref=sr_1_11/259-6377121-4613856?ie=UTF8&qid=1500121244&sr=8-11&keywords=Kovacs
p11
aVhttps://www.amazon.co.uk/George-Kovacs-GKUC21-609-Under-Cabinet/dp/B01NCZW6G2/ref=sr_1_12/259-6377121-4613856?ie=UTF8&qid=1500121244&sr=8-12&keywords=Kovacs
p12
aVhttps://www.amazon.co.uk/Storm-Kovac-Slate-4629-SL/dp/B003ES47VI/ref=sr_1_13/259-6377121-4613856?ie=UTF8&qid=1500121244&sr=8-13&keywords=Kovacs
p13
aVhttps://www.amazon.co.uk/FABRIC-CORONA-CLASSIC-CLIPPER-TYPEWRITER/dp/B015IXL868/ref=sr_1_14/259-6377121-4613856?ie=UTF8&qid=1500121244&sr=8-14&keywords=Kovacs
p14
aVhttps://www.amazon.co.uk/ccq24272-g-KOVACS-Family-Name-Coasters/dp/B009PSUYMW/ref=sr_1_15/259-6377121-4613856?ie=UTF8&qid=1500121244&sr=8-15&keywords=Kovacs
p15
aVhttps://www.amazon.co.uk/d/4m8/Globe-Skate-Shoes-Kovac-Black-shoe-size/B00EXX0BU4/ref=sr_1_16/259-6377121-4613856?ie=UTF8&qid=1500121244&sr=8-16&keywords=Kovacs
p16
aVhttps://www.amazon.co.uk/Mars-Attacks-x/dp/B00IB9CHDA/ref=sr_1_17/259-6377121-4613856?ie=UTF8&qid=1500121247&sr=8-17&keywords=Kovacs
p17
aVhttps://www.amazon.co.uk/George-Kovacs-P5803-077-Jewel-Chrome/dp/B01NCBCFXR/ref=sr_1_18/259-6377121-4613856?ie=UTF8&qid=1500121247&sr=8-18&keywords=Kovacs
p18
aVhttps://www.amazon.co.uk/d/Mens-Outdoor-Clothing/Trespass-Mens-Kovac-Hat-Black-One-Size/B018HTLKP4/ref=sr_1_19/259-6377121-4613856?ie=UTF8&qid=1500121247&sr=8-19&keywords=Kovacs
p19
aVhttps://www.amazon.co.uk/Diapolo-Drawstring-Gymsack-SIEGERIN-Collection/dp/B019C7HZYU/ref=sr_1_20/259-6377121-4613856?ie=UTF8&qid=1500121247&sr=8-20&keywords=Kovacs
p20
aVhttps://www.amazon.co.uk/d/Digital-Music/Kovacs/B001EUIC5K/ref=sr_1_21/259-6377121-4613856?ie=UTF8&qid=1500121247&sr=8-21&keywords=Kovacs
p21
aVhttps://www.amazon.co.uk/LIST-READING-BITTER-SEASON-HENNESSY-ebook/dp/B01B9U2FTS/ref=sr_1_22/259-6377121-4613856?ie=UTF8&qid=1500121247&sr=8-22&keywords=Kovacs
p22
aVhttps://www.amazon.co.uk/Rippling-Images-Free-Live-Wallpaper/dp/B00A8FYU30/ref=sr_1_23/259-6377121-4613856?ie=UTF8&qid=1500121247&sr=8-23&keywords=Kovacs
p23
aVhttps://www.amazon.co.uk/Design-Artemis-Ceiling-Fan-147-cm-DIAMETER-Control/dp/B00GRVI9AO/ref=sr_1_24/259-6377121-4613856?ie=UTF8&qid=1500121247&sr=8-24&keywords=Kovacs
p24
aVhttps://www.amazon.co.uk/My-Love-Ep-Digi-Kovacs/dp/B00KYBBS10/ref=sr_1_25/259-6377121-4613856?ie=UTF8&qid=1500121247&sr=8-25&keywords=Kovacs
p25
aVhttps://www.amazon.co.uk/Stepping-Out-VHS-Robyn-Stevan/dp/B00004CLYP/ref=sr_1_26/259-6377121-4613856?ie=UTF8&qid=1500121247&sr=8-26&keywords=Kovacs
p26
aVhttps://www.amazon.co.uk/Scale-Tutor-Flute-Vol-1/dp/B00006LTMV/ref=sr_1_27/259-6377121-4613856?ie=UTF8&qid=1500121247&sr=8-27&keywords=Kovacs
p27
aVhttps://www.amazon.co.uk/d/5fn/Next-Karate-Kid-VHS-Pat-Morita/B00004CQWI/ref=sr_1_28/259-6377121-4613856?ie=UTF8&qid=1500121247&sr=8-28&keywords=Kovacs
p28
aVhttps://www.amazon.co.uk/Ancient-Mythologies-India-Persia-Babylon/dp/187265200X/ref=sr_1_29/259-6377121-4613856?ie=UTF8&qid=1500121247&sr=8-29&keywords=Kovacs
p29
aVhttps://www.amazon.co.uk/Mozart-Works-Clarinet-Wolfgang-Amadeus/dp/B00002748I/ref=sr_1_30/259-6377121-4613856?ie=UTF8&qid=1500121247&sr=8-30&keywords=Kovacs
p30
aVhttps://www.amazon.co.uk/d/Costumes/Watchmen-Mens-Rorschach-Standard-CHEST-44/B005MKY6LC/ref=sr_1_31/259-6377121-4613856?ie=UTF8&qid=1500121247&sr=8-31&keywords=Kovacs
p31
aVhttps://www.amazon.co.uk/Our-Man-Havana-Alec-Guinness/dp/B000BH2TQ0/ref=sr_1_32/259-6377121-4613856?ie=UTF8&qid=1500121247&sr=8-32&keywords=Kovacs
p32
a.