(lp1
Vhttp://www.ebay.com/itm/SHOPKEEP-Certified-Printer-Cash-Drawer-Bundle-NEW-/261875977299?hash=item3cf9064c53:g:oyUAAOSwPcJVR2OD
p2
aVhttp://www.ebay.com/itm/Star-TSP650II-TSP654IILAN-Ethernet-Thermal-Printer-Network-Shopkeep-/252997479183?hash=item3ae7d32b0f:g:Td4AAOSwAO9ZRdM9
p3
aVhttp://www.ebay.com/itm/Star-TSP650-TSP654LAN-Ethernet-Receipt-Printer-Square-Shopkeep-PayPal-Breadcrumb-/272009802938?hash=item3f550c34ba:g:kNUAAOSw14xWFgai
p4
aVhttp://www.ebay.com/itm/Heckler-Design-Stand-For-Apple-iPad-Mini-1-2-3-4-Case-POS-System-Windfall-UK-/201823760141?var=&hash=item2efda22f0d:m:mvzgA9KQiq-8HxWbp2OYs1w
p5
aVhttp://www.ebay.com/itm/Heckler-Design-Stand-For-Apple-iPad-2-3-4-Case-POS-System-Windfal-Choose-Colour-/201823758804?var=&hash=item2efda229d4:m:mvzgA9KQiq-8HxWbp2OYs1w
p6
a.